(lp0
(dp1
S'mcdod002'
p2
(lp3
g2
aS'Darnell McDonald'
p4
aI57
aI53
aI4
aI16
aI4
aI0
aI1
aI5
aI0
aI0
aI4
aI8
aI23
asS'chenb001'
p5
(lp6
g5
aS'Bruce Chen'
p7
aI2
aI2
aI1
aI1
aI0
aI0
aI0
aI0
aI0
aI0
aI0
aI1
aI1
asS'garca003'
p8
(lp9
g8
aS'Avisail Garcia'
p10
aI256
aI244
aI31
aI69
aI7
aI3
aI7
aI31
aI3
aI3
aI9
aI59
aI103
asS'torrc001'
p11
(lp12
g11
aS'Carlos Torres'
p13
aI18
aI16
aI0
aI1
aI0
aI0
aI0
aI1
aI0
aI0
aI1
aI8
aI1
asS'belta001'
p14
(lp15
g14
aS'Adrian Beltre'
p16
aI690
aI631
aI88
aI199
aI32
aI0
aI30
aI92
aI1
aI0
aI50
aI78
aI321
asS'davim005'
p17
(lp18
g17
aS'Matt Davidson'
p19
aI87
aI76
aI8
aI18
aI6
aI0
aI3
aI12
aI0
aI1
aI10
aI24
aI33
asS'scutm001'
p20
(lp21
g20
aS'Marco Scutaro'
p22
aI547
aI488
aI57
aI145
aI23
aI3
aI2
aI31
aI2
aI0
aI45
aI34
aI180
asS'gonzc001'
p23
(lp24
g23
aS'Carlos Gonzalez'
p25
aI436
aI391
aI72
aI118
aI23
aI6
aI26
aI70
aI21
aI3
aI41
aI118
aI231
asS'worlv001'
p26
(lp27
g26
aS'Vance Worley'
p28
aI1
aI1
aI0
aI0
aI0
aI0
aI0
aI0
aI0
aI0
aI0
aI0
aI0
asS'ramiw001'
p29
(lp30
g29
aS'Wilkin Ramirez'
p31
aI87
aI81
aI5
aI22
aI6
aI1
aI0
aI6
aI0
aI0
aI3
aI23
aI30
asS'culbc001'
p32
(lp33
g32
aS'Charlie Culberson'
p34
aI104
aI99
aI12
aI29
aI5
aI0
aI2
aI12
aI5
aI1
aI4
aI23
aI40
asS'aybae001'
p35
(lp36
g35
aS'Erick Aybar'
p37
aI589
aI550
aI68
aI149
aI33
aI5
aI6
aI54
aI12
aI7
aI23
aI59
aI210
asS'arrob001'
p38
(lp39
g38
aS'Bronson Arroyo'
p40
aI75
aI59
aI0
aI4
aI0
aI0
aI0
aI0
aI0
aI0
aI0
aI26
aI4
asS'tejar001'
p41
(lp42
g41
aS'Ruben Tejada'
p43
aI227
aI208
aI20
aI42
aI12
aI0
aI0
aI10
aI2
aI1
aI15
aI24
aI54
asS'kellj001'
p44
(lp45
g44
aS'Joe Kelly'
p46
aI40
aI33
aI4
aI5
aI1
aI0
aI0
aI2
aI0
aI0
aI0
aI8
aI6
asS'darnt001'
p47
(lp48
g47
aS"Travis d'Arnaud"
p49
aI112
aI99
aI4
aI20
aI3
aI0
aI1
aI5
aI0
aI0
aI12
aI21
aI26
asS'herrc001'
p50
(lp51
g50
aS'Chris Herrmann'
p52
aI178
aI157
aI16
aI32
aI7
aI0
aI4
aI18
aI0
aI1
aI18
aI49
aI51
asS'kottg001'
p53
(lp54
g53
aS'George Kottaras'
p55
aI126
aI100
aI13
aI18
aI4
aI0
aI5
aI12
aI1
aI0
aI24
aI42
aI37
asS'cainm001'
p56
(lp57
g56
aS'Matt Cain'
p58
aI64
aI52
aI0
aI5
aI0
aI0
aI0
aI2
aI0
aI0
aI2
aI22
aI5
asS'willj003'
p59
(lp60
g59
aS'Jerome Williams'
p61
aI2
aI2
aI0
aI0
aI0
aI0
aI0
aI0
aI0
aI0
aI0
aI1
aI0
asS'magim001'
p62
(lp63
g62
aS'Matt Magill'
p64
aI8
aI7
aI0
aI0
aI0
aI0
aI0
aI0
aI0
aI0
aI0
aI5
aI0
asS'hoesl001'
p65
(lp66
g65
aS'L.J. Hoes'
p67
aI184
aI170
aI24
aI48
aI7
aI2
aI1
aI10
aI7
aI1
aI12
aI35
aI62
asS'quenc001'
p68
(lp69
g68
aS'Carlos Quentin'
p70
aI320
aI276
aI42
aI76
aI21
aI0
aI13
aI44
aI0
aI0
aI31
aI55
aI136
asS'saunj001'
p71
(lp72
g71
aS'Joe Saunders'
p73
aI6
aI5
aI0
aI0
aI0
aI0
aI0
aI0
aI0
aI0
aI0
aI2
aI0
asS'nieuk001'
p74
(lp75
g74
aS'Kirk Nieuwenhuis'
p76
aI108
aI95
aI10
aI18
aI3
aI1
aI3
aI14
aI2
aI0
aI12
aI32
aI32
asS'bethc001'
p77
(lp78
g77
aS'Christian Bethancourt'
p79
aI1
aI1
aI0
aI0
aI0
aI0
aI0
aI0
aI0
aI0
aI0
aI1
aI0
asS'maldm001'
p80
(lp81
g80
aS'Martin Maldonado'
p82
aI202
aI183
aI13
aI31
aI7
aI1
aI4
aI22
aI0
aI0
aI13
aI53
aI52
asS'heywj001'
p83
(lp84
g83
aS'Jason Heyward'
p85
aI440
aI382
aI67
aI97
aI22
aI1
aI14
aI38
aI2
aI4
aI48
aI73
aI163
asS'reidr001'
p86
(lp87
g86
aS'Ryan Reid'
p88
aI1
aI1
aI0
aI0
aI0
aI0
aI0
aI0
aI0
aI0
aI0
aI0
aI0
asS'sellj002'
p89
(lp90
g89
aS'Justin Sellers'
p91
aI77
aI69
aI6
aI13
aI1
aI0
aI1
aI2
aI0
aI0
aI5
aI20
aI17
asS'sanca004'
p92
(lp93
g92
aS'Anibal Sanchez'
p94
aI7
aI4
aI0
aI0
aI0
aI0
aI0
aI0
aI0
aI0
aI1
aI4
aI0
asS'ruppc001'
p95
(lp96
g95
aS'Cameron Rupp'
p97
aI14
aI13
aI1
aI4
aI1
aI0
aI0
aI2
aI0
aI0
aI1
aI4
aI5
asS'gally001'
p98
(lp99
g98
aS'Yovani Gallardo'
p100
aI64
aI57
aI4
aI12
aI2
aI0
aI2
aI4
aI0
aI0
aI0
aI29
aI20
asS'guerm001'
p101
(lp102
g101
aS'Matt Guerrier'
p103
aI1
aI1
aI0
aI0
aI0
aI0
aI0
aI0
aI0
aI0
aI0
aI1
aI0
asS'crawc002'
p104
(lp105
g104
aS'Carl Crawford'
p106
aI469
aI435
aI62
aI123
aI30
aI3
aI6
aI31
aI15
aI4
aI28
aI66
aI177
asS'vicid001'
p107
(lp108
g107
aS'Dayan Viciedo'
p109
aI473
aI441
aI43
aI117
aI23
aI3
aI14
aI56
aI0
aI0
aI24
aI98
aI188
asS'sierm001'
p110
(lp111
g110
aS'Moises Sierra'
p112
aI122
aI107
aI11
aI31
aI13
aI1
aI1
aI13
aI1
aI0
aI14
aI29
aI49
asS'rodra001'
p113
(lp114
g113
aS'Alex Rodriguez'
p115
aI181
aI156
aI21
aI38
aI7
aI0
aI7
aI19
aI4
aI2
aI23
aI43
aI66
asS'davir003'
p116
(lp117
g116
aS'Rajai Davis'
p118
aI360
aI331
aI49
aI86
aI16
aI2
aI6
aI24
aI45
aI6
aI21
aI67
aI124
asS'raucj001'
p119
(lp120
g119
aS'Jon Rauch'
p121
aI1
aI0
aI0
aI0
aI0
aI0
aI0
aI0
aI0
aI0
aI0
aI0
aI0
asS'wilsj003'
p122
(lp123
g122
aS'Josh Wilson'
p124
aI65
aI60
aI9
aI12
aI1
aI1
aI1
aI4
aI0
aI0
aI5
aI17
aI18
asS'fulds001'
p125
(lp126
g125
aS'Sam Fuld'
p127
aI200
aI176
aI25
aI35
aI0
aI3
aI2
aI17
aI8
aI2
aI17
aI28
aI47
asS'wilsj004'
p128
(lp129
g128
aS'Justin Wilson'
p130
aI6
aI5
aI0
aI0
aI0
aI0
aI0
aI0
aI0
aI0
aI0
aI5
aI0
asS'oswar001'
p131
(lp132
g131
aS'Roy Oswalt'
p133
aI7
aI6
aI0
aI2
aI0
aI0
aI0
aI0
aI0
aI0
aI0
aI2
aI2
asS'cespy001'
p134
(lp135
g134
aS'Yoenis Cespedes'
p136
aI574
aI529
aI74
aI127
aI21
aI4
aI26
aI80
aI7
aI7
aI37
aI137
aI234
asS'flowt001'
p137
(lp138
g137
aS'Tyler Flowers'
p139
aI275
aI256
aI24
aI50
aI11
aI0
aI10
aI24
aI0
aI1
aI14
aI94
aI91
asS'strad003'
p140
(lp141
g140
aS'Dan Straily'
p142
aI3
aI2
aI0
aI0
aI0
aI0
aI0
aI0
aI0
aI0
aI1
aI2
aI0
asS'galvf001'
p143
(lp144
g143
aS'Freddy Galvis'
p145
aI222
aI205
aI13
aI48
aI5
aI4
aI6
aI19
aI1
aI0
aI13
aI45
aI79
asS'norrb001'
p146
(lp147
g146
aS'Bud Norris'
p148
aI7
aI7
aI0
aI3
aI0
aI0
aI0
aI0
aI0
aI0
aI0
aI0
aI3
asS'joycm001'
p149
(lp150
g149
aS'Matthew Joyce'
p151
aI481
aI413
aI61
aI97
aI22
aI0
aI18
aI47
aI7
aI3
aI59
aI87
aI173
asS'lopew001'
p152
(lp153
g152
aS'Wilton Lopez'
p154
aI1
aI1
aI0
aI0
aI0
aI0
aI0
aI0
aI0
aI0
aI0
aI1
aI0
asS'domim001'
p155
(lp156
g155
aS'Matt Dominguez'
p157
aI589
aI543
aI56
aI131
aI25
aI0
aI21
aI77
aI0
aI1
aI30
aI96
aI219
asS'adamm002'
p158
(lp159
g158
aS'Matt Adams'
p160
aI319
aI296
aI46
aI84
aI14
aI0
aI17
aI51
aI0
aI1
aI23
aI80
aI149
asS'rodrw002'
p161
(lp162
g161
aS'Wandy Rodriguez'
p163
aI24
aI22
aI0
aI2
aI0
aI0
aI0
aI1
aI0
aI0
aI0
aI8
aI2
asS'suzui001'
p164
(lp165
g164
aS'Ichiro Suzuki'
p166
aI555
aI520
aI57
aI136
aI15
aI3
aI7
aI35
aI20
aI4
aI26
aI63
aI178
asS'thomc002'
p167
(lp168
g167
aS'Clete Thomas'
p169
aI322
aI290
aI39
aI62
aI15
aI0
aI4
aI13
aI1
aI3
aI30
aI92
aI89
asS'ingeb001'
p170
(lp171
g170
aS'Brandon Inge'
p172
aI110
aI105
aI5
aI19
aI3
aI0
aI1
aI7
aI0
aI0
aI2
aI32
aI25
asS'jordt001'
p173
(lp174
g173
aS'Taylor Jordan'
p175
aI18
aI14
aI0
aI2
aI0
aI0
aI0
aI0
aI0
aI0
aI0
aI3
aI2
asS'quirg001'
p176
(lp177
g176
aS'Guillermo Quiroz'
p178
aI95
aI86
aI5
aI16
aI7
aI0
aI1
aI6
aI0
aI0
aI5
aI21
aI26
asS'eovan001'
p179
(lp180
g179
aS'Nathan Eovaldi'
p181
aI35
aI31
aI1
aI2
aI0
aI0
aI0
aI1
aI0
aI0
aI1
aI17
aI2
asS'morrl001'
p182
(lp183
g182
aS'Logan Morrison'
p184
aI333
aI293
aI32
aI71
aI13
aI4
aI6
aI36
aI0
aI0
aI38
aI56
aI110
asS'kontg001'
p185
(lp186
g185
aS'George Kontos'
p187
aI2
aI1
aI0
aI0
aI0
aI0
aI0
aI0
aI0
aI0
aI0
aI1
aI0
asS'hairs001'
p188
(lp189
g188
aS'Scott Hairston'
p190
aI174
aI157
aI18
aI30
aI5
aI0
aI10
aI26
aI2
aI0
aI9
aI44
aI65
asS'barnd001'
p191
(lp192
g191
aS'Darwin Barney'
p193
aI555
aI501
aI49
aI104
aI25
aI1
aI7
aI41
aI4
aI2
aI36
aI64
aI152
asS'pie-f001'
p194
(lp195
g194
aS'Felix Pie'
p196
aI31
aI29
aI5
aI4
aI1
aI0
aI0
aI2
aI1
aI2
aI2
aI13
aI5
asS'thayd001'
p197
(lp198
g197
aS'Dale Thayer'
p199
aI1
aI1
aI0
aI0
aI0
aI0
aI0
aI0
aI0
aI0
aI0
aI0
aI0
asS'webet001'
p200
(lp201
g200
aS'Thad Weber'
p202
aI3
aI3
aI0
aI0
aI0
aI0
aI0
aI0
aI0
aI0
aI0
aI0
aI0
asS'lohsk001'
p203
(lp204
g203
aS'Kyle Lohse'
p205
aI68
aI55
aI2
aI8
aI0
aI0
aI0
aI3
aI0
aI0
aI1
aI29
aI8
asS'marte002'
p206
(lp207
g206
aS'Ethan Martin'
p208
aI10
aI9
aI0
aI0
aI0
aI0
aI0
aI0
aI0
aI0
aI0
aI6
aI0
asS'gillc002'
p209
(lp210
g209
aS'Cole Gillespie'
p211
aI69
aI59
aI6
aI12
aI2
aI0
aI0
aI4
aI0
aI0
aI7
aI13
aI14
asS'mcguc001'
p212
(lp213
g212
aS'Chris McGuiness'
p214
aI34
aI34
aI0
aI6
aI1
aI0
aI0
aI1
aI0
aI0
aI0
aI13
aI7
asS'fistd001'
p215
(lp216
g215
aS'Doug Fister'
p217
aI7
aI5
aI0
aI2
aI0
aI0
aI0
aI1
aI0
aI0
aI0
aI1
aI2
asS'riosa002'
p218
(lp219
g218
aS'Alex Rios'
p220
aI662
aI616
aI83
aI171
aI33
aI4
aI18
aI81
aI42
aI7
aI41
aI108
aI266
asS'eatoa002'
p221
(lp222
g221
aS'Adam Eaton'
p223
aI277
aI250
aI40
aI63
aI10
aI4
aI3
aI22
aI5
aI2
aI17
aI44
aI90
asS'jimel002'
p224
(lp225
g224
aS'Luis Jimenez'
p226
aI110
aI104
aI15
aI27
aI6
aI0
aI0
aI5
aI0
aI2
aI2
aI28
aI33
asS'delgr001'
p227
(lp228
g227
aS'Randall Delgado'
p229
aI37
aI32
aI2
aI7
aI0
aI0
aI0
aI1
aI0
aI0
aI1
aI13
aI7
asS'lutzd001'
p230
(lp231
g230
aS'Donald Lutz'
p232
aI59
aI58
aI5
aI14
aI1
aI0
aI1
aI8
aI2
aI0
aI1
aI14
aI18
asS'harvm001'
p233
(lp234
g233
aS'Matt Harvey'
p235
aI64
aI58
aI2
aI5
aI2
aI0
aI0
aI2
aI0
aI0
aI1
aI27
aI7
asS'dendm001'
p236
(lp237
g236
aS'Matt den Dekker'
p238
aI63
aI58
aI7
aI12
aI1
aI0
aI1
aI6
aI4
aI1
aI4
aI23
aI16
asS'puntn001'
p239
(lp240
g239
aS'Nick Punto'
p241
aI335
aI294
aI34
aI75
aI15
aI0
aI2
aI21
aI3
aI3
aI33
aI67
aI96
asS'utlec001'
p242
(lp243
g242
aS'Chase Utley'
p244
aI531
aI476
aI73
aI135
aI25
aI6
aI18
aI69
aI8
aI3
aI45
aI79
aI226
asS'schoj001'
p245
(lp246
g245
aS'Jonathan Schoop'
p247
aI15
aI14
aI5
aI4
aI0
aI0
aI1
aI1
aI0
aI0
aI1
aI2
aI7
asS'hundn001'
p248
(lp249
g248
aS'Nick Hundley'
p250
aI408
aI373
aI35
aI87
aI19
aI0
aI13
aI44
aI1
aI0
aI26
aI98
aI145
asS'lutzz001'
p251
(lp252
g251
aS'Zach Lutz'
p253
aI26
aI20
aI2
aI6
aI2
aI0
aI0
aI2
aI0
aI0
aI6
aI6
aI8
asS'monej001'
p254
(lp255
g254
aS'Johnny Monell'
p256
aI9
aI8
aI2
aI1
aI0
aI0
aI0
aI1
aI0
aI0
aI0
aI3
aI1
asS'frazt001'
p257
(lp258
g257
aS'Todd Frazier'
p259
aI600
aI531
aI63
aI124
aI29
aI3
aI19
aI73
aI6
aI5
aI50
aI125
aI216
asS'wised001'
p260
(lp261
g260
aS'Dewayne Wise'
p262
aI66
aI64
aI6
aI15
aI3
aI0
aI1
aI3
aI1
aI1
aI2
aI14
aI21
asS'navad001'
p263
(lp264
g263
aS'Dioner Navarro'
p265
aI266
aI240
aI31
aI72
aI7
aI0
aI13
aI34
aI0
aI1
aI23
aI36
aI118
asS'navad002'
p266
(lp267
g266
aS'Daniel Nava'
p268
aI536
aI458
aI77
aI139
aI29
aI0
aI12
aI66
aI0
aI2
aI51
aI93
aI204
asS'carrj001'
p269
(lp270
g269
aS'Jamey Carroll'
p271
aI249
aI227
aI26
aI48
aI9
aI0
aI0
aI11
aI2
aI1
aI17
aI39
aI57
asS'avilm001'
p272
(lp273
g272
aS'Mike Aviles'
p274
aI394
aI361
aI54
aI91
aI15
aI0
aI9
aI46
aI8
aI5
aI15
aI41
aI133
asS'watst001'
p275
(lp276
g275
aS'Tony Watson'
p277
aI3
aI1
aI0
aI0
aI0
aI0
aI0
aI0
aI0
aI0
aI0
aI1
aI0
asS'teagt001'
p278
(lp279
g278
aS'Taylor Teagarden'
p280
aI62
aI60
aI3
aI10
aI2
aI0
aI2
aI5
aI0
aI1
aI1
aI18
aI18
asS'youkk001'
p281
(lp282
g281
aS'Kevin Youkilis'
p283
aI118
aI105
aI12
aI23
aI7
aI0
aI2
aI8
aI0
aI0
aI8
aI31
aI36
asS'susds001'
p284
(lp285
g284
aS'Steve Susdorf'
p286
aI7
aI7
aI1
aI1
aI1
aI0
aI0
aI0
aI0
aI0
aI0
aI1
aI2
asS'byrdm001'
p287
(lp288
g287
aS'Marlon Byrd'
p289
aI579
aI532
aI75
aI155
aI35
aI5
aI24
aI88
aI2
aI4
aI31
aI144
aI272
asS'guzmj005'
p290
(lp291
g290
aS'Jesus Guzman'
p292
aI318
aI288
aI33
aI65
aI17
aI0
aI9
aI35
aI3
aI0
aI27
aI79
aI109
asS'gonzm004'
p293
(lp294
g293
aS'Miguel Gonzalez'
p295
aI13
aI12
aI0
aI2
aI0
aI0
aI0
aI0
aI0
aI0
aI0
aI4
aI2
asS'descd001'
p296
(lp297
g296
aS'Daniel Descalso'
p298
aI358
aI328
aI43
aI78
aI25
aI1
aI5
aI43
aI6
aI3
aI22
aI56
aI120
asS'garcl005'
p299
(lp300
g299
aS'Luis Garcia'
p301
aI2
aI2
aI0
aI0
aI0
aI0
aI0
aI0
aI0
aI0
aI0
aI1
aI0
asS'garcl004'
p302
(lp303
g302
aS'Leury Garcia'
p304
aI111
aI101
aI10
aI20
aI1
aI1
aI0
aI2
aI7
aI2
aI7
aI34
aI23
asS'parej002'
p305
(lp306
g305
aS'Jimmy Paredes'
p307
aI135
aI125
aI8
aI24
aI4
aI0
aI1
aI10
aI4
aI4
aI6
aI44
aI31
asS'stasm001'
p308
(lp309
g308
aS'Max Stassi'
p310
aI8
aI7
aI0
aI2
aI0
aI0
aI0
aI1
aI0
aI0
aI0
aI2
aI2
asS'carsm001'
p311
(lp312
g311
aS'Matt Carson'
p313
aI13
aI11
aI5
aI7
aI0
aI0
aI1
aI3
aI3
aI0
aI1
aI1
aI10
asS'hamib001'
p314
(lp315
g314
aS'Billy Hamilton'
p316
aI22
aI19
aI9
aI7
aI2
aI0
aI0
aI1
aI13
aI1
aI2
aI4
aI9
asS'gutif001'
p317
(lp318
g317
aS'Franklin Gutierrez'
p319
aI151
aI145
aI18
aI36
aI7
aI0
aI10
aI24
aI3
aI1
aI5
aI43
aI73
asS'rossc001'
p320
(lp321
g320
aS'Cody Ross'
p322
aI351
aI317
aI33
aI88
aI17
aI1
aI8
aI38
aI3
aI2
aI25
aI50
aI131
asS'quino001'
p323
(lp324
g323
aS'Omar Quintanilla'
p325
aI359
aI315
aI28
aI70
aI9
aI2
aI2
aI21
aI2
aI0
aI38
aI70
aI89
asS'mchuc001'
p326
(lp327
g326
aS'Collin McHugh'
p328
aI6
aI6
aI0
aI1
aI0
aI0
aI0
aI0
aI0
aI0
aI0
aI2
aI1
asS'nelsj004'
p329
(lp330
g329
aS'Jimmy Nelson'
p331
aI2
aI2
aI0
aI0
aI0
aI0
aI0
aI0
aI0
aI0
aI0
aI2
aI0
asS'carpm001'
p332
(lp333
g332
aS'Mike Carp'
p334
aI243
aI216
aI34
aI64
aI18
aI2
aI9
aI43
aI1
aI0
aI22
aI67
aI113
asS'iglej001'
p335
(lp336
g335
aS'Jose Iglesias'
p337
aI382
aI350
aI39
aI106
aI16
aI2
aI3
aI29
aI5
aI2
aI15
aI60
aI135
asS'carpm002'
p338
(lp339
g338
aS'Matt Carpenter'
p340
aI717
aI626
aI126
aI199
aI55
aI7
aI11
aI78
aI3
aI3
aI72
aI98
aI301
asS'handb001'
p341
(lp342
g341
aS'Brad Hand'
p343
aI4
aI4
aI0
aI0
aI0
aI0
aI0
aI0
aI0
aI0
aI0
aI2
aI0
asS'marcs001'
p344
(lp345
g344
aS'Shaun Marcum'
p346
aI27
aI22
aI0
aI3
aI1
aI0
aI0
aI0
aI0
aI0
aI0
aI5
aI4
asS'detwr001'
p347
(lp348
g347
aS'Ross Detwiler'
p349
aI25
aI22
aI1
aI2
aI0
aI0
aI0
aI0
aI0
aI0
aI1
aI17
aI2
asS'chisl001'
p350
(lp351
g350
aS'Lonnie Chisenhall'
p352
aI308
aI289
aI30
aI65
aI17
aI0
aI11
aI36
aI1
aI0
aI16
aI56
aI115
asS'casta003'
p353
(lp354
g353
aS'Alex Castellanos'
p355
aI18
aI18
aI2
aI3
aI1
aI0
aI1
aI1
aI0
aI0
aI0
aI5
aI7
asS'robeb003'
p356
(lp357
g356
aS'Brian Roberts'
p358
aI296
aI265
aI33
aI66
aI12
aI1
aI8
aI39
aI3
aI1
aI26
aI44
aI104
asS'howar001'
p359
(lp360
g359
aS'Ryan Howard'
p361
aI317
aI286
aI34
aI76
aI20
aI2
aI11
aI43
aI0
aI0
aI23
aI95
aI133
asS'lincb001'
p362
(lp363
g362
aS'Brad Lincoln'
p364
aI1
aI1
aI0
aI0
aI0
aI0
aI0
aI0
aI0
aI0
aI0
aI0
aI0
asS'flynb001'
p365
(lp366
g365
aS'Brian Flynn'
p367
aI6
aI5
aI0
aI2
aI0
aI0
aI0
aI0
aI0
aI0
aI0
aI2
aI2
asS'diams001'
p368
(lp369
g368
aS'Scott Diamond'
p370
aI7
aI7
aI0
aI1
aI0
aI0
aI0
aI0
aI0
aI0
aI0
aI3
aI1
asS'smits002'
p371
(lp372
g371
aS'Seth Smith'
p373
aI410
aI368
aI49
aI93
aI27
aI0
aI8
aI40
aI0
aI0
aI39
aI94
aI144
asS'hilla001'
p374
(lp375
g374
aS'Aaron Hill'
p376
aI362
aI327
aI45
aI95
aI21
aI1
aI11
aI41
aI1
aI4
aI29
aI48
aI151
asS'pomed001'
p377
(lp378
g377
aS'Drew Pomeranz'
p379
aI4
aI3
aI0
aI0
aI0
aI0
aI0
aI0
aI0
aI0
aI0
aI1
aI0
asS'betew001'
p380
(lp381
g380
aS'Wilson Betemit'
p382
aI10
aI10
aI0
aI0
aI0
aI0
aI0
aI0
aI0
aI0
aI0
aI3
aI0
asS'alvaj003'
p383
(lp384
g383
aS'Jose Alvarez'
p385
aI2
aI1
aI0
aI0
aI0
aI0
aI0
aI0
aI0
aI0
aI1
aI0
aI0
asS'brigr001'
p386
(lp387
g386
aS'Reid Brignac'
p388
aI98
aI92
aI5
aI17
aI4
aI0
aI1
aI6
aI0
aI0
aI4
aI30
aI24
asS'niesj001'
p389
(lp390
g389
aS'Jon Niese'
p391
aI45
aI39
aI6
aI8
aI2
aI0
aI0
aI4
aI0
aI0
aI4
aI17
aI10
asS'simoa001'
p392
(lp393
g392
aS'Alfredo Simon'
p394
aI7
aI7
aI0
aI1
aI0
aI0
aI0
aI0
aI0
aI0
aI0
aI4
aI1
asS'nolar001'
p395
(lp396
g395
aS'Ricky Nolasco'
p397
aI64
aI50
aI3
aI6
aI2
aI0
aI0
aI1
aI0
aI0
aI6
aI24
aI8
asS'pachj001'
p398
(lp399
g398
aS'Jordan Pacheco'
p400
aI262
aI247
aI23
aI59
aI15
aI0
aI1
aI22
aI0
aI0
aI10
aI38
aI77
asS'maxwj002'
p401
(lp402
g401
aS'Justin Maxwell'
p403
aI262
aI234
aI35
aI59
aI16
aI3
aI7
aI25
aI6
aI2
aI23
aI78
aI102
asS'linct001'
p404
(lp405
g404
aS'Tim Lincecum'
p406
aI67
aI57
aI3
aI6
aI0
aI1
aI0
aI1
aI0
aI0
aI3
aI34
aI8
asS'herrj002'
p407
(lp408
g407
aS'Jonathan Herrera'
p409
aI215
aI195
aI16
aI57
aI7
aI2
aI1
aI16
aI3
aI2
aI14
aI24
aI71
asS'mckem001'
p410
(lp411
g410
aS'Michael McKenry'
p412
aI122
aI115
aI9
aI25
aI6
aI0
aI3
aI14
aI0
aI0
aI5
aI24
aI40
asS'fowld001'
p413
(lp414
g413
aS'Dexter Fowler'
p415
aI492
aI415
aI71
aI109
aI18
aI3
aI12
aI42
aI19
aI9
aI65
aI105
aI169
asS'cahit001'
p416
(lp417
g416
aS'Trevor Cahill'
p418
aI53
aI49
aI2
aI4
aI1
aI1
aI0
aI5
aI0
aI0
aI0
aI20
aI7
asS'millc001'
p419
(lp420
g419
aS'Corky Miller'
p421
aI41
aI35
aI2
aI9
aI5
aI0
aI0
aI8
aI0
aI0
aI5
aI6
aI14
asS'solad001'
p422
(lp423
g422
aS'Donovan Solano'
p424
aI395
aI361
aI33
aI90
aI13
aI1
aI3
aI34
aI3
aI1
aI23
aI57
aI114
asS'bauet001'
p425
(lp426
g425
aS'Trevor Bauer'
p427
aI1
aI1
aI0
aI0
aI0
aI0
aI0
aI0
aI0
aI0
aI0
aI1
aI0
asS'pastt001'
p428
(lp429
g428
aS'Tyler Pastornicky'
p430
aI33
aI30
aI5
aI9
aI1
aI0
aI0
aI0
aI0
aI0
aI1
aI5
aI10
asS'arenj001'
p431
(lp432
g431
aS'J.P. Arencibia'
p433
aI497
aI474
aI45
aI92
aI18
aI0
aI21
aI55
aI0
aI2
aI18
aI148
aI173
asS'wootr001'
p434
(lp435
g434
aS'Rob Wooten'
p436
aI1
aI1
aI0
aI0
aI0
aI0
aI0
aI0
aI0
aI0
aI0
aI1
aI0
asS'soria001'
p437
(lp438
g437
aS'Alfonso Soriano'
p439
aI626
aI581
aI84
aI148
aI32
aI1
aI34
aI101
aI18
aI9
aI36
aI156
aI284
asS'cuetj001'
p440
(lp441
g440
aS'Johnny Cueto'
p442
aI22
aI20
aI1
aI3
aI0
aI0
aI0
aI1
aI0
aI0
aI0
aI5
aI3
asS'stamc001'
p443
(lp444
g443
aS'Craig Stammen'
p445
aI6
aI5
aI0
aI0
aI0
aI0
aI0
aI0
aI0
aI0
aI1
aI2
aI0
asS'younm003'
p446
(lp447
g446
aS'Michael Young'
p448
aI565
aI519
aI52
aI145
aI26
aI5
aI8
aI46
aI1
aI0
aI43
aI83
aI205
asS'hestj001'
p449
(lp450
g449
aS'John Hester'
p451
aI1
aI0
aI1
aI0
aI0
aI0
aI0
aI0
aI0
aI0
aI1
aI0
aI0
asS'pradm001'
p452
(lp453
g452
aS'Martin Prado'
p454
aI664
aI609
aI70
aI172
aI36
aI2
aI14
aI82
aI3
aI5
aI47
aI53
aI254
asS'leakm001'
p455
(lp456
g455
aS'Mike Leake'
p457
aI69
aI63
aI8
aI12
aI2
aI1
aI0
aI2
aI0
aI0
aI2
aI19
aI16
asS'lonej001'
p458
(lp459
g458
aS'James Loney'
p460
aI598
aI549
aI54
aI164
aI33
aI0
aI13
aI75
aI3
aI1
aI44
aI77
aI236
asS'lombs002'
p461
(lp462
g461
aS'Steve Lombardozzi'
p463
aI307
aI290
aI25
aI75
aI15
aI1
aI2
aI22
aI4
aI3
aI8
aI34
aI98
asS'johnr009'
p464
(lp465
g464
aS'Rob Johnson'
p466
aI38
aI35
aI2
aI6
aI1
aI1
aI0
aI2
aI0
aI0
aI3
aI6
aI9
asS'johnr008'
p467
(lp468
g467
aS'Reed Johnson'
p469
aI136
aI123
aI13
aI30
aI7
aI1
aI1
aI11
aI0
aI0
aI6
aI32
aI42
asS'westj001'
p470
(lp471
g470
aS'Jake Westbrook'
p472
aI42
aI34
aI5
aI6
aI2
aI0
aI0
aI4
aI1
aI0
aI4
aI12
aI8
asS'kinsi001'
p473
(lp474
g473
aS'Ian Kinsler'
p475
aI614
aI545
aI85
aI151
aI31
aI2
aI13
aI72
aI15
aI11
aI51
aI59
aI225
asS'prinj001'
p476
(lp477
g476
aS'Josh Prince'
p478
aI9
aI8
aI3
aI1
aI1
aI0
aI0
aI0
aI0
aI0
aI1
aI1
aI2
asS'donaj001'
p479
(lp480
g479
aS'Josh Donaldson'
p481
aI668
aI579
aI89
aI174
aI37
aI3
aI24
aI93
aI5
aI2
aI76
aI110
aI289
asS'withc001'
p482
(lp483
g482
aS'Chris Withrow'
p484
aI2
aI1
aI0
aI0
aI0
aI0
aI0
aI0
aI0
aI0
aI0
aI1
aI0
asS'hawpb001'
p485
(lp486
g485
aS'Brad Hawpe'
p487
aI32
aI27
aI2
aI5
aI0
aI0
aI0
aI2
aI0
aI0
aI5
aI14
aI5
asS'pillk001'
p488
(lp489
g488
aS'Kevin Pillar'
p490
aI110
aI102
aI11
aI21
aI4
aI0
aI3
aI13
aI0
aI1
aI4
aI29
aI34
asS'weekj001'
p491
(lp492
g491
aS'Jemile Weeks'
p493
aI9
aI9
aI3
aI1
aI0
aI0
aI0
aI0
aI0
aI0
aI0
aI5
aI1
asS'hughj001'
p494
(lp495
g494
aS'Jared Hughes'
p496
aI2
aI2
aI0
aI0
aI0
aI0
aI0
aI0
aI0
aI0
aI0
aI2
aI0
asS'machj002'
p497
(lp498
g497
aS'Jean Machi'
p499
aI1
aI1
aI0
aI0
aI0
aI0
aI0
aI0
aI0
aI0
aI0
aI1
aI0
asS'hardj003'
p500
(lp501
g500
aS'J.J. Hardy'
p502
aI644
aI601
aI66
aI158
aI27
aI0
aI25
aI76
aI2
aI1
aI38
aI73
aI260
asS'stubd001'
p503
(lp504
g503
aS'Drew Stubbs'
p505
aI481
aI430
aI59
aI100
aI21
aI2
aI10
aI45
aI17
aI2
aI44
aI141
aI155
asS'cruzt002'
p506
(lp507
g506
aS'Tony Cruz'
p508
aI129
aI123
aI13
aI25
aI6
aI1
aI1
aI13
aI0
aI0
aI4
aI25
aI36
asS'valac001'
p509
(lp510
g509
aS'Chris Valaika'
p511
aI70
aI64
aI4
aI14
aI5
aI0
aI1
aI9
aI0
aI0
aI3
aI16
aI22
asS'markn001'
p512
(lp513
g512
aS'Nick Markakis'
p514
aI700
aI634
aI89
aI172
aI24
aI0
aI10
aI59
aI1
aI2
aI55
aI76
aI226
asS'waina001'
p515
(lp516
g515
aS'Adam Wainwright'
p517
aI81
aI71
aI4
aI15
aI4
aI0
aI0
aI6
aI0
aI0
aI0
aI23
aI19
asS'harpb003'
p518
(lp519
g518
aS'Bryce Harper'
p520
aI497
aI424
aI71
aI116
aI24
aI3
aI20
aI58
aI11
aI4
aI61
aI94
aI206
asS'beckg001'
p521
(lp522
g521
aS'Gordon Beckham'
p523
aI408
aI371
aI46
aI99
aI22
aI1
aI5
aI24
aI5
aI1
aI28
aI56
aI138
asS'mortc003'
p524
(lp525
g524
aS'Clayton Mortensen'
p526
aI1
aI1
aI0
aI0
aI0
aI0
aI0
aI0
aI0
aI0
aI0
aI1
aI0
asS'mortc002'
p527
(lp528
g527
aS'Charlie Morton'
p529
aI38
aI36
aI1
aI5
aI0
aI0
aI0
aI1
aI0
aI0
aI0
aI11
aI5
asS'trumm001'
p530
(lp531
g530
aS'Mark Trumbo'
p532
aI678
aI620
aI85
aI145
aI30
aI2
aI34
aI100
aI5
aI2
aI54
aI184
aI281
asS'sotog001'
p533
(lp534
g533
aS'Geovany Soto'
p535
aI184
aI163
aI20
aI40
aI9
aI0
aI9
aI22
aI1
aI2
aI20
aI60
aI76
asS'suzuk001'
p536
(lp537
g536
aS'Kurt Suzuki'
p538
aI316
aI285
aI25
aI66
aI13
aI1
aI5
aI32
aI2
aI0
aI22
aI35
aI96
asS'scotl001'
p539
(lp540
g539
aS'Luke Scott'
p541
aI291
aI253
aI27
aI61
aI13
aI2
aI9
aI40
aI1
aI1
aI30
aI63
aI105
asS'redmt002'
p542
(lp543
g542
aS'Todd Redmond'
p544
aI4
aI3
aI1
aI0
aI0
aI0
aI0
aI0
aI0
aI0
aI1
aI1
aI0
asS'mossb001'
p545
(lp546
g545
aS'Brandon Moss'
p547
aI505
aI446
aI73
aI114
aI23
aI3
aI30
aI87
aI4
aI2
aI50
aI140
aI233
asS'dietd001'
p548
(lp549
g548
aS'Derek Dietrich'
p550
aI233
aI215
aI32
aI46
aI10
aI2
aI9
aI23
aI1
aI0
aI11
aI56
aI87
asS'ackld001'
p551
(lp552
g551
aS'Dustin Ackley'
p553
aI427
aI384
aI40
aI97
aI18
aI2
aI4
aI31
aI2
aI3
aI37
aI72
aI131
asS'simma001'
p554
(lp555
g554
aS'Andrelton Simmons'
p556
aI658
aI606
aI76
aI150
aI27
aI6
aI17
aI59
aI6
aI5
aI40
aI55
aI240
asS'bussn001'
p557
(lp558
g557
aS'Nick Buss'
p559
aI20
aI19
aI0
aI2
aI0
aI0
aI0
aI0
aI0
aI0
aI1
aI1
aI2
asS'mastj001'
p560
(lp561
g560
aS'Justin Masterson'
p562
aI2
aI2
aI0
aI1
aI0
aI0
aI0
aI0
aI0
aI0
aI0
aI0
aI1
asS'lairb001'
p563
(lp564
g563
aS'Brandon Laird'
p565
aI76
aI71
aI7
aI12
aI3
aI0
aI5
aI11
aI0
aI0
aI3
aI26
aI30
asS'pears001'
p566
(lp567
g566
aS'Steve Pearce'
p568
aI138
aI119
aI14
aI31
aI7
aI0
aI4
aI13
aI1
aI0
aI15
aI25
aI50
asS'forsl001'
p569
(lp570
g569
aS'Logan Forsythe'
p571
aI243
aI220
aI22
aI47
aI6
aI1
aI6
aI19
aI6
aI1
aI19
aI54
aI73
asS'sandp001'
p572
(lp573
g572
aS'Pablo Sandoval'
p574
aI584
aI525
aI52
aI146
aI27
aI2
aI14
aI79
aI0
aI0
aI47
aI79
aI219
asS'wrigw001'
p575
(lp576
g575
aS'Wesley Wright'
p577
aI1
aI1
aI0
aI0
aI0
aI0
aI0
aI0
aI0
aI0
aI0
aI1
aI0
asS'ramie004'
p578
(lp579
g578
aS'Erasmo Ramirez'
p580
aI1
aI1
aI0
aI0
aI0
aI0
aI0
aI0
aI0
aI0
aI0
aI0
aI0
asS'mesam001'
p581
(lp582
g581
aS'Melky Mesa'
p583
aI14
aI13
aI2
aI5
aI2
aI0
aI0
aI1
aI0
aI1
aI1
aI2
aI7
asS'sancj002'
p584
(lp585
g584
aS'Jonathan Sanchez'
p586
aI6
aI5
aI1
aI0
aI0
aI0
aI0
aI0
aI0
aI0
aI1
aI4
aI0
asS'andeb005'
p587
(lp588
g587
aS'Bryan Anderson'
p589
aI19
aI18
aI1
aI1
aI1
aI0
aI0
aI2
aI0
aI0
aI1
aI5
aI2
asS'fuenr001'
p590
(lp591
g590
aS'Reymond Fuentes'
p592
aI36
aI33
aI4
aI5
aI0
aI0
aI0
aI1
aI3
aI0
aI3
aI16
aI5
asS'rober002'
p593
(lp594
g593
aS'Ryan Roberts'
p595
aI173
aI162
aI15
aI40
aI6
aI0
aI5
aI17
aI0
aI2
aI11
aI39
aI61
asS'billc001'
p596
(lp597
g596
aS'Chad Billingsley'
p598
aI5
aI3
aI0
aI0
aI0
aI0
aI0
aI0
aI0
aI0
aI0
aI3
aI0
asS'peguc001'
p599
(lp600
g599
aS'Carlos Peguero'
p601
aI7
aI6
aI1
aI2
aI0
aI0
aI1
aI1
aI1
aI0
aI1
aI2
aI5
asS'rosaa001'
p602
(lp603
g602
aS'Adam Rosales'
p604
aI166
aI147
aI15
aI28
aI5
aI0
aI5
aI12
aI0
aI0
aI10
aI34
aI48
asS'mansj001'
p605
(lp606
g605
aS'Jeff Manship'
p607
aI7
aI7
aI0
aI0
aI0
aI0
aI0
aI0
aI0
aI0
aI0
aI2
aI0
asS'marts002'
p608
(lp609
g608
aS'Starling Marte'
p610
aI566
aI510
aI83
aI143
aI26
aI10
aI12
aI35
aI41
aI15
aI25
aI138
aI225
asS'semim001'
p611
(lp612
g611
aS'Marcus Semien'
p613
aI71
aI69
aI7
aI18
aI4
aI0
aI2
aI7
aI2
aI2
aI1
aI22
aI28
asS'elmoj001'
p614
(lp615
g614
aS'Jake Elmore'
p616
aI136
aI120
aI16
aI29
aI4
aI0
aI2
aI6
aI1
aI6
aI13
aI20
aI39
asS'green001'
p617
(lp618
g617
aS'Nick Green'
p619
aI65
aI55
aI4
aI13
aI2
aI0
aI1
aI6
aI0
aI0
aI3
aI14
aI18
asS'mainj001'
p620
(lp621
g620
aS'John Maine'
p622
aI1
aI0
aI0
aI0
aI0
aI0
aI0
aI0
aI0
aI0
aI0
aI0
aI0
asS'mccab002'
p623
(lp624
g623
aS'Brian McCann'
p625
aI402
aI356
aI43
aI91
aI13
aI0
aI20
aI57
aI0
aI1
aI39
aI66
aI164
asS'kelld001'
p626
(lp627
g626
aS'Don Kelly'
p628
aI251
aI216
aI33
aI48
aI6
aI1
aI6
aI23
aI2
aI0
aI27
aI28
aI74
asS'mccab001'
p629
(lp630
g629
aS'Brandon McCarthy'
p631
aI42
aI37
aI0
aI1
aI0
aI0
aI0
aI0
aI0
aI0
aI3
aI15
aI1
asS'davik003'
p632
(lp633
g632
aS'Khris Davis'
p634
aI153
aI136
aI27
aI38
aI10
aI0
aI11
aI27
aI3
aI0
aI11
aI34
aI81
asS'rizza001'
p635
(lp636
g635
aS'Anthony Rizzo'
p637
aI690
aI606
aI71
aI141
aI40
aI2
aI23
aI80
aI6
aI5
aI76
aI127
aI254
asS'beltc001'
p638
(lp639
g638
aS'Carlos Beltran'
p640
aI600
aI554
aI79
aI164
aI30
aI3
aI24
aI84
aI2
aI1
aI38
aI90
aI272
asS'laffa001'
p641
(lp642
g641
aS'Aaron Laffey'
p643
aI3
aI3
aI0
aI0
aI0
aI0
aI0
aI0
aI0
aI0
aI0
aI1
aI0
asS'terdj001'
p644
(lp645
g644
aS'Joey Terdoslavich'
p646
aI92
aI79
aI11
aI17
aI4
aI0
aI0
aI4
aI1
aI0
aI12
aI24
aI21
asS'parrg001'
p647
(lp648
g647
aS'Gerardo Parra'
p649
aI663
aI601
aI79
aI161
aI43
aI4
aI10
aI48
aI10
aI10
aI48
aI100
aI242
asS'erlir001'
p650
(lp651
g650
aS'Robbie Erlin'
p652
aI19
aI16
aI0
aI1
aI0
aI0
aI0
aI1
aI0
aI0
aI1
aI5
aI1
asS'goinr001'
p653
(lp654
g653
aS'Ryan Goins'
p655
aI121
aI119
aI11
aI30
aI5
aI0
aI2
aI8
aI0
aI0
aI2
aI28
aI41
asS'mcdoj004'
p656
(lp657
g656
aS'James McDonald'
p658
aI12
aI11
aI2
aI3
aI0
aI0
aI0
aI0
aI0
aI0
aI1
aI5
aI3
asS'bettc001'
p659
(lp660
g659
aS'Chad Bettis'
p661
aI14
aI11
aI0
aI0
aI0
aI0
aI0
aI0
aI0
aI0
aI0
aI4
aI0
asS'cabra002'
p662
(lp663
g662
aS'Asdrubal Cabrera'
p664
aI562
aI508
aI66
aI123
aI35
aI2
aI14
aI64
aI9
aI3
aI35
aI114
aI204
asS'mcdoj003'
p665
(lp666
g665
aS'John McDonald'
p667
aI77
aI69
aI8
aI8
aI1
aI0
aI1
aI4
aI0
aI0
aI6
aI16
aI12
asS'langr002'
p668
(lp669
g668
aS'Ryan Langerhans'
p670
aI13
aI11
aI3
aI3
aI0
aI0
aI0
aI0
aI1
aI0
aI2
aI2
aI3
asS'moreb001'
p671
(lp672
g671
aS'Brent Morel'
p673
aI30
aI25
aI3
aI5
aI0
aI0
aI0
aI1
aI1
aI1
aI5
aI7
aI5
asS'mousm001'
p674
(lp675
g674
aS'Mike Moustakas'
p676
aI514
aI472
aI42
aI110
aI26
aI0
aI12
aI42
aI2
aI4
aI32
aI83
aI172
asS'brucj001'
p677
(lp678
g677
aS'Jay Bruce'
p679
aI697
aI626
aI89
aI164
aI43
aI1
aI30
aI109
aI7
aI3
aI63
aI185
aI299
asS'schin001'
p680
(lp681
g680
aS'Nate Schierholtz'
p682
aI503
aI462
aI56
aI116
aI32
aI3
aI21
aI68
aI6
aI3
aI29
aI94
aI217
asS'nealt001'
p683
(lp684
g683
aS'Thomas Neal'
p685
aI17
aI15
aI1
aI2
aI0
aI0
aI0
aI0
aI0
aI0
aI1
aI4
aI2
asS'buckj001'
p686
(lp687
g686
aS'John Buck'
p688
aI431
aI392
aI39
aI87
aI11
aI0
aI15
aI62
aI2
aI1
aI29
aI104
aI143
asS'wortd001'
p689
(lp690
g689
aS'Danny Worth'
p691
aI2
aI2
aI0
aI0
aI0
aI0
aI0
aI0
aI0
aI0
aI0
aI1
aI0
asS'harrj002'
p692
(lp693
g692
aS'Josh Harrison'
p694
aI95
aI88
aI10
aI22
aI1
aI2
aI3
aI14
aI2
aI0
aI2
aI10
aI36
asS'gatte001'
p695
(lp696
g695
aS'Evan Gattis'
p697
aI382
aI354
aI44
aI86
aI21
aI0
aI21
aI65
aI0
aI0
aI21
aI81
aI170
asS'thort001'
p698
(lp699
g698
aS'Tyler Thornburg'
p700
aI18
aI16
aI0
aI0
aI0
aI0
aI0
aI0
aI0
aI0
aI0
aI8
aI0
asS'kickm001'
p701
(lp702
g701
aS'Mike Kickham'
p703
aI6
aI6
aI0
aI1
aI1
aI0
aI0
aI0
aI0
aI0
aI0
aI1
aI2
asS'hinse001'
p704
(lp705
g704
aS'Eric Hinske'
p706
aI58
aI52
aI2
aI9
aI3
aI0
aI1
aI6
aI0
aI0
aI6
aI17
aI15
asS'santh001'
p707
(lp708
g707
aS'Hector Santiago'
p709
aI6
aI4
aI0
aI0
aI0
aI0
aI0
aI0
aI0
aI0
aI0
aI1
aI0
asS'zunim001'
p710
(lp711
g710
aS'Mike Zunino'
p712
aI193
aI173
aI22
aI37
aI5
aI0
aI5
aI14
aI1
aI0
aI16
aI49
aI57
asS'floyg001'
p713
(lp714
g713
aS'Gavin Floyd'
p715
aI2
aI2
aI0
aI0
aI0
aI0
aI0
aI0
aI0
aI0
aI0
aI2
aI0
asS'sizes001'
p716
(lp717
g716
aS'Scott Sizemore'
p718
aI6
aI6
aI0
aI1
aI1
aI0
aI0
aI0
aI0
aI0
aI0
aI2
aI2
asS'krate001'
p719
(lp720
g719
aS'Erik Kratz'
p721
aI218
aI197
aI21
aI42
aI7
aI0
aI9
aI26
aI0
aI0
aI18
aI45
aI76
asS'slowk001'
p722
(lp723
g722
aS'Kevin Slowey'
p724
aI28
aI21
aI1
aI1
aI0
aI0
aI0
aI0
aI0
aI0
aI2
aI12
aI1
asS'tovaw001'
p725
(lp726
g725
aS'Wilfredo Tovar'
p727
aI19
aI15
aI1
aI3
aI0
aI0
aI0
aI2
aI1
aI0
aI1
aI3
aI3
asS'sucrj001'
p728
(lp729
g728
aS'Jesus Sucre'
p730
aI29
aI26
aI1
aI5
aI0
aI0
aI0
aI3
aI0
aI0
aI2
aI1
aI5
asS'holab001'
p731
(lp732
g731
aS'Bryan Holaday'
p733
aI33
aI27
aI8
aI8
aI1
aI0
aI1
aI2
aI0
aI0
aI2
aI3
aI12
asS'escoa003'
p734
(lp735
g734
aS'Alcides Escobar'
p736
aI642
aI607
aI57
aI142
aI20
aI4
aI4
aI52
aI22
aI0
aI19
aI84
aI182
asS'mujie001'
p737
(lp738
g737
aS'Edward Mujica'
p739
aI2
aI2
aI0
aI0
aI0
aI0
aI0
aI0
aI0
aI0
aI0
aI2
aI0
asS'bondj001'
p740
(lp741
g740
aS'Jeremy Bonderman'
p742
aI2
aI2
aI0
aI0
aI0
aI0
aI0
aI0
aI0
aI0
aI0
aI2
aI0
asS'davic003'
p743
(lp744
g743
aS'Chris Davis'
p745
aI673
aI584
aI103
aI167
aI42
aI1
aI53
aI138
aI4
aI1
aI72
aI199
aI370
asS'arrij001'
p746
(lp747
g746
aS'Jake Arrieta'
p748
aI19
aI15
aI0
aI2
aI0
aI0
aI0
aI2
aI0
aI0
aI0
aI10
aI2
asS'rodrp001'
p749
(lp750
g749
aS'Paco Rodriguez'
p751
aI1
aI1
aI0
aI0
aI0
aI0
aI0
aI0
aI0
aI0
aI0
aI1
aI0
asS'hollm001'
p752
(lp753
g752
aS'Matt Holliday'
p754
aI602
aI520
aI103
aI156
aI31
aI1
aI22
aI94
aI6
aI1
aI69
aI86
aI255
asS'bautj002'
p755
(lp756
g755
aS'Jose Bautista'
p757
aI528
aI452
aI82
aI117
aI24
aI0
aI28
aI73
aI7
aI2
aI69
aI84
aI225
asS'tillc001'
p758
(lp759
g758
aS'Chris Tillman'
p760
aI7
aI5
aI0
aI0
aI0
aI0
aI0
aI0
aI0
aI0
aI0
aI1
aI0
asS'penac001'
p761
(lp762
g761
aS'Carlos Pena'
p763
aI328
aI280
aI38
aI58
aI13
aI1
aI8
aI25
aI1
aI3
aI43
aI92
aI97
asS'giavj001'
p764
(lp765
g764
aS'Johnny Giavotella'
p766
aI48
aI41
aI4
aI9
aI3
aI0
aI0
aI4
aI0
aI0
aI5
aI4
aI12
asS'calhk001'
p767
(lp768
g767
aS'Kole Calhoun'
p769
aI222
aI195
aI29
aI55
aI7
aI2
aI8
aI32
aI2
aI2
aI21
aI41
aI90
asS'cartc002'
p770
(lp771
g770
aS'Chris Carter'
p772
aI585
aI506
aI64
aI113
aI24
aI2
aI29
aI82
aI2
aI0
aI70
aI212
aI228
asS'flahr001'
p773
(lp774
g773
aS'Ryan Flaherty'
p775
aI271
aI246
aI28
aI55
aI11
aI0
aI10
aI27
aI2
aI0
aI19
aI62
aI96
asS'handd001'
p776
(lp777
g776
aS'Donovan Hand'
p778
aI14
aI11
aI0
aI1
aI0
aI0
aI0
aI0
aI0
aI0
aI0
aI3
aI1
asS'gee-d001'
p779
(lp780
g779
aS'Dillon Gee'
p781
aI71
aI60
aI0
aI8
aI0
aI1
aI0
aI4
aI0
aI0
aI3
aI30
aI10
asS'valbl001'
p782
(lp783
g782
aS'Luis Valbuena'
p784
aI391
aI331
aI34
aI72
aI15
aI1
aI12
aI37
aI1
aI4
aI53
aI63
aI125
asS'vanss001'
p785
(lp786
g785
aS'Scott Van Slyke'
p787
aI152
aI129
aI13
aI31
aI8
aI0
aI7
aI19
aI1
aI1
aI20
aI37
aI60
asS'recka001'
p788
(lp789
g788
aS'Anthony Recker'
p790
aI151
aI135
aI17
aI29
aI7
aI0
aI6
aI19
aI0
aI1
aI13
aI49
aI54
asS'josec001'
p791
(lp792
g791
aS'Corban Joseph'
p793
aI7
aI6
aI1
aI1
aI1
aI0
aI0
aI0
aI0
aI0
aI1
aI1
aI2
asS'weekr001'
p794
(lp795
g794
aS'Rickie Weeks'
p796
aI399
aI350
aI40
aI73
aI20
aI1
aI10
aI24
aI7
aI3
aI40
aI105
aI125
asS'phegj001'
p797
(lp798
g797
aS'Josh Phegley'
p799
aI213
aI204
aI14
aI42
aI7
aI0
aI4
aI22
aI2
aI0
aI5
aI41
aI61
asS'wheez001'
p800
(lp801
g800
aS'Zack Wheeler'
p802
aI34
aI30
aI1
aI4
aI1
aI0
aI0
aI2
aI0
aI0
aI1
aI13
aI5
asS'gentc001'
p803
(lp804
g803
aS'Craig Gentry'
p805
aI287
aI246
aI39
aI69
aI12
aI4
aI2
aI22
aI24
aI3
aI29
aI46
aI95
asS'choos001'
p806
(lp807
g806
aS'Shin-Soo Choo'
p808
aI712
aI569
aI107
aI162
aI34
aI2
aI21
aI54
aI20
aI11
aI112
aI133
aI263
asS'moraf001'
p809
(lp810
g809
aS'Franklin Morales'
p811
aI2
aI2
aI0
aI0
aI0
aI0
aI0
aI0
aI0
aI0
aI0
aI2
aI0
asS'loe-k001'
p812
(lp813
g812
aS'Kameron Loe'
p814
aI1
aI1
aI0
aI0
aI0
aI0
aI0
aI0
aI0
aI0
aI0
aI0
aI0
asS'carpd001'
p815
(lp816
g815
aS'David Carpenter'
p817
aI4
aI3
aI0
aI0
aI0
aI0
aI0
aI0
aI0
aI0
aI0
aI1
aI0
asS'davii001'
p818
(lp819
g818
aS'Ike Davis'
p820
aI377
aI317
aI37
aI65
aI14
aI0
aI9
aI33
aI4
aI0
aI57
aI101
aI106
asS'escae001'
p821
(lp822
g821
aS'Edgmer Escalona'
p823
aI7
aI6
aI0
aI0
aI0
aI0
aI0
aI0
aI0
aI0
aI0
aI3
aI0
asS'pimes001'
p824
(lp825
g824
aS'Stolmy Pimentel'
p826
aI1
aI1
aI0
aI0
aI0
aI0
aI0
aI0
aI0
aI0
aI0
aI0
aI0
asS'ramia001'
p827
(lp828
g827
aS'Aramis Ramirez'
p829
aI351
aI304
aI43
aI86
aI18
aI0
aI12
aI49
aI0
aI1
aI36
aI55
aI140
asS'paxtj001'
p830
(lp831
g830
aS'James Paxton'
p832
aI2
aI1
aI1
aI0
aI0
aI0
aI0
aI0
aI0
aI0
aI1
aI1
aI0
asS'millb002'
p833
(lp834
g833
aS'Brad Miller'
p835
aI335
aI306
aI41
aI81
aI11
aI6
aI8
aI36
aI5
aI3
aI24
aI52
aI128
asS'sabac001'
p836
(lp837
g836
aS'CC Sabathia'
p838
aI4
aI4
aI0
aI0
aI0
aI0
aI0
aI1
aI0
aI0
aI0
aI2
aI0
asS'ozunm001'
p839
(lp840
g839
aS'Marcell Ozuna'
p841
aI291
aI275
aI31
aI73
aI17
aI4
aI3
aI32
aI5
aI1
aI13
aI57
aI107
asS'swisn001'
p842
(lp843
g842
aS'Nick Swisher'
p844
aI634
aI549
aI74
aI135
aI27
aI2
aI22
aI63
aI1
aI0
aI77
aI138
aI232
asS'boesb001'
p845
(lp846
g845
aS'Brennan Boesch'
p847
aI53
aI51
aI6
aI14
aI2
aI1
aI3
aI8
aI0
aI0
aI2
aI9
aI27
asS'lucrj001'
p848
(lp849
g848
aS'Jonathan Lucroy'
p850
aI580
aI521
aI59
aI146
aI25
aI6
aI18
aI82
aI9
aI1
aI46
aI69
aI237
asS'rosst001'
p851
(lp852
g851
aS'Tyson Ross'
p853
aI36
aI33
aI0
aI6
aI0
aI0
aI0
aI0
aI0
aI0
aI0
aI18
aI6
asS'snidt001'
p854
(lp855
g854
aS'Travis Snider'
p856
aI285
aI261
aI28
aI56
aI12
aI2
aI5
aI25
aI2
aI3
aI24
aI75
aI87
asS'boscj001'
p857
(lp858
g857
aS'J.C. Boscan'
p859
aI10
aI9
aI1
aI2
aI1
aI0
aI0
aI0
aI0
aI0
aI0
aI2
aI3
asS'hughp001'
p860
(lp861
g860
aS'Phil Hughes'
p862
aI4
aI3
aI0
aI0
aI0
aI0
aI0
aI0
aI0
aI0
aI0
aI1
aI0
asS'axeld001'
p863
(lp864
g863
aS'Dylan Axelrod'
p865
aI2
aI2
aI1
aI1
aI0
aI0
aI0
aI0
aI0
aI0
aI0
aI1
aI1
asS'hudst001'
p866
(lp867
g866
aS'Tim Hudson'
p868
aI48
aI38
aI2
aI6
aI1
aI0
aI1
aI3
aI0
aI0
aI4
aI14
aI10
asS'colvt001'
p869
(lp870
g869
aS'Tyler Colvin'
p871
aI78
aI75
aI8
aI12
aI0
aI0
aI3
aI10
aI0
aI0
aI3
aI27
aI21
asS'guthj001'
p872
(lp873
g872
aS'Jeremy Guthrie'
p874
aI5
aI4
aI0
aI1
aI0
aI0
aI0
aI0
aI0
aI0
aI0
aI2
aI1
asS'robic002'
p875
(lp876
g875
aS'Chris Robinson'
p877
aI12
aI12
aI1
aI2
aI0
aI0
aI1
aI3
aI0
aI0
aI0
aI3
aI5
asS'chave002'
p878
(lp879
g878
aS'Endy Chavez'
p880
aI279
aI266
aI22
aI71
aI10
aI0
aI2
aI14
aI1
aI3
aI9
aI31
aI87
asS'chave001'
p881
(lp882
g881
aS'Eric Chavez'
p883
aI254
aI228
aI28
aI64
aI14
aI2
aI9
aI44
aI1
aI0
aI19
aI45
aI109
asS'bourp001'
p884
(lp885
g884
aS'Peter Bourjos'
p886
aI196
aI175
aI26
aI48
aI3
aI3
aI3
aI12
aI6
aI0
aI10
aI43
aI66
asS'peguf001'
p887
(lp888
g887
aS'Francisco Peguero'
p889
aI30
aI29
aI4
aI6
aI1
aI0
aI1
aI1
aI2
aI0
aI1
aI2
aI10
asS'latom001'
p890
(lp891
g890
aS'Mat Latos'
p892
aI78
aI71
aI3
aI9
aI2
aI0
aI0
aI4
aI0
aI0
aI1
aI28
aI11
asS'corrk001'
p893
(lp894
g893
aS'Kevin Correia'
p895
aI10
aI7
aI0
aI0
aI0
aI0
aI0
aI0
aI0
aI0
aI0
aI5
aI0
asS'arenn001'
p896
(lp897
g896
aS'Nolan Arenado'
p898
aI514
aI486
aI49
aI130
aI29
aI4
aI10
aI52
aI2
aI0
aI23
aI72
aI197
asS'alvap001'
p899
(lp900
g899
aS'Pedro Alvarez'
p901
aI614
aI558
aI70
aI130
aI22
aI2
aI36
aI100
aI2
aI0
aI48
aI186
aI264
asS'milew001'
p902
(lp903
g902
aS'Wade Miley'
p904
aI69
aI60
aI2
aI8
aI3
aI0
aI1
aI8
aI0
aI0
aI1
aI16
aI14
asS'snydb003'
p905
(lp906
g905
aS'Brandon Snyder'
p907
aI52
aI50
aI5
aI9
aI3
aI0
aI2
aI7
aI0
aI0
aI0
aI16
aI18
asS'wheer001'
p908
(lp909
g908
aS'Ryan Wheeler'
p910
aI42
aI41
aI1
aI9
aI2
aI0
aI0
aI7
aI0
aI0
aI1
aI10
aI11
asS'odayd001'
p911
(lp912
g911
aS"Darren O'Day"
p913
aI1
aI1
aI0
aI0
aI0
aI0
aI0
aI0
aI0
aI0
aI0
aI1
aI0
asS'bartd001'
p914
(lp915
g914
aS'Daric Barton'
p916
aI120
aI104
aI15
aI28
aI2
aI0
aI3
aI16
aI0
aI0
aI13
aI18
aI39
asS'jonea003'
p917
(lp918
g917
aS'Adam Jones'
p919
aI689
aI653
aI100
aI186
aI35
aI1
aI33
aI108
aI14
aI3
aI25
aI136
aI322
asS'tuiam001'
p920
(lp921
g920
aS'Matt Tuiasosopo'
p922
aI191
aI164
aI26
aI40
aI7
aI0
aI7
aI30
aI0
aI0
aI25
aI57
aI68
asS'tulot001'
p923
(lp924
g923
aS'Troy Tulowitzki'
p925
aI512
aI446
aI72
aI139
aI27
aI0
aI25
aI82
aI1
aI0
aI57
aI85
aI241
asS'frein001'
p926
(lp927
g926
aS'Nate Freiman'
p928
aI208
aI190
aI10
aI52
aI8
aI1
aI4
aI24
aI0
aI0
aI14
aI31
aI74
asS'navay001'
p929
(lp930
g929
aS'Yamaico Navarro'
p931
aI31
aI28
aI3
aI8
aI0
aI1
aI0
aI2
aI0
aI0
aI2
aI8
aI10
asS'heisc001'
p932
(lp933
g932
aS'Chris Heisey'
p934
aI244
aI224
aI29
aI53
aI11
aI1
aI9
aI23
aI3
aI0
aI9
aI51
aI93
asS'middw001'
p935
(lp936
g935
aS'Will Middlebrooks'
p937
aI374
aI348
aI41
aI79
aI18
aI0
aI17
aI49
aI3
aI1
aI20
aI98
aI148
asS'shopk001'
p938
(lp939
g938
aS'Kelly Shoppach'
p940
aI127
aI109
aI11
aI21
aI7
aI0
aI3
aI9
aI0
aI0
aI12
aI46
aI37
asS'daviw001'
p941
(lp942
g941
aS'Wade Davis'
p943
aI4
aI3
aI0
aI0
aI0
aI0
aI0
aI0
aI0
aI0
aI0
aI2
aI0
asS'jimeu001'
p944
(lp945
g944
aS'Ubaldo Jimenez'
p946
aI5
aI3
aI0
aI0
aI0
aI0
aI0
aI0
aI0
aI0
aI1
aI3
aI0
asS'tracc001'
p947
(lp948
g947
aS'Chad Tracy'
p949
aI136
aI129
aI6
aI26
aI4
aI0
aI4
aI11
aI0
aI2
aI7
aI25
aI42
asS'kipnj001'
p950
(lp951
g950
aS'Jason Kipnis'
p952
aI658
aI564
aI86
aI160
aI36
aI4
aI17
aI84
aI30
aI7
aI76
aI143
aI255
asS'bogub001'
p953
(lp954
g953
aS'Brian Bogusevic'
p955
aI155
aI143
aI18
aI39
aI7
aI1
aI6
aI16
aI2
aI0
aI10
aI35
aI66
asS'lestj001'
p956
(lp957
g956
aS'Jon Lester'
p958
aI7
aI6
aI0
aI0
aI0
aI0
aI0
aI0
aI0
aI0
aI0
aI4
aI0
asS'boxbb001'
p959
(lp960
g959
aS'Brad Boxberger'
p961
aI1
aI1
aI0
aI0
aI0
aI0
aI0
aI0
aI0
aI0
aI0
aI0
aI0
asS'altuj001'
p962
(lp963
g962
aS'Jose Altuve'
p964
aI672
aI626
aI64
aI177
aI31
aI2
aI5
aI52
aI35
aI13
aI32
aI85
aI227
asS'tekob001'
p965
(lp966
g965
aS'Blake Tekotte'
p967
aI36
aI31
aI4
aI7
aI1
aI0
aI1
aI2
aI1
aI3
aI3
aI9
aI11
asS'peres002'
p968
(lp969
g968
aS'Salvador Perez'
p970
aI526
aI496
aI48
aI145
aI25
aI3
aI13
aI79
aI0
aI0
aI21
aI63
aI215
asS'renda001'
p971
(lp972
g971
aS'Anthony Rendon'
p973
aI394
aI351
aI40
aI93
aI23
aI1
aI7
aI35
aI1
aI1
aI31
aI69
aI139
asS'martm003'
p974
(lp975
g974
aS'Michael Martinez'
p976
aI40
aI40
aI5
aI7
aI0
aI0
aI0
aI3
aI1
aI0
aI0
aI12
aI7
asS'hernr002'
p977
(lp978
g977
aS'Ramon Hernandez'
p979
aI55
aI48
aI4
aI10
aI2
aI0
aI3
aI6
aI1
aI0
aI6
aI7
aI21
asS'butlj002'
p980
(lp981
g980
aS'Joey Butler'
p982
aI15
aI12
aI3
aI4
aI2
aI0
aI0
aI1
aI0
aI0
aI3
aI6
aI6
asS'garzm001'
p983
(lp984
g983
aS'Matt Garza'
p985
aI20
aI18
aI1
aI4
aI1
aI0
aI0
aI2
aI0
aI0
aI0
aI9
aI5
asS'gausk001'
p986
(lp987
g986
aS'Kevin Gausman'
p988
aI1
aI1
aI0
aI0
aI0
aI0
aI0
aI0
aI0
aI0
aI0
aI1
aI0
asS'samaj001'
p989
(lp990
g989
aS'Jeff Samardzija'
p991
aI73
aI62
aI4
aI7
aI2
aI0
aI1
aI2
aI0
aI0
aI1
aI31
aI12
asS'derom001'
p992
(lp993
g992
aS'Mark DeRosa'
p994
aI236
aI204
aI23
aI48
aI12
aI1
aI7
aI36
aI0
aI0
aI28
aI49
aI83
asS'lyont001'
p995
(lp996
g995
aS'Tyler Lyons'
p997
aI13
aI12
aI0
aI2
aI0
aI0
aI0
aI0
aI0
aI0
aI0
aI4
aI2
asS'johnj009'
p998
(lp999
g998
aS'Josh Johnson'
p1000
aI2
aI1
aI0
aI0
aI0
aI0
aI0
aI0
aI0
aI0
aI1
aI1
aI0
asS'sancg001'
p1001
(lp1002
g1001
aS'Gaby Sanchez'
p1003
aI320
aI264
aI29
aI67
aI18
aI0
aI7
aI36
aI1
aI0
aI44
aI51
aI106
asS'escoe001'
p1004
(lp1005
g1004
aS'Eduardo Escobar'
p1006
aI179
aI165
aI23
aI39
aI5
aI2
aI3
aI10
aI0
aI2
aI11
aI34
aI57
asS'dudal001'
p1007
(lp1008
g1007
aS'Lucas Duda'
p1009
aI384
aI318
aI42
aI71
aI16
aI0
aI15
aI33
aI0
aI3
aI55
aI102
aI132
asS'nievw001'
p1010
(lp1011
g1010
aS'Wil Nieves'
p1012
aI206
aI195
aI16
aI58
aI11
aI0
aI1
aI22
aI0
aI0
aI8
aI32
aI72
asS'chirr001'
p1013
(lp1014
g1013
aS'Robinson Chirinos'
p1015
aI30
aI28
aI3
aI5
aI3
aI0
aI0
aI0
aI0
aI0
aI2
aI6
aI8
asS'braur002'
p1016
(lp1017
g1016
aS'Ryan Braun'
p1018
aI253
aI225
aI30
aI67
aI14
aI2
aI9
aI38
aI4
aI5
aI27
aI56
aI112
asS'piera001'
p1019
(lp1020
g1019
aS'A.J. Pierzynski'
p1021
aI529
aI503
aI48
aI137
aI24
aI1
aI17
aI70
aI1
aI1
aI11
aI76
aI214
asS'granc001'
p1022
(lp1023
g1022
aS'Curtis Granderson'
p1024
aI245
aI214
aI31
aI49
aI13
aI2
aI7
aI15
aI8
aI2
aI27
aI69
aI87
asS'chatt001'
p1025
(lp1026
g1025
aS'Tyler Chatwood'
p1027
aI45
aI40
aI3
aI12
aI1
aI0
aI0
aI7
aI0
aI0
aI2
aI8
aI13
asS'marta005'
p1028
(lp1029
g1028
aS'Alfredo Marte'
p1030
aI48
aI43
aI4
aI8
aI3
aI0
aI0
aI4
aI0
aI0
aI4
aI12
aI11
asS'falui001'
p1031
(lp1032
g1031
aS'Irving Falu'
p1033
aI4
aI4
aI0
aI1
aI0
aI0
aI0
aI0
aI0
aI0
aI0
aI0
aI1
asS'reimn001'
p1034
(lp1035
g1034
aS'Nolan Reimold'
p1036
aI140
aI128
aI17
aI25
aI3
aI0
aI5
aI12
aI0
aI1
aI10
aI41
aI43
asS'roset001'
p1037
(lp1038
g1037
aS'Trevor Rosenthal'
p1039
aI1
aI1
aI0
aI0
aI0
aI0
aI0
aI0
aI0
aI0
aI0
aI1
aI0
asS'kubej002'
p1040
(lp1041
g1040
aS'Jason Kubel'
p1042
aI290
aI259
aI21
aI56
aI9
aI1
aI5
aI32
aI0
aI1
aI29
aI92
aI82
asS'bradj001'
p1043
(lp1044
g1043
aS'Jackie Bradley'
p1045
aI107
aI95
aI18
aI18
aI5
aI0
aI3
aI10
aI2
aI0
aI10
aI31
aI32
asS'chama002'
p1046
(lp1047
g1046
aS'Adron Chambers'
p1048
aI29
aI26
aI5
aI4
aI1
aI0
aI0
aI1
aI0
aI1
aI3
aI11
aI5
asS'fedet001'
p1049
(lp1050
g1049
aS'Tim Federowicz'
p1051
aI173
aI160
aI12
aI37
aI8
aI0
aI4
aI16
aI0
aI0
aI10
aI56
aI57
asS'blank002'
p1052
(lp1053
g1052
aS'Kyle Blanks'
p1054
aI308
aI280
aI31
aI68
aI14
aI0
aI8
aI35
aI1
aI1
aI21
aI85
aI106
asS'peraw001'
p1055
(lp1056
g1055
aS'Wily Peralta'
p1057
aI60
aI50
aI1
aI7
aI0
aI0
aI0
aI0
aI0
aI0
aI1
aI20
aI7
asS'andir001'
p1058
(lp1059
g1058
aS'Robert Andino'
p1060
aI85
aI76
aI5
aI14
aI4
aI0
aI0
aI4
aI0
aI0
aI7
aI27
aI18
asS'troum001'
p1061
(lp1062
g1061
aS'Mike Trout'
p1063
aI716
aI589
aI109
aI190
aI39
aI9
aI27
aI97
aI33
aI7
aI110
aI136
aI328
asS'montj003'
p1064
(lp1065
g1064
aS'Jesus Montero'
p1066
aI110
aI101
aI6
aI21
aI1
aI1
aI3
aI9
aI0
aI1
aI8
aI21
aI33
asS'mejij001'
p1067
(lp1068
g1067
aS'Jenrry Mejia'
p1069
aI11
aI11
aI0
aI0
aI0
aI0
aI0
aI0
aI0
aI0
aI0
aI6
aI0
asS'reveb001'
p1070
(lp1071
g1070
aS'Ben Revere'
p1072
aI336
aI315
aI37
aI96
aI9
aI3
aI0
aI17
aI22
aI8
aI16
aI36
aI111
asS'stewc001'
p1073
(lp1074
g1073
aS'Chris Stewart'
p1075
aI340
aI294
aI28
aI62
aI6
aI0
aI4
aI25
aI4
aI0
aI30
aI49
aI80
asS'wilsc004'
p1076
(lp1077
g1076
aS'C.J. Wilson'
p1078
aI11
aI8
aI1
aI1
aI0
aI0
aI0
aI0
aI0
aI0
aI1
aI5
aI1
asS'pierj002'
p1079
(lp1080
g1079
aS'Juan Pierre'
p1081
aI330
aI308
aI36
aI76
aI11
aI2
aI1
aI8
aI23
aI6
aI13
aI27
aI94
asS'hillk002'
p1082
(lp1083
g1082
aS'Koyie Hill'
p1084
aI61
aI58
aI3
aI9
aI2
aI0
aI0
aI0
aI0
aI0
aI2
aI18
aI11
asS'triuc001'
p1085
(lp1086
g1085
aS'Carlos Triunfel'
p1087
aI47
aI44
aI1
aI6
aI1
aI0
aI0
aI2
aI0
aI0
aI0
aI11
aI7
asS'amara001'
p1088
(lp1089
g1088
aS'Alexi Amarista'
p1090
aI396
aI368
aI35
aI87
aI14
aI4
aI5
aI32
aI4
aI2
aI22
aI57
aI124
asS'cuddm001'
p1091
(lp1092
g1091
aS'Michael Cuddyer'
p1093
aI540
aI489
aI74
aI162
aI31
aI3
aI20
aI84
aI10
aI3
aI46
aI100
aI259
asS'gosea001'
p1094
(lp1095
g1094
aS'Anthony Gose'
p1096
aI153
aI147
aI15
aI38
aI6
aI5
aI2
aI12
aI4
aI3
aI5
aI37
aI60
asS'mathj001'
p1097
(lp1098
g1097
aS'Jeff Mathis'
p1099
aI256
aI232
aI14
aI42
aI7
aI1
aI5
aI29
aI0
aI0
aI21
aI76
aI66
asS'satij001'
p1100
(lp1101
g1100
aS'Josh Satin'
p1102
aI221
aI190
aI23
aI53
aI15
aI0
aI3
aI17
aI1
aI1
aI30
aI56
aI77
asS'choim001'
p1103
(lp1104
g1103
aS'Michael Choice'
p1105
aI19
aI18
aI2
aI5
aI1
aI0
aI0
aI0
aI0
aI0
aI1
aI6
aI6
asS'martj006'
p1106
(lp1107
g1106
aS'J.D. Martinez'
p1108
aI310
aI296
aI24
aI74
aI17
aI0
aI7
aI36
aI2
aI0
aI10
aI82
aI112
asS'polap001'
p1109
(lp1110
g1109
aS'Placido Polanco'
p1111
aI416
aI377
aI33
aI98
aI13
aI0
aI1
aI23
aI2
aI0
aI23
aI31
aI114
asS'iannc001'
p1112
(lp1113
g1112
aS'Chris Iannetta'
p1114
aI399
aI325
aI40
aI73
aI15
aI0
aI11
aI39
aI0
aI1
aI68
aI100
aI121
asS'dewib001'
p1115
(lp1116
g1115
aS'Blake DeWitt'
p1117
aI4
aI3
aI0
aI1
aI1
aI0
aI0
aI0
aI0
aI0
aI0
aI0
aI2
asS'andre001'
p1118
(lp1119
g1118
aS'Elvis Andrus'
p1120
aI698
aI620
aI91
aI168
aI17
aI4
aI4
aI67
aI42
aI8
aI52
aI97
aI205
asS'leons001'
p1121
(lp1122
g1121
aS'Sandy Leon'
p1123
aI1
aI1
aI0
aI0
aI0
aI0
aI0
aI0
aI0
aI0
aI0
aI1
aI0
asS'villp001'
p1124
(lp1125
g1124
aS'Pedro Villarreal'
p1126
aI1
aI1
aI0
aI0
aI0
aI0
aI0
aI0
aI0
aI0
aI0
aI0
aI0
asS'roenj001'
p1127
(lp1128
g1127
aS'Josh Roenicke'
p1129
aI1
aI1
aI0
aI0
aI0
aI0
aI0
aI0
aI0
aI0
aI0
aI0
aI0
asS'cisnj001'
p1130
(lp1131
g1130
aS'Jose Cisnero'
p1132
aI1
aI1
aI0
aI0
aI0
aI0
aI0
aI0
aI0
aI0
aI0
aI1
aI0
asS'ibanr001'
p1133
(lp1134
g1133
aS'Raul Ibanez'
p1135
aI496
aI454
aI54
aI110
aI20
aI2
aI29
aI65
aI0
aI0
aI42
aI128
aI221
asS'greeg002'
p1136
(lp1137
g1136
aS'Grant Green'
p1138
aI153
aI140
aI16
aI35
aI8
aI1
aI1
aI17
aI0
aI0
aI10
aI44
aI48
asS'kiesr001'
p1139
(lp1140
g1139
aS'Roger Kieschnick'
p1141
aI95
aI84
aI6
aI17
aI0
aI1
aI0
aI5
aI0
aI0
aI11
aI29
aI19
asS'ellia001'
p1142
(lp1143
g1142
aS'A.J. Ellis'
p1144
aI448
aI390
aI43
aI93
aI17
aI1
aI10
aI52
aI0
aI2
aI45
aI78
aI142
asS'johne002'
p1145
(lp1146
g1145
aS'Elliot Johnson'
p1147
aI275
aI254
aI27
aI53
aI7
aI3
aI2
aI19
aI22
aI2
aI16
aI67
aI72
asS'pheld001'
p1148
(lp1149
g1148
aS'David Phelps'
p1150
aI2
aI2
aI0
aI0
aI0
aI0
aI0
aI0
aI0
aI0
aI0
aI2
aI0
asS'petes002'
p1151
(lp1152
g1151
aS'Shane Peterson'
p1153
aI8
aI7
aI1
aI1
aI0
aI0
aI0
aI1
aI0
aI0
aI1
aI3
aI1
asS'gardb001'
p1154
(lp1155
g1154
aS'Brett Gardner'
p1156
aI609
aI539
aI81
aI147
aI33
aI10
aI8
aI52
aI24
aI8
aI52
aI127
aI224
asS'barnb002'
p1157
(lp1158
g1157
aS'Brandon Barnes'
p1159
aI445
aI408
aI46
aI98
aI17
aI1
aI8
aI41
aI11
aI11
aI21
aI127
aI141
asS'matsd001'
p1160
(lp1161
g1160
aS'Daisuke Matsuzaka'
p1162
aI13
aI12
aI0
aI3
aI0
aI0
aI0
aI1
aI0
aI0
aI0
aI5
aI3
asS'lallb001'
p1163
(lp1164
g1163
aS'Blake Lalli'
p1165
aI24
aI24
aI1
aI3
aI0
aI0
aI0
aI2
aI0
aI0
aI0
aI7
aI3
asS'frann001'
p1166
(lp1167
g1166
aS'Nick Franklin'
p1168
aI412
aI369
aI38
aI83
aI20
aI1
aI12
aI45
aI6
aI1
aI42
aI113
aI141
asS'roe-c001'
p1169
(lp1170
g1169
aS'Chaz Roe'
p1171
aI1
aI1
aI0
aI0
aI0
aI0
aI0
aI0
aI0
aI0
aI0
aI1
aI0
asS'browa003'
p1172
(lp1173
g1172
aS'Andrew Brown'
p1174
aI165
aI150
aI16
aI34
aI5
aI0
aI7
aI24
aI1
aI0
aI13
aI44
aI60
asS'buted001'
p1175
(lp1176
g1175
aS'Drew Butera'
p1177
aI10
aI10
aI0
aI1
aI0
aI0
aI0
aI0
aI0
aI0
aI0
aI5
aI1
asS'kersc001'
p1178
(lp1179
g1178
aS'Clayton Kershaw'
p1180
aI92
aI77
aI8
aI14
aI3
aI0
aI1
aI10
aI0
aI0
aI5
aI24
aI20
asS'adrie001'
p1181
(lp1182
g1181
aS'Ehire Adrianza'
p1183
aI20
aI18
aI3
aI4
aI1
aI0
aI1
aI3
aI0
aI0
aI1
aI5
aI8
asS'moora001'
p1184
(lp1185
g1184
aS'Adam Moore'
p1186
aI11
aI10
aI1
aI3
aI1
aI0
aI0
aI0
aI1
aI0
aI1
aI2
aI4
asS'blevj001'
p1187
(lp1188
g1187
aS'Jerry Blevins'
p1189
aI1
aI1
aI0
aI0
aI0
aI0
aI0
aI0
aI0
aI0
aI0
aI1
aI0
asS'hayeb001'
p1190
(lp1191
g1190
aS'Brett Hayes'
p1192
aI18
aI18
aI2
aI5
aI3
aI0
aI1
aI2
aI0
aI0
aI0
aI3
aI11
asS'willj004'
p1193
(lp1194
g1193
aS'Josh Willingham'
p1195
aI471
aI389
aI42
aI81
aI20
aI0
aI14
aI48
aI1
aI0
aI66
aI128
aI143
asS'gregd001'
p1196
(lp1197
g1196
aS'Didi Gregorius'
p1198
aI404
aI357
aI47
aI90
aI16
aI3
aI7
aI28
aI0
aI2
aI37
aI65
aI133
asS'santo001'
p1199
(lp1200
g1199
aS'Omir Santos'
p1201
aI1
aI1
aI0
aI0
aI0
aI0
aI0
aI0
aI0
aI0
aI0
aI0
aI0
asS'chenw001'
p1202
(lp1203
g1202
aS'Wei-Yin Chen'
p1204
aI2
aI2
aI0
aI0
aI0
aI0
aI0
aI0
aI0
aI0
aI0
aI0
aI0
asS'nix-j001'
p1205
(lp1206
g1205
aS'Jayson Nix'
p1207
aI303
aI267
aI32
aI63
aI9
aI1
aI3
aI24
aI13
aI1
aI24
aI80
aI83
asS'wachm001'
p1208
(lp1209
g1208
aS'Michael Wacha'
p1210
aI22
aI21
aI0
aI3
aI0
aI0
aI0
aI3
aI0
aI0
aI0
aI10
aI3
asS'freef001'
p1211
(lp1212
g1211
aS'Freddie Freeman'
p1213
aI629
aI551
aI89
aI176
aI27
aI2
aI23
aI109
aI1
aI0
aI66
aI121
aI276
asS'perem004'
p1214
(lp1215
g1214
aS'Martin Perez'
p1216
aI5
aI5
aI0
aI0
aI0
aI0
aI0
aI0
aI0
aI0
aI0
aI4
aI0
asS'diazm003'
p1217
(lp1218
g1217
aS'Matt Diaz'
p1219
aI19
aI18
aI1
aI3
aI1
aI0
aI0
aI1
aI0
aI0
aI1
aI3
aI4
asS'puigy001'
p1220
(lp1221
g1220
aS'Yasiel Puig'
p1222
aI432
aI382
aI66
aI122
aI21
aI2
aI19
aI42
aI11
aI8
aI36
aI97
aI204
asS'carmf001'
p1223
(lp1224
g1223
aS'Roberto Hernandez'
p1225
aI4
aI4
aI0
aI0
aI0
aI0
aI0
aI0
aI0
aI0
aI0
aI3
aI0
asS'rosaw001'
p1226
(lp1227
g1226
aS'Wilin Rosario'
p1228
aI466
aI449
aI63
aI131
aI22
aI1
aI21
aI79
aI4
aI1
aI15
aI109
aI218
asS'gomec002'
p1229
(lp1230
g1229
aS'Carlos Gomez'
p1231
aI590
aI536
aI80
aI152
aI27
aI10
aI24
aI73
aI40
aI7
aI37
aI146
aI271
asS'bloow001'
p1232
(lp1233
g1232
aS'Willie Bloomquist'
p1234
aI150
aI139
aI16
aI44
aI5
aI1
aI0
aI14
aI0
aI2
aI8
aI11
aI51
asS'ohler001'
p1235
(lp1236
g1235
aS'Ross Ohlendorf'
p1237
aI19
aI15
aI0
aI0
aI0
aI0
aI0
aI1
aI0
aI0
aI1
aI11
aI0
asS'weavj003'
p1238
(lp1239
g1238
aS'Jered Weaver'
p1240
aI4
aI4
aI0
aI0
aI0
aI0
aI0
aI0
aI0
aI0
aI0
aI4
aI0
asS'carsr001'
p1241
(lp1242
g1241
aS'Robert Carson'
p1243
aI1
aI0
aI1
aI0
aI0
aI0
aI0
aI0
aI0
aI0
aI1
aI0
aI0
asS'bassa001'
p1244
(lp1245
g1244
aS'Anthony Bass'
p1246
aI2
aI2
aI0
aI0
aI0
aI0
aI0
aI1
aI0
aI0
aI0
aI1
aI0
asS'clarc001'
p1247
(lp1248
g1247
aS'Cody Clark'
p1249
aI40
aI38
aI1
aI4
aI1
aI0
aI0
aI0
aI0
aI0
aI1
aI15
aI5
asS'raleb001'
p1250
(lp1251
g1250
aS'Brooks Raley'
p1252
aI4
aI3
aI0
aI0
aI0
aI0
aI0
aI0
aI0
aI0
aI0
aI1
aI0
asS'headc001'
p1253
(lp1254
g1253
aS'Chase Headley'
p1255
aI600
aI520
aI59
aI130
aI35
aI2
aI13
aI50
aI8
aI4
aI67
aI142
aI208
asS'coloa001'
p1256
(lp1257
g1256
aS'Alex Colome'
p1258
aI2
aI2
aI0
aI0
aI0
aI0
aI0
aI0
aI0
aI0
aI0
aI1
aI0
asS'bedae001'
p1259
(lp1260
g1259
aS'Erik Bedard'
p1261
aI4
aI3
aI0
aI0
aI0
aI0
aI0
aI0
aI0
aI0
aI0
aI1
aI0
asS'jennd002'
p1262
(lp1263
g1262
aS'Desmond Jennings'
p1264
aI602
aI527
aI82
aI133
aI31
aI6
aI14
aI54
aI20
aI8
aI64
aI115
aI218
asS'reddj001'
p1265
(lp1266
g1265
aS'Josh Reddick'
p1267
aI441
aI385
aI54
aI87
aI19
aI2
aI12
aI56
aI9
aI2
aI46
aI86
aI146
asS'shucj001'
p1268
(lp1269
g1268
aS'J.B. Shuck'
p1270
aI478
aI437
aI60
aI128
aI20
aI3
aI2
aI39
aI8
aI4
aI27
aI54
aI160
asS'casia001'
p1271
(lp1272
g1271
aS'Alexi Casilla'
p1273
aI125
aI112
aI15
aI24
aI4
aI1
aI1
aI10
aI9
aI2
aI9
aI20
aI33
asS'almoa001'
p1274
(lp1275
g1274
aS'Abraham Almonte'
p1276
aI82
aI72
aI10
aI19
aI4
aI0
aI2
aI9
aI1
aI0
aI6
aI21
aI29
asS'mcalz001'
p1277
(lp1278
g1277
aS'Zach McAllister'
p1279
aI4
aI4
aI0
aI0
aI0
aI0
aI0
aI0
aI0
aI0
aI0
aI2
aI0
asS'saunm001'
p1280
(lp1281
g1280
aS'Michael Saunders'
p1282
aI468
aI406
aI59
aI96
aI23
aI3
aI12
aI46
aI13
aI5
aI54
aI118
aI161
asS'carre001'
p1283
(lp1284
g1283
aS'Ezequiel Carrera'
p1285
aI21
aI17
aI3
aI3
aI0
aI0
aI0
aI1
aI0
aI0
aI1
aI5
aI3
asS'hared001'
p1286
(lp1287
g1286
aS'Dan Haren'
p1288
aI55
aI47
aI2
aI8
aI3
aI0
aI0
aI2
aI0
aI0
aI1
aI17
aI11
asS'uggld001'
p1289
(lp1290
g1289
aS'Dan Uggla'
p1291
aI537
aI448
aI60
aI80
aI10
aI3
aI22
aI55
aI2
aI0
aI77
aI171
aI162
asS'gordd002'
p1292
(lp1293
g1292
aS'Dee Gordon'
p1294
aI106
aI94
aI9
aI22
aI1
aI1
aI1
aI6
aI10
aI2
aI10
aI21
aI28
asS'hicka001'
p1295
(lp1296
g1295
aS'Aaron Hicks'
p1297
aI313
aI281
aI37
aI54
aI11
aI3
aI8
aI27
aI9
aI3
aI24
aI84
aI95
asS'peacb001'
p1298
(lp1299
g1298
aS'Brad Peacock'
p1300
aI1
aI0
aI0
aI0
aI0
aI0
aI0
aI0
aI0
aI0
aI0
aI0
aI0
asS'morak001'
p1301
(lp1302
g1301
aS'Kendrys Morales'
p1303
aI657
aI602
aI64
aI167
aI34
aI0
aI23
aI80
aI0
aI0
aI49
aI114
aI270
asS'leagb001'
p1304
(lp1305
g1304
aS'Brandon League'
p1306
aI1
aI0
aI0
aI0
aI0
aI0
aI0
aI0
aI0
aI0
aI1
aI0
aI0
asS'kraum001'
p1307
(lp1308
g1307
aS'Marc Krauss'
p1309
aI146
aI134
aI11
aI28
aI9
aI0
aI4
aI13
aI2
aI0
aI10
aI45
aI49
asS'santc002'
p1310
(lp1311
g1310
aS'Carlos Santana'
p1312
aI642
aI541
aI75
aI145
aI39
aI1
aI20
aI74
aI3
aI1
aI93
aI110
aI246
asS'lakej001'
p1313
(lp1314
g1313
aS'Junior Lake'
p1315
aI254
aI236
aI26
aI67
aI16
aI0
aI6
aI16
aI4
aI4
aI13
aI68
aI101
asS'olivm001'
p1316
(lp1317
g1316
aS'Miguel Olivo'
p1318
aI80
aI74
aI5
aI15
aI2
aI0
aI4
aI9
aI0
aI0
aI5
aI23
aI29
asS'rasmc001'
p1319
(lp1320
g1319
aS'Colby Rasmus'
p1321
aI458
aI417
aI57
aI115
aI26
aI1
aI22
aI66
aI0
aI1
aI37
aI135
aI209
asS'lillt001'
p1322
(lp1323
g1322
aS'Ted Lilly'
p1324
aI5
aI5
aI0
aI0
aI0
aI0
aI0
aI0
aI0
aI0
aI0
aI5
aI0
asS'campt001'
p1325
(lp1326
g1325
aS'Tony Campana'
p1327
aI54
aI46
aI10
aI12
aI0
aI1
aI0
aI0
aI8
aI2
aI8
aI14
aI14
asS'hosme001'
p1328
(lp1329
g1328
aS'Eric Hosmer'
p1330
aI680
aI623
aI86
aI188
aI34
aI3
aI17
aI79
aI11
aI4
aI51
aI100
aI279
asS'ziegb001'
p1331
(lp1332
g1331
aS'Brad Ziegler'
p1333
aI2
aI2
aI0
aI0
aI0
aI0
aI0
aI0
aI0
aI0
aI0
aI0
aI0
asS'cirip001'
p1334
(lp1335
g1334
aS'Pedro Ciriaco'
p1336
aI137
aI125
aI9
aI28
aI4
aI2
aI2
aI8
aI9
aI1
aI9
aI23
aI42
asS'cabre001'
p1337
(lp1338
g1337
aS'Everth Cabrera'
p1339
aI435
aI381
aI54
aI108
aI15
aI5
aI4
aI31
aI37
aI12
aI41
aI69
aI145
asS'joneg002'
p1340
(lp1341
g1340
aS'Garrett Jones'
p1342
aI440
aI403
aI41
aI94
aI26
aI2
aI15
aI51
aI2
aI0
aI31
aI101
aI169
asS'castn001'
p1343
(lp1344
g1343
aS'Nick Castellanos'
p1345
aI18
aI18
aI1
aI5
aI0
aI0
aI0
aI0
aI0
aI0
aI0
aI1
aI5
asS'sants001'
p1346
(lp1347
g1346
aS'Sergio Santos'
p1348
aI1
aI1
aI0
aI0
aI0
aI0
aI0
aI0
aI0
aI0
aI0
aI0
aI0
asS'buehm001'
p1349
(lp1350
g1349
aS'Mark Buehrle'
p1351
aI4
aI4
aI0
aI0
aI0
aI0
aI0
aI0
aI0
aI0
aI0
aI1
aI0
asS'parra001'
p1352
(lp1353
g1352
aS'Andy Parrino'
p1354
aI36
aI34
aI2
aI4
aI2
aI0
aI0
aI1
aI0
aI0
aI2
aI12
aI6
asS'ellim001'
p1355
(lp1356
g1355
aS'Mark Ellis'
p1357
aI480
aI433
aI46
aI117
aI13
aI2
aI6
aI48
aI4
aI1
aI26
aI74
aI152
asS'johnd004'
p1358
(lp1359
g1358
aS'Dan Johnson'
p1360
aI5
aI5
aI0
aI0
aI0
aI0
aI0
aI0
aI0
aI0
aI0
aI1
aI0
asS'rutlj001'
p1361
(lp1362
g1361
aS'Josh Rutledge'
p1363
aI314
aI285
aI45
aI67
aI6
aI1
aI7
aI19
aI12
aI0
aI22
aI62
aI96
asS'valdj002'
p1364
(lp1365
g1364
aS'Jordany Valdespin'
p1366
aI144
aI133
aI16
aI25
aI3
aI1
aI4
aI16
aI4
aI3
aI8
aI28
aI42
asS'younc003'
p1367
(lp1368
g1367
aS'Chris Young'
p1369
aI375
aI335
aI46
aI67
aI18
aI3
aI12
aI40
aI10
aI3
aI36
aI93
aI127
asS'polla001'
p1370
(lp1371
g1370
aS'A.J. Pollock'
p1372
aI482
aI443
aI64
aI119
aI28
aI5
aI8
aI38
aI12
aI3
aI33
aI82
aI181
asS'archc001'
p1373
(lp1374
g1373
aS'Chris Archer'
p1375
aI1
aI1
aI0
aI0
aI0
aI0
aI0
aI0
aI0
aI0
aI0
aI1
aI0
asS'hellj002'
p1376
(lp1377
g1376
aS'Johnny Hellweg'
p1378
aI11
aI10
aI0
aI0
aI0
aI0
aI0
aI0
aI0
aI0
aI0
aI4
aI0
asS'hellj001'
p1379
(lp1380
g1379
aS'Jeremy Hellickson'
p1381
aI3
aI3
aI0
aI1
aI0
aI0
aI0
aI0
aI0
aI0
aI0
aI1
aI1
asS'minez001'
p1382
(lp1383
g1382
aS'Zach Miner'
p1384
aI6
aI6
aI0
aI2
aI0
aI0
aI0
aI0
aI0
aI0
aI0
aI3
aI2
asS'cumpb001'
p1385
(lp1386
g1385
aS'Brandon Cumpton'
p1387
aI12
aI9
aI0
aI0
aI0
aI0
aI0
aI0
aI0
aI0
aI1
aI4
aI0
asS'cabrm002'
p1388
(lp1389
g1388
aS'Melky Cabrera'
p1390
aI372
aI344
aI39
aI96
aI15
aI2
aI3
aI30
aI2
aI2
aI23
aI47
aI124
asS'cabrm001'
p1391
(lp1392
g1391
aS'Miguel Cabrera'
p1393
aI652
aI555
aI103
aI193
aI26
aI1
aI44
aI137
aI3
aI0
aI90
aI94
aI353
asS'schaj002'
p1394
(lp1395
g1394
aS'Jordan Schafer'
p1396
aI265
aI231
aI32
aI57
aI8
aI3
aI3
aI21
aI22
aI6
aI29
aI73
aI80
asS'sappd001'
p1397
(lp1398
g1397
aS'Dave Sappelt'
p1399
aI78
aI75
aI6
aI18
aI3
aI0
aI0
aI4
aI3
aI1
aI3
aI14
aI21
asS'perea002'
p1400
(lp1401
g1400
aS'Audry Perez'
p1402
aI1
aI1
aI0
aI0
aI0
aI0
aI0
aI0
aI0
aI0
aI0
aI1
aI0
asS'hernc005'
p1403
(lp1404
g1403
aS'Cesar Hernandez'
p1405
aI131
aI121
aI17
aI35
aI5
aI0
aI0
aI10
aI0
aI3
aI9
aI26
aI40
asS'morrb002'
p1406
(lp1407
g1406
aS'Bryan Morris'
p1408
aI5
aI5
aI1
aI1
aI0
aI0
aI0
aI0
aI0
aI0
aI0
aI2
aI1
asS'felds001'
p1409
(lp1410
g1409
aS'Scott Feldman'
p1411
aI38
aI37
aI2
aI6
aI2
aI0
aI1
aI8
aI0
aI0
aI0
aI13
aI11
asS'bonie001'
p1412
(lp1413
g1412
aS'Emilio Bonifacio'
p1414
aI461
aI420
aI54
aI102
aI22
aI3
aI3
aI31
aI28
aI8
aI30
aI103
aI139
asS'reyng001'
p1415
(lp1416
g1415
aS'Greg Reynolds'
p1417
aI9
aI7
aI1
aI1
aI1
aI0
aI0
aI0
aI0
aI0
aI0
aI4
aI2
asS'kazms001'
p1418
(lp1419
g1418
aS'Scott Kazmir'
p1420
aI4
aI4
aI0
aI1
aI0
aI0
aI0
aI0
aI0
aI0
aI0
aI1
aI1
asS'parmc001'
p1421
(lp1422
g1421
aS'Chris Parmelee'
p1423
aI333
aI294
aI21
aI67
aI13
aI0
aI8
aI24
aI1
aI1
aI33
aI81
aI104
asS'kotsm001'
p1424
(lp1425
g1424
aS'Mark Kotsay'
p1426
aI171
aI155
aI8
aI30
aI2
aI0
aI1
aI12
aI0
aI2
aI13
aI25
aI35
asS'genns001'
p1427
(lp1428
g1427
aS'Scooter Gennett'
p1429
aI230
aI213
aI29
aI69
aI11
aI2
aI6
aI21
aI2
aI1
aI10
aI42
aI102
asS'volqe001'
p1430
(lp1431
g1430
aS'Edinson Volquez'
p1432
aI52
aI42
aI4
aI5
aI1
aI0
aI1
aI4
aI0
aI0
aI1
aI23
aI9
asS'porcr001'
p1433
(lp1434
g1433
aS'Rick Porcello'
p1435
aI3
aI3
aI0
aI1
aI0
aI0
aI0
aI0
aI0
aI0
aI0
aI0
aI1
asS'ellsj001'
p1436
(lp1437
g1436
aS'Jacoby Ellsbury'
p1438
aI636
aI577
aI92
aI172
aI31
aI8
aI9
aI53
aI52
aI4
aI47
aI92
aI246
asS'sante001'
p1439
(lp1440
g1439
aS'Ervin Santana'
p1441
aI4
aI4
aI0
aI1
aI0
aI0
aI0
aI0
aI0
aI0
aI0
aI2
aI1
asS'iwakh001'
p1442
(lp1443
g1442
aS'Hisashi Iwakuma'
p1444
aI3
aI3
aI0
aI0
aI0
aI0
aI0
aI0
aI0
aI0
aI0
aI2
aI0
asS'keppj001'
p1445
(lp1446
g1445
aS'Jeff Keppinger'
p1447
aI451
aI423
aI38
aI107
aI13
aI1
aI4
aI40
aI0
aI1
aI20
aI41
aI134
asS'klubc001'
p1448
(lp1449
g1448
aS'Corey Kluber'
p1450
aI3
aI2
aI1
aI0
aI0
aI0
aI0
aI0
aI0
aI0
aI1
aI1
aI0
asS'cruzn002'
p1451
(lp1452
g1451
aS'Nelson Cruz'
p1453
aI456
aI413
aI49
aI110
aI18
aI0
aI27
aI76
aI5
aI1
aI35
aI109
aI209
asS'ortid001'
p1454
(lp1455
g1454
aS'David Ortiz'
p1456
aI600
aI518
aI84
aI160
aI38
aI2
aI30
aI103
aI4
aI0
aI76
aI88
aI292
asS'cainl001'
p1457
(lp1458
g1457
aS'Lorenzo Cain'
p1459
aI442
aI399
aI54
aI100
aI21
aI3
aI4
aI46
aI14
aI6
aI33
aI90
aI139
asS'torry001'
p1460
(lp1461
g1460
aS'Yorvit Torrealba'
p1462
aI196
aI179
aI10
aI43
aI8
aI0
aI0
aI16
aI0
aI0
aI13
aI24
aI51
asS'gonzg003'
p1463
(lp1464
g1463
aS'Gio Gonzalez'
p1465
aI66
aI56
aI2
aI5
aI1
aI0
aI1
aI1
aI0
aI0
aI1
aI16
aI9
asS'soton001'
p1466
(lp1467
g1466
aS'Neftali Soto'
p1468
aI13
aI12
aI0
aI0
aI0
aI0
aI0
aI0
aI0
aI0
aI0
aI6
aI0
asS'hafnt001'
p1469
(lp1470
g1469
aS'Travis Hafner'
p1471
aI299
aI262
aI31
aI53
aI8
aI1
aI12
aI37
aI2
aI0
aI32
aI79
aI99
asS'richc002'
p1472
(lp1473
g1472
aS'Clayton Richard'
p1474
aI15
aI14
aI1
aI3
aI0
aI0
aI0
aI1
aI0
aI0
aI0
aI5
aI3
asS'wertj001'
p1475
(lp1476
g1475
aS'Jayson Werth'
p1477
aI532
aI462
aI84
aI147
aI24
aI0
aI25
aI82
aI10
aI1
aI60
aI101
aI246
asS'espid001'
p1478
(lp1479
g1478
aS'Danny Espinosa'
p1480
aI167
aI158
aI11
aI25
aI9
aI0
aI3
aI12
aI1
aI0
aI4
aI47
aI43
asS'berrq001'
p1481
(lp1482
g1481
aS'Quintin Berry'
p1483
aI9
aI8
aI5
aI5
aI0
aI0
aI1
aI4
aI3
aI0
aI1
aI2
aI8
asS'brotr001'
p1484
(lp1485
g1484
aS'Rex Brothers'
p1486
aI1
aI1
aI0
aI0
aI0
aI0
aI0
aI0
aI0
aI0
aI0
aI1
aI0
asS'yound003'
p1487
(lp1488
g1487
aS'Delmon Young'
p1489
aI361
aI334
aI30
aI87
aI16
aI0
aI11
aI38
aI0
aI0
aI20
aI78
aI136
asS'craia001'
p1490
(lp1491
g1490
aS'Allen Craig'
p1492
aI563
aI508
aI71
aI160
aI29
aI2
aI13
aI97
aI2
aI0
aI40
aI100
aI232
asS'beacb001'
p1493
(lp1494
g1493
aS'Brandon Beachy'
p1495
aI12
aI8
aI1
aI1
aI0
aI0
aI0
aI0
aI0
aI0
aI1
aI3
aI1
asS'ethia001'
p1496
(lp1497
g1496
aS'Andre Ethier'
p1498
aI553
aI482
aI54
aI131
aI33
aI2
aI12
aI52
aI4
aI3
aI61
aI95
aI204
asS'santr002'
p1499
(lp1500
g1499
aS'Ramon Santiago'
p1501
aI234
aI205
aI27
aI46
aI8
aI1
aI1
aI14
aI0
aI1
aI21
aI32
aI59
asS'avill001'
p1502
(lp1503
g1502
aS'Luis Avilan'
p1504
aI1
aI0
aI0
aI0
aI0
aI0
aI0
aI0
aI0
aI0
aI0
aI0
aI0
asS'skipk001'
p1505
(lp1506
g1505
aS'Kyle Skipworth'
p1507
aI4
aI3
aI0
aI0
aI0
aI0
aI0
aI0
aI0
aI0
aI1
aI1
aI0
asS'sogae001'
p1508
(lp1509
g1508
aS'Eric Sogard'
p1510
aI410
aI368
aI45
aI98
aI24
aI3
aI2
aI35
aI10
aI5
aI27
aI51
aI134
asS'ramow001'
p1511
(lp1512
g1511
aS'Wilson Ramos'
p1513
aI303
aI287
aI29
aI78
aI9
aI0
aI16
aI59
aI0
aI1
aI15
aI42
aI135
asS'grimj002'
p1514
(lp1515
g1514
aS'Justin Grimm'
p1516
aI1
aI1
aI0
aI0
aI0
aI0
aI0
aI0
aI0
aI0
aI0
aI0
aI0
asS'maybc001'
p1517
(lp1518
g1517
aS'Cameron Maybin'
p1519
aI57
aI51
aI7
aI8
aI1
aI0
aI1
aI5
aI4
aI1
aI4
aI9
aI12
asS'cunnt001'
p1520
(lp1521
g1520
aS'Todd Cunningham'
p1522
aI8
aI8
aI2
aI2
aI0
aI0
aI0
aI0
aI0
aI0
aI0
aI3
aI2
asS'johnc003'
p1523
(lp1524
g1523
aS'Chris Johnson'
p1525
aI547
aI514
aI54
aI165
aI34
aI0
aI12
aI68
aI0
aI0
aI29
aI116
aI235
asS'valed001'
p1526
(lp1527
g1526
aS'Danny Valencia'
p1528
aI170
aI161
aI20
aI49
aI14
aI1
aI8
aI23
aI0
aI2
aI8
aI33
aI89
asS'venaw001'
p1529
(lp1530
g1529
aS'Will Venable'
p1531
aI515
aI481
aI64
aI129
aI22
aI8
aI22
aI53
aI22
aI6
aI29
aI118
aI233
asS'solaj002'
p1532
(lp1533
g1532
aS'Jhonatan Solano'
p1534
aI50
aI48
aI2
aI7
aI2
aI0
aI0
aI2
aI0
aI1
aI2
aI7
aI9
asS'novai001'
p1535
(lp1536
g1535
aS'Ivan Nova'
p1537
aI3
aI3
aI0
aI0
aI0
aI0
aI0
aI0
aI0
aI0
aI0
aI3
aI0
asS'manes001'
p1538
(lp1539
g1538
aS'Seth Maness'
p1540
aI5
aI5
aI0
aI1
aI0
aI0
aI0
aI0
aI0
aI0
aI0
aI3
aI1
asS'consj001'
p1541
(lp1542
g1541
aS'Jose Constanza'
p1543
aI31
aI31
aI2
aI8
aI0
aI0
aI0
aI3
aI0
aI3
aI0
aI5
aI8
asS'watkl001'
p1544
(lp1545
g1544
aS'Logan Watkins'
p1546
aI42
aI38
aI2
aI8
aI1
aI0
aI0
aI0
aI0
aI0
aI3
aI14
aI9
asS'mahoj001'
p1547
(lp1548
g1547
aS'Joe Mahoney'
p1549
aI29
aI29
aI2
aI8
aI1
aI0
aI1
aI4
aI0
aI0
aI0
aI4
aI12
asS'wooda002'
p1550
(lp1551
g1550
aS'Alex Wood'
p1552
aI22
aI21
aI1
aI0
aI0
aI0
aI0
aI0
aI0
aI0
aI0
aI15
aI0
asS'seagk001'
p1553
(lp1554
g1553
aS'Kyle Seager'
p1555
aI695
aI615
aI79
aI160
aI32
aI2
aI22
aI69
aI9
aI3
aI68
aI122
aI262
asS'pagaa001'
p1556
(lp1557
g1556
aS'Angel Pagan'
p1558
aI305
aI280
aI44
aI79
aI16
aI3
aI5
aI30
aI9
aI4
aI23
aI36
aI116
asS'jacke001'
p1559
(lp1560
g1559
aS'Edwin Jackson'
p1561
aI59
aI52
aI4
aI4
aI1
aI0
aI1
aI4
aI0
aI0
aI2
aI17
aI8
asS'montm001'
p1562
(lp1563
g1562
aS'Miguel Montero'
p1564
aI475
aI413
aI44
aI95
aI14
aI0
aI11
aI42
aI0
aI0
aI51
aI110
aI142
asS'giamj001'
p1565
(lp1566
g1565
aS'Jason Giambi'
p1567
aI216
aI186
aI21
aI34
aI8
aI0
aI9
aI31
aI0
aI1
aI23
aI56
aI69
asS'marsl001'
p1568
(lp1569
g1568
aS'Lou Marson'
p1570
aI5
aI3
aI0
aI0
aI0
aI0
aI0
aI0
aI0
aI0
aI2
aI0
aI0
asS'goset001'
p1571
(lp1572
g1571
aS'Tuffy Gosewisch'
p1573
aI47
aI45
aI1
aI8
aI2
aI0
aI0
aI3
aI0
aI0
aI0
aI8
aI10
asS'mclon001'
p1574
(lp1575
g1574
aS'Nate McLouth'
p1576
aI593
aI531
aI76
aI137
aI31
aI4
aI12
aI36
aI30
aI7
aI53
aI86
aI212
asS'ogana001'
p1577
(lp1578
g1577
aS'Alexi Ogando'
p1579
aI1
aI1
aI0
aI0
aI0
aI0
aI0
aI0
aI0
aI0
aI0
aI1
aI0
asS'bay-j001'
p1580
(lp1581
g1580
aS'Jason Bay'
p1582
aI236
aI206
aI30
aI42
aI6
aI0
aI11
aI20
aI3
aI1
aI26
aI62
aI81
asS'parrm001'
p1583
(lp1584
g1583
aS'Manny Parra'
p1585
aI2
aI2
aI1
aI1
aI0
aI0
aI0
aI0
aI0
aI0
aI0
aI0
aI1
asS'fifes001'
p1586
(lp1587
g1586
aS'Stephen Fife'
p1588
aI18
aI17
aI0
aI1
aI0
aI0
aI0
aI0
aI0
aI0
aI1
aI12
aI1
asS'blacc001'
p1589
(lp1590
g1589
aS'Charlie Blackmon'
p1591
aI258
aI246
aI35
aI76
aI17
aI2
aI6
aI22
aI7
aI0
aI7
aI49
aI115
asS'lemad001'
p1592
(lp1593
g1592
aS'DJ LeMahieu'
p1594
aI434
aI404
aI39
aI113
aI21
aI3
aI2
aI28
aI18
aI7
aI19
aI67
aI146
asS'heltt001'
p1595
(lp1596
g1595
aS'Todd Helton'
p1597
aI442
aI397
aI41
aI99
aI22
aI1
aI15
aI61
aI0
aI0
aI40
aI87
aI168
asS'couss001'
p1598
(lp1599
g1598
aS'Scott Cousins'
p1600
aI5
aI4
aI1
aI0
aI0
aI0
aI0
aI0
aI0
aI0
aI1
aI3
aI0
asS'pelfm001'
p1601
(lp1602
g1601
aS'Mike Pelfrey'
p1603
aI1
aI1
aI0
aI0
aI0
aI0
aI0
aI0
aI0
aI0
aI0
aI1
aI0
asS'belte002'
p1604
(lp1605
g1604
aS'Engel Beltre'
p1606
aI42
aI40
aI7
aI10
aI1
aI0
aI0
aI2
aI1
aI2
aI0
aI5
aI11
asS'pench001'
p1607
(lp1608
g1607
aS'Hunter Pence'
p1609
aI687
aI629
aI91
aI178
aI35
aI5
aI27
aI99
aI22
aI3
aI52
aI115
aI304
asS'gonza005'
p1610
(lp1611
g1610
aS'Alberto Gonzalez'
p1612
aI60
aI57
aI6
aI11
aI2
aI0
aI1
aI6
aI0
aI0
aI2
aI12
aI16
asS'pillb001'
p1613
(lp1614
g1613
aS'Brett Pill'
p1615
aI92
aI85
aI11
aI19
aI4
aI0
aI3
aI12
aI0
aI0
aI5
aI17
aI32
asS'lucae001'
p1616
(lp1617
g1616
aS'Ed Lucas'
p1618
aI384
aI351
aI43
aI90
aI14
aI1
aI4
aI28
aI1
aI1
aI26
aI78
aI118
asS'morem001'
p1619
(lp1620
g1619
aS'Mitch Moreland'
p1621
aI518
aI462
aI60
aI107
aI24
aI1
aI23
aI60
aI0
aI0
aI45
aI117
aI202
asS'gonza003'
p1622
(lp1623
g1622
aS'Adrian Gonzalez'
p1624
aI641
aI583
aI69
aI171
aI32
aI0
aI22
aI100
aI1
aI0
aI47
aI98
aI269
asS'gonza002'
p1625
(lp1626
g1625
aS'Alex Gonzalez'
p1627
aI118
aI113
aI14
aI20
aI3
aI0
aI1
aI8
aI0
aI0
aI3
aI26
aI26
asS'stutm001'
p1628
(lp1629
g1628
aS'Michael Stutes'
p1630
aI1
aI1
aI0
aI0
aI0
aI0
aI0
aI0
aI0
aI0
aI0
aI0
aI0
asS'nelsc001'
p1631
(lp1632
g1631
aS'Chris Nelson'
p1633
aI227
aI211
aI19
aI48
aI4
aI4
aI3
aI24
aI2
aI1
aI13
aI66
aI69
asS'bailh001'
p1634
(lp1635
g1634
aS'Homer Bailey'
p1636
aI73
aI58
aI3
aI9
aI1
aI0
aI0
aI1
aI0
aI0
aI3
aI18
aI10
asS'martc006'
p1637
(lp1638
g1637
aS'Carlos Martinez'
p1639
aI2
aI2
aI0
aI0
aI0
aI0
aI0
aI0
aI0
aI0
aI0
aI1
aI0
asS'belim001'
p1640
(lp1641
g1640
aS'Matt Belisle'
p1642
aI1
aI1
aI0
aI0
aI0
aI0
aI0
aI0
aI0
aI0
aI0
aI1
aI0
asS'dozib001'
p1643
(lp1644
g1643
aS'Brian Dozier'
p1645
aI623
aI558
aI72
aI136
aI33
aI4
aI18
aI66
aI14
aI7
aI51
aI120
aI231
asS'wellc001'
p1646
(lp1647
g1646
aS'Casper Wells'
p1648
aI102
aI95
aI6
aI12
aI2
aI0
aI0
aI1
aI0
aI1
aI7
aI31
aI14
asS'kotcc001'
p1649
(lp1650
g1649
aS'Casey Kotchman'
p1651
aI21
aI20
aI0
aI0
aI0
aI0
aI0
aI1
aI0
aI0
aI1
aI1
aI0
asS'kawam001'
p1652
(lp1653
g1652
aS'Munenori Kawasaki'
p1654
aI289
aI240
aI27
aI55
aI6
aI5
aI1
aI24
aI7
aI1
aI32
aI41
aI74
asS'lylej001'
p1655
(lp1656
g1655
aS'Jordan Lyles'
p1657
aI7
aI6
aI0
aI0
aI0
aI0
aI0
aI0
aI0
aI0
aI0
aI5
aI0
asS'bantb001'
p1658
(lp1659
g1658
aS'Brandon Bantz'
p1660
aI2
aI2
aI0
aI0
aI0
aI0
aI0
aI0
aI0
aI0
aI0
aI1
aI0
asS'freed001'
p1661
(lp1662
g1661
aS'David Freese'
p1663
aI521
aI462
aI53
aI121
aI26
aI1
aI9
aI60
aI1
aI2
aI47
aI106
aI176
asS'spruz001'
p1664
(lp1665
g1664
aS'Zeke Spruill'
p1666
aI1
aI1
aI0
aI0
aI0
aI0
aI0
aI0
aI0
aI0
aI0
aI1
aI0
asS'linda001'
p1667
(lp1668
g1667
aS'Adam Lind'
p1669
aI521
aI465
aI67
aI134
aI26
aI1
aI23
aI67
aI1
aI0
aI51
aI103
aI231
asS'villc001'
p1670
(lp1671
g1670
aS'Carlos Villanueva'
p1672
aI34
aI32
aI2
aI5
aI0
aI0
aI0
aI1
aI0
aI0
aI0
aI15
aI5
asS'konep001'
p1673
(lp1674
g1673
aS'Paul Konerko'
p1675
aI520
aI467
aI41
aI114
aI16
aI0
aI12
aI54
aI0
aI0
aI45
aI74
aI166
asS'rogee002'
p1676
(lp1677
g1676
aS'Esmil Rogers'
p1678
aI6
aI3
aI0
aI0
aI0
aI0
aI0
aI0
aI0
aI0
aI0
aI1
aI0
asS'gorzt001'
p1679
(lp1680
g1679
aS'Tom Gorzelanny'
p1681
aI18
aI17
aI0
aI1
aI0
aI0
aI0
aI0
aI0
aI0
aI0
aI9
aI1
asS'lougd001'
p1682
(lp1683
g1682
aS'David Lough'
p1684
aI335
aI315
aI35
aI90
aI17
aI4
aI5
aI33
aI5
aI2
aI10
aI52
aI130
asS'sweer001'
p1685
(lp1686
g1685
aS'Ryan Sweeney'
p1687
aI212
aI192
aI19
aI51
aI13
aI2
aI6
aI19
aI1
aI0
aI17
aI31
aI86
asS'dunna001'
p1688
(lp1689
g1688
aS'Adam Dunn'
p1690
aI607
aI525
aI60
aI115
aI15
aI0
aI34
aI86
aI1
aI1
aI76
aI189
aI232
asS'browj006'
p1691
(lp1692
g1691
aS'Jordan Brown'
p1693
aI17
aI15
aI0
aI3
aI1
aI0
aI0
aI5
aI0
aI0
aI1
aI1
aI4
asS'vottj001'
p1694
(lp1695
g1694
aS'Joey Votto'
p1696
aI726
aI581
aI101
aI177
aI30
aI3
aI24
aI73
aI6
aI3
aI135
aI138
aI285
asS'nunee002'
p1697
(lp1698
g1697
aS'Eduardo Nunez'
p1699
aI336
aI304
aI38
aI79
aI17
aI4
aI3
aI28
aI10
aI3
aI20
aI51
aI113
asS'philb001'
p1700
(lp1701
g1700
aS'Brandon Phillips'
p1702
aI666
aI606
aI80
aI158
aI24
aI2
aI18
aI103
aI5
aI3
aI39
aI98
aI240
asS'canor001'
p1703
(lp1704
g1703
aS'Robinson Cano'
p1705
aI681
aI605
aI81
aI190
aI41
aI0
aI27
aI107
aI7
aI1
aI65
aI85
aI312
asS'lavar001'
p1706
(lp1707
g1706
aS'Ryan Lavarnway'
p1708
aI82
aI77
aI8
aI23
aI7
aI0
aI1
aI14
aI0
aI0
aI2
aI17
aI33
asS'quinj001'
p1709
(lp1710
g1709
aS'Jose Quintana'
p1711
aI2
aI2
aI0
aI0
aI0
aI0
aI0
aI0
aI0
aI0
aI0
aI1
aI0
asS'ceder002'
p1712
(lp1713
g1712
aS'Ronny Cedeno'
p1714
aI288
aI264
aI24
aI64
aI8
aI3
aI3
aI21
aI5
aI4
aI14
aI73
aI87
asS'osuls001'
p1715
(lp1716
g1715
aS"Sean O'Sullivan"
p1717
aI6
aI6
aI0
aI1
aI1
aI0
aI0
aI0
aI0
aI0
aI0
aI4
aI2
asS'schus001'
p1718
(lp1719
g1718
aS'Skip Schumaker'
p1720
aI356
aI319
aI31
aI84
aI16
aI0
aI2
aI30
aI2
aI2
aI28
aI54
aI106
asS'robid002'
p1721
(lp1722
g1721
aS'Derrick Robinson'
p1723
aI216
aI192
aI21
aI49
aI7
aI3
aI0
aI8
aI4
aI5
aI18
aI44
aI62
asS'ramia003'
p1724
(lp1725
g1724
aS'Alexei Ramirez'
p1726
aI674
aI637
aI68
aI181
aI39
aI2
aI6
aI48
aI30
aI9
aI26
aI68
aI242
asS'lirif001'
p1727
(lp1728
g1727
aS'Francisco Liriano'
p1729
aI56
aI47
aI0
aI3
aI0
aI0
aI0
aI1
aI0
aI0
aI4
aI18
aI3
asS'gomej002'
p1730
(lp1731
g1730
aS'Jeanmar Gomez'
p1732
aI13
aI13
aI0
aI1
aI0
aI0
aI0
aI0
aI0
aI0
aI0
aI9
aI1
asS'getzc001'
p1733
(lp1734
g1733
aS'Chris Getz'
p1735
aI237
aI209
aI29
aI46
aI6
aI1
aI1
aI18
aI16
aI3
aI20
aI24
aI57
asS'gonzm002'
p1736
(lp1737
g1736
aS'Marwin Gonzalez'
p1738
aI222
aI204
aI22
aI45
aI8
aI0
aI4
aI14
aI6
aI2
aI9
aI37
aI65
asS'hairj002'
p1739
(lp1740
g1739
aS'Jerry Hairston'
p1741
aI226
aI204
aI17
aI43
aI7
aI0
aI2
aI22
aI0
aI0
aI14
aI22
aI56
asS'murpd004'
p1742
(lp1743
g1742
aS'Donnie Murphy'
p1744
aI163
aI149
aI23
aI38
aI8
aI0
aI11
aI23
aI2
aI0
aI8
aI48
aI79
asS'urruh001'
p1745
(lp1746
g1745
aS'Henry Urrutia'
p1747
aI58
aI58
aI5
aI16
aI0
aI1
aI0
aI2
aI0
aI0
aI0
aI11
aI18
asS'gossp001'
p1748
(lp1749
g1748
aS'Philip Gosselin'
p1750
aI7
aI6
aI2
aI2
aI0
aI0
aI0
aI0
aI0
aI0
aI1
aI2
aI2
asS'swara001'
p1751
(lp1752
g1751
aS'Anthony Swarzak'
p1753
aI1
aI1
aI0
aI0
aI0
aI0
aI0
aI0
aI0
aI0
aI0
aI1
aI0
asS'presa001'
p1754
(lp1755
g1754
aS'Alex Presley'
p1756
aI195
aI185
aI17
aI51
aI5
aI2
aI3
aI15
aI1
aI4
aI9
aI39
aI69
asS'tehej001'
p1757
(lp1758
g1757
aS'Julio Teheran'
p1759
aI65
aI58
aI1
aI13
aI3
aI0
aI0
aI2
aI0
aI0
aI2
aI16
aI16
asS'murpd006'
p1760
(lp1761
g1760
aS'Daniel Murphy'
p1762
aI697
aI658
aI92
aI188
aI38
aI4
aI13
aI78
aI23
aI3
aI32
aI95
aI273
asS'kobej001'
p1763
(lp1764
g1763
aS'Jeff Kobernus'
p1765
aI36
aI30
aI8
aI5
aI0
aI0
aI1
aI1
aI3
aI2
aI5
aI6
aI8
asS'myerw001'
p1766
(lp1767
g1766
aS'Wil Myers'
p1768
aI373
aI335
aI50
aI98
aI23
aI0
aI13
aI53
aI5
aI2
aI33
aI91
aI160
asS'badeb001'
p1769
(lp1770
g1769
aS'Burke Badenhop'
p1771
aI1
aI1
aI0
aI0
aI0
aI0
aI0
aI0
aI0
aI0
aI0
aI1
aI0
asS'marqj001'
p1772
(lp1773
g1772
aS'Jason Marquis'
p1774
aI43
aI42
aI0
aI5
aI1
aI0
aI0
aI2
aI0
aI0
aI0
aI12
aI6
asS'phelc001'
p1775
(lp1776
g1775
aS'Cord Phelps'
p1777
aI9
aI9
aI0
aI0
aI0
aI0
aI0
aI0
aI0
aI0
aI0
aI2
aI0
asS'salaf001'
p1778
(lp1779
g1778
aS'Fernando Salas'
p1780
aI2
aI2
aI0
aI0
aI0
aI0
aI0
aI0
aI0
aI0
aI0
aI1
aI0
asS'bogax001'
p1781
(lp1782
g1781
aS'Xander Bogaerts'
p1783
aI50
aI44
aI7
aI11
aI2
aI0
aI1
aI5
aI1
aI0
aI5
aI13
aI16
asS'kempm001'
p1784
(lp1785
g1784
aS'Matt Kemp'
p1786
aI290
aI263
aI35
aI71
aI15
aI0
aI6
aI33
aI9
aI0
aI22
aI76
aI104
asS'lee-c003'
p1787
(lp1788
g1787
aS'Cliff Lee'
p1789
aI72
aI60
aI5
aI11
aI1
aI1
aI0
aI6
aI0
aI2
aI2
aI25
aI14
asS'marij002'
p1790
(lp1791
g1790
aS'Jake Marisnick'
p1792
aI118
aI109
aI6
aI20
aI2
aI1
aI1
aI5
aI3
aI1
aI6
aI27
aI27
asS'darvy001'
p1793
(lp1794
g1793
aS'Yu Darvish'
p1795
aI3
aI3
aI0
aI0
aI0
aI0
aI0
aI0
aI0
aI0
aI0
aI2
aI0
asS'fernj003'
p1796
(lp1797
g1796
aS'Jose Fernandez'
p1798
aI58
aI50
aI5
aI11
aI1
aI1
aI1
aI5
aI0
aI0
aI0
aI20
aI17
asS'victs001'
p1799
(lp1800
g1799
aS'Shane Victorino'
p1801
aI532
aI477
aI82
aI140
aI26
aI2
aI15
aI61
aI21
aI3
aI25
aI75
aI215
asS'hefnj001'
p1802
(lp1803
g1802
aS'Jeremy Hefner'
p1804
aI39
aI32
aI0
aI0
aI0
aI0
aI0
aI1
aI0
aI0
aI1
aI21
aI0
asS'napom001'
p1805
(lp1806
g1805
aS'Mike Napoli'
p1807
aI578
aI498
aI79
aI129
aI38
aI2
aI23
aI92
aI1
aI1
aI73
aI187
aI240
asS'overl001'
p1808
(lp1809
g1808
aS'Lyle Overbay'
p1810
aI486
aI445
aI43
aI107
aI24
aI1
aI14
aI59
aI2
aI0
aI36
aI111
aI175
asS'haraa001'
p1811
(lp1812
g1811
aS'Aaron Harang'
p1813
aI11
aI11
aI1
aI2
aI0
aI0
aI0
aI0
aI0
aI0
aI0
aI6
aI2
asS'casts001'
p1814
(lp1815
g1814
aS'Starlin Castro'
p1816
aI705
aI666
aI59
aI163
aI34
aI2
aI10
aI44
aI9
aI6
aI30
aI129
aI231
asS'seguj002'
p1817
(lp1818
g1817
aS'Jean Segura'
p1819
aI623
aI588
aI74
aI173
aI20
aI10
aI12
aI49
aI44
aI13
aI25
aI84
aI249
asS'petiy001'
p1820
(lp1821
g1820
aS'Yusmeiro Petit'
p1822
aI17
aI16
aI0
aI1
aI0
aI0
aI0
aI2
aI0
aI0
aI1
aI5
aI1
asS'pricd001'
p1823
(lp1824
g1823
aS'David Price'
p1825
aI6
aI6
aI0
aI0
aI0
aI0
aI0
aI0
aI0
aI0
aI0
aI2
aI0
asS'maybj001'
p1826
(lp1827
g1826
aS'John Mayberry'
p1828
aI384
aI353
aI47
aI80
aI23
aI1
aI11
aI39
aI5
aI3
aI27
aI90
aI138
asS'rusic001'
p1829
(lp1830
g1829
aS'Chris Rusin'
p1831
aI21
aI19
aI1
aI2
aI0
aI0
aI0
aI2
aI0
aI0
aI0
aI3
aI2
asS'fryee001'
p1832
(lp1833
g1832
aS'Eric Fryer'
p1834
aI16
aI13
aI2
aI5
aI1
aI0
aI1
aI4
aI0
aI0
aI3
aI3
aI9
asS'turnj002'
p1835
(lp1836
g1835
aS'Jacob Turner'
p1837
aI38
aI35
aI0
aI3
aI0
aI1
aI0
aI0
aI0
aI0
aI0
aI16
aI5
asS'marrc001'
p1838
(lp1839
g1838
aS'Chris Marrero'
p1840
aI16
aI16
aI0
aI2
aI0
aI0
aI0
aI1
aI0
aI0
aI0
aI4
aI2
asS'barmc001'
p1841
(lp1842
g1841
aS'Clint Barmes'
p1843
aI330
aI304
aI22
aI64
aI15
aI0
aI5
aI23
aI0
aI0
aI14
aI70
aI94
asS'irwip001'
p1844
(lp1845
g1844
aS'Phil Irwin'
p1846
aI1
aI1
aI0
aI0
aI0
aI0
aI0
aI0
aI0
aI0
aI0
aI1
aI0
asS'scahr001'
p1847
(lp1848
g1847
aS'Rob Scahill'
p1849
aI1
aI1
aI0
aI0
aI0
aI0
aI0
aI0
aI0
aI0
aI0
aI0
aI0
asS'medit001'
p1850
(lp1851
g1850
aS'Tommy Medica'
p1852
aI79
aI69
aI9
aI20
aI2
aI0
aI3
aI10
aI0
aI0
aI10
aI23
aI31
asS'cruzl001'
p1853
(lp1854
g1853
aS'Luis Cruz'
p1855
aI187
aI173
aI18
aI25
aI3
aI0
aI1
aI11
aI1
aI0
aI6
aI33
aI31
asS'martr004'
p1856
(lp1857
g1856
aS'Russell Martin'
p1858
aI506
aI438
aI51
aI99
aI21
aI0
aI15
aI55
aI9
aI5
aI58
aI108
aI165
asS'rossd001'
p1859
(lp1860
g1859
aS'David Ross'
p1861
aI116
aI102
aI11
aI22
aI5
aI0
aI4
aI10
aI1
aI0
aI11
aI42
aI39
asS'teixm001'
p1862
(lp1863
g1862
aS'Mark Teixeira'
p1864
aI63
aI53
aI5
aI8
aI1
aI0
aI3
aI12
aI0
aI0
aI8
aI19
aI18
asS'iztuc001'
p1865
(lp1866
g1865
aS'Cesar Izturis'
p1867
aI142
aI129
aI6
aI27
aI8
aI0
aI0
aI11
aI0
aI0
aI9
aI13
aI35
asS'robis001'
p1868
(lp1869
g1868
aS'Shane Robinson'
p1870
aI171
aI144
aI22
aI36
aI2
aI1
aI2
aI16
aI5
aI1
aI23
aI17
aI46
asS'skagt001'
p1871
(lp1872
g1871
aS'Tyler Skaggs'
p1873
aI13
aI10
aI0
aI2
aI0
aI0
aI0
aI1
aI0
aI0
aI0
aI5
aI2
asS'martf002'
p1874
(lp1875
g1874
aS'Fernando Martinez'
p1876
aI35
aI33
aI1
aI6
aI0
aI0
aI1
aI3
aI0
aI0
aI1
aI12
aI9
asS'drews001'
p1877
(lp1878
g1877
aS'Stephen Drew'
p1879
aI501
aI442
aI57
aI112
aI29
aI8
aI13
aI67
aI6
aI0
aI54
aI124
aI196
asS'cletm001'
p1880
(lp1881
g1880
aS'Maikel Cleto'
p1882
aI1
aI1
aI0
aI0
aI0
aI0
aI0
aI0
aI0
aI0
aI0
aI1
aI0
asS'navae001'
p1883
(lp1884
g1883
aS'Efren Navarro'
p1885
aI6
aI4
aI0
aI1
aI0
aI0
aI0
aI1
aI1
aI0
aI2
aI1
aI1
asS'abret001'
p1886
(lp1887
g1886
aS'Tony Abreu'
p1888
aI147
aI138
aI21
aI37
aI12
aI3
aI2
aI14
aI0
aI2
aI6
aI33
aI61
asS'pettj001'
p1889
(lp1890
g1889
aS'Jonathan Pettibone'
p1891
aI32
aI29
aI4
aI3
aI1
aI0
aI0
aI0
aI0
aI0
aI3
aI14
aI4
asS'murpd005'
p1892
(lp1893
g1892
aS'David Murphy'
p1894
aI476
aI436
aI51
aI96
aI26
aI1
aI13
aI45
aI1
aI4
aI37
aI59
aI163
asS'gaudc001'
p1895
(lp1896
g1895
aS'Chad Gaudin'
p1897
aI29
aI25
aI0
aI1
aI0
aI0
aI0
aI1
aI0
aI0
aI2
aI14
aI1
asS'doubf001'
p1898
(lp1899
g1898
aS'Felix Doubront'
p1900
aI4
aI3
aI0
aI0
aI0
aI0
aI0
aI0
aI0
aI0
aI0
aI1
aI0
asS'woodt004'
p1901
(lp1902
g1901
aS'Travis Wood'
p1903
aI67
aI63
aI8
aI14
aI1
aI0
aI3
aI8
aI1
aI0
aI3
aI21
aI24
asS'lairg001'
p1904
(lp1905
g1904
aS'Gerald Laird'
p1906
aI141
aI121
aI12
aI34
aI8
aI0
aI1
aI13
aI1
aI1
aI14
aI23
aI45
asS'hallr001'
p1907
(lp1908
g1907
aS'Roy Halladay'
p1909
aI20
aI18
aI0
aI0
aI0
aI0
aI0
aI1
aI0
aI0
aI1
aI17
aI0
asS'saltj001'
p1910
(lp1911
g1910
aS'Jarrod Saltalamacchia'
p1912
aI470
aI425
aI68
aI116
aI40
aI0
aI14
aI65
aI4
aI1
aI43
aI139
aI198
asS'jasoj001'
p1913
(lp1914
g1913
aS'John Jaso'
p1915
aI249
aI207
aI31
aI56
aI12
aI0
aI3
aI21
aI2
aI1
aI38
aI45
aI77
asS'owinc001'
p1916
(lp1917
g1916
aS'Chris Owings'
p1918
aI61
aI55
aI5
aI16
aI5
aI0
aI0
aI5
aI2
aI0
aI6
aI10
aI21
asS'franj005'
p1919
(lp1920
g1919
aS'Juan Francisco'
p1921
aI385
aI348
aI36
aI79
aI12
aI1
aI18
aI48
aI0
aI2
aI32
aI138
aI147
asS'franj004'
p1922
(lp1923
g1922
aS'Jeff Francoeur'
p1924
aI256
aI245
aI20
aI50
aI10
aI2
aI3
aI17
aI3
aI0
aI9
aI61
aI73
asS'franj003'
p1925
(lp1926
g1925
aS'Jeff Francis'
p1927
aI20
aI14
aI0
aI1
aI1
aI0
aI0
aI1
aI0
aI0
aI2
aI3
aI2
asS'bianj001'
p1928
(lp1929
g1928
aS'Jeff Bianchi'
p1930
aI252
aI236
aI22
aI56
aI8
aI1
aI1
aI25
aI4
aI4
aI11
aI46
aI69
asS'penab002'
p1931
(lp1932
g1931
aS'Brayan Pena'
p1933
aI243
aI229
aI19
aI68
aI11
aI0
aI4
aI22
aI0
aI2
aI6
aI26
aI91
asS'goldp001'
p1934
(lp1935
g1934
aS'Paul Goldschmidt'
p1936
aI710
aI602
aI103
aI182
aI36
aI3
aI36
aI125
aI15
aI7
aI99
aI145
aI332
asS'gillc001'
p1937
(lp1938
g1937
aS'Conor Gillaspie'
p1939
aI452
aI408
aI46
aI100
aI14
aI3
aI13
aI40
aI0
aI1
aI37
aI79
aI159
asS'berkl001'
p1940
(lp1941
g1940
aS'Lance Berkman'
p1942
aI294
aI256
aI27
aI62
aI10
aI1
aI6
aI34
aI0
aI0
aI38
aI52
aI92
asS'dysoj001'
p1943
(lp1944
g1943
aS'Jarrod Dyson'
p1945
aI239
aI213
aI30
aI55
aI9
aI4
aI2
aI17
aI34
aI6
aI21
aI45
aI78
asS'shiej002'
p1946
(lp1947
g1946
aS'James Shields'
p1948
aI3
aI3
aI1
aI1
aI0
aI0
aI0
aI0
aI0
aI0
aI0
aI1
aI1
asS'crawb001'
p1949
(lp1950
g1949
aS'Brandon Crawford'
p1951
aI550
aI499
aI52
aI124
aI24
aI3
aI9
aI43
aI1
aI2
aI42
aI96
aI181
asS'voger001'
p1952
(lp1953
g1952
aS'Ryan Vogelsong'
p1954
aI36
aI29
aI2
aI2
aI0
aI0
aI0
aI2
aI0
aI0
aI3
aI17
aI2
asS'garcj004'
p1955
(lp1956
g1955
aS'Jaime Garcia'
p1957
aI21
aI21
aI0
aI0
aI0
aI0
aI0
aI0
aI0
aI0
aI0
aI10
aI0
asS'branm003'
p1958
(lp1959
g1958
aS'Michael Brantley'
p1960
aI611
aI556
aI66
aI158
aI26
aI3
aI10
aI73
aI17
aI4
aI40
aI67
aI220
asS'coghc001'
p1961
(lp1962
g1961
aS'Chris Coghlan'
p1963
aI214
aI195
aI10
aI50
aI10
aI3
aI1
aI10
aI2
aI0
aI17
aI43
aI69
asS'herre001'
p1964
(lp1965
g1964
aS'Elian Herrera'
p1966
aI8
aI8
aI0
aI2
aI0
aI0
aI0
aI0
aI0
aI0
aI0
aI2
aI2
asS'pennc001'
p1967
(lp1968
g1967
aS'Cliff Pennington'
p1969
aI299
aI269
aI25
aI65
aI13
aI1
aI1
aI18
aI2
aI0
aI26
aI54
aI83
asS'lannj001'
p1970
(lp1971
g1970
aS'John Lannan'
p1972
aI25
aI21
aI2
aI4
aI1
aI0
aI0
aI1
aI0
aI0
aI2
aI11
aI5
asS'burgh001'
p1973
(lp1974
g1973
aS'Hiram Burgos'
p1975
aI10
aI8
aI0
aI1
aI0
aI0
aI0
aI0
aI0
aI0
aI0
aI6
aI1
asS'johnk003'
p1976
(lp1977
g1976
aS'Kelly Johnson'
p1978
aI407
aI366
aI41
aI86
aI12
aI2
aI16
aI52
aI7
aI4
aI35
aI99
aI150
asS'martl004'
p1979
(lp1980
g1979
aS'Leonys Martin'
p1981
aI508
aI457
aI66
aI119
aI21
aI6
aI8
aI49
aI36
aI9
aI28
aI104
aI176
asS'johnk004'
p1982
(lp1983
g1982
aS'Kris Johnson'
p1984
aI3
aI2
aI0
aI0
aI0
aI0
aI0
aI0
aI0
aI0
aI0
aI1
aI0
asS'keucd001'
p1985
(lp1986
g1985
aS'Dallas Keuchel'
p1987
aI2
aI2
aI0
aI0
aI0
aI0
aI0
aI0
aI0
aI0
aI0
aI2
aI0
asS'infao001'
p1988
(lp1989
g1988
aS'Omar Infante'
p1990
aI476
aI453
aI54
aI144
aI24
aI3
aI10
aI51
aI5
aI2
aI20
aI44
aI204
asS'pereh001'
p1991
(lp1992
g1991
aS'Hernan Perez'
p1993
aI71
aI66
aI13
aI13
aI0
aI1
aI0
aI5
aI1
aI0
aI2
aI15
aI15
asS'almoz001'
p1994
(lp1995
g1994
aS'Zoilo Almonte'
p1996
aI113
aI106
aI9
aI25
aI4
aI0
aI1
aI9
aI3
aI1
aI6
aI19
aI32
asS'garcf002'
p1997
(lp1998
g1997
aS'Freddy Garcia'
p1999
aI10
aI8
aI0
aI0
aI0
aI0
aI0
aI0
aI0
aI0
aI0
aI5
aI0
asS'mercj002'
p2000
(lp2001
g2000
aS'Jordy Mercer'
p2002
aI365
aI333
aI33
aI95
aI22
aI2
aI8
aI27
aI3
aI2
aI22
aI62
aI145
asS'cingt001'
p2003
(lp2004
g2003
aS'Tony Cingrani'
p2005
aI35
aI28
aI4
aI7
aI1
aI0
aI0
aI1
aI1
aI0
aI0
aI9
aI8
asS'hamec001'
p2006
(lp2007
g2006
aS'Cole Hamels'
p2008
aI71
aI56
aI4
aI10
aI1
aI1
aI0
aI5
aI0
aI1
aI1
aI24
aI13
asS'ishit001'
p2009
(lp2010
g2009
aS'Travis Ishikawa'
p2011
aI20
aI19
aI0
aI2
aI0
aI0
aI0
aI1
aI0
aI0
aI1
aI10
aI2
asS'bourm001'
p2012
(lp2013
g2012
aS'Michael Bourn'
p2014
aI575
aI525
aI75
aI138
aI21
aI6
aI6
aI50
aI23
aI12
aI40
aI132
aI189
asS'jacka001'
p2015
(lp2016
g2015
aS'Austin Jackson'
p2017
aI614
aI552
aI99
aI150
aI30
aI7
aI12
aI49
aI8
aI4
aI52
aI129
aI230
asS'holld003'
p2018
(lp2019
g2018
aS'Derek Holland'
p2020
aI8
aI5
aI1
aI0
aI0
aI0
aI0
aI0
aI0
aI0
aI2
aI3
aI0
asS'lerus001'
p2021
(lp2022
g2021
aS'Steven Lerud'
p2023
aI5
aI5
aI0
aI0
aI0
aI0
aI0
aI0
aI0
aI0
aI0
aI4
aI0
asS'uribj002'
p2024
(lp2025
g2024
aS'Juan Uribe'
p2026
aI426
aI388
aI47
aI108
aI22
aI2
aI12
aI50
aI5
aI0
aI30
aI81
aI170
asS'ruggj001'
p2027
(lp2028
g2027
aS'Justin Ruggiano'
p2029
aI472
aI424
aI49
aI94
aI18
aI1
aI18
aI50
aI15
aI8
aI41
aI114
aI168
asS'chavj001'
p2030
(lp2031
g2030
aS'Jesse Chavez'
p2032
aI1
aI1
aI0
aI0
aI0
aI0
aI0
aI0
aI0
aI0
aI0
aI1
aI0
asS'laroa002'
p2033
(lp2034
g2033
aS'Andy LaRoche'
p2035
aI4
aI4
aI0
aI0
aI0
aI0
aI0
aI0
aI0
aI0
aI0
aI1
aI0
asS'laroa001'
p2036
(lp2037
g2036
aS'Adam LaRoche'
p2038
aI590
aI511
aI70
aI121
aI19
aI3
aI20
aI62
aI4
aI1
aI72
aI131
aI206
asS'ryanb002'
p2039
(lp2040
g2039
aS'Brendan Ryan'
p2041
aI349
aI319
aI30
aI63
aI12
aI0
aI4
aI22
aI4
aI2
aI23
aI73
aI87
asS'paulx001'
p2042
(lp2043
g2042
aS'Xavier Paul'
p2044
aI239
aI209
aI24
aI51
aI12
aI0
aI7
aI32
aI0
aI1
aI27
aI53
aI84
asS'norrd001'
p2045
(lp2046
g2045
aS'Derek Norris'
p2047
aI308
aI264
aI41
aI65
aI16
aI0
aI9
aI30
aI5
aI0
aI37
aI71
aI108
asS'surke001'
p2048
(lp2049
g2048
aS'Eric Surkamp'
p2050
aI1
aI1
aI0
aI0
aI0
aI0
aI0
aI0
aI0
aI0
aI0
aI0
aI0
asS'savej001'
p2051
(lp2052
g2051
aS'Joe Savery'
p2053
aI1
aI0
aI0
aI0
aI0
aI0
aI0
aI0
aI0
aI0
aI0
aI0
aI0
asS'janip001'
p2054
(lp2055
g2054
aS'Paul Janish'
p2056
aI45
aI41
aI7
aI7
aI2
aI0
aI0
aI2
aI0
aI0
aI3
aI11
aI9
asS'zitob001'
p2057
(lp2058
g2057
aS'Barry Zito'
p2059
aI43
aI34
aI3
aI5
aI0
aI0
aI0
aI2
aI0
aI0
aI0
aI8
aI5
asS'mccua001'
p2060
(lp2061
g2060
aS'Andrew McCutchen'
p2062
aI674
aI583
aI97
aI185
aI38
aI5
aI21
aI84
aI27
aI10
aI78
aI101
aI296
asS'longe001'
p2063
(lp2064
g2063
aS'Evan Longoria'
p2065
aI693
aI614
aI91
aI165
aI39
aI3
aI32
aI88
aI1
aI0
aI70
aI162
aI306
asS'figaa001'
p2066
(lp2067
g2066
aS'Alfredo Figaro'
p2068
aI12
aI12
aI1
aI3
aI0
aI0
aI0
aI2
aI0
aI0
aI0
aI5
aI3
asS'diazj004'
p2069
(lp2070
g2069
aS'Jonathan Diaz'
p2071
aI4
aI4
aI2
aI0
aI0
aI0
aI0
aI0
aI0
aI0
aI0
aI0
aI0
asS'peavj001'
p2072
(lp2073
g2072
aS'Jake Peavy'
p2074
aI15
aI15
aI1
aI1
aI1
aI0
aI0
aI0
aI0
aI0
aI0
aI0
aI2
asS'escoy001'
p2075
(lp2076
g2075
aS'Yunel Escobar'
p2077
aI578
aI508
aI61
aI130
aI27
aI1
aI9
aI56
aI4
aI4
aI57
aI73
aI186
asS'gomej001'
p2078
(lp2079
g2078
aS'Jonny Gomes'
p2080
aI366
aI312
aI49
aI77
aI17
aI0
aI13
aI52
aI1
aI0
aI43
aI89
aI133
asS'chapa001'
p2081
(lp2082
g2081
aS'Aroldis Chapman'
p2083
aI1
aI1
aI0
aI0
aI0
aI0
aI0
aI0
aI0
aI0
aI0
aI1
aI0
asS'jay-j001'
p2084
(lp2085
g2084
aS'Jon Jay'
p2086
aI628
aI548
aI75
aI151
aI27
aI2
aI7
aI67
aI10
aI5
aI52
aI103
aI203
asS'gimeh001'
p2087
(lp2088
g2087
aS'Hector Gimenez'
p2089
aI80
aI68
aI8
aI13
aI4
aI0
aI2
aI10
aI0
aI0
aI7
aI22
aI23
asS'gorda001'
p2090
(lp2091
g2090
aS'Alex Gordon'
p2092
aI700
aI633
aI90
aI168
aI27
aI6
aI20
aI81
aI11
aI3
aI52
aI141
aI267
asS'greet004'
p2093
(lp2094
g2093
aS'Tyler Greene'
p2095
aI57
aI54
aI7
aI12
aI2
aI1
aI1
aI3
aI0
aI0
aI3
aI19
aI19
asS'fielp001'
p2096
(lp2097
g2096
aS'Prince Fielder'
p2098
aI712
aI624
aI82
aI174
aI36
aI0
aI25
aI106
aI1
aI1
aI75
aI117
aI285
asS'uptoj001'
p2099
(lp2100
g2099
aS'Justin Upton'
p2101
aI643
aI558
aI94
aI147
aI27
aI2
aI27
aI70
aI8
aI1
aI75
aI161
aI259
asS'encae001'
p2102
(lp2103
g2102
aS'Edwin Encarnacion'
p2104
aI621
aI530
aI90
aI144
aI29
aI1
aI36
aI104
aI7
aI1
aI82
aI62
aI283
asS'burna001'
p2105
(lp2106
g2105
aS'A.J. Burnett'
p2107
aI67
aI59
aI1
aI4
aI0
aI0
aI0
aI2
aI0
aI0
aI2
aI33
aI4
asS'borbj001'
p2108
(lp2109
g2108
aS'Julio Borbon'
p2110
aI118
aI105
aI11
aI21
aI3
aI1
aI1
aI3
aI7
aI1
aI12
aI22
aI29
asS'rodrs002'
p2111
(lp2112
g2111
aS'Sean Rodriguez'
p2113
aI222
aI195
aI21
aI48
aI10
aI1
aI5
aI23
aI1
aI3
aI17
aI59
aI75
asS'lockj001'
p2114
(lp2115
g2114
aS'Jeff Locke'
p2116
aI54
aI47
aI3
aI5
aI0
aI0
aI0
aI0
aI0
aI0
aI2
aI19
aI5
asS'grany001'
p2117
(lp2118
g2117
aS'Yasmani Grandal'
p2119
aI108
aI88
aI13
aI19
aI8
aI0
aI1
aI9
aI0
aI0
aI18
aI18
aI30
asS'blanh001'
p2120
(lp2121
g2120
aS'Henry Blanco'
p2122
aI150
aI134
aI11
aI19
aI5
aI0
aI3
aI14
aI0
aI0
aI14
aI36
aI33
asS'villj001'
p2123
(lp2124
g2123
aS'Jonathan Villar'
p2125
aI241
aI210
aI26
aI51
aI9
aI2
aI1
aI8
aI18
aI8
aI24
aI71
aI67
asS'cozaz001'
p2126
(lp2127
g2126
aS'Zack Cozart'
p2128
aI618
aI567
aI74
aI144
aI30
aI3
aI12
aI63
aI0
aI0
aI26
aI102
aI216
asS'gomey001'
p2129
(lp2130
g2129
aS'Yan Gomes'
p2131
aI322
aI293
aI45
aI86
aI18
aI2
aI11
aI38
aI2
aI0
aI18
aI67
aI141
asS'hanir001'
p2132
(lp2133
g2132
aS'Ryan Hanigan'
p2134
aI260
aI222
aI17
aI44
aI8
aI0
aI2
aI21
aI0
aI1
aI29
aI27
aI58
asS'ariaj001'
p2135
(lp2136
g2135
aS'Joaquin Arias'
p2137
aI236
aI225
aI17
aI61
aI9
aI2
aI1
aI19
aI1
aI0
aI4
aI33
aI77
asS'mesod001'
p2138
(lp2139
g2138
aS'Devin Mesoraco'
p2140
aI352
aI323
aI31
aI77
aI13
aI0
aI9
aI42
aI0
aI2
aI24
aI61
aI117
asS'orr-p001'
p2141
(lp2142
g2141
aS'Pete Orr'
p2143
aI22
aI20
aI1
aI4
aI0
aI0
aI0
aI0
aI0
aI0
aI2
aI8
aI4
asS'machm001'
p2144
(lp2145
g2144
aS'Manny Machado'
p2146
aI710
aI667
aI88
aI189
aI51
aI3
aI14
aI71
aI6
aI7
aI29
aI113
aI288
asS'kenni001'
p2147
(lp2148
g2147
aS'Ian Kennedy'
p2149
aI64
aI53
aI1
aI7
aI3
aI0
aI0
aI1
aI0
aI0
aI5
aI28
aI10
asS'garlj001'
p2150
(lp2151
g2150
aS'Jon Garland'
p2152
aI21
aI19
aI0
aI3
aI1
aI0
aI0
aI0
aI0
aI0
aI0
aI5
aI4
asS'zobrb001'
p2153
(lp2154
g2153
aS'Ben Zobrist'
p2155
aI698
aI612
aI77
aI168
aI36
aI3
aI12
aI71
aI11
aI3
aI72
aI91
aI246
asS'wellv001'
p2156
(lp2157
g2156
aS'Vernon Wells'
p2158
aI458
aI424
aI45
aI99
aI16
aI0
aI11
aI50
aI7
aI3
aI30
aI73
aI148
asS'pattt001'
p2159
(lp2160
g2159
aS'Troy Patton'
p2161
aI1
aI1
aI0
aI0
aI0
aI0
aI0
aI0
aI0
aI0
aI0
aI0
aI0
asS'penar002'
p2162
(lp2163
g2162
aS'Ramiro Pena'
p2164
aI107
aI97
aI14
aI27
aI5
aI1
aI3
aI12
aI0
aI2
aI8
aI18
aI43
asS'hammj002'
p2165
(lp2166
g2165
aS'Jason Hammel'
p2167
aI4
aI3
aI0
aI0
aI0
aI0
aI0
aI0
aI0
aI0
aI0
aI2
aI0
asS'denoc001'
p2168
(lp2169
g2168
aS'Chris Denorfia'
p2170
aI520
aI473
aI67
aI132
aI21
aI2
aI10
aI47
aI11
aI0
aI42
aI84
aI187
asS'ramij002'
p2171
(lp2172
g2171
aS'J.C. Ramirez'
p2173
aI1
aI1
aI0
aI0
aI0
aI0
aI0
aI0
aI0
aI0
aI0
aI0
aI0
asS'huntt001'
p2174
(lp2175
g2174
aS'Torii Hunter'
p2176
aI652
aI606
aI90
aI184
aI37
aI5
aI17
aI84
aI3
aI2
aI26
aI113
aI282
asS'ramij004'
p2177
(lp2178
g2177
aS'Jose Ramirez'
p2179
aI14
aI12
aI5
aI4
aI0
aI1
aI0
aI0
aI0
aI1
aI2
aI2
aI6
asS'bakes002'
p2180
(lp2181
g2180
aS'Scott Baker'
p2182
aI4
aI3
aI0
aI0
aI0
aI0
aI0
aI0
aI0
aI0
aI0
aI2
aI0
asS'schem001'
p2183
(lp2184
g2183
aS'Max Scherzer'
p2185
aI3
aI3
aI0
aI1
aI1
aI0
aI0
aI1
aI0
aI0
aI0
aI0
aI2
asS'verlj001'
p2186
(lp2187
g2186
aS'Justin Verlander'
p2188
aI2
aI2
aI0
aI0
aI0
aI0
aI0
aI0
aI0
aI0
aI0
aI1
aI0
asS'kozmp001'
p2189
(lp2190
g2189
aS'Pete Kozma'
p2191
aI448
aI410
aI44
aI89
aI20
aI0
aI1
aI35
aI3
aI1
aI34
aI91
aI112
asS'varva001'
p2192
(lp2193
g2192
aS'Anthony Varvaro'
p2194
aI1
aI1
aI0
aI0
aI0
aI0
aI0
aI0
aI0
aI0
aI0
aI1
aI0
asS'mauej001'
p2195
(lp2196
g2195
aS'Joe Mauer'
p2197
aI508
aI445
aI62
aI144
aI35
aI0
aI11
aI47
aI0
aI1
aI61
aI89
aI212
asS'calla001'
p2198
(lp2199
g2198
aS'Alberto Callaspo'
p2200
aI516
aI453
aI52
aI117
aI20
aI0
aI10
aI58
aI0
aI2
aI53
aI47
aI167
asS'medlk001'
p2201
(lp2202
g2201
aS'Kris Medlen'
p2203
aI67
aI55
aI3
aI9
aI2
aI0
aI1
aI4
aI1
aI0
aI4
aI23
aI14
asS'plout001'
p2204
(lp2205
g2204
aS'Trevor Plouffe'
p2206
aI522
aI477
aI44
aI121
aI22
aI1
aI14
aI52
aI2
aI1
aI34
aI112
aI187
asS'youne003'
p2207
(lp2208
g2207
aS'Eric Young'
p2209
aI598
aI539
aI70
aI134
aI27
aI7
aI2
aI32
aI46
aI11
aI46
aI100
aI181
asS'moliy001'
p2210
(lp2211
g2210
aS'Yadier Molina'
p2212
aI541
aI505
aI68
aI161
aI44
aI0
aI12
aI80
aI3
aI2
aI30
aI55
aI241
asS'dickr001'
p2213
(lp2214
g2213
aS'R.A. Dickey'
p2215
aI6
aI6
aI2
aI2
aI1
aI0
aI0
aI1
aI0
aI0
aI0
aI0
aI3
asS'tanak001'
p2216
(lp2217
g2216
aS'Kensuke Tanaka'
p2218
aI34
aI30
aI4
aI8
aI0
aI0
aI0
aI2
aI2
aI0
aI4
aI3
aI8
asS'jackr005'
p2219
(lp2220
g2219
aS'Ryan Jackson'
p2221
aI7
aI7
aI0
aI0
aI0
aI0
aI0
aI0
aI0
aI0
aI0
aI2
aI0
asS'mornj001'
p2222
(lp2223
g2222
aS'Justin Morneau'
p2224
aI635
aI572
aI62
aI148
aI36
aI0
aI17
aI77
aI0
aI0
aI50
aI110
aI235
asS'poseb001'
p2225
(lp2226
g2225
aS'Buster Posey'
p2227
aI595
aI520
aI61
aI153
aI34
aI1
aI15
aI72
aI2
aI1
aI60
aI70
aI234
asS'hannj001'
p2228
(lp2229
g2228
aS'Jack Hannahan'
p2230
aI162
aI139
aI12
aI30
aI5
aI1
aI1
aI14
aI0
aI0
aI19
aI38
aI40
asS'bumgm001'
p2231
(lp2232
g2231
aS'Madison Bumgarner'
p2233
aI69
aI56
aI3
aI6
aI0
aI0
aI0
aI4
aI0
aI0
aI5
aI30
aI6
asS'dukez001'
p2234
(lp2235
g2234
aS'Zach Duke'
p2236
aI2
aI2
aI0
aI2
aI0
aI0
aI0
aI0
aI0
aI0
aI0
aI0
aI2
asS'congh001'
p2237
(lp2238
g2237
aS'Hank Conger'
p2239
aI255
aI233
aI23
aI58
aI13
aI1
aI7
aI21
aI0
aI1
aI17
aI61
aI94
asS'turnj001'
p2240
(lp2241
g2240
aS'Justin Turner'
p2242
aI214
aI200
aI12
aI56
aI13
aI1
aI2
aI16
aI0
aI1
aI11
aI34
aI77
asS'beltb001'
p2243
(lp2244
g2243
aS'Brandon Belt'
p2245
aI571
aI509
aI76
aI147
aI39
aI4
aI17
aI67
aI5
aI2
aI52
aI125
aI245
asS'siegk001'
p2246
(lp2247
g2246
aS'Kevin Siegrist'
p2248
aI1
aI1
aI0
aI0
aI0
aI0
aI0
aI0
aI0
aI0
aI0
aI1
aI0
asS'zimmj003'
p2249
(lp2250
g2249
aS'Jordan Zimmermann'
p2251
aI73
aI65
aI4
aI8
aI1
aI0
aI0
aI2
aI0
aI0
aI1
aI20
aI9
asS'butlb003'
p2252
(lp2253
g2252
aS'Billy Butler'
p2254
aI668
aI582
aI62
aI168
aI27
aI0
aI15
aI82
aI0
aI0
aI79
aI102
aI240
asS'ankir001'
p2255
(lp2256
g2255
aS'Rick Ankiel'
p2257
aI136
aI128
aI13
aI24
aI7
aI1
aI7
aI18
aI0
aI1
aI8
aI60
aI54
asS'ludwr001'
p2258
(lp2259
g2258
aS'Ryan Ludwick'
p2260
aI140
aI129
aI7
aI31
aI5
aI0
aI2
aI12
aI0
aI0
aI10
aI29
aI42
asS'martv001'
p2261
(lp2262
g2261
aS'Victor Martinez'
p2263
aI668
aI605
aI68
aI182
aI36
aI0
aI14
aI83
aI0
aI2
aI54
aI62
aI260
asS'crowt001'
p2264
(lp2265
g2264
aS'Trevor Crowe'
p2266
aI181
aI165
aI18
aI36
aI7
aI1
aI1
aI13
aI6
aI1
aI16
aI39
aI48
asS'leroc001'
p2267
(lp2268
g2267
aS'Chris Leroux'
p2269
aI1
aI1
aI0
aI0
aI0
aI0
aI0
aI0
aI0
aI0
aI0
aI0
aI0
asS'wallb001'
p2270
(lp2271
g2270
aS'Brett Wallace'
p2272
aI285
aI262
aI35
aI58
aI14
aI1
aI13
aI36
aI1
aI1
aI18
aI104
aI113
asS'cloyt001'
p2273
(lp2274
g2273
aS'Tyler Cloyd'
p2275
aI22
aI18
aI1
aI2
aI1
aI0
aI0
aI1
aI0
aI0
aI2
aI4
aI3
asS'lobaj001'
p2276
(lp2277
g2276
aS'Jose Lobaton'
p2278
aI311
aI277
aI38
aI69
aI15
aI2
aI7
aI32
aI0
aI1
aI30
aI65
aI109
asS'pintj001'
p2279
(lp2280
g2279
aS'Josmil Pinto'
p2281
aI83
aI76
aI10
aI26
aI5
aI0
aI4
aI12
aI0
aI0
aI6
aI22
aI43
asS'outmj001'
p2282
(lp2283
g2282
aS'Josh Outman'
p2284
aI5
aI5
aI0
aI0
aI0
aI0
aI0
aI0
aI0
aI0
aI0
aI2
aI0
asS'haled001'
p2285
(lp2286
g2285
aS'David Hale'
p2287
aI4
aI4
aI0
aI0
aI0
aI0
aI0
aI0
aI0
aI0
aI0
aI3
aI0
asS'browd004'
p2288
(lp2289
g2288
aS'Domonic Brown'
p2290
aI540
aI496
aI65
aI135
aI21
aI4
aI27
aI83
aI8
aI3
aI39
aI97
aI245
asS'jeted001'
p2291
(lp2292
g2291
aS'Derek Jeter'
p2293
aI73
aI63
aI8
aI12
aI1
aI0
aI1
aI7
aI0
aI0
aI8
aI10
aI16
asS'moorm003'
p2294
(lp2295
g2294
aS'Matt Moore'
p2296
aI2
aI2
aI0
aI0
aI0
aI0
aI0
aI0
aI0
aI0
aI0
aI0
aI0
asS'schal001'
p2297
(lp2298
g2297
aS'Logan Schafer'
p2299
aI337
aI298
aI29
aI63
aI15
aI3
aI4
aI33
aI7
aI1
aI25
aI60
aI96
asS'curtj002'
p2300
(lp2301
g2300
aS'Jermaine Curtis'
p2302
aI5
aI3
aI0
aI0
aI0
aI0
aI0
aI0
aI0
aI0
aI1
aI1
aI0
asS'blang001'
p2303
(lp2304
g2303
aS'Gregor Blanco'
p2305
aI511
aI452
aI50
aI120
aI17
aI6
aI3
aI41
aI14
aI9
aI52
aI95
aI158
asS'adamd001'
p2306
(lp2307
g2306
aS'David Adams'
p2308
aI152
aI140
aI10
aI27
aI5
aI1
aI2
aI13
aI0
aI0
aI9
aI43
aI40
asS'stule002'
p2309
(lp2310
g2309
aS'Eric Stults'
p2311
aI69
aI61
aI2
aI10
aI1
aI0
aI1
aI4
aI0
aI0
aI0
aI21
aI14
asS'holmd002'
p2312
(lp2313
g2312
aS'David Holmberg'
p2314
aI1
aI1
aI0
aI0
aI0
aI0
aI0
aI0
aI0
aI0
aI0
aI1
aI0
asS'stanm004'
p2315
(lp2316
g2315
aS'Giancarlo Stanton'
p2317
aI504
aI425
aI62
aI106
aI26
aI0
aI24
aI62
aI1
aI0
aI74
aI140
aI204
asS'hamij003'
p2318
(lp2319
g2318
aS'Josh Hamilton'
p2320
aI636
aI576
aI73
aI144
aI32
aI5
aI21
aI79
aI4
aI0
aI47
aI158
aI249
asS'river003'
p2321
(lp2322
g2321
aS'Rene Rivera'
p2323
aI71
aI67
aI4
aI17
aI3
aI1
aI0
aI7
aI0
aI0
aI2
aI16
aI22
asS'peree003'
p2324
(lp2325
g2324
aS'Eury Perez'
p2326
aI8
aI8
aI1
aI1
aI0
aI0
aI0
aI0
aI1
aI0
aI0
aI3
aI1
asS'corbp001'
p2327
(lp2328
g2327
aS'Patrick Corbin'
p2329
aI73
aI65
aI8
aI8
aI4
aI0
aI0
aI3
aI0
aI0
aI2
aI23
aI12
asS'pridj001'
p2330
(lp2331
g2330
aS'Jason Pridie'
p2332
aI10
aI10
aI0
aI2
aI0
aI0
aI0
aI1
aI0
aI0
aI0
aI2
aI2
asS'jansk001'
p2333
(lp2334
g2333
aS'Kenley Jansen'
p2335
aI1
aI1
aI0
aI0
aI0
aI0
aI0
aI0
aI0
aI0
aI0
aI0
aI0
asS'petta001'
p2336
(lp2337
g2336
aS'Andy Pettitte'
p2338
aI2
aI2
aI0
aI0
aI0
aI0
aI0
aI0
aI0
aI0
aI0
aI1
aI0
asS'duncs001'
p2339
(lp2340
g2339
aS'Shelley Duncan'
p2341
aI64
aI55
aI6
aI10
aI1
aI0
aI2
aI6
aI0
aI0
aI9
aI14
aI17
asS'sanch002'
p2342
(lp2343
g2342
aS'Hector Sanchez'
p2344
aI140
aI129
aI8
aI32
aI4
aI0
aI3
aI19
aI0
aI0
aI7
aI29
aI45
asS'grifa002'
p2345
(lp2346
g2345
aS'A.J. Griffin'
p2347
aI5
aI4
aI0
aI0
aI0
aI0
aI0
aI0
aI0
aI0
aI1
aI3
aI0
asS'gyorj001'
p2348
(lp2349
g2348
aS'Jedd Gyorko'
p2350
aI525
aI486
aI62
aI121
aI26
aI0
aI23
aI63
aI1
aI1
aI33
aI123
aI216
asS'belir001'
p2351
(lp2352
g2351
aS'Ronald Belisario'
p2353
aI1
aI1
aI0
aI0
aI0
aI0
aI0
aI0
aI0
aI0
aI0
aI0
aI0
asS'valdr002'
p2354
(lp2355
g2354
aS'Raul Valdes'
p2356
aI4
aI3
aI0
aI1
aI1
aI0
aI0
aI0
aI0
aI0
aI0
aI0
aI2
asS'domij002'
p2357
(lp2358
g2357
aS'Jose Dominguez'
p2359
aI1
aI1
aI0
aI0
aI0
aI0
aI0
aI0
aI0
aI0
aI0
aI1
aI0
asS'colac001'
p2360
(lp2361
g2360
aS'Chris Colabello'
p2362
aI181
aI160
aI14
aI31
aI3
aI0
aI7
aI17
aI0
aI1
aI20
aI58
aI55
asS'langm002'
p2363
(lp2364
g2363
aS'Matt Langwell'
p2365
aI1
aI1
aI0
aI0
aI0
aI0
aI0
aI0
aI0
aI0
aI0
aI0
aI0
asS'alony001'
p2366
(lp2367
g2366
aS'Yonder Alonso'
p2368
aI375
aI334
aI34
aI94
aI11
aI0
aI6
aI45
aI6
aI0
aI32
aI47
aI123
asS'dobbg001'
p2369
(lp2370
g2369
aS'Greg Dobbs'
p2371
aI267
aI237
aI21
aI54
aI11
aI0
aI2
aI22
aI1
aI1
aI22
aI40
aI71
asS'harrl002'
p2372
(lp2373
g2372
aS'Lucas Harrell'
p2374
aI6
aI4
aI0
aI1
aI0
aI0
aI0
aI0
aI0
aI0
aI2
aI2
aI1
asS'walkn001'
p2375
(lp2376
g2375
aS'Neil Walker'
p2377
aI551
aI478
aI62
aI120
aI24
aI4
aI16
aI53
aI1
aI2
aI50
aI85
aI200
asS'torra001'
p2378
(lp2379
g2378
aS'Andres Torres'
p2380
aI300
aI272
aI33
aI68
aI17
aI1
aI2
aI21
aI4
aI3
aI22
aI61
aI93
asS'arcio001'
p2381
(lp2382
g2381
aS'Oswaldo Arcia'
p2383
aI378
aI351
aI34
aI88
aI17
aI2
aI14
aI43
aI1
aI2
aI23
aI117
aI151
asS'zimmr001'
p2384
(lp2385
g2384
aS'Ryan Zimmerman'
p2386
aI633
aI568
aI84
aI156
aI26
aI2
aI26
aI79
aI6
aI0
aI60
aI133
aI264
asS'branr002'
p2387
(lp2388
g2387
aS'Rob Brantly'
p2389
aI243
aI223
aI11
aI47
aI9
aI0
aI1
aI18
aI0
aI0
aI15
aI53
aI59
asS'bernd001'
p2390
(lp2391
g2390
aS'Doug Bernier'
p2392
aI64
aI53
aI9
aI12
aI3
aI0
aI0
aI5
aI2
aI1
aI8
aI15
aI15
asS'dysos001'
p2393
(lp2394
g2393
aS'Sam Dyson'
p2395
aI1
aI1
aI0
aI0
aI0
aI0
aI0
aI0
aI0
aI0
aI0
aI0
aI0
asS'dickc002'
p2396
(lp2397
g2396
aS'Corey Dickerson'
p2398
aI213
aI194
aI32
aI51
aI13
aI5
aI5
aI17
aI2
aI2
aI16
aI41
aI89
asS'staut001'
p2399
(lp2400
g2399
aS'Tim Stauffer'
p2401
aI8
aI8
aI0
aI0
aI0
aI0
aI0
aI0
aI0
aI0
aI0
aI4
aI0
asS'dickc001'
p2402
(lp2403
g2402
aS'Chris Dickerson'
p2404
aI109
aI105
aI17
aI25
aI5
aI0
aI4
aI13
aI5
aI1
aI4
aI36
aI42
asS'lackj001'
p2405
(lp2406
g2405
aS'John Lackey'
p2407
aI6
aI5
aI0
aI0
aI0
aI0
aI0
aI0
aI0
aI0
aI0
aI3
aI0
asS'baxtm001'
p2408
(lp2409
g2408
aS'Mike Baxter'
p2410
aI155
aI132
aI14
aI25
aI6
aI1
aI0
aI4
aI5
aI2
aI17
aI28
aI33
asS'ruizc001'
p2411
(lp2412
g2411
aS'Carlos Ruiz'
p2413
aI341
aI310
aI30
aI83
aI16
aI0
aI5
aI37
aI1
aI0
aI18
aI39
aI114
asS'moort002'
p2414
(lp2415
g2414
aS'Tyler Moore'
p2416
aI178
aI167
aI16
aI37
aI9
aI0
aI4
aI21
aI0
aI0
aI8
aI58
aI58
asS'romia001'
p2417
(lp2418
g2417
aS'Andrew Romine'
p2419
aI123
aI108
aI9
aI28
aI3
aI0
aI0
aI10
aI1
aI0
aI7
aI24
aI31
asS'romia002'
p2420
(lp2421
g2420
aS'Austin Romine'
p2422
aI148
aI135
aI15
aI28
aI9
aI0
aI1
aI10
aI1
aI0
aI8
aI37
aI40
asS'ottaa001'
p2423
(lp2424
g2423
aS'Adam Ottavino'
p2425
aI9
aI9
aI0
aI1
aI0
aI0
aI0
aI0
aI0
aI0
aI0
aI5
aI1
asS'howej003'
p2426
(lp2427
g2426
aS'J.P. Howell'
p2428
aI1
aI1
aI0
aI0
aI0
aI0
aI0
aI0
aI0
aI0
aI0
aI1
aI0
asS'mazzv001'
p2429
(lp2430
g2429
aS'Vin Mazzaro'
p2431
aI6
aI6
aI0
aI1
aI0
aI0
aI0
aI0
aI0
aI0
aI0
aI4
aI1
asS'corpc001'
p2432
(lp2433
g2432
aS'Carlos Corporan'
p2434
aI210
aI191
aI16
aI43
aI5
aI0
aI7
aI20
aI0
aI0
aI10
aI60
aI69
asS'grosr001'
p2435
(lp2436
g2435
aS'Robbie Grossman'
p2437
aI288
aI257
aI29
aI69
aI14
aI0
aI4
aI21
aI6
aI7
aI23
aI70
aI95
asS'marmc001'
p2438
(lp2439
g2438
aS'Carlos Marmol'
p2440
aI1
aI1
aI0
aI0
aI0
aI0
aI0
aI0
aI0
aI0
aI0
aI0
aI0
asS'estrm001'
p2441
(lp2442
g2441
aS'Marco Estrada'
p2443
aI40
aI34
aI1
aI7
aI1
aI0
aI0
aI2
aI0
aI0
aI1
aI16
aI8
asS'collj001'
p2444
(lp2445
g2444
aS'Josh Collmenter'
p2446
aI12
aI11
aI1
aI1
aI0
aI0
aI0
aI0
aI0
aI0
aI0
aI5
aI1
asS'lagaj001'
p2447
(lp2448
g2447
aS'Juan Lagares'
p2449
aI421
aI392
aI35
aI95
aI21
aI5
aI4
aI34
aI6
aI3
aI20
aI96
aI138
asS'dankj002'
p2450
(lp2451
g2450
aS'Jordan Danks'
p2452
aI179
aI160
aI15
aI37
aI7
aI0
aI5
aI12
aI7
aI2
aI18
aI57
aI59
asS'dankj001'
p2453
(lp2454
g2453
aS'John Danks'
p2455
aI4
aI2
aI0
aI0
aI0
aI0
aI0
aI0
aI0
aI0
aI0
aI1
aI0
asS'florw001'
p2456
(lp2457
g2456
aS'Wilmer Flores'
p2458
aI101
aI95
aI8
aI20
aI5
aI0
aI1
aI13
aI0
aI0
aI5
aI23
aI28
asS'halts002'
p2459
(lp2460
g2459
aS'Sean Halton'
p2461
aI111
aI101
aI9
aI24
aI4
aI0
aI4
aI17
aI0
aI0
aI5
aI31
aI40
asS'tholj001'
p2462
(lp2463
g2462
aS'Josh Thole'
p2464
aI135
aI120
aI11
aI21
aI3
aI1
aI1
aI8
aI0
aI0
aI12
aI25
aI29
asS'molij001'
p2465
(lp2466
g2465
aS'Jose Molina'
p2467
aI313
aI283
aI26
aI66
aI14
aI0
aI2
aI18
aI2
aI1
aI22
aI63
aI86
asS'rodrh003'
p2468
(lp2469
g2468
aS'Henry Rodriguez'
p2470
aI10
aI9
aI0
aI1
aI0
aI0
aI0
aI0
aI0
aI0
aI1
aI4
aI1
asS'bakej001'
p2471
(lp2472
g2471
aS'Jeff Baker'
p2473
aI175
aI154
aI21
aI43
aI8
aI0
aI11
aI21
aI1
aI0
aI18
aI48
aI84
asS'ruf-d001'
p2474
(lp2475
g2474
aS'Darin Ruf'
p2476
aI293
aI251
aI36
aI62
aI11
aI0
aI14
aI30
aI0
aI0
aI33
aI91
aI115
asS'hecha001'
p2477
(lp2478
g2477
aS'Adeiny Hechavarria'
p2479
aI578
aI543
aI30
aI123
aI14
aI8
aI3
aI42
aI11
aI10
aI30
aI96
aI162
asS'bakej002'
p2480
(lp2481
g2480
aS'John Baker'
p2482
aI46
aI40
aI0
aI6
aI0
aI0
aI0
aI2
aI0
aI0
aI6
aI12
aI6
asS'velag002'
p2483
(lp2484
g2483
aS'Gil Velazquez'
p2485
aI1
aI1
aI0
aI0
aI0
aI0
aI0
aI0
aI0
aI0
aI0
aI0
aI0
asS'doumr001'
p2486
(lp2487
g2486
aS'Ryan Doumit'
p2488
aI538
aI485
aI49
aI120
aI28
aI1
aI14
aI55
aI1
aI0
aI48
aI99
aI192
asS'snydc002'
p2489
(lp2490
g2489
aS'Chris Snyder'
p2491
aI24
aI20
aI0
aI2
aI0
aI0
aI0
aI1
aI0
aI0
aI4
aI7
aI2
asS'burkg001'
p2492
(lp2493
g2492
aS'Greg Burke'
p2494
aI2
aI2
aI0
aI0
aI0
aI0
aI0
aI0
aI0
aI0
aI0
aI1
aI0
asS'lawrb002'
p2495
(lp2496
g2495
aS'Brett Lawrie'
p2497
aI442
aI401
aI41
aI102
aI18
aI3
aI11
aI46
aI9
aI5
aI30
aI68
aI159
asS'rzepm001'
p2498
(lp2499
g2498
aS'Marc Rzepczynski'
p2500
aI1
aI1
aI0
aI0
aI0
aI0
aI0
aI0
aI0
aI0
aI0
aI1
aI0
asS'betay001'
p2501
(lp2502
g2501
aS'Yuniesky Betancourt'
p2503
aI409
aI391
aI35
aI83
aI15
aI1
aI13
aI46
aI0
aI0
aI14
aI71
aI139
asS'ramih003'
p2504
(lp2505
g2504
aS'Hanley Ramirez'
p2506
aI336
aI304
aI62
aI105
aI25
aI2
aI20
aI57
aI10
aI2
aI27
aI52
aI194
asS'reynm001'
p2507
(lp2508
g2507
aS'Mark Reynolds'
p2509
aI504
aI445
aI55
aI98
aI14
aI0
aI21
aI67
aI3
aI1
aI51
aI154
aI175
asS'wrigd002'
p2510
(lp2511
g2510
aS'David Wright'
p2512
aI492
aI430
aI63
aI132
aI23
aI6
aI18
aI58
aI17
aI3
aI55
aI79
aI221
asS'kendk001'
p2513
(lp2514
g2513
aS'Kyle Kendrick'
p2515
aI66
aI56
aI1
aI7
aI1
aI1
aI0
aI2
aI0
aI0
aI1
aI20
aI10
asS'lynnl001'
p2516
(lp2517
g2516
aS'Lance Lynn'
p2518
aI69
aI54
aI1
aI4
aI0
aI0
aI0
aI2
aI0
aI0
aI4
aI30
aI4
asS'nix-l001'
p2519
(lp2520
g2519
aS'Laynce Nix'
p2521
aI136
aI128
aI11
aI23
aI4
aI0
aI2
aI7
aI1
aI0
aI8
aI44
aI33
asS'quinh001'
p2522
(lp2523
g2522
aS'Humberto Quintero'
p2524
aI140
aI131
aI8
aI31
aI5
aI0
aI4
aI13
aI0
aI0
aI6
aI30
aI48
asS'moscg001'
p2525
(lp2526
g2525
aS'Guillermo Moscoso'
p2527
aI3
aI2
aI0
aI0
aI0
aI0
aI0
aI0
aI0
aI0
aI0
aI1
aI0
asS'adduj002'
p2528
(lp2529
g2528
aS'Jim Adduci'
p2530
aI34
aI31
aI2
aI8
aI1
aI0
aI0
aI0
aI2
aI0
aI3
aI9
aI9
asS'nicaj001'
p2531
(lp2532
g2531
aS'Juan Nicasio'
p2533
aI50
aI36
aI4
aI5
aI0
aI0
aI0
aI3
aI0
aI0
aI4
aI20
aI5
asS'iztum001'
p2534
(lp2535
g2534
aS'Maicer Izturis'
p2536
aI399
aI365
aI33
aI86
aI12
aI0
aI5
aI32
aI1
aI5
aI27
aI38
aI113
asS'rabur001'
p2537
(lp2538
g2537
aS'Ryan Raburn'
p2539
aI277
aI243
aI40
aI66
aI18
aI0
aI16
aI55
aI0
aI0
aI29
aI67
aI132
asS'peteb002'
p2540
(lp2541
g2540
aS'Brock Peterson'
p2542
aI28
aI26
aI0
aI2
aI0
aI0
aI0
aI2
aI0
aI0
aI2
aI11
aI2
asS'wietm001'
p2543
(lp2544
g2543
aS'Matt Wieters'
p2545
aI579
aI523
aI59
aI123
aI29
aI0
aI22
aI79
aI2
aI0
aI43
aI104
aI218
asS'deckj001'
p2546
(lp2547
g2546
aS'Jaff Decker'
p2548
aI31
aI26
aI3
aI4
aI0
aI0
aI1
aI2
aI0
aI1
aI3
aI4
aI7
asS'tabaj002'
p2549
(lp2550
g2549
aS'Jose Tabata'
p2551
aI341
aI308
aI35
aI87
aI17
aI5
aI6
aI33
aI3
aI1
aI23
aI45
aI132
asS'bourj001'
p2552
(lp2553
g2552
aS'Jason Bourgeois'
p2554
aI18
aI16
aI2
aI3
aI0
aI0
aI1
aI2
aI0
aI0
aI2
aI4
aI6
asS'avila001'
p2555
(lp2556
g2555
aS'Alex Avila'
p2557
aI379
aI330
aI39
aI75
aI14
aI1
aI11
aI47
aI0
aI0
aI44
aI112
aI124
asS'tejam001'
p2558
(lp2559
g2558
aS'Miguel Tejada'
p2560
aI167
aI156
aI15
aI45
aI5
aI0
aI3
aI20
aI1
aI0
aI6
aI25
aI59
asS'ortir002'
p2561
(lp2562
g2561
aS'Ramon Ortiz'
p2563
aI1
aI1
aI0
aI0
aI0
aI0
aI0
aI0
aI0
aI0
aI0
aI1
aI0
asS'kuroh001'
p2564
(lp2565
g2564
aS'Hiroki Kuroda'
p2566
aI6
aI6
aI0
aI0
aI0
aI0
aI0
aI0
aI0
aI0
aI0
aI3
aI0
asS'germg001'
p2567
(lp2568
g2567
aS'Gonzalez Germen'
p2569
aI1
aI1
aI0
aI0
aI0
aI0
aI0
aI0
aI0
aI0
aI0
aI1
aI0
asS'frank001'
p2570
(lp2571
g2570
aS'Kevin Frandsen'
p2572
aI278
aI252
aI27
aI59
aI10
aI1
aI5
aI26
aI1
aI0
aI12
aI29
aI86
asS'casha001'
p2573
(lp2574
g2573
aS'Andrew Cashner'
p2575
aI60
aI53
aI7
aI13
aI1
aI0
aI1
aI3
aI2
aI0
aI1
aI25
aI17
asS'aschc001'
p2576
(lp2577
g2576
aS'Cody Asche'
p2578
aI179
aI162
aI18
aI38
aI8
aI1
aI5
aI22
aI1
aI0
aI15
aI43
aI63
asS'lowrj001'
p2579
(lp2580
g2579
aS'Jed Lowrie'
p2581
aI662
aI603
aI80
aI175
aI45
aI2
aI15
aI75
aI1
aI0
aI50
aI91
aI269
asS'beckj002'
p2582
(lp2583
g2582
aS'Josh Beckett'
p2584
aI12
aI8
aI0
aI1
aI0
aI0
aI0
aI0
aI0
aI0
aI1
aI3
aI1
asS'ransc001'
p2585
(lp2586
g2585
aS'Cody Ransom'
p2587
aI193
aI169
aI21
aI32
aI10
aI1
aI9
aI20
aI0
aI0
aI22
aI62
aI71
asS'castw002'
p2588
(lp2589
g2588
aS'Welington Castillo'
p2590
aI428
aI380
aI41
aI104
aI23
aI0
aI8
aI32
aI2
aI0
aI34
aI97
aI151
asS'mendl001'
p2591
(lp2592
g2591
aS'Luis Mendoza'
p2593
aI5
aI5
aI0
aI2
aI0
aI0
aI0
aI1
aI0
aI0
aI0
aI2
aI2
asS'taylm002'
p2594
(lp2595
g2594
aS'Michael Taylor'
p2596
aI25
aI23
aI0
aI1
aI0
aI0
aI0
aI0
aI0
aI0
aI2
aI5
aI1
asS'capuc001'
p2597
(lp2598
g2597
aS'Chris Capuano'
p2599
aI29
aI24
aI1
aI1
aI0
aI0
aI0
aI0
aI0
aI0
aI1
aI8
aI1
asS'stras001'
p2600
(lp2601
g2600
aS'Stephen Strasburg'
p2602
aI61
aI49
aI2
aI7
aI2
aI0
aI0
aI2
aI0
aI0
aI2
aI23
aI9
asS'lillb001'
p2603
(lp2604
g2603
aS'Brent Lillibridge'
p2605
aI61
aI59
aI2
aI7
aI1
aI0
aI0
aI5
aI1
aI0
aI1
aI17
aI8
asS'tepen001'
p2606
(lp2607
g2606
aS'Nick Tepesch'
p2608
aI3
aI3
aI0
aI0
aI0
aI0
aI0
aI0
aI0
aI0
aI0
aI1
aI0
asS'koeht001'
p2609
(lp2610
g2609
aS'Tom Koehler'
p2611
aI41
aI39
aI1
aI3
aI0
aI0
aI0
aI0
aI0
aI0
aI0
aI17
aI3
asS'rollj001'
p2612
(lp2613
g2612
aS'Jimmy Rollins'
p2614
aI666
aI600
aI65
aI151
aI36
aI2
aI6
aI39
aI22
aI6
aI59
aI93
aI209
asS'wongk001'
p2615
(lp2616
g2615
aS'Kolten Wong'
p2617
aI62
aI59
aI6
aI9
aI1
aI0
aI0
aI0
aI3
aI0
aI3
aI12
aI10
asS'centj001'
p2618
(lp2619
g2618
aS'Juan Centeno'
p2620
aI10
aI10
aI0
aI3
aI0
aI0
aI0
aI1
aI0
aI0
aI0
aI1
aI3
asS'cervf001'
p2621
(lp2622
g2621
aS'Francisco Cervelli'
p2623
aI61
aI52
aI12
aI14
aI3
aI0
aI3
aI8
aI0
aI0
aI8
aI9
aI26
asS'salad001'
p2624
(lp2625
g2624
aS'Danny Salazar'
p2626
aI2
aI2
aI0
aI0
aI0
aI0
aI0
aI0
aI0
aI0
aI0
aI2
aI0
asS'castj006'
p2627
(lp2628
g2627
aS'Jason Castro'
p2629
aI491
aI435
aI63
aI120
aI35
aI1
aI18
aI56
aI2
aI1
aI50
aI130
aI211
asS'mills001'
p2630
(lp2631
g2630
aS'Shelby Miller'
p2632
aI63
aI53
aI3
aI4
aI1
aI0
aI1
aI2
aI0
aI0
aI1
aI29
aI8
asS'dirka001'
p2633
(lp2634
g2633
aS'Andy Dirks'
p2635
aI484
aI438
aI60
aI112
aI16
aI2
aI9
aI37
aI7
aI1
aI42
aI84
aI159
asS'holtb002'
p2636
(lp2637
g2636
aS'Brock Holt'
p2638
aI72
aI59
aI9
aI12
aI2
aI0
aI0
aI11
aI1
aI0
aI7
aI4
aI14
asS'greiz001'
p2639
(lp2640
g2639
aS'Zack Greinke'
p2641
aI72
aI58
aI5
aI19
aI3
aI0
aI0
aI4
aI2
aI0
aI7
aI10
aI22
asS'florp001'
p2642
(lp2643
g2642
aS'Pedro Florimon'
p2644
aI446
aI403
aI44
aI89
aI17
aI0
aI9
aI44
aI15
aI6
aI33
aI115
aI133
asS'noonn001'
p2645
(lp2646
g2645
aS'Nick Noonan'
p2647
aI111
aI105
aI12
aI23
aI2
aI0
aI0
aI5
aI0
aI0
aI6
aI24
aI25
asS'gindc001'
p2648
(lp2649
g2648
aS'Caleb Gindl'
p2650
aI155
aI132
aI17
aI32
aI7
aI2
aI5
aI14
aI2
aI1
aI20
aI25
aI58
asS'sanct001'
p2651
(lp2652
g2651
aS'Tony Sanchez'
p2653
aI66
aI60
aI9
aI14
aI4
aI0
aI2
aI5
aI0
aI0
aI3
aI14
aI24
asS'waltz001'
p2654
(lp2655
g2654
aS'Zach Walters'
p2656
aI9
aI8
aI2
aI3
aI0
aI1
aI0
aI1
aI0
aI0
aI1
aI0
aI5
asS'perej001'
p2657
(lp2658
g2657
aS'Juan Perez'
p2659
aI97
aI89
aI8
aI23
aI5
aI0
aI1
aI8
aI2
aI0
aI6
aI21
aI31
asS'franb001'
p2660
(lp2661
g2660
aS'Ben Francisco'
p2662
aI50
aI44
aI4
aI5
aI0
aI0
aI1
aI1
aI0
aI0
aI5
aI11
aI8
asS'cowgc001'
p2663
(lp2664
g2663
aS'Collin Cowgill'
p2665
aI162
aI152
aI18
aI32
aI5
aI2
aI4
aI16
aI1
aI0
aI7
aI42
aI53
asS'gastj001'
p2666
(lp2667
g2666
aS'John Gast'
p2668
aI6
aI5
aI1
aI0
aI0
aI0
aI0
aI0
aI0
aI0
aI1
aI3
aI0
asS'lamba001'
p2669
(lp2670
g2669
aS'Andrew Lambo'
p2671
aI33
aI30
aI4
aI7
aI2
aI0
aI1
aI2
aI0
aI1
aI3
aI11
aI12
asS'browc003'
p2672
(lp2673
g2672
aS'Corey Brown'
p2674
aI15
aI12
aI2
aI2
aI1
aI0
aI1
aI1
aI1
aI0
aI3
aI4
aI6
asS'gimec001'
p2675
(lp2676
g2675
aS'Chris Gimenez'
p2677
aI4
aI3
aI0
aI1
aI1
aI0
aI0
aI0
aI0
aI0
aI1
aI1
aI2
asS'leblw001'
p2678
(lp2679
g2678
aS'Wade LeBlanc'
p2680
aI13
aI12
aI1
aI2
aI0
aI0
aI0
aI0
aI0
aI0
aI0
aI2
aI2
asS'rosas001'
p2681
(lp2682
g2681
aS'Sandy Rosario'
p2683
aI1
aI1
aI0
aI0
aI0
aI0
aI0
aI0
aI0
aI0
aI0
aI1
aI0
asS'beckt001'
p2684
(lp2685
g2684
aS'Tim Beckham'
p2686
aI8
aI7
aI1
aI3
aI0
aI0
aI0
aI1
aI0
aI0
aI0
aI0
aI3
asS'peraj001'
p2687
(lp2688
g2687
aS'Jhonny Peralta'
p2689
aI448
aI409
aI50
aI124
aI30
aI0
aI11
aI55
aI3
aI3
aI35
aI98
aI187
asS'wiggt001'
p2690
(lp2691
g2690
aS'Ty Wigginton'
p2692
aI63
aI57
aI9
aI9
aI2
aI0
aI0
aI3
aI0
aI1
aI5
aI19
aI11
asS'spand001'
p2693
(lp2694
g2693
aS'Denard Span'
p2695
aI662
aI610
aI75
aI170
aI28
aI11
aI4
aI47
aI20
aI6
aI42
aI77
aI232
asS'yelic001'
p2696
(lp2697
g2696
aS'Christian Yelich'
p2698
aI273
aI240
aI34
aI69
aI12
aI1
aI4
aI16
aI10
aI0
aI31
aI66
aI95
asS'dejed001'
p2699
(lp2700
g2699
aS'David DeJesus'
p2701
aI439
aI391
aI52
aI98
aI29
aI3
aI8
aI38
aI5
aI3
aI39
aI79
aI157
asS'hernf002'
p2702
(lp2703
g2702
aS'Felix Hernandez'
p2704
aI6
aI5
aI1
aI0
aI0
aI0
aI0
aI0
aI0
aI0
aI1
aI3
aI0
asS'crisc001'
p2705
(lp2706
g2705
aS'Coco Crisp'
p2707
aI584
aI513
aI93
aI134
aI22
aI3
aI22
aI66
aI21
aI5
aI61
aI65
aI228
asS'montl002'
p2708
(lp2709
g2708
aS'Luke Montz'
p2710
aI30
aI28
aI2
aI5
aI3
aI0
aI1
aI5
aI0
aI0
aI1
aI8
aI11
asS'mastd002'
p2711
(lp2712
g2711
aS'Darin Mastroianni'
p2713
aI73
aI65
aI5
aI12
aI2
aI0
aI0
aI5
aI2
aI1
aI3
aI23
aI14
asS'pujoa001'
p2714
(lp2715
g2714
aS'Albert Pujols'
p2716
aI443
aI391
aI49
aI101
aI19
aI0
aI17
aI64
aI1
aI1
aI40
aI55
aI171
asS'desmi001'
p2717
(lp2718
g2717
aS'Ian Desmond'
p2719
aI655
aI600
aI77
aI168
aI38
aI3
aI20
aI80
aI21
aI6
aI43
aI145
aI272
asS'profj001'
p2720
(lp2721
g2720
aS'Jurickson Profar'
p2722
aI324
aI286
aI30
aI67
aI11
aI0
aI6
aI26
aI2
aI4
aI26
aI63
aI96
asS'pedrd001'
p2723
(lp2724
g2723
aS'Dustin Pedroia'
p2725
aI724
aI641
aI91
aI193
aI42
aI2
aI9
aI84
aI17
aI5
aI73
aI75
aI266
asS'coleg001'
p2726
(lp2727
g2726
aS'Gerrit Cole'
p2728
aI36
aI34
aI3
aI7
aI0
aI0
aI0
aI5
aI0
aI0
aI1
aI14
aI7
asS'roart001'
p2729
(lp2730
g2729
aS'Tanner Roark'
p2731
aI15
aI14
aI0
aI4
aI1
aI0
aI0
aI1
aI0
aI0
aI0
aI5
aI5
asS'harrb001'
p2732
(lp2733
g2732
aS'Brendan Harris'
p2734
aI117
aI107
aI14
aI22
aI4
aI0
aI4
aI9
aI0
aI1
aI6
aI29
aI38
asS'smitb005'
p2735
(lp2736
g2735
aS'Burch Smith'
p2737
aI10
aI9
aI0
aI1
aI0
aI0
aI0
aI0
aI0
aI0
aI1
aI2
aI1
asS'jenkc001'
p2738
(lp2739
g2738
aS'Chad Jenkins'
p2740
aI2
aI2
aI0
aI0
aI0
aI0
aI0
aI0
aI0
aI0
aI0
aI2
aI0
asS'smoaj001'
p2741
(lp2742
g2741
aS'Justin Smoak'
p2743
aI521
aI454
aI53
aI108
aI19
aI0
aI20
aI50
aI0
aI0
aI64
aI119
aI187
asS'clevs001'
p2744
(lp2745
g2744
aS'Steve Clevenger'
p2746
aI24
aI23
aI2
aI5
aI1
aI0
aI0
aI2
aI0
aI0
aI1
aI5
aI6
asS'alvah001'
p2747
(lp2748
g2747
aS'Henderson Alvarez'
p2749
aI35
aI30
aI2
aI9
aI3
aI0
aI1
aI6
aI0
aI0
aI0
aI12
aI15
asS'keara001'
p2750
(lp2751
g2750
aS'Austin Kearns'
p2752
aI31
aI27
aI3
aI5
aI0
aI0
aI0
aI0
aI0
aI0
aI4
aI8
aI5
asS'sanca005'
p2753
(lp2754
g2753
aS'Angel Sanchez'
p2755
aI2
aI2
aI0
aI0
aI0
aI0
aI0
aI0
aI0
aI0
aI0
aI0
aI0
asS'vogts001'
p2756
(lp2757
g2756
aS'Stephen Vogt'
p2758
aI148
aI135
aI18
aI34
aI6
aI1
aI4
aI16
aI0
aI1
aI9
aI28
aI54
asS'partc001'
p2759
(lp2760
g2759
aS'Curtis Partch'
p2761
aI1
aI1
aI0
aI0
aI0
aI0
aI0
aI0
aI0
aI0
aI0
aI0
aI0
asS'pagnm001'
p2762
(lp2763
g2762
aS'Matt Pagnozzi'
p2764
aI22
aI21
aI1
aI3
aI0
aI0
aI0
aI0
aI0
aI0
aI1
aI3
aI3
asS'lidda001'
p2765
(lp2766
g2765
aS'Alex Liddi'
p2767
aI18
aI17
aI0
aI1
aI1
aI0
aI0
aI0
aI0
aI0
aI1
aI7
aI2
asS'bernr001'
p2768
(lp2769
g2768
aS'Roger Bernadina'
p2770
aI250
aI227
aI26
aI41
aI10
aI2
aI4
aI11
aI4
aI0
aI16
aI65
aI67
asS'cobba001'
p2771
(lp2772
g2771
aS'Alex Cobb'
p2773
aI3
aI3
aI0
aI0
aI0
aI0
aI0
aI0
aI0
aI0
aI0
aI0
aI0
asS'webbr001'
p2774
(lp2775
g2774
aS'Ryan Webb'
p2776
aI3
aI3
aI1
aI1
aI0
aI0
aI0
aI0
aI0
aI0
aI0
aI2
aI1
asS'reyej001'
p2777
(lp2778
g2777
aS'Jose Reyes'
p2779
aI419
aI382
aI58
aI113
aI20
aI0
aI10
aI37
aI15
aI6
aI34
aI47
aI163
asS'colob001'
p2780
(lp2781
g2780
aS'Bartolo Colon'
p2782
aI6
aI6
aI0
aI0
aI0
aI0
aI0
aI0
aI0
aI0
aI0
aI3
aI0
asS'blanj001'
p2783
(lp2784
g2783
aS'Joe Blanton'
p2785
aI6
aI6
aI0
aI1
aI0
aI0
aI0
aI0
aI0
aI0
aI0
aI2
aI1
asS'mahop002'
p2786
(lp2787
g2786
aS'Paul Maholm'
p2788
aI57
aI52
aI2
aI7
aI2
aI0
aI0
aI2
aI0
aI0
aI1
aI25
aI9
asS'chacj001'
p2789
(lp2790
g2789
aS'Jhoulys Chacin'
p2791
aI70
aI63
aI2
aI12
aI1
aI0
aI1
aI7
aI0
aI0
aI3
aI15
aI16
asS'minom001'
p2792
(lp2793
g2792
aS'Mike Minor'
p2794
aI70
aI61
aI3
aI10
aI1
aI0
aI1
aI6
aI0
aI0
aI2
aI25
aI14
asa(dp2795
g5
(lp2796
g5
ag7
aS'121.0'
p2797
aI107
aI46
aI44
aI13
aI36
aI4
aI78
asS'boggm001'
p2798
(lp2799
g2798
aS'Mitchell Boggs'
p2800
aS' 23.1'
p2801
aI28
aI23
aI21
aI5
aI20
aI4
aI16
asg11
(lp2802
g11
ag13
aS' 86.1'
p2803
aI79
aI34
aI33
aI15
aI17
aI1
aI75
asS'ramoa001'
p2804
(lp2805
g2804
aS'A.J. Ramos'
p2806
aS' 80.0'
p2807
aI58
aI32
aI28
aI4
aI43
aI3
aI86
asS'perel001'
p2808
(lp2809
g2808
aS'Luis Perez'
p2810
aS'  5.0'
p2811
aI4
aI3
aI3
aI0
aI2
aI0
aI6
asS'basta001'
p2812
(lp2813
g2812
aS'Antonio Bastardo'
p2814
aS' 42.2'
p2815
aI33
aI12
aI11
aI2
aI21
aI1
aI47
asg38
(lp2816
g38
ag40
aS'202.0'
p2817
aI199
aI88
aI85
aI32
aI34
aI2
aI124
asg44
(lp2818
g44
ag46
aS'124.0'
p2819
aI124
aI42
aI37
aI10
aI44
aI4
aI79
asS'kimbc001'
p2820
(lp2821
g2820
aS'Craig Kimbrel'
p2822
aS' 67.0'
p2823
aI39
aI10
aI9
aI4
aI20
aI2
aI98
asS'teafe001'
p2824
(lp2825
g2824
aS'Everett Teaford'
p2826
aS'  0.2'
p2827
aI1
aI0
aI0
aI0
aI0
aI0
aI0
asg56
(lp2828
g56
ag58
aS'184.1'
p2829
aI158
aI85
aI82
aI23
aI55
aI3
aI158
asS'wrigj001'
p2830
(lp2831
g2830
aS'Jamey Wright'
p2832
aS' 70.0'
p2833
aI61
aI25
aI24
aI4
aI23
aI3
aI65
asg59
(lp2834
g59
ag61
aS'169.1'
p2835
aI181
aI93
aI86
aI23
aI55
aI2
aI107
asg62
(lp2836
g62
ag64
aS' 27.2'
p2837
aI27
aI25
aI20
aI6
aI28
aI1
aI26
asS'jurrj001'
p2838
(lp2839
g2838
aS'Jair Jurrjens'
p2840
aS'  7.1'
p2841
aI9
aI4
aI4
aI1
aI1
aI0
aI6
asS'perkg001'
p2842
(lp2843
g2842
aS'Glen Perkins'
p2844
aS' 62.2'
p2845
aI43
aI16
aI16
aI5
aI15
aI0
aI77
asg443
(lp2846
g443
ag445
aS' 81.2'
p2847
aI78
aI30
aI25
aI4
aI27
aI3
aI79
asS'fujik001'
p2848
(lp2849
g2848
aS'Kyuji Fujikawa'
p2850
aS' 12.0'
p2851
aI11
aI7
aI7
aI1
aI2
aI0
aI14
asS'dolir001'
p2852
(lp2853
g2852
aS'Rafael Dolis'
p2854
aS'  5.0'
p2855
aI3
aI2
aI0
aI0
aI2
aI0
aI0
asg92
(lp2856
g92
ag94
aS'182.0'
p2857
aI156
aI56
aI52
aI9
aI54
aI1
aI202
asS'scrie001'
p2858
(lp2859
g2858
aS'Evan Scribner'
p2860
aS' 26.2'
p2861
aI26
aI13
aI13
aI3
aI7
aI0
aI19
asS'lecus001'
p2862
(lp2863
g2862
aS'Sam LeCure'
p2864
aS' 61.0'
p2865
aI50
aI18
aI18
aI4
aI24
aI0
aI66
asS'mcgod001'
p2866
(lp2867
g2866
aS'Dustin McGowan'
p2868
aS' 25.2'
p2869
aI19
aI11
aI7
aI2
aI12
aI1
aI26
asg98
(lp2870
g98
ag100
aS'180.2'
p2871
aI180
aI92
aI84
aI18
aI66
aI1
aI144
asS'hernd002'
p2872
(lp2873
g2872
aS'David Hernandez'
p2874
aS' 62.1'
p2875
aI50
aI33
aI31
aI10
aI24
aI4
aI66
asg614
(lp2876
g614
ag616
aS'  1.0'
p2877
aI0
aI0
aI0
aI0
aI0
aI0
aI0
asg1472
(lp2878
g1472
ag1474
aS' 52.2'
p2879
aI65
aI44
aI41
aI13
aI21
aI1
aI24
asg119
(lp2880
g119
ag121
aS' 16.2'
p2881
aI23
aI14
aI14
aI1
aI7
aI3
aI15
asg125
(lp2882
g125
ag127
aS'  0.1'
p2883
aI0
aI0
aI0
aI0
aI0
aI0
aI0
asg128
(lp2884
g128
ag130
aS' 73.2'
p2885
aI50
aI17
aI17
aI4
aI28
aI1
aI59
asg131
(lp2886
g131
ag133
aS' 32.1'
p2887
aI49
aI31
aI31
aI3
aI9
aI0
aI34
asS'putnz001'
p2888
(lp2889
g2888
aS'Zach Putnam'
p2890
aS'  3.1'
p2891
aI9
aI7
aI7
aI1
aI0
aI0
aI4
asS'rapac001'
p2892
(lp2893
g2892
aS'Clay Rapada'
p2894
aS'  2.0'
p2895
aI1
aI0
aI0
aI0
aI2
aI0
aI0
asg2354
(lp2896
g2354
ag2356
aS' 35.0'
p2897
aI42
aI29
aI29
aI7
aI8
aI0
aI37
asg146
(lp2898
g146
ag148
aS'176.2'
p2899
aI196
aI89
aI82
aI17
aI67
aI0
aI147
asS'okajh001'
p2900
(lp2901
g2900
aS'Hideki Okajima'
p2902
aS'  4.0'
p2903
aI7
aI1
aI1
aI1
aI2
aI2
aI1
asg152
(lp2904
g152
ag154
aS' 75.1'
p2905
aI88
aI35
aI34
aI6
aI18
aI4
aI48
asg944
(lp2906
g944
ag946
aS'182.2'
p2907
aI163
aI75
aI67
aI16
aI80
aI0
aI194
asS'huffd001'
p2908
(lp2909
g2908
aS'David Huff'
p2910
aS' 37.2'
p2911
aI33
aI23
aI23
aI7
aI9
aI1
aI31
asS'johnj010'
p2912
(lp2913
g2912
aS'Jim Johnson'
p2914
aS' 70.1'
p2915
aI72
aI26
aI23
aI5
aI18
aI4
aI56
asS'adamm001'
p2916
(lp2917
g2916
aS'Mike Adams'
p2918
aS' 25.0'
p2919
aI23
aI11
aI11
aI5
aI11
aI0
aI23
asg161
(lp2920
g161
ag163
aS' 62.2'
p2921
aI58
aI26
aI25
aI10
aI12
aI1
aI46
asS'romos001'
p2922
(lp2923
g2922
aS'Sergio Romo'
p2924
aS' 60.1'
p2925
aI53
aI20
aI17
aI5
aI12
aI3
aI58
asS'pryos001'
p2926
(lp2927
g2926
aS'Stephen Pryor'
p2928
aS'  7.1'
p2929
aI3
aI0
aI0
aI0
aI1
aI0
aI7
asS'hendl001'
p2930
(lp2931
g2930
aS'Liam Hendriks'
p2932
aS' 47.1'
p2933
aI67
aI39
aI36
aI10
aI14
aI1
aI34
asS'burnc001'
p2934
(lp2935
g2934
aS'Cory Burns'
p2936
aS' 11.1'
p2937
aI12
aI4
aI4
aI1
aI7
aI2
aI5
asg179
(lp2938
g179
ag181
aS'106.1'
p2939
aI100
aI44
aI40
aI7
aI40
aI3
aI78
asg2468
(lp2940
g2468
ag2470
aS' 22.0'
p2941
aI20
aI12
aI10
aI2
aI20
aI1
aI12
asS'kohnm001'
p2942
(lp2943
g2942
aS'Michael Kohn'
p2944
aS' 53.0'
p2945
aI42
aI22
aI22
aI7
aI28
aI3
aI52
asS'purcd001'
p2946
(lp2947
g2946
aS'David Purcey'
p2948
aS' 25.1'
p2949
aI19
aI7
aI6
aI2
aI17
aI4
aI23
asS'schet001'
p2950
(lp2951
g2950
aS'Tanner Scheppers'
p2952
aS' 76.2'
p2953
aI58
aI21
aI16
aI6
aI24
aI4
aI59
asS'smitj002'
p2954
(lp2955
g2954
aS'Joe Smith'
p2956
aS' 63.0'
p2957
aI54
aI17
aI16
aI5
aI23
aI2
aI54
asS'volsc001'
p2958
(lp2959
g2958
aS'Chris Volstad'
p2960
aS'  8.1'
p2961
aI19
aI10
aI10
aI1
aI1
aI0
aI3
asg200
(lp2962
g200
ag202
aS' 15.0'
p2963
aI12
aI5
aI4
aI2
aI8
aI0
aI10
asS'kensl001'
p2964
(lp2965
g2964
aS'Logan Kensing'
p2966
aS'  0.2'
p2967
aI0
aI0
aI0
aI0
aI1
aI0
aI1
asg206
(lp2968
g206
ag208
aS' 40.0'
p2969
aI42
aI27
aI27
aI9
aI26
aI2
aI47
asg215
(lp2970
g215
ag217
aS'208.2'
p2971
aI229
aI91
aI85
aI14
aI44
aI2
aI159
asg227
(lp2972
g227
ag229
aS'116.1'
p2973
aI116
aI59
aI55
aI24
aI23
aI2
aI79
asS'bowdm001'
p2974
(lp2975
g2974
aS'Michael Bowden'
p2976
aS' 37.2'
p2977
aI32
aI18
aI18
aI3
aI15
aI2
aI23
asS'resoc001'
p2978
(lp2979
g2978
aS'Chris Resop'
p2980
aS' 18.0'
p2981
aI22
aI13
aI12
aI3
aI10
aI1
aI13
asS'waltp001'
p2982
(lp2983
g2982
aS'P.J. Walters'
p2984
aS' 39.1'
p2985
aI51
aI30
aI26
aI5
aI18
aI0
aI22
asg2372
(lp2986
g2372
ag2374
aS'153.2'
p2987
aI174
aI111
aI100
aI20
aI88
aI5
aI89
asS'reede002'
p2988
(lp2989
g2988
aS'Evan Reed'
p2990
aS' 23.1'
p2991
aI28
aI16
aI11
aI2
aI8
aI0
aI17
asg1946
(lp2992
g1946
ag1948
aS'228.2'
p2993
aI215
aI82
aI80
aI20
aI68
aI0
aI196
asg1550
(lp2994
g1550
ag1552
aS' 77.2'
p2995
aI76
aI29
aI27
aI3
aI27
aI1
aI77
asS'cishs001'
p2996
(lp2997
g2996
aS'Steve Cishek'
p2998
aS' 69.2'
p2999
aI53
aI19
aI18
aI3
aI22
aI6
aI74
asS'uehak001'
p3000
(lp3001
g3000
aS'Koji Uehara'
p3002
aS' 74.1'
p3003
aI33
aI10
aI9
aI5
aI9
aI2
aI101
asg1346
(lp3004
g1346
ag1348
aS' 25.2'
p3005
aI11
aI5
aI5
aI1
aI4
aI2
aI28
asg269
(lp3006
g269
ag271
aS'  1.0'
p3007
aI0
aI0
aI0
aI0
aI0
aI0
aI0
asg1238
(lp3008
g1238
ag1240
aS'154.1'
p3009
aI139
aI58
aI56
aI17
aI37
aI0
aI117
asS'maron001'
p3010
(lp3011
g3010
aS'Nick Maronde'
p3012
aS'  5.1'
p3013
aI4
aI6
aI4
aI1
aI8
aI1
aI5
asg293
(lp3014
g293
ag295
aS'171.1'
p3015
aI157
aI81
aI72
aI24
aI53
aI3
aI120
asg299
(lp3016
g299
ag301
aS' 31.1'
p3017
aI27
aI15
aI13
aI3
aI23
aI0
aI23
asg1787
(lp3018
g1787
ag1789
aS'222.2'
p3019
aI193
aI77
aI71
aI22
aI32
aI0
aI222
asS'davie002'
p3020
(lp3021
g3020
aS'Erik Davis'
p3022
aS'  8.2'
p3023
aI10
aI3
aI3
aI0
aI1
aI0
aI12
asS'lee-c004'
p3024
(lp3025
g3024
aS'C.C. Lee'
p3026
aS'  4.1'
p3027
aI4
aI3
aI2
aI0
aI3
aI0
aI4
asS'ramir003'
p3028
(lp3029
g3028
aS'Ramon Ramirez'
p3030
aS'  5.2'
p3031
aI9
aI8
aI7
aI2
aI5
aI0
aI0
asg326
(lp3032
g326
ag328
aS' 26.0'
p3033
aI45
aI29
aI29
aI6
aI5
aI0
aI11
asg329
(lp3034
g329
ag331
aS' 10.0'
p3035
aI2
aI1
aI1
aI0
aI5
aI0
aI8
asS'blact001'
p3036
(lp3037
g3036
aS'Travis Blackley'
p3038
aS' 50.1'
p3039
aI46
aI27
aI27
aI12
aI22
aI4
aI40
asS'jimec002'
p3040
(lp3041
g3040
aS'Cesar Jimenez'
p3042
aS' 17.0'
p3043
aI14
aI7
aI7
aI1
aI10
aI0
aI11
asg341
(lp3044
g341
ag343
aS' 20.2'
p3045
aI13
aI7
aI7
aI2
aI8
aI0
aI15
asS'clemp002'
p3046
(lp3047
g3046
aS'Paul Clemens'
p3048
aS' 73.1'
p3049
aI82
aI48
aI44
aI16
aI26
aI1
aI49
asS'mcfat001'
p3050
(lp3051
g3050
aS'T.J. McFarland'
p3052
aS' 74.2'
p3053
aI83
aI37
aI35
aI7
aI28
aI5
aI58
asg347
(lp3054
g347
ag349
aS' 71.1'
p3055
aI92
aI37
aI32
aI5
aI14
aI2
aI39
asS'bresc001'
p3056
(lp3057
g3056
aS'Craig Breslow'
p3058
aS' 59.2'
p3059
aI49
aI16
aI12
aI3
aI18
aI0
aI33
asg2048
(lp3060
g2048
ag2050
aS'  2.2'
p3061
aI9
aI7
aI7
aI2
aI0
aI0
aI0
asg362
(lp3062
g362
ag364
aS' 31.2'
p3063
aI28
aI17
aI14
aI4
aI22
aI0
aI25
asg368
(lp3064
g368
ag370
aS'131.0'
p3065
aI163
aI88
aI79
aI21
aI36
aI4
aI52
asS'kirkm001'
p3066
(lp3067
g3066
aS'Michael Kirkman'
p3068
aS' 22.0'
p3069
aI36
aI20
aI20
aI2
aI15
aI4
aI25
asg377
(lp3070
g377
ag379
aS' 21.2'
p3071
aI25
aI15
aI15
aI4
aI19
aI1
aI19
asS'craij001'
p3072
(lp3073
g3072
aS'Jesse Crain'
p3074
aS' 36.2'
p3075
aI31
aI6
aI3
aI0
aI11
aI1
aI46
asg383
(lp3076
g383
ag385
aS' 38.2'
p3077
aI42
aI26
aI25
aI7
aI16
aI1
aI31
asS'chapk002'
p3078
(lp3079
g3078
aS'Kevin Chapman'
p3080
aS' 20.1'
p3081
aI13
aI6
aI4
aI1
aI13
aI2
aI15
asg392
(lp3082
g392
ag394
aS' 87.2'
p3083
aI68
aI31
aI28
aI8
aI26
aI2
aI63
asS'downs001'
p3084
(lp3085
g3084
aS'Scott Downs'
p3086
aS' 43.1'
p3087
aI45
aI13
aI12
aI1
aI19
aI2
aI37
asS'veald001'
p3088
(lp3089
g3088
aS'Donnie Veal'
p3090
aS' 29.1'
p3091
aI26
aI16
aI15
aI3
aI16
aI1
aI29
asS'websa001'
p3092
(lp3093
g3092
aS'Allen Webster'
p3094
aS' 30.1'
p3095
aI37
aI30
aI29
aI7
aI18
aI0
aI23
asS'kells001'
p3096
(lp3097
g3096
aS'Shawn Kelley'
p3098
aS' 53.1'
p3099
aI47
aI28
aI26
aI8
aI23
aI2
aI71
asS'petrj001'
p3100
(lp3101
g3100
aS'Jake Petricka'
p3102
aS' 19.1'
p3103
aI20
aI7
aI7
aI0
aI10
aI1
aI10
asS'romee002'
p3104
(lp3105
g3104
aS'Enny Romero'
p3106
aS'  4.2'
p3107
aI1
aI0
aI0
aI0
aI4
aI0
aI0
asS'betad001'
p3108
(lp3109
g3108
aS'Dellin Betances'
p3110
aS'  5.0'
p3111
aI9
aI6
aI6
aI1
aI2
aI0
aI10
asg416
(lp3112
g416
ag418
aS'146.2'
p3113
aI143
aI70
aI65
aI13
aI65
aI2
aI102
asS'parnb001'
p3114
(lp3115
g3114
aS'Bobby Parnell'
p3116
aS' 50.0'
p3117
aI38
aI17
aI12
aI1
aI12
aI3
aI44
asg425
(lp3118
g425
ag427
aS' 17.0'
p3119
aI15
aI11
aI10
aI3
aI16
aI0
aI11
asg2681
(lp3120
g2681
ag2683
aS' 41.2'
p3121
aI38
aI15
aI14
aI1
aI20
aI5
aI24
asg434
(lp3122
g434
ag436
aS' 27.2'
p3123
aI27
aI12
aI12
aI1
aI8
aI2
aI18
asS'freej001'
p3124
(lp3125
g3124
aS'Justin Freeman'
p3126
aS'  1.0'
p3127
aI2
aI2
aI2
aI1
aI0
aI0
aI0
asS'richg002'
p3128
(lp3129
g3128
aS'Garrett Richards'
p3130
aS'145.0'
p3131
aI151
aI73
aI67
aI12
aI44
aI4
aI101
asg2429
(lp3132
g2429
ag2431
aS' 73.2'
p3133
aI68
aI23
aI23
aI3
aI21
aI3
aI46
asS'rossr002'
p3134
(lp3135
g3134
aS'Robbie Ross'
p3136
aS' 62.1'
p3137
aI63
aI21
aI21
aI4
aI19
aI2
aI58
asS'brewc001'
p3138
(lp3139
g3138
aS'Charles Brewer'
p3140
aS'  6.0'
p3141
aI8
aI2
aI2
aI0
aI2
aI0
aI5
asg455
(lp3142
g455
ag457
aS'192.1'
p3143
aI193
aI78
aI72
aI21
aI48
aI4
aI122
asS'gearc001'
p3144
(lp3145
g3144
aS'Cory Gearrin'
p3146
aS' 31.0'
p3147
aI30
aI13
aI13
aI2
aI16
aI2
aI23
asS'crowa001'
p3148
(lp3149
g3148
aS'Aaron Crow'
p3150
aS' 48.0'
p3151
aI49
aI19
aI18
aI6
aI22
aI3
aI44
asS'rothm001'
p3152
(lp3153
g3152
aS'Michael Roth'
p3154
aS' 20.0'
p3155
aI24
aI16
aI16
aI0
aI6
aI0
aI17
asS'waldj001'
p3156
(lp3157
g3156
aS'Jordan Walden'
p3158
aS' 47.0'
p3159
aI39
aI19
aI18
aI4
aI14
aI4
aI54
asg464
(lp3160
g464
ag466
aS'  0.1'
p3161
aI0
aI0
aI0
aI0
aI0
aI0
aI1
asg470
(lp3162
g470
ag472
aS'116.2'
p3163
aI132
aI69
aI60
aI7
aI50
aI3
aI44
asg2678
(lp3164
g2678
ag2680
aS' 55.0'
p3165
aI72
aI40
aI33
aI7
aI20
aI3
aI33
asS'coelr001'
p3166
(lp3167
g3166
aS'Robert Coello'
p3168
aS' 17.0'
p3169
aI14
aI7
aI7
aI1
aI8
aI0
aI23
asg482
(lp3170
g482
ag484
aS' 34.2'
p3171
aI20
aI10
aI10
aI5
aI13
aI0
aI43
asS'cabrc001'
p3172
(lp3173
g3172
aS'Cesar Cabral'
p3174
aS'  3.2'
p3175
aI3
aI1
aI1
aI0
aI1
aI0
aI6
asS'wilsa001'
p3176
(lp3177
g3176
aS'Alex Wilson'
p3178
aS' 27.2'
p3179
aI34
aI16
aI15
aI0
aI14
aI1
aI22
asS'pestv001'
p3180
(lp3181
g3180
aS'Vinnie Pestano'
p3182
aS' 35.1'
p3183
aI37
aI18
aI16
aI6
aI21
aI1
aI37
asg494
(lp3184
g494
ag496
aS' 32.0'
p3185
aI37
aI17
aI17
aI2
aI16
aI1
aI23
asg497
(lp3186
g497
ag499
aS' 53.0'
p3187
aI46
aI15
aI14
aI2
aI12
aI3
aI51
asS'martj004'
p3188
(lp3189
g3188
aS'Joe Martinez'
p3190
aS'  5.0'
p3191
aI4
aI1
aI1
aI0
aI0
aI0
aI3
asg515
(lp3192
g515
ag517
aS'241.2'
p3193
aI223
aI83
aI79
aI15
aI35
aI2
aI219
asS'cedex001'
p3194
(lp3195
g3194
aS'Xavier Cedeno'
p3196
aS' 12.1'
p3197
aI15
aI12
aI9
aI0
aI8
aI0
aI9
asg527
(lp3198
g527
ag529
aS'116.0'
p3199
aI113
aI51
aI42
aI6
aI36
aI1
aI85
asg1259
(lp3200
g1259
ag1261
aS'151.0'
p3201
aI149
aI83
aI77
aI18
aI75
aI0
aI138
asg542
(lp3202
g542
ag544
aS' 77.0'
p3203
aI70
aI38
aI37
aI13
aI23
aI2
aI76
asS'mijaj001'
p3204
(lp3205
g3204
aS'Jose Mijares'
p3206
aS' 49.0'
p3207
aI67
aI24
aI23
aI3
aI20
aI4
aI54
asg560
(lp3208
g560
ag562
aS'193.0'
p3209
aI156
aI75
aI74
aI13
aI76
aI0
aI195
asS'oberb001'
p3210
(lp3211
g3210
aS'Brett Oberholtzer'
p3212
aS' 71.2'
p3213
aI66
aI26
aI22
aI7
aI13
aI0
aI45
asS'gonze001'
p3214
(lp3215
g3214
aS'Edgar Gonzalez'
p3216
aS' 18.0'
p3217
aI26
aI16
aI15
aI6
aI8
aI0
aI11
asg575
(lp3218
g575
ag577
aS' 53.2'
p3219
aI54
aI24
aI22
aI7
aI19
aI2
aI55
asg578
(lp3220
g578
ag580
aS' 72.1'
p3221
aI79
aI44
aI40
aI12
aI26
aI0
aI57
asg1406
(lp3222
g1406
ag1408
aS' 65.0'
p3223
aI57
aI25
aI25
aI8
aI28
aI5
aI37
asg584
(lp3224
g584
ag586
aS' 13.2'
p3225
aI25
aI18
aI18
aI7
aI8
aI0
aI15
asS'morrb001'
p3226
(lp3227
g3226
aS'Brandon Morrow'
p3228
aS' 54.1'
p3229
aI63
aI39
aI34
aI12
aI18
aI1
aI42
asS'andeb004'
p3230
(lp3231
g3230
aS'Brett Anderson'
p3232
aS' 44.2'
p3233
aI51
aI32
aI30
aI5
aI21
aI1
aI46
asg2006
(lp3234
g2006
ag2008
aS'220.0'
p3235
aI205
aI94
aI88
aI21
aI50
aI5
aI202
asS'lim-c001'
p3236
(lp3237
g3236
aS'Chang-Yong Lim'
p3238
aS'  5.0'
p3239
aI6
aI3
aI3
aI0
aI7
aI1
aI5
asS'gregl001'
p3240
(lp3241
g3240
aS'Luke Gregerson'
p3242
aS' 66.1'
p3243
aI49
aI24
aI20
aI3
aI18
aI2
aI64
asg101
(lp3244
g101
ag103
aS' 42.2'
p3245
aI43
aI22
aI19
aI3
aI17
aI2
aI30
asS'marts001'
p3246
(lp3247
g3246
aS'Shairon Martis'
p3248
aS'  9.2'
p3249
aI6
aI6
aI6
aI3
aI4
aI0
aI7
asg620
(lp3250
g620
ag622
aS'  7.1'
p3251
aI15
aI10
aI10
aI2
aI5
aI1
aI7
asg629
(lp3252
g629
ag631
aS'135.0'
p3253
aI161
aI71
aI68
aI13
aI21
aI3
aI76
asg902
(lp3254
g902
ag904
aS'202.2'
p3255
aI201
aI88
aI80
aI21
aI66
aI4
aI147
asg641
(lp3256
g641
ag643
aS' 12.2'
p3257
aI18
aI10
aI10
aI1
aI10
aI0
aI9
asg650
(lp3258
g650
ag652
aS' 54.2'
p3259
aI53
aI26
aI25
aI6
aI15
aI0
aI40
asS'wagnn001'
p3260
(lp3261
g3260
aS'Neil Wagner'
p3262
aS' 38.0'
p3263
aI39
aI17
aI16
aI5
aI13
aI1
aI33
asg656
(lp3264
g656
ag658
aS' 29.2'
p3265
aI29
aI24
aI19
aI1
aI20
aI1
aI25
asS'fontw001'
p3266
(lp3267
g3266
aS'Wilmer Font'
p3268
aS'  1.1'
p3269
aI1
aI0
aI0
aI0
aI2
aI0
aI0
asS'cabra003'
p3270
(lp3271
g3270
aS'Alberto Cabrera'
p3272
aS'  6.0'
p3273
aI7
aI3
aI3
aI0
aI5
aI0
aI4
asg665
(lp3274
g665
ag667
aS'  0.1'
p3275
aI2
aI0
aI0
aI0
aI0
aI0
aI1
asg596
(lp3276
g596
ag598
aS' 12.0'
p3277
aI12
aI4
aI4
aI1
aI5
aI0
aI6
asg692
(lp3278
g692
ag694
aS'  0.1'
p3279
aI0
aI0
aI0
aI0
aI0
aI0
aI0
asg1577
(lp3280
g1577
ag1579
aS'104.1'
p3281
aI87
aI38
aI36
aI11
aI41
aI1
aI72
asg701
(lp3282
g701
ag703
aS' 28.1'
p3283
aI46
aI34
aI32
aI8
aI10
aI2
aI29
asg707
(lp3284
g707
ag709
aS'149.0'
p3285
aI137
aI69
aI59
aI17
aI72
aI2
aI137
asg713
(lp3286
g713
ag715
aS' 24.1'
p3287
aI27
aI15
aI14
aI4
aI12
aI1
aI25
asS'mayay001'
p3288
(lp3289
g3288
aS'Yunesky Maya'
p3290
aS'  0.1'
p3291
aI2
aI2
aI2
aI1
aI0
aI0
aI0
asg722
(lp3292
g722
ag724
aS' 92.0'
p3293
aI106
aI44
aI42
aI12
aI18
aI0
aI76
asS'humbp001'
p3294
(lp3295
g3294
aS'Philip Humber'
p3296
aS' 54.2'
p3297
aI75
aI48
aI48
aI9
aI20
aI1
aI36
asS'aceva001'
p3298
(lp3299
g3298
aS'Alfredo Aceves'
p3300
aS' 37.0'
p3301
aI42
aI21
aI20
aI8
aI22
aI0
aI24
asS'ondrl001'
p3302
(lp3303
g3302
aS'Logan Ondrusek'
p3304
aS' 55.0'
p3305
aI53
aI26
aI25
aI8
aI16
aI1
aI53
asS'roseb003'
p3306
(lp3307
g3306
aS'B.J. Rosenberg'
p3308
aS' 19.2'
p3309
aI20
aI10
aI10
aI0
aI9
aI1
aI19
asg737
(lp3310
g737
ag739
aS' 64.2'
p3311
aI60
aI20
aI20
aI9
aI5
aI1
aI46
asg740
(lp3312
g740
ag742
aS' 55.0'
p3313
aI58
aI36
aI33
aI7
aI27
aI3
aI32
asS'lyonb003'
p3314
(lp3315
g3314
aS'Brandon Lyon'
p3316
aS' 34.1'
p3317
aI43
aI20
aI19
aI3
aI13
aI3
aI23
asg746
(lp3318
g746
ag748
aS' 75.1'
p3319
aI59
aI41
aI40
aI9
aI41
aI1
aI60
asg749
(lp3320
g749
ag751
aS' 54.1'
p3321
aI30
aI15
aI14
aI5
aI19
aI4
aI63
asS'vargj001'
p3322
(lp3323
g3322
aS'Jason Vargas'
p3324
aS'150.0'
p3325
aI162
aI68
aI67
aI17
aI46
aI2
aI109
asS'thatj001'
p3326
(lp3327
g3326
aS'Joe Thatcher'
p3328
aS' 39.1'
p3329
aI40
aI14
aI14
aI4
aI10
aI0
aI36
asg758
(lp3330
g758
ag760
aS'206.1'
p3331
aI184
aI87
aI85
aI33
aI68
aI2
aI179
asg2771
(lp3332
g2771
ag2773
aS'143.1'
p3333
aI120
aI46
aI44
aI13
aI45
aI4
aI134
asS'odorj001'
p3334
(lp3335
g3334
aS'Jake Odorizzi'
p3336
aS' 29.2'
p3337
aI28
aI13
aI13
aI3
aI8
aI0
aI22
asS'harrm001'
p3338
(lp3339
g3338
aS'Matt Harrison'
p3340
aS' 10.2'
p3341
aI14
aI11
aI10
aI2
aI7
aI2
aI12
asg776
(lp3342
g776
ag778
aS' 68.1'
p3343
aI71
aI29
aI28
aI10
aI21
aI1
aI37
asg779
(lp3344
g779
ag781
aS'199.0'
p3345
aI208
aI84
aI80
aI24
aI47
aI0
aI142
asg788
(lp3346
g788
ag790
aS'  1.0'
p3347
aI1
aI2
aI2
aI1
aI1
aI0
aI0
asS'nunov001'
p3348
(lp3349
g3348
aS'Vidal Nuno'
p3350
aS' 20.0'
p3351
aI16
aI5
aI5
aI2
aI6
aI0
aI9
asS'riena001'
p3352
(lp3353
g3352
aS'Andre Rienzo'
p3354
aS' 56.0'
p3355
aI55
aI34
aI30
aI11
aI28
aI0
aI38
asS'belfm001'
p3356
(lp3357
g3356
aS'Mike Belfiore'
p3358
aS'  1.1'
p3359
aI3
aI2
aI2
aI2
aI1
aI0
aI0
asS'workb001'
p3360
(lp3361
g3360
aS'Brandon Workman'
p3362
aS' 41.2'
p3363
aI44
aI23
aI23
aI5
aI15
aI1
aI47
asS'lo--c001'
p3364
(lp3365
g3364
aS'Chia-Jen Lo'
p3366
aS' 19.1'
p3367
aI14
aI9
aI9
aI2
aI13
aI0
aI16
asS'russj003'
p3368
(lp3369
g3368
aS'James Russell'
p3370
aS' 52.2'
p3371
aI46
aI21
aI21
aI7
aI18
aI6
aI37
asg800
(lp3372
g800
ag802
aS'100.0'
p3373
aI90
aI42
aI38
aI10
aI46
aI2
aI84
asS'neshp001'
p3374
(lp3375
g3374
aS'Pat Neshek'
p3376
aS' 40.1'
p3377
aI40
aI17
aI15
aI6
aI15
aI2
aI29
asS'rondh001'
p3378
(lp3379
g3378
aS'Hector Rondon'
p3380
aS' 54.2'
p3381
aI52
aI29
aI29
aI6
aI25
aI5
aI44
asg809
(lp3382
g809
ag811
aS' 25.1'
p3383
aI24
aI13
aI13
aI2
aI15
aI2
aI21
asg812
(lp3384
g812
ag814
aS' 26.2'
p3385
aI40
aI21
aI21
aI11
aI10
aI2
aI15
asS'shawb001'
p3386
(lp3387
g3386
aS'Bryan Shaw'
p3388
aS' 75.0'
p3389
aI60
aI31
aI27
aI4
aI28
aI2
aI73
asg815
(lp3390
g815
ag817
aS' 66.0'
p3391
aI47
aI17
aI17
aI6
aI22
aI3
aI75
asS'jeffj001'
p3392
(lp3393
g3392
aS'Jeremy Jeffress'
p3394
aS' 10.1'
p3395
aI8
aI1
aI1
aI1
aI5
aI0
aI12
asS'dools001'
p3396
(lp3397
g3396
aS'Sean Doolittle'
p3398
aS' 69.0'
p3399
aI53
aI24
aI24
aI4
aI13
aI1
aI60
asg824
(lp3400
g824
ag826
aS'  9.1'
p3401
aI6
aI4
aI2
aI0
aI2
aI0
aI9
asS'fienc001'
p3402
(lp3403
g3402
aS'Casey Fien'
p3404
aS' 62.0'
p3405
aI51
aI28
aI27
aI9
aI12
aI3
aI73
asS'omogb001'
p3406
(lp3407
g3406
aS'Brian Omogrosso'
p3408
aS' 16.1'
p3409
aI28
aI18
aI17
aI2
aI9
aI1
aI16
asg836
(lp3410
g836
ag838
aS'211.0'
p3411
aI224
aI122
aI112
aI28
aI65
aI5
aI175
asS'aardd001'
p3412
(lp3413
g3412
aS'David Aardsma'
p3414
aS' 39.2'
p3415
aI39
aI20
aI19
aI7
aI19
aI6
aI36
asg851
(lp3416
g851
ag853
aS'125.0'
p3417
aI100
aI51
aI44
aI8
aI44
aI4
aI119
asg860
(lp3418
g860
ag862
aS'145.2'
p3419
aI170
aI91
aI84
aI24
aI42
aI4
aI121
asS'streh001'
p3420
(lp3421
g3420
aS'Huston Street'
p3422
aS' 56.2'
p3423
aI44
aI17
aI17
aI12
aI14
aI1
aI46
asg863
(lp3424
g863
ag865
aS'128.1'
p3425
aI170
aI89
aI81
aI24
aI43
aI2
aI73
asS'cokep001'
p3426
(lp3427
g3426
aS'Phil Coke'
p3428
aS' 38.1'
p3429
aI43
aI24
aI23
aI3
aI21
aI7
aI30
asg872
(lp3430
g872
ag874
aS'211.2'
p3431
aI236
aI99
aI95
aI30
aI59
aI1
aI111
asS'rodnf001'
p3432
(lp3433
g3432
aS'Fernando Rodney'
p3434
aS' 66.2'
p3435
aI53
aI27
aI25
aI3
aI36
aI3
aI82
asg389
(lp3436
g389
ag391
aS'143.0'
p3437
aI158
aI68
aI59
aI10
aI48
aI1
aI105
asS'contj002'
p3438
(lp3439
g3438
aS'Jose Contreras'
p3440
aS'  5.0'
p3441
aI7
aI5
aI5
aI1
aI6
aI0
aI5
asg893
(lp3442
g893
ag895
aS'185.1'
p3443
aI218
aI89
aI86
aI24
aI45
aI1
aI101
asS'bushd001'
p3444
(lp3445
g3444
aS'Dave Bush'
p3446
aS'  3.0'
p3447
aI5
aI5
aI5
aI4
aI1
aI0
aI1
asg911
(lp3448
g911
ag913
aS' 62.0'
p3449
aI47
aI16
aI15
aI7
aI15
aI1
aI59
asg2498
(lp3450
g2498
ag2500
aS' 30.2'
p3451
aI27
aI13
aI11
aI2
aI10
aI3
aI29
asS'mcclk001'
p3452
(lp3453
g3452
aS'Kyle McClellan'
p3454
aS'  9.1'
p3455
aI7
aI8
aI8
aI2
aI5
aI0
aI3
asS'germj001'
p3456
(lp3457
g3456
aS'Justin Germano'
p3458
aS'  2.0'
p3459
aI6
aI2
aI2
aI1
aI0
aI0
aI1
asg2072
(lp3460
g2072
ag2074
aS'144.2'
p3461
aI130
aI70
aI67
aI20
aI36
aI0
aI121
asg941
(lp3462
g941
ag943
aS'135.1'
p3463
aI169
aI89
aI80
aI15
aI58
aI2
aI114
asg2738
(lp3464
g2738
ag2740
aS' 33.1'
p3465
aI31
aI13
aI10
aI3
aI6
aI2
aI15
asS'thiec001'
p3466
(lp3467
g3466
aS'Caleb Thielbar'
p3468
aS' 46.0'
p3469
aI24
aI11
aI9
aI4
aI14
aI4
aI39
asg959
(lp3470
g959
ag961
aS' 22.0'
p3471
aI19
aI9
aI7
aI3
aI13
aI0
aI24
asS'salec001'
p3472
(lp3473
g3472
aS'Chris Sale'
p3474
aS'214.1'
p3475
aI184
aI81
aI73
aI23
aI46
aI2
aI226
asS'walkt004'
p3476
(lp3477
g3476
aS'Taijuan Walker'
p3478
aS' 15.0'
p3479
aI11
aI7
aI6
aI0
aI4
aI0
aI12
asS'famij001'
p3480
(lp3481
g3480
aS'Jeurys Familia'
p3482
aS' 10.2'
p3483
aI12
aI5
aI5
aI2
aI9
aI1
aI8
asg2309
(lp3484
g2309
ag2311
aS'203.2'
p3485
aI219
aI97
aI89
aI18
aI40
aI2
aI131
asg983
(lp3486
g983
ag985
aS'155.1'
p3487
aI150
aI73
aI66
aI20
aI42
aI3
aI136
asg986
(lp3488
g986
ag988
aS' 47.2'
p3489
aI51
aI30
aI30
aI8
aI13
aI2
aI49
asS'hanst001'
p3490
(lp3491
g3490
aS'Tommy Hanson'
p3492
aS' 73.0'
p3493
aI83
aI47
aI44
aI10
aI30
aI3
aI56
asg995
(lp3494
g995
ag997
aS' 53.0'
p3495
aI49
aI29
aI28
aI5
aI16
aI0
aI43
asg998
(lp3496
g998
ag1000
aS' 81.1'
p3497
aI105
aI64
aI56
aI15
aI30
aI3
aI83
asS'clipt001'
p3498
(lp3499
g3498
aS'Tyler Clippard'
p3500
aS' 71.0'
p3501
aI37
aI19
aI19
aI9
aI24
aI1
aI73
asg197
(lp3502
g197
ag199
aS' 65.0'
p3503
aI59
aI25
aI24
aI8
aI22
aI2
aI64
asS'mediy001'
p3504
(lp3505
g3504
aS'Yoervis Medina'
p3506
aS' 68.0'
p3507
aI49
aI22
aI22
aI5
aI40
aI7
aI71
asg1025
(lp3508
g1025
ag1027
aS'111.1'
p3509
aI118
aI44
aI39
aI5
aI41
aI5
aI66
asg1124
(lp3510
g1124
ag1126
aS'  5.2'
p3511
aI13
aI8
aI8
aI4
aI3
aI0
aI4
asg365
(lp3512
g365
ag367
aS' 18.0'
p3513
aI27
aI17
aI17
aI4
aI13
aI0
aI15
asg395
(lp3514
g395
ag397
aS'199.1'
p3515
aI195
aI90
aI82
aI17
aI46
aI1
aI165
asg440
(lp3516
g440
ag442
aS' 60.2'
p3517
aI46
aI20
aI19
aI7
aI18
aI1
aI51
asg1055
(lp3518
g1055
ag1057
aS'183.1'
p3519
aI187
aI107
aI89
aI19
aI73
aI3
aI129
asS'cappc001'
p3520
(lp3521
g3520
aS'Carter Capps'
p3522
aS' 59.0'
p3523
aI73
aI37
aI36
aI12
aI23
aI4
aI66
asS'roblm001'
p3524
(lp3525
g3524
aS'Mauricio Robles'
p3526
aS'  4.2'
p3527
aI7
aI3
aI1
aI0
aI3
aI0
aI6
asg86
(lp3528
g86
ag88
aS' 11.0'
p3529
aI9
aI2
aI2
aI1
aI3
aI1
aI7
asg1067
(lp3530
g1067
ag1069
aS' 27.1'
p3531
aI28
aI9
aI7
aI2
aI4
aI0
aI27
asS'valdl001'
p3532
(lp3533
g3532
aS'Jairo Asencio'
p3534
aS'  2.1'
p3535
aI3
aI2
aI2
aI1
aI2
aI1
aI4
asg1076
(lp3536
g1076
ag1078
aS'212.1'
p3537
aI200
aI93
aI80
aI15
aI85
aI3
aI188
asS'noesh001'
p3538
(lp3539
g3538
aS'Hector Noesi'
p3540
aS' 27.1'
p3541
aI42
aI21
aI20
aI3
aI12
aI4
aI21
asS'reeda001'
p3542
(lp3543
g3542
aS'Addison Reed'
p3544
aS' 71.1'
p3545
aI56
aI31
aI30
aI6
aI23
aI2
aI72
asS'grilj001'
p3546
(lp3547
g3546
aS'Jason Grilli'
p3548
aS' 50.0'
p3549
aI40
aI15
aI15
aI4
aI13
aI0
aI74
asS'camps002'
p3550
(lp3551
g3550
aS'Shawn Camp'
p3552
aS' 23.0'
p3553
aI34
aI18
aI18
aI7
aI9
aI2
aI13
asS'smitw002'
p3554
(lp3555
g3554
aS'Will Smith'
p3556
aS' 33.1'
p3557
aI24
aI16
aI12
aI6
aI7
aI0
aI43
asS'oflae001'
p3558
(lp3559
g3558
aS"Eric O'Flaherty"
p3560
aS' 18.0'
p3561
aI12
aI5
aI5
aI2
aI5
aI1
aI11
asg1214
(lp3562
g1214
ag1216
aS'124.1'
p3563
aI129
aI55
aI50
aI15
aI37
aI0
aI84
asg659
(lp3564
g659
ag661
aS' 44.2'
p3565
aI55
aI34
aI28
aI6
aI20
aI2
aI30
asg1646
(lp3566
g1646
ag1648
aS'  1.2'
p3567
aI3
aI5
aI5
aI0
aI4
aI1
aI1
asS'venty001'
p3568
(lp3569
g3568
aS'Yordano Ventura'
p3570
aS' 15.1'
p3571
aI13
aI6
aI6
aI3
aI6
aI0
aI11
asS'ortij004'
p3572
(lp3573
g3572
aS'Joe Ortiz'
p3574
aS' 44.2'
p3575
aI46
aI26
aI21
aI5
aI10
aI2
aI27
asS'betar001'
p3576
(lp3577
g3576
aS'Rafael Betancourt'
p3578
aS' 28.2'
p3579
aI26
aI15
aI13
aI2
aI11
aI2
aI27
asg1130
(lp3580
g1130
ag1132
aS' 43.2'
p3581
aI49
aI23
aI20
aI5
aI22
aI5
aI41
asg173
(lp3582
g173
ag175
aS' 51.2'
p3583
aI59
aI27
aI21
aI3
aI11
aI0
aI29
asS'gregk001'
p3584
(lp3585
g3584
aS'Kevin Gregg'
p3586
aS' 62.0'
p3587
aI53
aI26
aI24
aI6
aI32
aI2
aI56
asg956
(lp3588
g956
ag958
aS'213.1'
p3589
aI209
aI94
aI89
aI19
aI67
aI0
aI177
asg1148
(lp3590
g1148
ag1150
aS' 86.2'
p3591
aI88
aI50
aI48
aI8
aI35
aI1
aI79
asS'dalem002'
p3592
(lp3593
g3592
aS'Matt Daley'
p3594
aS'  6.0'
p3595
aI2
aI0
aI0
aI0
aI0
aI0
aI8
asS'lopej002'
p3596
(lp3597
g3596
aS'Javier Lopez'
p3598
aS' 39.1'
p3599
aI30
aI10
aI8
aI1
aI12
aI5
aI37
asg2192
(lp3600
g2192
ag2194
aS' 73.1'
p3601
aI68
aI25
aI23
aI3
aI25
aI3
aI43
asg1160
(lp3602
g1160
ag1162
aS' 38.2'
p3603
aI32
aI21
aI19
aI4
aI16
aI0
aI33
asS'camia001'
p3604
(lp3605
g3604
aS'Arquimedes Caminero'
p3606
aS' 13.0'
p3607
aI10
aI4
aI4
aI2
aI3
aI0
aI12
asS'melam001'
p3608
(lp3609
g3608
aS'Mark Melancon'
p3610
aS' 71.0'
p3611
aI60
aI15
aI11
aI1
aI8
aI0
aI70
asg1169
(lp3612
g1169
ag1171
aS' 22.1'
p3613
aI18
aI10
aI10
aI3
aI13
aI3
aI24
asg1178
(lp3614
g1178
ag1180
aS'236.0'
p3615
aI164
aI55
aI48
aI11
aI52
aI2
aI232
asg1187
(lp3616
g1187
ag1189
aS' 60.0'
p3617
aI47
aI23
aI21
aI7
aI17
aI2
aI52
asS'broxj001'
p3618
(lp3619
g3618
aS'Jonathan Broxton'
p3620
aS' 30.2'
p3621
aI27
aI17
aI14
aI4
aI12
aI2
aI25
asg1304
(lp3622
g1304
ag1306
aS' 54.1'
p3623
aI69
aI37
aI32
aI8
aI15
aI1
aI28
asg1202
(lp3624
g1202
ag1204
aS'137.0'
p3625
aI142
aI62
aI62
aI17
aI39
aI2
aI104
asS'dunnj001'
p3626
(lp3627
g3626
aS'Jake Dunning'
p3628
aS' 25.1'
p3629
aI20
aI8
aI8
aI2
aI11
aI1
aI16
asS'herrk001'
p3630
(lp3631
g3630
aS'Kelvin Herrera'
p3632
aS' 58.1'
p3633
aI48
aI27
aI25
aI9
aI21
aI2
aI74
asg1127
(lp3634
g1127
ag1129
aS' 62.0'
p3635
aI63
aI31
aI30
aI6
aI36
aI5
aI45
asg1223
(lp3636
g1223
ag1225
aS'151.0'
p3637
aI164
aI87
aI82
aI24
aI38
aI8
aI113
asS'claip001'
p3638
(lp3639
g3638
aS'Preston Claiborne'
p3640
aS' 50.1'
p3641
aI51
aI23
aI23
aI7
aI14
aI4
aI42
asg140
(lp3642
g140
ag142
aS'152.1'
p3643
aI132
aI74
aI67
aI16
aI57
aI0
aI124
asS'kroli001'
p3644
(lp3645
g3644
aS'Ian Krol'
p3646
aS' 27.1'
p3647
aI28
aI12
aI12
aI5
aI8
aI1
aI22
asS'pereo002'
p3648
(lp3649
g3648
aS'Oliver Perez'
p3650
aS' 53.0'
p3651
aI50
aI23
aI22
aI6
aI26
aI3
aI74
asg1235
(lp3652
g1235
ag1237
aS' 60.1'
p3653
aI56
aI22
aI22
aI8
aI14
aI1
aI45
asS'barns002'
p3654
(lp3655
g3654
aS'Scott Barnes'
p3656
aS'  8.2'
p3657
aI8
aI7
aI7
aI3
aI3
aI0
aI10
asg1241
(lp3658
g1241
ag1243
aS' 19.2'
p3659
aI21
aI19
aI18
aI9
aI7
aI0
aI8
asg1244
(lp3660
g1244
ag1246
aS' 42.0'
p3661
aI51
aI26
aI25
aI4
aI20
aI4
aI31
asg1250
(lp3662
g1250
ag1252
aS' 14.0'
p3663
aI11
aI9
aI8
aI2
aI8
aI0
aI14
asS'hawkl001'
p3664
(lp3665
g3664
aS'LaTroy Hawkins'
p3666
aS' 70.2'
p3667
aI71
aI27
aI23
aI6
aI10
aI2
aI55
asg1679
(lp3668
g1679
ag1681
aS' 85.1'
p3669
aI77
aI41
aI37
aI11
aI31
aI1
aI83
asS'jennd003'
p3670
(lp3671
g3670
aS'Dan Jennings'
p3672
aS' 40.2'
p3673
aI39
aI17
aI17
aI1
aI16
aI2
aI38
asS'choar001'
p3674
(lp3675
g3674
aS'Randy Choate'
p3676
aS' 35.1'
p3677
aI26
aI9
aI9
aI0
aI11
aI0
aI28
asg830
(lp3678
g830
ag832
aS' 24.0'
p3679
aI15
aI5
aI4
aI2
aI7
aI2
aI21
asg1277
(lp3680
g1277
ag1279
aS'134.1'
p3681
aI134
aI65
aI56
aI13
aI49
aI2
aI101
asS'duenb001'
p3682
(lp3683
g3682
aS'Brian Duensing'
p3684
aS' 61.0'
p3685
aI68
aI28
aI27
aI4
aI22
aI4
aI56
asS'parkb001'
p3686
(lp3687
g3686
aS'Blake Parker'
p3688
aS' 46.1'
p3689
aI39
aI17
aI14
aI4
aI15
aI1
aI55
asS'stand001'
p3690
(lp3691
g3690
aS'Daniel Stange'
p3692
aS'  1.2'
p3693
aI2
aI3
aI3
aI1
aI2
aI0
aI1
asg1298
(lp3694
g1298
ag1300
aS' 83.1'
p3695
aI78
aI51
aI48
aI15
aI37
aI0
aI77
asS'ayall001'
p3696
(lp3697
g3696
aS'Luis Ayala'
p3698
aS' 33.0'
p3699
aI38
aI12
aI12
aI2
aI13
aI2
aI22
asg203
(lp3700
g203
ag205
aS'198.2'
p3701
aI196
aI78
aI74
aI26
aI36
aI1
aI125
asS'shoem001'
p3702
(lp3703
g3702
aS'Matt Shoemaker'
p3704
aS'  5.0'
p3705
aI2
aI0
aI0
aI0
aI2
aI0
aI5
asg1322
(lp3706
g1322
ag1324
aS' 23.0'
p3707
aI27
aI16
aI13
aI4
aI10
aI0
aI18
asS'hembh001'
p3708
(lp3709
g3708
aS'Heath Hembree'
p3710
aS'  7.2'
p3711
aI4
aI0
aI0
aI0
aI2
aI0
aI12
asS'rodrf003'
p3712
(lp3713
g3712
aS'Francisco Rodriguez'
p3714
aS' 46.2'
p3715
aI42
aI14
aI14
aI7
aI14
aI4
aI54
asg1331
(lp3716
g1331
ag1333
aS' 73.0'
p3717
aI61
aI20
aI18
aI3
aI22
aI6
aI44
asg2114
(lp3718
g2114
ag2116
aS'166.1'
p3719
aI146
aI69
aI65
aI11
aI84
aI4
aI125
asS'collt001'
p3720
(lp3721
g3720
aS'Tim Collins'
p3722
aS' 53.1'
p3723
aI49
aI26
aI21
aI3
aI28
aI1
aI52
asS'hollg001'
p3724
(lp3725
g3724
aS'Greg Holland'
p3726
aS' 67.0'
p3727
aI40
aI11
aI9
aI3
aI18
aI1
aI103
asS'josed001'
p3728
(lp3729
g3728
aS'Donnie Joseph'
p3730
aS'  5.2'
p3731
aI4
aI0
aI0
aI0
aI4
aI0
aI7
asg890
(lp3732
g890
ag892
aS'210.2'
p3733
aI197
aI82
aI74
aI14
aI58
aI5
aI187
asS'delej002'
p3734
(lp3735
g3734
aS'Jorge De Leon'
p3736
aS' 10.0'
p3737
aI12
aI7
aI6
aI1
aI7
aI1
aI6
asg1349
(lp3738
g1349
ag1351
aS'203.2'
p3739
aI223
aI100
aI94
aI24
aI51
aI3
aI139
asg2249
(lp3740
g2249
ag2251
aS'213.1'
p3741
aI192
aI81
aI77
aI19
aI40
aI0
aI161
asS'rondb001'
p3742
(lp3743
g3742
aS'Bruce Rondon'
p3744
aS' 28.2'
p3745
aI28
aI11
aI11
aI2
aI11
aI0
aI30
asS'lindm001'
p3746
(lp3747
g3746
aS'Matt Lindstrom'
p3748
aS' 60.2'
p3749
aI64
aI23
aI21
aI2
aI23
aI1
aI46
asS'devrc001'
p3750
(lp3751
g3750
aS'Cole De Vries'
p3752
aS' 15.0'
p3753
aI22
aI18
aI18
aI6
aI9
aI0
aI12
asS'putkl001'
p3754
(lp3755
g3754
aS'Luke Putkonen'
p3756
aS' 29.2'
p3757
aI30
aI11
aI10
aI4
aI9
aI0
aI28
asg1373
(lp3758
g1373
ag1375
aS'128.2'
p3759
aI107
aI49
aI46
aI15
aI38
aI2
aI101
asS'blazm001'
p3760
(lp3761
g3760
aS'Michael Blazek'
p3762
aS' 17.1'
p3763
aI16
aI12
aI11
aI3
aI13
aI0
aI14
asS'takah001'
p3764
(lp3765
g3764
aS'Hisanori Takahashi'
p3766
aS'  3.0'
p3767
aI3
aI2
aI2
aI1
aI2
aI0
aI3
asg1376
(lp3768
g1376
ag1378
aS' 30.2'
p3769
aI40
aI30
aI23
aI3
aI26
aI0
aI9
asg1379
(lp3770
g1379
ag1381
aS'174.0'
p3771
aI185
aI103
aI100
aI24
aI50
aI0
aI135
asS'hernp001'
p3772
(lp3773
g3772
aS'Pedro Hernandez'
p3774
aS' 56.2'
p3775
aI80
aI43
aI43
aI10
aI23
aI1
aI29
asg2426
(lp3776
g2426
ag2428
aS' 62.0'
p3777
aI42
aI14
aI14
aI2
aI23
aI3
aI54
asg1208
(lp3778
g1208
ag1210
aS' 64.2'
p3779
aI52
aI20
aI20
aI5
aI19
aI0
aI65
asg2537
(lp3780
g2537
ag2539
aS'  1.0'
p3781
aI0
aI0
aI0
aI0
aI0
aI0
aI1
asg1409
(lp3782
g1409
ag1411
aS'181.2'
p3783
aI159
aI87
aI78
aI19
aI56
aI1
aI132
asg2564
(lp3784
g2564
ag2566
aS'201.1'
p3785
aI191
aI79
aI74
aI20
aI43
aI2
aI150
asg1415
(lp3786
g1415
ag1417
aS' 29.1'
p3787
aI38
aI19
aI18
aI5
aI6
aI1
aI13
asg1418
(lp3788
g1418
ag1420
aS'158.0'
p3789
aI162
aI76
aI71
aI19
aI47
aI1
aI162
asg2600
(lp3790
g2600
ag2602
aS'183.0'
p3791
aI136
aI71
aI61
aI16
aI56
aI1
aI191
asg1430
(lp3792
g1430
ag1432
aS'170.1'
p3793
aI193
aI114
aI108
aI19
aI77
aI2
aI142
asg1433
(lp3794
g1433
ag1435
aS'177.0'
p3795
aI185
aI87
aI85
aI18
aI42
aI4
aI142
asg1439
(lp3796
g1439
ag1441
aS'211.0'
p3797
aI190
aI85
aI76
aI26
aI51
aI3
aI161
asg1442
(lp3798
g1442
ag1444
aS'219.2'
p3799
aI179
aI69
aI65
aI25
aI42
aI4
aI185
asS'olmoe001'
p3800
(lp3801
g3800
aS'Edgar Olmos'
p3802
aS'  5.0'
p3803
aI7
aI9
aI4
aI2
aI3
aI1
aI2
asS'ramoc001'
p3804
(lp3805
g3804
aS'Cesar Ramos'
p3806
aS' 67.1'
p3807
aI66
aI31
aI31
aI6
aI22
aI6
aI53
asg1448
(lp3808
g1448
ag1450
aS'147.1'
p3809
aI153
aI67
aI63
aI15
aI33
aI0
aI136
asS'hagan001'
p3810
(lp3811
g3810
aS'Nick Hagadone'
p3812
aS' 31.1'
p3813
aI24
aI21
aI19
aI4
aI21
aI1
aI30
asg2561
(lp3814
g2561
ag2563
aS' 25.1'
p3815
aI34
aI17
aI17
aI7
aI11
aI2
aI8
asS'smyld001'
p3816
(lp3817
g3816
aS'Drew Smyly'
p3818
aS' 76.0'
p3819
aI62
aI20
aI20
aI4
aI17
aI1
aI81
asg1463
(lp3820
g1463
ag1465
aS'195.2'
p3821
aI169
aI79
aI73
aI17
aI76
aI1
aI192
asS'aumop001'
p3822
(lp3823
g3822
aS'Phillippe Aumont'
p3824
aS' 19.1'
p3825
aI24
aI11
aI9
aI0
aI13
aI1
aI19
asS'cottn001'
p3826
(lp3827
g3826
aS'Neal Cotts'
p3828
aS' 57.0'
p3829
aI36
aI8
aI7
aI2
aI18
aI1
aI65
asS'belij001'
p3830
(lp3831
g3830
aS'Jeff Beliveau'
p3832
aS'  0.2'
p3833
aI1
aI0
aI0
aI0
aI1
aI0
aI0
asS'buchc001'
p3834
(lp3835
g3834
aS'Clay Buchholz'
p3836
aS'108.1'
p3837
aI75
aI23
aI21
aI4
aI36
aI0
aI96
asS'martd005'
p3838
(lp3839
g3838
aS'David Martinez'
p3840
aS' 11.1'
p3841
aI16
aI11
aI9
aI1
aI3
aI0
aI6
asg1493
(lp3842
g1493
ag1495
aS' 30.0'
p3843
aI27
aI17
aI15
aI5
aI4
aI0
aI23
asS'balfg001'
p3844
(lp3845
g3844
aS'Grant Balfour'
p3846
aS' 62.2'
p3847
aI48
aI20
aI18
aI7
aI27
aI2
aI72
asg1502
(lp3848
g1502
ag1504
aS' 65.0'
p3849
aI40
aI12
aI11
aI1
aI22
aI2
aI38
asg1514
(lp3850
g1514
ag1516
aS' 98.0'
p3851
aI120
aI70
aI65
aI15
aI34
aI1
aI76
asg344
(lp3852
g344
ag346
aS' 78.1'
p3853
aI85
aI48
aI46
aI7
aI21
aI2
aI60
asS'bardd001'
p3854
(lp3855
g3854
aS'Daniel Bard'
p3856
aS'  1.0'
p3857
aI1
aI1
aI1
aI0
aI2
aI0
aI1
asS'felip002'
p3858
(lp3859
g3858
aS'Pedro Feliciano'
p3860
aS' 11.1'
p3861
aI11
aI5
aI5
aI1
aI6
aI2
aI9
asg1538
(lp3862
g1538
ag1540
aS' 62.0'
p3863
aI65
aI17
aI16
aI4
aI13
aI7
aI35
asS'jepsk001'
p3864
(lp3865
g3864
aS'Kevin Jepsen'
p3866
aS' 36.0'
p3867
aI41
aI21
aI18
aI3
aI14
aI4
aI36
asg1559
(lp3868
g1559
ag1561
aS'175.1'
p3869
aI197
aI110
aI97
aI16
aI59
aI7
aI135
asS'ruffc001'
p3870
(lp3871
g3870
aS'Chance Ruffin'
p3872
aS'  9.2'
p3873
aI14
aI10
aI9
aI3
aI5
aI1
aI15
asS'robed002'
p3874
(lp3875
g3874
aS'David Robertson'
p3876
aS' 66.1'
p3877
aI51
aI15
aI15
aI5
aI18
aI1
aI77
asS'lindj004'
p3878
(lp3879
g3878
aS'Josh Lindblom'
p3880
aS' 31.1'
p3881
aI35
aI19
aI19
aI4
aI11
aI2
aI21
asg1583
(lp3882
g1583
ag1585
aS' 46.0'
p3883
aI40
aI18
aI17
aI5
aI15
aI0
aI56
asg1586
(lp3884
g1586
ag1588
aS' 58.1'
p3885
aI69
aI29
aI25
aI7
aI20
aI2
aI45
asS'kintb001'
p3886
(lp3887
g3886
aS'Brandon Kintzler'
p3888
aS' 77.0'
p3889
aI66
aI26
aI23
aI2
aI16
aI2
aI58
asS'sorir001'
p3890
(lp3891
g3890
aS'Rafael Soriano'
p3892
aS' 66.2'
p3893
aI65
aI24
aI23
aI7
aI17
aI2
aI51
asS'mcgej001'
p3894
(lp3895
g3894
aS'Jake McGee'
p3896
aS' 62.2'
p3897
aI52
aI28
aI28
aI8
aI22
aI5
aI75
asS'narvc001'
p3898
(lp3899
g3898
aS'Chris Narveson'
p3900
aS'  2.0'
p3901
aI1
aI0
aI0
aI0
aI1
aI0
aI0
asS'hendj001'
p3902
(lp3903
g3902
aS'Jim Henderson'
p3904
aS' 60.0'
p3905
aI44
aI18
aI18
aI8
aI24
aI2
aI75
asg1610
(lp3906
g1610
ag1612
aS'  0.1'
p3907
aI0
aI0
aI0
aI0
aI0
aI0
aI0
asg524
(lp3908
g524
ag526
aS' 30.1'
p3909
aI32
aI19
aI18
aI3
aI16
aI1
aI21
asS'mikom001'
p3910
(lp3911
g3910
aS'Miles Mikolas'
p3912
aS'  1.2'
p3913
aI0
aI0
aI0
aI0
aI1
aI0
aI1
asS'wrigs001'
p3914
(lp3915
g3914
aS'Steven Wright'
p3916
aS' 13.1'
p3917
aI12
aI8
aI8
aI0
aI9
aI0
aI10
asS'grays001'
p3918
(lp3919
g3918
aS'Sonny Gray'
p3920
aS' 64.0'
p3921
aI51
aI22
aI19
aI4
aI20
aI0
aI67
asg1628
(lp3922
g1628
ag1630
aS' 17.2'
p3923
aI14
aI11
aI9
aI1
aI8
aI1
aI9
asS'tronr001'
p3924
(lp3925
g3924
aS'Ramon Troncoso'
p3926
aS' 30.0'
p3927
aI30
aI22
aI15
aI4
aI16
aI1
aI18
asS'martc005'
p3928
(lp3929
g3928
aS'Cristhian Martinez'
p3930
aS'  2.1'
p3931
aI5
aI2
aI2
aI0
aI0
aI0
aI0
asg1634
(lp3932
g1634
ag1636
aS'209.0'
p3933
aI181
aI85
aI81
aI20
aI54
aI2
aI199
asg1637
(lp3934
g1637
ag1639
aS' 28.1'
p3935
aI31
aI16
aI16
aI1
aI9
aI1
aI24
asg1640
(lp3936
g1640
ag1642
aS' 73.0'
p3937
aI76
aI37
aI35
aI6
aI15
aI2
aI62
asS'cosaj001'
p3938
(lp3939
g3938
aS'Jarred Cosart'
p3940
aS' 60.0'
p3941
aI46
aI15
aI13
aI3
aI35
aI0
aI33
asS'wallj002'
p3942
(lp3943
g3942
aS'Josh Wall'
p3944
aS'  7.0'
p3945
aI17
aI14
aI14
aI2
aI6
aI3
aI7
asg1730
(lp3946
g1730
ag1732
aS' 80.2'
p3947
aI65
aI35
aI30
aI6
aI28
aI3
aI53
asg1655
(lp3948
g1655
ag1657
aS'141.2'
p3949
aI165
aI98
aI88
aI17
aI49
aI1
aI93
asg1664
(lp3950
g1664
ag1666
aS' 11.1'
p3951
aI17
aI11
aI7
aI3
aI5
aI0
aI9
asS'albua001'
p3952
(lp3953
g3952
aS'Al Alburquerque'
p3954
aS' 49.0'
p3955
aI39
aI25
aI25
aI5
aI34
aI5
aI70
asS'ambrh001'
p3956
(lp3957
g3956
aS'Hector Ambriz'
p3958
aS' 36.1'
p3959
aI50
aI28
aI23
aI8
aI14
aI1
aI27
asS'byrdt001'
p3960
(lp3961
g3960
aS'Tim Byrdak'
p3962
aS'  4.2'
p3963
aI5
aI4
aI4
aI2
aI2
aI0
aI3
asS'henns001'
p3964
(lp3965
g3964
aS'Sean Henn'
p3966
aS'  2.2'
p3967
aI3
aI1
aI1
aI1
aI3
aI0
aI1
asS'albem001'
p3968
(lp3969
g3968
aS'Matt Albers'
p3970
aS' 63.0'
p3971
aI57
aI25
aI22
aI2
aI23
aI3
aI35
asg1670
(lp3972
g1670
ag1672
aS'128.2'
p3973
aI117
aI58
aI58
aI14
aI40
aI4
aI103
asg1037
(lp3974
g1037
ag1039
aS' 75.1'
p3975
aI63
aI25
aI22
aI4
aI20
aI0
aI108
asg1256
(lp3976
g1256
ag1258
aS' 16.0'
p3977
aI14
aI8
aI4
aI2
aI9
aI0
aI12
asg2171
(lp3978
g2171
ag2173
aS' 24.0'
p3979
aI30
aI22
aI20
aI6
aI15
aI1
aI16
asS'storm001'
p3980
(lp3981
g3980
aS'Mickey Storey'
p3982
aS'  4.0'
p3983
aI6
aI3
aI3
aI0
aI1
aI0
aI6
asS'heatd001'
p3984
(lp3985
g3984
aS'Deunte Heath'
p3986
aS'  7.2'
p3987
aI8
aI10
aI10
aI2
aI12
aI1
aI3
asS'cookr001'
p3988
(lp3989
g3988
aS'Ryan Cook'
p3990
aS' 67.1'
p3991
aI62
aI22
aI19
aI2
aI25
aI1
aI67
asS'tonkm001'
p3992
(lp3993
g3992
aS'Michael Tonkin'
p3994
aS' 11.1'
p3995
aI9
aI6
aI1
aI0
aI3
aI0
aI10
asS'garco001'
p3996
(lp3997
g3996
aS'Onelki Garcia'
p3998
aS'  1.1'
p3999
aI1
aI2
aI2
aI1
aI4
aI0
aI1
asg1484
(lp4000
g1484
ag1486
aS' 67.1'
p4001
aI51
aI16
aI13
aI5
aI36
aI2
aI76
asS'felin001'
p4002
(lp4003
g4002
aS'Neftali Feliz'
p4004
aS'  4.2'
p4005
aI5
aI0
aI0
aI0
aI2
aI0
aI4
asg1709
(lp4006
g1709
ag1711
aS'200.0'
p4007
aI188
aI83
aI78
aI23
aI56
aI2
aI164
asS'abadf001'
p4008
(lp4009
g4008
aS'Fernando Abad'
p4010
aS' 37.2'
p4011
aI42
aI14
aI14
aI3
aI10
aI0
aI32
asg1718
(lp4012
g1718
ag1720
aS'  2.0'
p4013
aI3
aI0
aI0
aI0
aI3
aI0
aI1
asS'delas001'
p4014
(lp4015
g4014
aS'Steve Delabar'
p4016
aS' 58.2'
p4017
aI50
aI25
aI21
aI4
aI29
aI5
aI82
asS'oterd001'
p4018
(lp4019
g4018
aS'Dan Otero'
p4020
aS' 39.0'
p4021
aI42
aI7
aI6
aI0
aI6
aI1
aI27
asg1727
(lp4022
g1727
ag1729
aS'161.0'
p4023
aI134
aI54
aI54
aI9
aI63
aI0
aI163
asS'bootc001'
p4024
(lp4025
g4024
aS'Chris Bootcheck'
p4026
aS'  1.0'
p4027
aI2
aI1
aI1
aI0
aI2
aI0
aI1
asS'webbd001'
p4028
(lp4029
g4028
aS'Daniel Webb'
p4030
aS' 11.1'
p4031
aI9
aI4
aI4
aI0
aI4
aI0
aI10
asS'franf001'
p4032
(lp4033
g4032
aS'Frank Francisco'
p4034
aS'  6.1'
p4035
aI4
aI3
aI3
aI0
aI3
aI0
aI6
asS'johns001'
p4036
(lp4037
g4036
aS'Steve Johnson'
p4038
aS' 15.2'
p4039
aI14
aI13
aI13
aI2
aI13
aI1
aI20
asg1715
(lp4040
g1715
ag1717
aS' 25.0'
p4041
aI31
aI12
aI11
aI0
aI14
aI1
aI12
asS'harrw002'
p4042
(lp4043
g4042
aS'Will Harris'
p4044
aS' 52.2'
p4045
aI50
aI17
aI17
aI3
aI15
aI1
aI53
asg404
(lp4046
g404
ag406
aS'197.2'
p4047
aI184
aI102
aI96
aI21
aI76
aI8
aI193
asg1751
(lp4048
g1751
ag1753
aS' 96.0'
p4049
aI89
aI33
aI31
aI7
aI22
aI1
aI69
asg1757
(lp4050
g1757
ag1759
aS'185.2'
p4051
aI173
aI69
aI66
aI22
aI45
aI4
aI170
asg1769
(lp4052
g1769
ag1771
aS' 62.1'
p4053
aI62
aI32
aI24
aI6
aI12
aI4
aI42
asg1772
(lp4054
g1772
ag1774
aS'117.2'
p4055
aI111
aI61
aI53
aI18
aI68
aI2
aI72
asS'britd001'
p4056
(lp4057
g4056
aS'Drake Britton'
p4058
aS' 21.0'
p4059
aI21
aI9
aI9
aI1
aI7
aI1
aI17
asS'clarz001'
p4060
(lp4061
g4060
aS'Zach Clark'
p4062
aS'  1.2'
p4063
aI3
aI3
aI3
aI0
aI2
aI0
aI1
asg1778
(lp4064
g1778
ag1780
aS' 28.0'
p4065
aI27
aI15
aI14
aI3
aI6
aI1
aI22
asg1793
(lp4066
g1793
ag1795
aS'209.2'
p4067
aI145
aI68
aI66
aI26
aI80
aI1
aI277
asg1796
(lp4068
g1796
ag1798
aS'172.2'
p4069
aI111
aI47
aI42
aI10
aI58
aI5
aI187
asg1802
(lp4070
g1802
ag1804
aS'130.2'
p4071
aI132
aI75
aI63
aI20
aI37
aI4
aI99
asg1811
(lp4072
g1811
ag1813
aS'143.1'
p4073
aI153
aI91
aI86
aI26
aI40
aI1
aI113
asS'thorm001'
p4074
(lp4075
g4074
aS'Matt Thornton'
p4076
aS' 43.1'
p4077
aI47
aI20
aI18
aI4
aI15
aI1
aI30
asS'casts002'
p4078
(lp4079
g4078
aS'Simon Castro'
p4080
aS'  6.2'
p4081
aI5
aI2
aI2
aI1
aI3
aI0
aI6
asg1820
(lp4082
g1820
ag1822
aS' 48.0'
p4083
aI46
aI19
aI19
aI4
aI11
aI1
aI47
asg1823
(lp4084
g1823
ag1825
aS'186.2'
p4085
aI178
aI78
aI69
aI16
aI27
aI0
aI151
asg1829
(lp4086
g1829
ag1831
aS' 66.1'
p4087
aI66
aI30
aI29
aI8
aI24
aI3
aI36
asg1835
(lp4088
g1835
ag1837
aS'118.0'
p4089
aI116
aI55
aI49
aI11
aI54
aI5
aI77
asS'qualc001'
p4090
(lp4091
g4090
aS'Chad Qualls'
p4092
aS' 62.0'
p4093
aI57
aI18
aI18
aI4
aI19
aI7
aI49
asS'jonen001'
p4094
(lp4095
g4094
aS'Nate Jones'
p4096
aS' 78.0'
p4097
aI69
aI40
aI36
aI5
aI26
aI1
aI89
asg1286
(lp4098
g1286
ag1288
aS'169.2'
p4099
aI179
aI92
aI88
aI28
aI31
aI0
aI151
asg2267
(lp4100
g2267
ag2269
aS'  4.0'
p4101
aI4
aI3
aI3
aI1
aI6
aI0
aI3
asg1847
(lp4102
g1847
ag1849
aS' 33.1'
p4103
aI40
aI19
aI19
aI5
aI9
aI1
aI20
asS'mattr001'
p4104
(lp4105
g4104
aS'Ryan Mattheus'
p4106
aS' 35.1'
p4107
aI52
aI26
aI25
aI1
aI15
aI0
aI22
asS'warra001'
p4108
(lp4109
g4108
aS'Adam Warren'
p4110
aS' 77.0'
p4111
aI80
aI29
aI29
aI10
aI30
aI2
aI64
asS'hillr001'
p4112
(lp4113
g4112
aS'Rich Hill'
p4114
aS' 38.2'
p4115
aI38
aI30
aI27
aI3
aI29
aI6
aI51
asS'duffd001'
p4116
(lp4117
g4116
aS'Danny Duffy'
p4118
aS' 24.1'
p4119
aI19
aI5
aI5
aI0
aI14
aI0
aI22
asS'presr001'
p4120
(lp4121
g4120
aS'Ryan Pressly'
p4122
aS' 76.2'
p4123
aI71
aI37
aI33
aI5
aI27
aI1
aI49
asS'wilsb001'
p4124
(lp4125
g4124
aS'Brian Wilson'
p4126
aS' 13.2'
p4127
aI8
aI1
aI1
aI0
aI4
aI0
aI13
asS'colel001'
p4128
(lp4129
g4128
aS'Louis Coleman'
p4130
aS' 29.2'
p4131
aI19
aI2
aI2
aI1
aI6
aI1
aI32
asg1535
(lp4132
g1535
ag1537
aS'139.1'
p4133
aI135
aI49
aI48
aI9
aI44
aI3
aI116
asS'logab001'
p4134
(lp4135
g4134
aS'Boone Logan'
p4136
aS' 39.0'
p4137
aI33
aI15
aI14
aI7
aI13
aI4
aI50
asg1889
(lp4138
g1889
ag1891
aS'100.1'
p4139
aI109
aI50
aI45
aI9
aI38
aI3
aI66
asg1892
(lp4140
g1892
ag1894
aS'  1.0'
p4141
aI1
aI0
aI0
aI0
aI0
aI0
aI1
asg1895
(lp4142
g1895
ag1897
aS' 97.0'
p4143
aI81
aI34
aI33
aI6
aI40
aI3
aI88
asg1898
(lp4144
g1898
ag1900
aS'162.1'
p4145
aI161
aI84
aI78
aI13
aI71
aI0
aI139
asg1901
(lp4146
g1901
ag1903
aS'200.0'
p4147
aI163
aI73
aI69
aI18
aI66
aI2
aI144
asg1907
(lp4148
g1907
ag1909
aS' 62.0'
p4149
aI55
aI48
aI47
aI12
aI36
aI1
aI51
asg2294
(lp4150
g2294
ag2296
aS'150.1'
p4151
aI119
aI58
aI55
aI14
aI76
aI1
aI143
asg1925
(lp4152
g1925
ag1927
aS' 70.1'
p4153
aI89
aI54
aI49
aI12
aI24
aI2
aI63
asS'patej001'
p4154
(lp4155
g4154
aS'Joe Paterson'
p4156
aS'  2.1'
p4157
aI2
aI1
aI1
aI0
aI0
aI0
aI2
asg185
(lp4158
g185
ag187
aS' 55.1'
p4159
aI60
aI30
aI27
aI7
aI18
aI2
aI47
asS'burtj001'
p4160
(lp4161
g4160
aS'Jared Burton'
p4162
aS' 66.0'
p4163
aI61
aI29
aI28
aI6
aI22
aI5
aI61
asS'garcj002'
p4164
(lp4165
g4164
aS'Santiago Casilla'
p4166
aS' 50.0'
p4167
aI39
aI14
aI12
aI2
aI25
aI6
aI38
asS'chamj002'
p4168
(lp4169
g4168
aS'Joba Chamberlain'
p4170
aS' 42.0'
p4171
aI47
aI23
aI23
aI8
aI26
aI1
aI38
asg1952
(lp4172
g1952
ag1954
aS'103.2'
p4173
aI124
aI73
aI66
aI15
aI38
aI2
aI67
asg1955
(lp4174
g1955
ag1957
aS' 55.1'
p4175
aI57
aI26
aI22
aI6
aI15
aI0
aI43
asS'farnk001'
p4176
(lp4177
g4176
aS'Kyle Farnsworth'
p4178
aS' 38.1'
p4179
aI43
aI20
aI20
aI5
aI10
aI0
aI28
asS'marss002'
p4180
(lp4181
g4180
aS'Sean Marshall'
p4182
aS' 10.1'
p4183
aI4
aI3
aI2
aI0
aI2
aI0
aI10
asS'edgij001'
p4184
(lp4185
g4184
aS'Josh Edgin'
p4186
aS' 28.2'
p4187
aI26
aI12
aI12
aI2
aI12
aI3
aI20
asS'horsj001'
p4188
(lp4189
g4188
aS'Jeremy Horst'
p4190
aS' 26.0'
p4191
aI35
aI19
aI18
aI4
aI12
aI1
aI21
asS'beatp001'
p4192
(lp4193
g4192
aS'Pedro Beato'
p4194
aS' 10.0'
p4195
aI12
aI5
aI4
aI1
aI2
aI0
aI5
asg1970
(lp4196
g1970
ag1972
aS' 74.1'
p4197
aI86
aI48
aI44
aI6
aI27
aI1
aI38
asg1973
(lp4198
g1973
ag1975
aS' 29.1'
p4199
aI38
aI23
aI21
aI5
aI11
aI0
aI18
asS'cruzr001'
p4200
(lp4201
g4200
aS'Rhiner Cruz'
p4202
aS' 21.1'
p4203
aI25
aI9
aI8
aI2
aI11
aI0
aI10
asg1982
(lp4204
g1982
ag1984
aS' 10.1'
p4205
aI12
aI7
aI7
aI0
aI4
aI1
aI9
asg1985
(lp4206
g1985
ag1987
aS'153.2'
p4207
aI184
aI96
aI88
aI20
aI52
aI3
aI123
asS'zeidj001'
p4208
(lp4209
g4208
aS'Josh Zeid'
p4210
aS' 27.2'
p4211
aI26
aI12
aI12
aI3
aI12
aI1
aI24
asg1997
(lp4212
g1997
ag1999
aS' 80.1'
p4213
aI83
aI40
aI39
aI18
aI17
aI0
aI46
asg2003
(lp4214
g2003
ag2005
aS'104.2'
p4215
aI72
aI37
aI34
aI14
aI43
aI1
aI120
asS'furbc001'
p4216
(lp4217
g4216
aS'Charlie Furbush'
p4218
aS' 65.0'
p4219
aI48
aI33
aI27
aI5
aI29
aI2
aI80
asg605
(lp4220
g605
ag607
aS' 30.2'
p4221
aI37
aI25
aI24
aI6
aI12
aI1
aI18
asS'peraj002'
p4222
(lp4223
g4222
aS'Joel Peralta'
p4224
aS' 71.1'
p4225
aI47
aI31
aI27
aI7
aI34
aI1
aI74
asg2018
(lp4226
g2018
ag2020
aS'213.0'
p4227
aI210
aI90
aI81
aI20
aI64
aI0
aI189
asg2525
(lp4228
g2525
ag2527
aS' 30.0'
p4229
aI20
aI17
aI17
aI5
aI21
aI3
aI31
asg2030
(lp4230
g2030
ag2032
aS' 57.1'
p4231
aI50
aI27
aI25
aI3
aI20
aI4
aI55
asS'myerb001'
p4232
(lp4233
g4232
aS'Brett Myers'
p4234
aS' 21.1'
p4235
aI29
aI19
aI19
aI10
aI5
aI0
aI12
asS'gibsk002'
p4236
(lp4237
g4236
aS'Kyle Gibson'
p4238
aS' 51.0'
p4239
aI69
aI38
aI37
aI7
aI20
aI0
aI29
asS'lowed001'
p4240
(lp4241
g4240
aS'Derek Lowe'
p4242
aS' 13.0'
p4243
aI16
aI13
aI13
aI3
aI3
aI0
aI8
asg2051
(lp4244
g2051
ag2053
aS' 20.0'
p4245
aI15
aI11
aI7
aI1
aI11
aI0
aI14
asg2057
(lp4246
g2057
ag2059
aS'133.1'
p4247
aI173
aI94
aI85
aI19
aI54
aI2
aI86
asg821
(lp4248
g821
ag823
aS' 46.0'
p4249
aI52
aI32
aI29
aI8
aI14
aI2
aI34
asg2066
(lp4250
g2066
ag2068
aS' 74.0'
p4251
aI77
aI41
aI34
aI15
aI15
aI2
aI54
asg71
(lp4252
g71
ag73
aS'183.0'
p4253
aI232
aI117
aI107
aI25
aI61
aI5
aI107
asS'papej001'
p4254
(lp4255
g4254
aS'Jonathan Papelbon'
p4256
aS' 61.2'
p4257
aI59
aI23
aI20
aI6
aI11
aI1
aI57
asg2081
(lp4258
g2081
ag2083
aS' 63.2'
p4259
aI37
aI18
aI18
aI7
aI29
aI0
aI112
asS'amess001'
p4260
(lp4261
g4260
aS'Steve Ames'
p4262
aS'  4.0'
p4263
aI6
aI2
aI2
aI0
aI2
aI1
aI4
asS'romer002'
p4264
(lp4265
g4264
aS'Ricky Romero'
p4266
aS'  7.1'
p4267
aI11
aI9
aI9
aI2
aI8
aI0
aI5
asS'bellh001'
p4268
(lp4269
g4268
aS'Heath Bell'
p4270
aS' 65.2'
p4271
aI74
aI30
aI30
aI12
aI16
aI1
aI72
asg2147
(lp4272
g2147
ag2149
aS'181.1'
p4273
aI180
aI108
aI99
aI27
aI73
aI1
aI163
asS'guerj002'
p4274
(lp4275
g4274
aS'Javy Guerra'
p4276
aS' 10.2'
p4277
aI15
aI9
aI8
aI1
aI6
aI0
aI12
asS'atchs001'
p4278
(lp4279
g4278
aS'Scott Atchison'
p4280
aS' 45.1'
p4281
aI45
aI27
aI22
aI4
aI12
aI0
aI28
asg2105
(lp4282
g2105
ag2107
aS'191.0'
p4283
aI165
aI79
aI70
aI11
aI67
aI3
aI209
asS'burna002'
p4284
(lp4285
g4284
aS'Alex Burnett'
p4286
aS'  2.1'
p4287
aI5
aI3
aI3
aI0
aI2
aI0
aI2
asS'rivem002'
p4288
(lp4289
g4288
aS'Mariano Rivera'
p4290
aS' 64.0'
p4291
aI58
aI16
aI15
aI6
aI9
aI3
aI54
asS'wangc001'
p4292
(lp4293
g4292
aS'Chien-Ming Wang'
p4294
aS' 27.0'
p4295
aI40
aI24
aI23
aI5
aI9
aI0
aI14
asS'loupa001'
p4296
(lp4297
g4296
aS'Aaron Loup'
p4298
aS' 69.1'
p4299
aI66
aI23
aI19
aI5
aI13
aI4
aI53
asS'farqd001'
p4300
(lp4301
g4300
aS'Danny Farquhar'
p4302
aS' 55.2'
p4303
aI44
aI29
aI26
aI2
aI22
aI4
aI79
asS'stord001'
p4304
(lp4305
g4304
aS'Drew Storen'
p4306
aS' 61.2'
p4307
aI65
aI34
aI31
aI7
aI19
aI2
aI58
asg989
(lp4308
g989
ag991
aS'213.2'
p4309
aI210
aI109
aI103
aI25
aI78
aI3
aI214
asS'happj001'
p4310
(lp4311
g4310
aS'J.A. Happ'
p4312
aS' 92.2'
p4313
aI91
aI53
aI47
aI10
aI45
aI0
aI77
asS'guilp001'
p4314
(lp4315
g4314
aS'Preston Guilmet'
p4316
aS'  5.1'
p4317
aI8
aI6
aI6
aI0
aI3
aI0
aI1
asg2150
(lp4318
g2150
ag2152
aS' 68.0'
p4319
aI85
aI45
aI44
aI9
aI23
aI3
aI32
asg2159
(lp4320
g2159
ag2161
aS' 56.0'
p4321
aI57
aI25
aI23
aI8
aI16
aI1
aI42
asS'belod001'
p4322
(lp4323
g4322
aS'Duane Below'
p4324
aS'  2.2'
p4325
aI6
aI3
aI3
aI0
aI2
aI1
aI2
asS'hanrj001'
p4326
(lp4327
g4326
aS'Joel Hanrahan'
p4328
aS'  7.1'
p4329
aI10
aI8
aI8
aI4
aI6
aI0
aI5
asg2165
(lp4330
g2165
ag2167
aS'139.1'
p4331
aI155
aI81
aI77
aI22
aI48
aI1
aI96
asg1676
(lp4332
g1676
ag1678
aS'137.2'
p4333
aI152
aI76
aI73
aI21
aI44
aI2
aI96
asS'huntt002'
p4334
(lp4335
g4334
aS'Tommy Hunter'
p4336
aS' 86.1'
p4337
aI71
aI28
aI27
aI11
aI14
aI1
aI68
asg2180
(lp4338
g2180
ag2182
aS' 15.0'
p4339
aI9
aI6
aI6
aI3
aI4
aI0
aI6
asg2183
(lp4340
g2183
ag2185
aS'214.1'
p4341
aI152
aI73
aI69
aI18
aI56
aI0
aI240
asg2186
(lp4342
g2186
ag2188
aS'218.1'
p4343
aI212
aI94
aI84
aI19
aI75
aI1
aI217
asS'axfoj001'
p4344
(lp4345
g4344
aS'John Axford'
p4346
aS' 65.0'
p4347
aI73
aI32
aI29
aI10
aI26
aI3
aI65
asS'olivd001'
p4348
(lp4349
g4348
aS'Darren Oliver'
p4350
aS' 49.0'
p4351
aI47
aI24
aI21
aI6
aI15
aI1
aI40
asg2201
(lp4352
g2201
ag2203
aS'197.0'
p4353
aI194
aI77
aI68
aI18
aI47
aI1
aI157
asS'bracb001'
p4354
(lp4355
g4354
aS'Brad Brach'
p4356
aS' 31.0'
p4357
aI36
aI15
aI11
aI3
aI19
aI0
aI31
asS'nolis001'
p4358
(lp4359
g4358
aS'Sean Nolin'
p4360
aS'  1.1'
p4361
aI7
aI6
aI6
aI1
aI1
aI0
aI0
asS'philz001'
p4362
(lp4363
g4362
aS'Zach Phillips'
p4364
aS'  1.2'
p4365
aI3
aI1
aI1
aI0
aI3
aI0
aI1
asS'stinj001'
p4366
(lp4367
g4366
aS'Josh Stinson'
p4368
aS' 17.0'
p4369
aI10
aI7
aI6
aI4
aI3
aI0
aI12
asg2213
(lp4370
g2213
ag2215
aS'224.2'
p4371
aI207
aI113
aI105
aI35
aI71
aI0
aI177
asS'veraj001'
p4372
(lp4373
g4372
aS'Jose Veras'
p4374
aS' 62.2'
p4375
aI45
aI23
aI21
aI6
aI22
aI1
aI60
asS'woodb004'
p4376
(lp4377
g4376
aS'Blake Wood'
p4378
aS'  1.1'
p4379
aI1
aI0
aI0
aI0
aI3
aI0
aI1
asS'welkd001'
p4380
(lp4381
g4380
aS'Duke Welker'
p4382
aS'  1.1'
p4383
aI0
aI0
aI0
aI0
aI0
aI0
aI1
asS'nathj001'
p4384
(lp4385
g4384
aS'Joe Nathan'
p4386
aS' 64.2'
p4387
aI36
aI10
aI10
aI2
aI22
aI3
aI73
asg2231
(lp4388
g2231
ag2233
aS'201.1'
p4389
aI146
aI68
aI62
aI15
aI62
aI6
aI199
asg2234
(lp4390
g2234
ag2236
aS' 31.1'
p4391
aI39
aI23
aI21
aI3
aI10
aI3
aI18
asS'burns001'
p4392
(lp4393
g4392
aS'Sean Burnett'
p4394
aS'  9.2'
p4395
aI9
aI1
aI1
aI1
aI4
aI0
aI7
asS'wilht001'
p4396
(lp4397
g4396
aS'Tom Wilhelmsen'
p4398
aS' 59.0'
p4399
aI45
aI28
aI27
aI2
aI33
aI5
aI45
asg1880
(lp4400
g1880
ag1882
aS'  2.1'
p4401
aI5
aI5
aI5
aI1
aI1
aI0
aI5
asS'buenf001'
p4402
(lp4403
g4402
aS'Francisley Bueno'
p4404
aS'  8.1'
p4405
aI4
aI0
aI0
aI0
aI2
aI1
aI5
asg26
(lp4406
g26
ag28
aS' 48.2'
p4407
aI82
aI43
aI39
aI9
aI15
aI1
aI25
asS'frasj002'
p4408
(lp4409
g4408
aS'Jason Frasor'
p4410
aS' 49.0'
p4411
aI36
aI15
aI14
aI4
aI20
aI3
aI48
asg2246
(lp4412
g2246
ag2248
aS' 39.2'
p4413
aI17
aI2
aI2
aI1
aI18
aI1
aI50
asg866
(lp4414
g866
ag868
aS'131.1'
p4415
aI120
aI60
aI58
aI10
aI36
aI3
aI95
asS'diekj001'
p4416
(lp4417
g4416
aS'Jake Diekman'
p4418
aS' 38.1'
p4419
aI34
aI15
aI11
aI1
aI16
aI2
aI41
asS'blacv001'
p4420
(lp4421
g4420
aS'Vic Black'
p4422
aS' 17.0'
p4423
aI17
aI7
aI7
aI1
aI6
aI0
aI15
asS'martv002'
p4424
(lp4425
g4424
aS'Victor Marte'
p4426
aS'  3.0'
p4427
aI4
aI2
aI2
aI0
aI3
aI1
aI2
asS'vincn001'
p4428
(lp4429
g4428
aS'Nick Vincent'
p4430
aS' 46.1'
p4431
aI33
aI11
aI11
aI1
aI11
aI3
aI49
asg1844
(lp4432
g1844
ag1846
aS'  4.2'
p4433
aI6
aI5
aI4
aI0
aI4
aI0
aI4
asg2273
(lp4434
g2273
ag2275
aS' 60.1'
p4435
aI83
aI45
aI44
aI7
aI25
aI2
aI41
asg2282
(lp4436
g2282
ag2284
aS' 54.0'
p4437
aI56
aI27
aI26
aI3
aI23
aI2
aI53
asS'robet001'
p4438
(lp4439
g4438
aS'Tyler Robertson'
p4440
aS'  1.0'
p4441
aI1
aI1
aI1
aI1
aI0
aI0
aI2
asg2285
(lp4442
g2285
ag2287
aS' 11.0'
p4443
aI11
aI1
aI1
aI0
aI1
aI0
aI14
asS'affej001'
p4444
(lp4445
g4444
aS'Jeremy Affeldt'
p4446
aS' 33.2'
p4447
aI27
aI14
aI14
aI2
aI17
aI5
aI21
asS'putzj001'
p4448
(lp4449
g4448
aS'J.J. Putz'
p4450
aS' 34.1'
p4451
aI26
aI9
aI9
aI4
aI17
aI1
aI38
asS'parkj001'
p4452
(lp4453
g4452
aS'Jarrod Parker'
p4454
aS'197.0'
p4455
aI178
aI92
aI87
aI25
aI63
aI2
aI134
asg2312
(lp4456
g2312
ag2314
aS'  3.2'
p4457
aI6
aI3
aI3
aI0
aI3
aI0
aI0
asS'albea001'
p4458
(lp4459
g4458
aS'Andrew Albers'
p4460
aS' 60.0'
p4461
aI64
aI34
aI27
aI6
aI7
aI0
aI25
asS'villb002'
p4462
(lp4463
g4462
aS'Brayan Villarreal'
p4464
aV  0.0
p4465
aI8
aI10
aI10
aI1
aI8
aI0
aI6
asS'drabk001'
p4466
(lp4467
g4466
aS'Kyle Drabek'
p4468
aS'  2.1'
p4469
aI4
aI2
aI2
aI1
aI2
aI0
aI3
asS'valvj001'
p4470
(lp4471
g4470
aS'Jose Valverde'
p4472
aS' 19.1'
p4473
aI18
aI12
aI12
aI6
aI6
aI0
aI19
asS'luetl001'
p4474
(lp4475
g4474
aS'Lucas Luetge'
p4476
aS' 37.0'
p4477
aI42
aI22
aI20
aI2
aI16
aI2
aI27
asS'ortej001'
p4478
(lp4479
g4478
aS'Jose Ortega'
p4480
aS' 11.2'
p4481
aI10
aI5
aI5
aI2
aI6
aI1
aI10
asg2327
(lp4482
g2327
ag2329
aS'208.1'
p4483
aI189
aI81
aI79
aI19
aI54
aI1
aI178
asS'wolfr002'
p4484
(lp4485
g4484
aS'Ross Wolf'
p4486
aS' 47.2'
p4487
aI58
aI24
aI22
aI5
aI15
aI1
aI21
asg2333
(lp4488
g2333
ag2335
aS' 76.2'
p4489
aI48
aI16
aI16
aI6
aI18
aI1
aI111
asS'hochl001'
p4490
(lp4491
g4490
aS'Luke Hochevar'
p4492
aS' 70.1'
p4493
aI41
aI15
aI15
aI8
aI17
aI1
aI82
asg2336
(lp4494
g2336
ag2338
aS'185.1'
p4495
aI198
aI85
aI77
aI17
aI48
aI1
aI128
asg2345
(lp4496
g2345
ag2347
aS'200.0'
p4497
aI171
aI91
aI85
aI36
aI54
aI2
aI171
asg2351
(lp4498
g2351
ag2353
aS' 68.0'
p4499
aI72
aI34
aI30
aI3
aI28
aI10
aI49
asS'doteo001'
p4500
(lp4501
g4500
aS'Octavio Dotel'
p4502
aS'  4.2'
p4503
aI10
aI7
aI7
aI0
aI4
aI0
aI4
asS'gomeb001'
p4504
(lp4505
g4504
aS'Brandon Gomes'
p4506
aS' 19.1'
p4507
aI18
aI15
aI14
aI4
aI7
aI3
aI29
asS'hoovj002'
p4508
(lp4509
g4508
aS'J.J. Hoover'
p4510
aS' 66.0'
p4511
aI47
aI21
aI21
aI6
aI26
aI6
aI67
asg2357
(lp4512
g2357
ag2359
aS'  8.1'
p4513
aI11
aI3
aI2
aI0
aI3
aI0
aI4
asS'britz001'
p4514
(lp4515
g4514
aS'Zach Britton'
p4516
aS' 40.0'
p4517
aI52
aI23
aI22
aI4
aI17
aI1
aI18
asg2363
(lp4518
g2363
ag2365
aS' 14.0'
p4519
aI13
aI8
aI8
aI2
aI7
aI0
aI12
asS'dempr002'
p4520
(lp4521
g4520
aS'Ryan Dempster'
p4522
aS'171.1'
p4523
aI170
aI97
aI87
aI26
aI79
aI1
aI157
asg233
(lp4524
g233
ag235
aS'178.1'
p4525
aI135
aI46
aI45
aI7
aI31
aI1
aI191
asS'millj005'
p4526
(lp4527
g4526
aS'Jim Miller'
p4528
aS'  1.1'
p4529
aI3
aI3
aI3
aI1
aI1
aI0
aI0
asS'brasr001'
p4530
(lp4531
g4530
aS'Ryan Brasier'
p4532
aS'  9.0'
p4533
aI7
aI2
aI2
aI1
aI4
aI0
aI7
asS'hatcc002'
p4534
(lp4535
g4534
aS'Chris Hatcher'
p4536
aS'  8.2'
p4537
aI13
aI13
aI12
aI1
aI4
aI1
aI7
asg2393
(lp4538
g2393
ag2395
aS' 11.0'
p4539
aI16
aI12
aI11
aI2
aI5
aI1
aI5
asS'rasmc002'
p4540
(lp4541
g4540
aS'Cory Rasmus'
p4542
aS' 21.2'
p4543
aI24
aI15
aI13
aI6
aI13
aI2
aI20
asS'beavb001'
p4544
(lp4545
g4544
aS'Blake Beavan'
p4546
aS' 39.2'
p4547
aI46
aI27
aI27
aI8
aI8
aI0
aI27
asg2399
(lp4548
g2399
ag2401
aS' 69.2'
p4549
aI59
aI29
aI29
aI7
aI20
aI1
aI64
asg2405
(lp4550
g2405
ag2407
aS'189.1'
p4551
aI179
aI80
aI74
aI26
aI40
aI0
aI161
asS'allec002'
p4552
(lp4553
g4552
aS'Cody Allen'
p4554
aS' 70.1'
p4555
aI62
aI22
aI19
aI7
aI26
aI2
aI88
asg2423
(lp4556
g2423
ag2425
aS' 78.1'
p4557
aI73
aI27
aI23
aI5
aI31
aI5
aI78
asS'downd001'
p4558
(lp4559
g4558
aS'Darin Downs'
p4560
aS' 35.1'
p4561
aI36
aI20
aI19
aI4
aI11
aI2
aI37
asS'matub001'
p4562
(lp4563
g4562
aS'Brian Matusz'
p4564
aS' 51.0'
p4565
aI43
aI21
aI20
aI3
aI16
aI2
aI50
asg1601
(lp4566
g1601
ag1603
aS'152.2'
p4567
aI184
aI92
aI88
aI13
aI53
aI0
aI101
asS'strop001'
p4568
(lp4569
g4568
aS'Pedro Strop'
p4570
aS' 57.1'
p4571
aI45
aI30
aI29
aI5
aI26
aI2
aI66
asg2438
(lp4572
g2438
ag2440
aS' 49.0'
p4573
aI40
aI26
aI24
aI7
aI40
aI3
aI59
asg2441
(lp4574
g2441
ag2443
aS'128.0'
p4575
aI109
aI56
aI55
aI19
aI29
aI0
aI118
asg2444
(lp4576
g2444
ag2446
aS' 92.0'
p4577
aI79
aI34
aI32
aI8
aI33
aI8
aI85
asg2453
(lp4578
g2453
ag2455
aS'138.1'
p4579
aI151
aI81
aI73
aI28
aI27
aI0
aI89
asS'baila001'
p4580
(lp4581
g4580
aS'Andrew Bailey'
p4582
aS' 28.2'
p4583
aI23
aI12
aI12
aI7
aI12
aI0
aI39
asS'cecib001'
p4584
(lp4585
g4584
aS'Brett Cecil'
p4586
aS' 60.2'
p4587
aI44
aI20
aI19
aI4
aI23
aI3
aI70
asS'rices001'
p4588
(lp4589
g4588
aS'Scott Rice'
p4590
aS' 51.0'
p4591
aI42
aI22
aI21
aI1
aI27
aI4
aI41
asg1385
(lp4592
g1385
ag1387
aS' 30.2'
p4593
aI26
aI8
aI7
aI1
aI5
aI0
aI22
asS'lowem002'
p4594
(lp4595
g4594
aS'Mark Lowe'
p4596
aS' 11.2'
p4597
aI11
aI12
aI12
aI1
aI11
aI1
aI7
asS'chrin001'
p4598
(lp4599
g4598
aS'Nick Christiani'
p4600
aS'  4.0'
p4601
aI2
aI1
aI1
aI1
aI2
aI0
aI1
asg2492
(lp4602
g2492
ag2494
aS' 31.2'
p4603
aI43
aI27
aI20
aI3
aI15
aI2
aI28
asS'hynec001'
p4604
(lp4605
g4604
aS'Colt Hynes'
p4606
aS' 17.0'
p4607
aI25
aI17
aI17
aI3
aI9
aI2
aI13
asS'sorij001'
p4608
(lp4609
g4608
aS'Joakim Soria'
p4610
aS' 23.2'
p4611
aI18
aI10
aI10
aI2
aI14
aI2
aI28
asg2513
(lp4612
g2513
ag2515
aS'182.0'
p4613
aI207
aI104
aI95
aI18
aI47
aI4
aI110
asS'reynm002'
p4614
(lp4615
g4614
aS'Matt Reynolds'
p4616
aS' 27.1'
p4617
aI25
aI7
aI6
aI2
aI5
aI1
aI23
asg2516
(lp4618
g2516
ag2518
aS'201.2'
p4619
aI189
aI92
aI89
aI14
aI76
aI0
aI198
asS'tomlj001'
p4620
(lp4621
g4620
aS'Josh Tomlin'
p4622
aS'  2.0'
p4623
aI2
aI0
aI0
aI0
aI0
aI0
aI0
asS'perec002'
p4624
(lp4625
g4624
aS'Chris Perez'
p4626
aS' 54.0'
p4627
aI56
aI27
aI26
aI11
aI21
aI2
aI54
asS'johne003'
p4628
(lp4629
g4628
aS'Erik Johnson'
p4630
aS' 27.2'
p4631
aI32
aI16
aI10
aI5
aI11
aI0
aI18
asg2531
(lp4632
g2531
ag2533
aS'157.2'
p4633
aI168
aI97
aI90
aI17
aI64
aI7
aI119
asS'lafrb001'
p4634
(lp4635
g4634
aS'Bobby LaFromboise'
p4636
aS' 10.2'
p4637
aI12
aI8
aI7
aI0
aI4
aI1
aI11
asS'sance001'
p4638
(lp4639
g4638
aS'Eduardo Sanchez'
p4640
aS'  6.1'
p4641
aI5
aI4
aI4
aI1
aI5
aI0
aI5
asS'frees001'
p4642
(lp4643
g4642
aS'Sam Freeman'
p4644
aS' 12.1'
p4645
aI8
aI3
aI3
aI0
aI5
aI0
aI8
asS'tazaj001'
p4646
(lp4647
g4646
aS'Junichi Tazawa'
p4648
aS' 68.1'
p4649
aI70
aI25
aI24
aI9
aI12
aI1
aI72
asS'durbc001'
p4650
(lp4651
g4650
aS'Chad Durbin'
p4652
aS' 16.0'
p4653
aI25
aI17
aI16
aI4
aI9
aI1
aI16
asS'benoj001'
p4654
(lp4655
g4654
aS'Joaquin Benoit'
p4656
aS' 67.0'
p4657
aI47
aI15
aI15
aI5
aI22
aI2
aI73
asS'moylp001'
p4658
(lp4659
g4658
aS'Peter Moylan'
p4660
aS' 15.1'
p4661
aI23
aI11
aI11
aI3
aI7
aI1
aI6
asg2567
(lp4662
g2567
ag2569
aS' 34.1'
p4663
aI32
aI15
aI15
aI1
aI16
aI1
aI33
asS'maurb001'
p4664
(lp4665
g4664
aS'Brandon Maurer'
p4666
aS' 90.0'
p4667
aI114
aI66
aI63
aI16
aI27
aI0
aI70
asS'marsb001'
p4668
(lp4669
g4668
aS'Brett Marshall'
p4670
aS' 12.0'
p4671
aI13
aI6
aI6
aI3
aI7
aI0
aI7
asS'dwyec001'
p4672
(lp4673
g4672
aS'Chris Dwyer'
p4674
aS'  3.0'
p4675
aI2
aI0
aI0
aI0
aI1
aI0
aI2
asS'carrc003'
p4676
(lp4677
g4676
aS'Carlos Carrasco'
p4678
aS' 46.2'
p4679
aI64
aI36
aI35
aI4
aI18
aI2
aI30
asg2573
(lp4680
g2573
ag2575
aS'175.0'
p4681
aI151
aI68
aI60
aI12
aI47
aI3
aI128
asg2582
(lp4682
g2582
ag2584
aS' 43.1'
p4683
aI50
aI30
aI25
aI8
aI15
aI2
aI41
asg2591
(lp4684
g2591
ag2593
aS' 94.0'
p4685
aI106
aI60
aI56
aI10
aI43
aI0
aI54
asg2597
(lp4686
g2597
ag2599
aS'105.2'
p4687
aI125
aI57
aI50
aI11
aI24
aI5
aI81
asS'jansc001'
p4688
(lp4689
g4688
aS'Casey Janssen'
p4690
aS' 52.2'
p4691
aI39
aI17
aI15
aI3
aI13
aI1
aI50
asg1871
(lp4692
g1871
ag1873
aS' 38.2'
p4693
aI38
aI23
aI22
aI7
aI15
aI2
aI36
asg275
(lp4694
g275
ag277
aS' 71.2'
p4695
aI51
aI19
aI19
aI5
aI12
aI1
aI54
asg2606
(lp4696
g2606
ag2608
aS' 93.0'
p4697
aI100
aI53
aI50
aI12
aI27
aI3
aI76
asg2609
(lp4698
g2609
ag2611
aS'143.0'
p4699
aI140
aI72
aI70
aI14
aI54
aI2
aI92
asS'fielj002'
p4700
(lp4701
g4700
aS'Josh Fields'
p4702
aS' 38.0'
p4703
aI31
aI21
aI21
aI8
aI18
aI4
aI40
asg2624
(lp4704
g2624
ag2626
aS' 52.0'
p4705
aI44
aI18
aI18
aI7
aI15
aI0
aI65
asg2630
(lp4706
g2630
ag2632
aS'173.1'
p4707
aI152
aI65
aI59
aI20
aI57
aI0
aI169
asg698
(lp4708
g698
ag700
aS' 66.2'
p4709
aI53
aI17
aI15
aI1
aI26
aI2
aI48
asg2639
(lp4710
g2639
ag2641
aS'177.2'
p4711
aI152
aI54
aI52
aI13
aI46
aI1
aI148
asg2657
(lp4712
g2657
ag2659
aS' 31.2'
p4713
aI23
aI17
aI13
aI3
aI15
aI0
aI33
asg2666
(lp4714
g2666
ag2668
aS' 12.1'
p4715
aI11
aI7
aI7
aI1
aI5
aI0
aI8
asS'buckb002'
p4716
(lp4717
g4716
aS'Billy Buckner'
p4718
aS' 17.1'
p4719
aI17
aI9
aI9
aI5
aI7
aI0
aI7
asS'luekj001'
p4720
(lp4721
g4720
aS'Josh Lueke'
p4722
aS' 21.1'
p4723
aI23
aI12
aI12
aI3
aI12
aI1
aI25
asS'tolls002'
p4724
(lp4725
g4724
aS'Shawn Tolleson'
p4726
aV  0.0
p4727
aI0
aI0
aI0
aI0
aI0
aI0
aI0
asg2702
(lp4728
g2702
ag2704
aS'204.1'
p4729
aI185
aI74
aI69
aI15
aI46
aI1
aI216
asS'defrj001'
p4730
(lp4731
g4730
aS'Justin De Fratus'
p4732
aS' 46.2'
p4733
aI45
aI21
aI20
aI3
aI25
aI3
aI42
asg2726
(lp4734
g2726
ag2728
aS'117.1'
p4735
aI109
aI43
aI42
aI7
aI28
aI0
aI100
asg2729
(lp4736
g2729
ag2731
aS' 53.2'
p4737
aI38
aI11
aI9
aI1
aI11
aI0
aI40
asg2735
(lp4738
g2735
ag2737
aS' 36.1'
p4739
aI39
aI26
aI26
aI9
aI21
aI1
aI46
asg1382
(lp4740
g1382
ag1384
aS' 28.2'
p4741
aI33
aI14
aI14
aI4
aI17
aI1
aI20
asS'figup001'
p4742
(lp4743
g4742
aS'Pedro Figueroa'
p4744
aS'  3.0'
p4745
aI6
aI4
aI4
aI2
aI3
aI0
aI3
asg2747
(lp4746
g2747
ag2749
aS'102.2'
p4747
aI90
aI42
aI41
aI2
aI27
aI1
aI57
asS'butlk001'
p4748
(lp4749
g4748
aS'Keith Butler'
p4750
aS' 20.0'
p4751
aI13
aI9
aI9
aI0
aI11
aI0
aI16
asg2759
(lp4752
g2759
ag2761
aS' 23.1'
p4753
aI17
aI16
aI16
aI8
aI17
aI1
aI16
asS'enrib001'
p4754
(lp4755
g4754
aS'Barry Enright'
p4756
aS'  8.1'
p4757
aI12
aI12
aI12
aI2
aI7
aI0
aI6
asS'boshb001'
p4758
(lp4759
g4758
aS'Buddy Boshers'
p4760
aS' 15.1'
p4761
aI13
aI8
aI8
aI0
aI8
aI1
aI13
asS'milla002'
p4762
(lp4763
g4762
aS'Andrew Miller'
p4764
aS' 30.2'
p4765
aI25
aI12
aI9
aI3
aI17
aI0
aI48
asS'epplc001'
p4766
(lp4767
g4766
aS'Cody Eppley'
p4768
aS'  1.2'
p4769
aI4
aI4
aI4
aI0
aI0
aI0
aI1
asg2774
(lp4770
g2774
ag2776
aS' 80.1'
p4771
aI70
aI30
aI26
aI5
aI27
aI5
aI54
asS'sippt001'
p4772
(lp4773
g4772
aS'Tony Sipp'
p4774
aS' 37.2'
p4775
aI35
aI22
aI20
aI6
aI22
aI2
aI42
asg2780
(lp4776
g2780
ag2782
aS'190.1'
p4777
aI193
aI60
aI56
aI14
aI29
aI0
aI117
asg2783
(lp4778
g2783
ag2785
aS'132.2'
p4779
aI180
aI96
aI89
aI29
aI34
aI4
aI108
asg2786
(lp4780
g2786
ag2788
aS'153.0'
p4781
aI169
aI82
aI75
aI17
aI47
aI3
aI105
asS'friee001'
p4782
(lp4783
g4782
aS'Ernesto Frieri'
p4784
aS' 68.2'
p4785
aI55
aI29
aI29
aI11
aI30
aI1
aI98
asS'zagum001'
p4786
(lp4787
g4786
aS'Mike Zagurski'
p4788
aS'  6.1'
p4789
aI11
aI12
aI12
aI1
aI8
aI0
aI5
asg2789
(lp4790
g2789
ag2791
aS'197.1'
p4791
aI188
aI82
aI76
aI11
aI61
aI3
aI126
asg2792
(lp4792
g2792
ag2794
aS'204.2'
p4793
aI177
aI79
aI73
aI22
aI46
aI2
aI181
asa.