(lp0
(dp1
S'garca003'
p2
(lp3
g2
aS'Avisail Garcia'
p4
aI190
aI172
aI19
aI42
aI8
aI0
aI7
aI29
aI4
aI1
aI14
aI44
aI71
asS'torrc001'
p5
(lp6
g5
aS'Carlos Torres'
p7
aI7
aI5
aI0
aI0
aI0
aI0
aI0
aI0
aI0
aI0
aI0
aI4
aI0
asS'belta001'
p8
(lp9
g8
aS'Adrian Beltre'
p10
aI614
aI549
aI79
aI178
aI33
aI1
aI19
aI77
aI1
aI1
aI57
aI74
aI270
asS'peres002'
p11
(lp12
g11
aS'Salvador Perez'
p13
aI606
aI578
aI57
aI150
aI28
aI2
aI17
aI70
aI1
aI0
aI22
aI85
aI233
asS'gonzc001'
p14
(lp15
g14
aS'Carlos Gonzalez'
p16
aI281
aI260
aI35
aI62
aI15
aI1
aI11
aI38
aI3
aI0
aI19
aI70
aI112
asS'worlv001'
p17
(lp18
g17
aS'Vance Worley'
p19
aI38
aI32
aI1
aI2
aI1
aI0
aI0
aI0
aI0
aI0
aI1
aI17
aI3
asS'culbc001'
p20
(lp21
g20
aS'Charlie Culberson'
p22
aI233
aI210
aI17
aI41
aI7
aI2
aI3
aI24
aI2
aI2
aI12
aI62
aI61
asS'aybae001'
p23
(lp24
g23
aS'Erick Aybar'
p25
aI642
aI589
aI77
aI164
aI30
aI4
aI7
aI68
aI16
aI9
aI36
aI62
aI223
asS'basta001'
p26
(lp27
g26
aS'Antonio Bastardo'
p28
aI1
aI0
aI0
aI0
aI0
aI0
aI0
aI0
aI0
aI0
aI1
aI0
aI0
asS'telit001'
p29
(lp30
g29
aS'Tomas Telis'
p31
aI71
aI68
aI7
aI17
aI2
aI0
aI0
aI8
aI0
aI0
aI1
aI10
aI19
asS'arrob001'
p32
(lp33
g32
aS'Bronson Arroyo'
p34
aI31
aI27
aI5
aI6
aI0
aI0
aI0
aI0
aI0
aI0
aI0
aI12
aI6
asS'tejar001'
p35
(lp36
g35
aS'Ruben Tejada'
p37
aI419
aI355
aI30
aI84
aI11
aI0
aI5
aI34
aI1
aI2
aI50
aI73
aI110
asS'kellj001'
p38
(lp39
g38
aS'Joe Kelly'
p40
aI18
aI16
aI0
aI4
aI1
aI0
aI0
aI0
aI1
aI0
aI0
aI2
aI5
asS'darnt001'
p41
(lp42
g41
aS"Travis d'Arnaud"
p43
aI421
aI385
aI48
aI93
aI22
aI3
aI13
aI41
aI1
aI0
aI32
aI64
aI160
asS'herrc001'
p44
(lp45
g44
aS'Chris Herrmann'
p46
aI79
aI75
aI8
aI16
aI3
aI0
aI0
aI4
aI1
aI0
aI4
aI17
aI19
asS'kottg001'
p47
(lp48
g47
aS'George Kottaras'
p49
aI38
aI30
aI4
aI7
aI0
aI0
aI3
aI5
aI0
aI0
aI6
aI16
aI16
asS'cainm001'
p50
(lp51
g50
aS'Matt Cain'
p52
aI30
aI27
aI1
aI4
aI0
aI0
aI0
aI0
aI0
aI0
aI2
aI13
aI4
asS'wrigj001'
p53
(lp54
g53
aS'Jamey Wright'
p55
aI6
aI5
aI0
aI0
aI0
aI0
aI0
aI0
aI0
aI0
aI0
aI3
aI0
asS'willj003'
p56
(lp57
g56
aS'Jerome Williams'
p58
aI16
aI12
aI0
aI2
aI0
aI0
aI0
aI3
aI0
aI0
aI0
aI4
aI2
asS'niesj001'
p59
(lp60
g59
aS'Jon Niese'
p61
aI65
aI55
aI3
aI5
aI1
aI0
aI0
aI4
aI0
aI0
aI6
aI29
aI6
asS'hoesl001'
p62
(lp63
g62
aS'L.J. Hoes'
p64
aI136
aI122
aI12
aI21
aI5
aI0
aI3
aI11
aI0
aI0
aI10
aI31
aI35
asS'quenc001'
p65
(lp66
g65
aS'Carlos Quentin'
p67
aI155
aI130
aI9
aI23
aI6
aI0
aI4
aI18
aI0
aI0
aI17
aI33
aI41
asS'jurrj001'
p68
(lp69
g68
aS'Jair Jurrjens'
p70
aI2
aI1
aI0
aI0
aI0
aI0
aI0
aI0
aI0
aI1
aI0
aI0
aI0
asS'nieuk001'
p71
(lp72
g71
aS'Kirk Nieuwenhuis'
p73
aI130
aI112
aI16
aI29
aI14
aI1
aI3
aI16
aI4
aI0
aI16
aI39
aI54
asS'butlj002'
p74
(lp75
g74
aS'Joey Butler'
p76
aI6
aI5
aI0
aI0
aI0
aI0
aI0
aI0
aI0
aI0
aI1
aI3
aI0
asS'maldm001'
p77
(lp78
g77
aS'Martin Maldonado'
p79
aI126
aI111
aI14
aI26
aI5
aI0
aI4
aI16
aI0
aI0
aI11
aI32
aI43
asS'heywj001'
p80
(lp81
g80
aS'Jason Heyward'
p82
aI649
aI573
aI74
aI155
aI26
aI3
aI11
aI58
aI20
aI4
aI67
aI98
aI220
asS'sellj002'
p83
(lp84
g83
aS'Justin Sellers'
p85
aI21
aI16
aI1
aI3
aI0
aI0
aI0
aI0
aI0
aI1
aI3
aI4
aI3
asS'sanca004'
p86
(lp87
g86
aS'Anibal Sanchez'
p88
aI5
aI5
aI0
aI1
aI1
aI0
aI0
aI1
aI0
aI0
aI0
aI3
aI2
asS'ruppc001'
p89
(lp90
g89
aS'Cameron Rupp'
p91
aI64
aI60
aI4
aI11
aI4
aI0
aI0
aI6
aI0
aI0
aI4
aI20
aI15
asS'mcgod001'
p92
(lp93
g92
aS'Dustin McGowan'
p94
aI4
aI4
aI0
aI0
aI0
aI0
aI0
aI0
aI0
aI0
aI0
aI3
aI0
asS'gally001'
p95
(lp96
g95
aS'Yovani Gallardo'
p97
aI60
aI54
aI1
aI6
aI1
aI0
aI0
aI1
aI0
aI0
aI1
aI18
aI7
asS'crawc002'
p98
(lp99
g98
aS'Carl Crawford'
p100
aI370
aI343
aI56
aI103
aI14
aI3
aI8
aI46
aI23
aI6
aI16
aI55
aI147
asS'vicid001'
p101
(lp102
g101
aS'Dayan Viciedo'
p103
aI563
aI523
aI65
aI121
aI22
aI3
aI21
aI58
aI0
aI1
aI32
aI122
aI212
asS'sierm001'
p104
(lp105
g104
aS'Moises Sierra'
p106
aI170
aI161
aI22
aI37
aI8
aI2
aI2
aI9
aI3
aI1
aI8
aI43
aI55
asS'davir003'
p107
(lp108
g107
aS'Rajai Davis'
p109
aI494
aI461
aI64
aI130
aI27
aI2
aI8
aI51
aI36
aI11
aI22
aI75
aI185
asS'paulb001'
p110
(lp111
g110
aS'Ben Paulsen'
p112
aI66
aI63
aI8
aI20
aI4
aI0
aI4
aI10
aI0
aI0
aI2
aI19
aI36
asS'wilsj003'
p113
(lp114
g113
aS'Josh Wilson'
p115
aI72
aI67
aI7
aI16
aI4
aI0
aI0
aI8
aI1
aI0
aI2
aI14
aI20
asS'fulds001'
p116
(lp117
g116
aS'Sam Fuld'
p118
aI402
aI351
aI40
aI84
aI16
aI4
aI4
aI36
aI21
aI4
aI43
aI63
aI120
asS'wilsj004'
p119
(lp120
g119
aS'Justin Wilson'
p121
aI1
aI1
aI0
aI0
aI0
aI0
aI0
aI0
aI0
aI0
aI0
aI1
aI0
asS'tropn001'
p122
(lp123
g122
aS'Nick Tropeano'
p124
aI2
aI1
aI0
aI0
aI0
aI0
aI0
aI0
aI0
aI0
aI1
aI0
aI0
asS'cespy001'
p125
(lp126
g125
aS'Yoenis Cespedes'
p127
aI645
aI600
aI89
aI156
aI36
aI6
aI22
aI100
aI7
aI2
aI35
aI128
aI270
asS'clarm003'
p128
(lp129
g128
aS'Matt Clark'
p130
aI31
aI27
aI4
aI5
aI0
aI0
aI3
aI7
aI0
aI0
aI2
aI8
aI14
asS'flowt001'
p131
(lp132
g131
aS'Tyler Flowers'
p133
aI442
aI407
aI42
aI98
aI16
aI1
aI15
aI50
aI0
aI1
aI25
aI159
aI161
asS'josec002'
p134
(lp135
g134
aS'Caleb Joseph'
p136
aI275
aI246
aI22
aI51
aI9
aI0
aI9
aI28
aI0
aI1
aI17
aI69
aI87
asS'galvf001'
p137
(lp138
g137
aS'Freddy Galvis'
p139
aI128
aI119
aI14
aI21
aI3
aI1
aI4
aI12
aI1
aI0
aI8
aI30
aI38
asS'norrb001'
p140
(lp141
g140
aS'Bud Norris'
p142
aI4
aI3
aI0
aI1
aI0
aI0
aI0
aI1
aI0
aI0
aI0
aI1
aI1
asS'joycm001'
p143
(lp144
g143
aS'Matthew Joyce'
p145
aI493
aI418
aI51
aI106
aI23
aI2
aI9
aI52
aI2
aI5
aI62
aI111
aI160
asS'goebj001'
p146
(lp147
g146
aS'Jake Goebbert'
p148
aI115
aI101
aI12
aI22
aI1
aI3
aI1
aI10
aI2
aI1
aI12
aI32
aI32
asS'lewic001'
p149
(lp150
g149
aS'Colby Lewis'
p151
aI5
aI5
aI0
aI2
aI0
aI0
aI0
aI1
aI0
aI0
aI0
aI2
aI2
asS'moyas001'
p152
(lp153
g152
aS'Steven Moya'
p154
aI8
aI8
aI2
aI3
aI0
aI0
aI0
aI0
aI0
aI0
aI0
aI2
aI3
asS'domim001'
p155
(lp156
g155
aS'Matt Dominguez'
p157
aI607
aI564
aI51
aI121
aI17
aI0
aI16
aI57
aI0
aI1
aI29
aI125
aI186
asS'adamm002'
p158
(lp159
g158
aS'Matt Adams'
p160
aI563
aI527
aI55
aI152
aI34
aI5
aI15
aI68
aI3
aI2
aI26
aI114
aI241
asS'johnj010'
p161
(lp162
g161
aS'Jim Johnson'
p163
aI1
aI1
aI0
aI0
aI0
aI0
aI0
aI0
aI0
aI0
aI0
aI1
aI0
asS'rodrw002'
p164
(lp165
g164
aS'Wandy Rodriguez'
p166
aI8
aI8
aI0
aI2
aI0
aI0
aI0
aI0
aI0
aI0
aI0
aI2
aI2
asS'kierk001'
p167
(lp168
g167
aS'Kevin Kiermaier'
p169
aI364
aI331
aI35
aI87
aI16
aI8
aI10
aI35
aI5
aI4
aI23
aI71
aI149
asS'mcbrm002'
p170
(lp171
g170
aS'Matt McBride'
p172
aI34
aI31
aI6
aI7
aI2
aI0
aI2
aI6
aI0
aI0
aI2
aI12
aI15
asS'pagaa001'
p173
(lp174
g173
aS'Angel Pagan'
p175
aI413
aI383
aI56
aI115
aI21
aI2
aI3
aI27
aI16
aI6
aI25
aI53
aI149
asS'scrux001'
p176
(lp177
g176
aS'Xavier Scruggs'
p178
aI18
aI15
aI0
aI3
aI1
aI0
aI0
aI2
aI0
aI0
aI2
aI7
aI4
asS'jordt001'
p179
(lp180
g179
aS'Taylor Jordan'
p181
aI8
aI8
aI1
aI1
aI0
aI0
aI0
aI0
aI0
aI0
aI0
aI4
aI1
asS'quirg001'
p182
(lp183
g182
aS'Guillermo Quiroz'
p184
aI3
aI3
aI0
aI0
aI0
aI0
aI0
aI0
aI0
aI0
aI0
aI0
aI0
asS'eovan001'
p185
(lp186
g185
aS'Nathan Eovaldi'
p187
aI64
aI56
aI1
aI5
aI0
aI0
aI0
aI0
aI0
aI0
aI1
aI36
aI5
asS'carlb001'
p188
(lp189
g188
aS'Buddy Carlyle'
p190
aI1
aI1
aI0
aI1
aI0
aI0
aI0
aI0
aI0
aI0
aI0
aI0
aI1
asS'friac001'
p191
(lp192
g191
aS'Carlos Frias'
p193
aI7
aI7
aI0
aI0
aI0
aI0
aI0
aI0
aI0
aI0
aI0
aI4
aI0
asS'morrl001'
p194
(lp195
g194
aS'Logan Morrison'
p196
aI365
aI336
aI41
aI88
aI20
aI0
aI11
aI38
aI5
aI2
aI24
aI59
aI141
asS'kontg001'
p197
(lp198
g197
aS'George Kontos'
p199
aI2
aI1
aI0
aI0
aI0
aI0
aI0
aI0
aI0
aI0
aI0
aI0
aI0
asS'hairs001'
p200
(lp201
g200
aS'Scott Hairston'
p202
aI87
aI77
aI6
aI16
aI4
aI0
aI1
aI8
aI0
aI0
aI4
aI26
aI23
asS'barnd001'
p203
(lp204
g203
aS'Darwin Barney'
p205
aI262
aI237
aI24
aI57
aI11
aI2
aI3
aI23
aI1
aI0
aI17
aI34
aI81
asS'strad003'
p206
(lp207
g206
aS'Dan Straily'
p208
aI2
aI1
aI0
aI0
aI0
aI0
aI0
aI0
aI0
aI0
aI1
aI1
aI0
asS'thayd001'
p209
(lp210
g209
aS'Dale Thayer'
p211
aI1
aI1
aI0
aI0
aI0
aI0
aI0
aI0
aI0
aI0
aI0
aI1
aI0
asS'lohsk001'
p212
(lp213
g212
aS'Kyle Lohse'
p214
aI74
aI61
aI2
aI7
aI0
aI0
aI0
aI5
aI0
aI0
aI2
aI23
aI7
asS'santr002'
p215
(lp216
g215
aS'Ramon Santiago'
p217
aI214
aI179
aI20
aI44
aI8
aI0
aI2
aI17
aI2
aI1
aI24
aI38
aI58
asS'mccaj001'
p218
(lp219
g218
aS'James McCann'
p220
aI12
aI12
aI2
aI3
aI1
aI0
aI0
aI0
aI1
aI0
aI0
aI2
aI4
asS'fistd001'
p221
(lp222
g221
aS'Doug Fister'
p223
aI62
aI52
aI3
aI4
aI1
aI0
aI0
aI0
aI0
aI0
aI1
aI21
aI5
asS'riosa002'
p224
(lp225
g224
aS'Alex Rios'
p226
aI521
aI492
aI54
aI138
aI30
aI8
aI4
aI54
aI17
aI9
aI23
aI93
aI196
asS'dysoj001'
p227
(lp228
g227
aS'Jarrod Dyson'
p229
aI290
aI260
aI33
aI70
aI4
aI4
aI1
aI24
aI36
aI7
aI22
aI52
aI85
asS'jimel002'
p230
(lp231
g230
aS'Luis Jimenez'
p232
aI41
aI37
aI3
aI6
aI2
aI0
aI0
aI2
aI0
aI0
aI0
aI13
aI8
asS'rowlr002'
p233
(lp234
g233
aS'Ryan Rowland-Smith'
p235
aI1
aI1
aI0
aI0
aI0
aI0
aI0
aI0
aI0
aI0
aI0
aI1
aI0
asS'delgr001'
p236
(lp237
g236
aS'Randall Delgado'
p238
aI11
aI9
aI0
aI1
aI0
aI0
aI0
aI0
aI0
aI0
aI0
aI4
aI1
asS'lutzd001'
p239
(lp240
g239
aS'Donald Lutz'
p241
aI54
aI51
aI2
aI9
aI4
aI0
aI0
aI1
aI0
aI0
aI3
aI19
aI13
asS'montr004'
p242
(lp243
g242
aS'Rafael Montero'
p244
aI13
aI11
aI0
aI0
aI0
aI0
aI0
aI0
aI0
aI0
aI0
aI5
aI0
asS'dendm001'
p245
(lp246
g245
aS'Matt den Dekker'
p247
aI174
aI152
aI23
aI38
aI11
aI0
aI0
aI7
aI7
aI4
aI21
aI34
aI49
asS'puntn001'
p248
(lp249
g248
aS'Nick Punto'
p250
aI224
aI198
aI21
aI41
aI7
aI2
aI2
aI14
aI3
aI1
aI25
aI56
aI58
asS'odorr001'
p251
(lp252
g251
aS'Rougned Odor'
p253
aI417
aI386
aI39
aI100
aI14
aI7
aI9
aI48
aI4
aI7
aI17
aI71
aI155
asS'shiej002'
p254
(lp255
g254
aS'James Shields'
p256
aI7
aI7
aI1
aI2
aI1
aI0
aI0
aI1
aI0
aI0
aI0
aI1
aI3
asS'schub001'
p257
(lp258
g257
aS'Bo Schultz'
p259
aI1
aI1
aI0
aI0
aI0
aI0
aI0
aI0
aI0
aI0
aI0
aI0
aI0
asS'schoj001'
p260
(lp261
g260
aS'Jonathan Schoop'
p262
aI481
aI455
aI48
aI95
aI18
aI0
aI16
aI45
aI2
aI0
aI13
aI122
aI161
asS'hundn001'
p263
(lp264
g263
aS'Nick Hundley'
p265
aI233
aI218
aI18
aI53
aI7
aI0
aI6
aI22
aI1
aI0
aI10
aI63
aI78
asS'frazt001'
p266
(lp267
g266
aS'Todd Frazier'
p268
aI660
aI597
aI88
aI163
aI22
aI1
aI29
aI80
aI20
aI8
aI52
aI139
aI274
asS'navad001'
p269
(lp270
g269
aS'Dioner Navarro'
p271
aI520
aI481
aI40
aI132
aI22
aI0
aI12
aI69
aI3
aI0
aI32
aI76
aI190
asS'navad002'
p272
(lp273
g272
aS'Daniel Nava'
p274
aI408
aI363
aI41
aI98
aI21
aI0
aI4
aI37
aI4
aI2
aI33
aI81
aI131
asS'pedej001'
p275
(lp276
g275
aS'Joc Pederson'
p277
aI38
aI28
aI1
aI4
aI0
aI0
aI0
aI0
aI0
aI0
aI9
aI11
aI4
asS'avilm001'
p278
(lp279
g278
aS'Mike Aviles'
p280
aI374
aI344
aI38
aI85
aI16
aI1
aI5
aI39
aI14
aI5
aI13
aI49
aI118
asS'rabur001'
p281
(lp282
g281
aS'Ryan Raburn'
p283
aI212
aI195
aI18
aI39
aI7
aI0
aI4
aI22
aI0
aI0
aI13
aI51
aI58
asS'teagt001'
p284
(lp285
g284
aS'Taylor Teagarden'
p286
aI30
aI28
aI1
aI4
aI0
aI0
aI1
aI5
aI0
aI0
aI2
aI7
aI7
asS'byrdm001'
p287
(lp288
g287
aS'Marlon Byrd'
p289
aI637
aI591
aI71
aI156
aI28
aI2
aI25
aI85
aI3
aI2
aI35
aI185
aI263
asS'gonzm005'
p290
(lp291
g290
aS'Marco Gonzales'
p292
aI12
aI10
aI1
aI3
aI2
aI0
aI0
aI0
aI0
aI0
aI0
aI2
aI5
asS'gonzm004'
p293
(lp294
g293
aS'Miguel Gonzalez'
p295
aI5
aI5
aI0
aI0
aI0
aI0
aI0
aI0
aI0
aI0
aI0
aI2
aI0
asS'descd001'
p296
(lp297
g296
aS'Daniel Descalso'
p298
aI184
aI161
aI20
aI39
aI11
aI0
aI0
aI10
aI1
aI3
aI20
aI33
aI50
asS'garcl004'
p299
(lp300
g299
aS'Leury Garcia'
p301
aI155
aI145
aI13
aI24
aI3
aI0
aI1
aI6
aI11
aI1
aI5
aI48
aI30
asS'parej002'
p302
(lp303
g302
aS'Jimmy Paredes'
p304
aI65
aI63
aI12
aI18
aI4
aI0
aI2
aI8
aI4
aI0
aI2
aI16
aI28
asS'stasm001'
p305
(lp306
g305
aS'Max Stassi'
p307
aI20
aI20
aI2
aI7
aI2
aI0
aI0
aI4
aI0
aI0
aI0
aI6
aI9
asS'hamib001'
p308
(lp309
g308
aS'Billy Hamilton'
p310
aI611
aI563
aI72
aI141
aI25
aI8
aI6
aI48
aI56
aI23
aI34
aI117
aI200
asS'rossc001'
p311
(lp312
g311
aS'Cody Ross'
p313
aI219
aI202
aI15
aI51
aI8
aI0
aI2
aI15
aI0
aI0
aI15
aI44
aI65
asS'quino001'
p314
(lp315
g314
aS'Omar Quintanilla'
p316
aI31
aI29
aI2
aI6
aI1
aI0
aI0
aI3
aI0
aI0
aI2
aI5
aI7
asS'mchuc001'
p317
(lp318
g317
aS'Collin McHugh'
p319
aI3
aI2
aI0
aI0
aI0
aI0
aI0
aI0
aI0
aI0
aI0
aI0
aI0
asS'nelsj004'
p320
(lp321
g320
aS'Jimmy Nelson'
p322
aI22
aI21
aI1
aI3
aI1
aI0
aI0
aI0
aI0
aI0
aI0
aI7
aI4
asS'carpm001'
p323
(lp324
g323
aS'Mike Carp'
p325
aI149
aI126
aI11
aI22
aI5
aI1
aI0
aI13
aI0
aI1
aI16
aI31
aI29
asS'jimec002'
p326
(lp327
g326
aS'Cesar Jimenez'
p328
aI1
aI1
aI0
aI0
aI0
aI0
aI0
aI0
aI0
aI0
aI0
aI1
aI0
asS'carpm002'
p329
(lp330
g329
aS'Matt Carpenter'
p331
aI709
aI595
aI99
aI162
aI33
aI2
aI8
aI59
aI5
aI3
aI95
aI111
aI223
asS'handb001'
p332
(lp333
g332
aS'Brad Hand'
p334
aI31
aI27
aI0
aI1
aI0
aI0
aI0
aI1
aI0
aI0
aI0
aI7
aI1
asS'loper002'
p335
(lp336
g335
aS'Rafael Lopez'
p337
aI14
aI11
aI0
aI2
aI0
aI0
aI0
aI1
aI0
aI0
aI2
aI4
aI2
asS'villc001'
p338
(lp339
g338
aS'Carlos Villanueva'
p340
aI13
aI10
aI0
aI0
aI0
aI0
aI0
aI0
aI0
aI0
aI0
aI6
aI0
asS'detwr001'
p341
(lp342
g341
aS'Ross Detwiler'
p343
aI4
aI2
aI1
aI0
aI0
aI0
aI0
aI0
aI0
aI0
aI1
aI1
aI0
asS'chisl001'
p344
(lp345
g344
aS'Lonnie Chisenhall'
p346
aI533
aI478
aI62
aI134
aI29
aI1
aI13
aI59
aI3
aI1
aI39
aI99
aI204
asS'buchj001'
p347
(lp348
g347
aS'Jake Buchanan'
p349
aI1
aI1
aI0
aI0
aI0
aI0
aI0
aI0
aI0
aI0
aI0
aI0
aI0
asS'robeb003'
p350
(lp351
g350
aS'Brian Roberts'
p352
aI348
aI317
aI40
aI75
aI16
aI4
aI5
aI21
aI7
aI4
aI28
aI53
aI114
asS'howar001'
p353
(lp354
g353
aS'Ryan Howard'
p355
aI648
aI569
aI65
aI127
aI18
aI1
aI23
aI95
aI0
aI0
aI67
aI190
aI216
asS'flynb001'
p356
(lp357
g356
aS'Brian Flynn'
p358
aI2
aI2
aI0
aI0
aI0
aI0
aI0
aI0
aI0
aI0
aI0
aI0
aI0
asS'smits002'
p359
(lp360
g359
aS'Seth Smith'
p361
aI521
aI443
aI55
aI118
aI31
aI5
aI12
aI48
aI1
aI1
aI69
aI87
aI195
asS'realj001'
p362
(lp363
g362
aS'J.T. Realmuto'
p364
aI30
aI29
aI4
aI7
aI1
aI1
aI0
aI9
aI0
aI0
aI1
aI8
aI10
asS'hilla001'
p365
(lp366
g365
aS'Aaron Hill'
p367
aI541
aI501
aI52
aI122
aI26
aI3
aI10
aI60
aI4
aI3
aI28
aI92
aI184
asS'castr004'
p368
(lp369
g368
aS'Rusney Castillo'
p370
aI40
aI36
aI6
aI12
aI1
aI0
aI2
aI6
aI3
aI0
aI3
aI6
aI19
asS'brigr001'
p371
(lp372
g371
aS'Reid Brignac'
p373
aI91
aI81
aI4
aI18
aI5
aI1
aI1
aI10
aI1
aI1
aI9
aI33
aI28
asS'sogae001'
p374
(lp375
g374
aS'Eric Sogard'
p376
aI329
aI291
aI38
aI65
aI10
aI0
aI1
aI22
aI11
aI4
aI31
aI37
aI78
asS'simoa001'
p377
(lp378
g377
aS'Alfredo Simon'
p379
aI67
aI59
aI2
aI7
aI3
aI0
aI0
aI2
aI0
aI0
aI1
aI21
aI10
asS'nolar001'
p380
(lp381
g380
aS'Ricky Nolasco'
p382
aI2
aI2
aI0
aI0
aI0
aI0
aI0
aI0
aI0
aI0
aI0
aI2
aI0
asS'garcg002'
p383
(lp384
g383
aS'Greg Garcia'
p385
aI18
aI14
aI2
aI2
aI1
aI0
aI0
aI1
aI0
aI0
aI1
aI6
aI3
asS'pachj001'
p386
(lp387
g386
aS'Jordan Pacheco'
p388
aI165
aI153
aI10
aI39
aI10
aI1
aI0
aI16
aI0
aI0
aI9
aI27
aI51
asS'jackb002'
p389
(lp390
g389
aS'Brett Jackson'
p391
aI5
aI4
aI0
aI0
aI0
aI0
aI0
aI0
aI0
aI0
aI1
aI1
aI0
asS'linct001'
p392
(lp393
g392
aS'Tim Lincecum'
p394
aI53
aI44
aI2
aI3
aI0
aI0
aI0
aI1
aI0
aI0
aI4
aI26
aI3
asS'rossd001'
p395
(lp396
g395
aS'David Ross'
p397
aI171
aI152
aI16
aI28
aI7
aI0
aI7
aI15
aI0
aI1
aI16
aI58
aI56
asS'herrj002'
p398
(lp399
g398
aS'Jonathan Herrera'
p400
aI104
aI90
aI10
aI21
aI1
aI2
aI0
aI9
aI1
aI3
aI7
aI24
aI26
asS'mckem001'
p401
(lp402
g401
aS'Michael McKenry'
p403
aI192
aI168
aI23
aI53
aI9
aI0
aI8
aI22
aI0
aI3
aI22
aI42
aI86
asS'fowld001'
p404
(lp405
g404
aS'Dexter Fowler'
p406
aI505
aI434
aI61
aI120
aI21
aI4
aI8
aI35
aI11
aI4
aI66
aI108
aI173
asS'rivec002'
p407
(lp408
g407
aS'Carlos Rivero'
p409
aI8
aI7
aI1
aI4
aI2
aI0
aI1
aI3
aI0
aI0
aI1
aI0
aI9
asS'cahit001'
p410
(lp411
g410
aS'Trevor Cahill'
p412
aI29
aI24
aI0
aI2
aI1
aI0
aI0
aI0
aI0
aI0
aI1
aI5
aI3
asS'solad001'
p413
(lp414
g413
aS'Donovan Solano'
p415
aI340
aI310
aI26
aI78
aI11
aI1
aI3
aI28
aI1
aI2
aI19
aI61
aI100
asS'bauet001'
p416
(lp417
g416
aS'Trevor Bauer'
p418
aI2
aI2
aI0
aI0
aI0
aI0
aI0
aI0
aI0
aI0
aI0
aI2
aI0
asS'pastt001'
p419
(lp420
g419
aS'Tyler Pastornicky'
p421
aI47
aI40
aI4
aI8
aI0
aI1
aI0
aI2
aI0
aI1
aI6
aI11
aI10
asS'arenj001'
p422
(lp423
g422
aS'J.P. Arencibia'
p424
aI222
aI203
aI20
aI36
aI9
aI0
aI10
aI35
aI0
aI0
aI10
aI62
aI75
asS'goret001'
p425
(lp426
g425
aS'Terrance Gore'
p427
aI2
aI1
aI5
aI0
aI0
aI0
aI0
aI0
aI5
aI0
aI0
aI0
aI0
asS'richg002'
p428
(lp429
g428
aS'Garrett Richards'
p430
aI11
aI11
aI0
aI0
aI0
aI0
aI0
aI0
aI0
aI0
aI0
aI4
aI0
asS'cuetj001'
p431
(lp432
g431
aS'Johnny Cueto'
p433
aI82
aI68
aI3
aI9
aI0
aI0
aI0
aI3
aI0
aI0
aI2
aI20
aI9
asS'rossr002'
p434
(lp435
g434
aS'Robbie Ross'
p436
aI2
aI1
aI0
aI0
aI0
aI0
aI0
aI0
aI0
aI0
aI1
aI0
aI0
asS'schlb001'
p437
(lp438
g437
aS'Brian Schlitter'
p439
aI1
aI1
aI0
aI1
aI0
aI0
aI0
aI0
aI0
aI0
aI0
aI0
aI1
asS'ynoar001'
p440
(lp441
g440
aS'Rafael Ynoa'
p442
aI71
aI67
aI5
aI23
aI6
aI1
aI0
aI13
aI0
aI0
aI4
aI9
aI31
asS'kouzk001'
p443
(lp444
g443
aS'Kevin Kouzmanoff'
p445
aI51
aI47
aI8
aI17
aI6
aI0
aI2
aI10
aI0
aI0
aI2
aI7
aI29
asS'peraw001'
p446
(lp447
g446
aS'Wily Peralta'
p448
aI68
aI57
aI4
aI3
aI2
aI0
aI0
aI3
aI0
aI0
aI2
aI24
aI5
asS'leakm001'
p449
(lp450
g449
aS'Mike Leake'
p451
aI74
aI68
aI9
aI12
aI5
aI0
aI2
aI5
aI0
aI0
aI0
aI34
aI23
asS'petej002'
p452
(lp453
g452
aS'Jace Peterson'
p454
aI58
aI53
aI3
aI6
aI0
aI0
aI0
aI0
aI2
aI0
aI2
aI18
aI6
asS'maurb001'
p455
(lp456
g455
aS'Brandon Maurer'
p457
aI2
aI1
aI0
aI0
aI0
aI0
aI0
aI0
aI0
aI0
aI0
aI0
aI0
asS'lonej001'
p458
(lp459
g458
aS'James Loney'
p460
aI651
aI600
aI59
aI174
aI27
aI0
aI9
aI69
aI4
aI0
aI41
aI80
aI228
asS'lombs002'
p461
(lp462
g461
aS'Steve Lombardozzi'
p463
aI74
aI73
aI6
aI21
aI1
aI1
aI0
aI2
aI1
aI0
aI0
aI14
aI24
asS'sanct001'
p464
(lp465
g464
aS'Tony Sanchez'
p466
aI80
aI75
aI3
aI20
aI1
aI0
aI2
aI13
aI0
aI0
aI3
aI28
aI27
asS'johnr008'
p467
(lp468
g467
aS'Reed Johnson'
p469
aI201
aI187
aI24
aI44
aI15
aI0
aI2
aI25
aI0
aI1
aI1
aI37
aI65
asS'kinsi001'
p470
(lp471
g470
aS'Ian Kinsler'
p472
aI726
aI684
aI100
aI188
aI40
aI4
aI17
aI92
aI15
aI4
aI29
aI79
aI287
asS'walkc002'
p473
(lp474
g473
aS'Christian Walker'
p475
aI19
aI18
aI1
aI3
aI1
aI0
aI1
aI1
aI0
aI0
aI1
aI9
aI7
asS'donaj001'
p476
(lp477
g476
aS'Josh Donaldson'
p478
aI695
aI608
aI93
aI155
aI31
aI2
aI29
aI98
aI8
aI0
aI76
aI130
aI277
asS'belnv001'
p479
(lp480
g479
aS'Vince Belnome'
p481
aI14
aI10
aI1
aI1
aI1
aI0
aI0
aI1
aI0
aI0
aI3
aI3
aI2
asS'rasmc001'
p482
(lp483
g482
aS'Colby Rasmus'
p484
aI376
aI346
aI45
aI78
aI21
aI1
aI18
aI40
aI4
aI0
aI29
aI124
aI155
asS'manes001'
p485
(lp486
g485
aS'Seth Maness'
p487
aI5
aI5
aI0
aI2
aI0
aI0
aI0
aI0
aI0
aI0
aI0
aI0
aI2
asS'pillk001'
p488
(lp489
g488
aS'Kevin Pillar'
p490
aI122
aI116
aI19
aI31
aI9
aI0
aI2
aI7
aI1
aI2
aI4
aI28
aI46
asS'whitc001'
p491
(lp492
g491
aS'Chase Whitley'
p493
aI5
aI5
aI0
aI1
aI0
aI0
aI0
aI0
aI0
aI0
aI0
aI0
aI1
asS'weekj001'
p494
(lp495
g494
aS'Jemile Weeks'
p496
aI45
aI37
aI8
aI11
aI3
aI1
aI0
aI3
aI2
aI0
aI4
aI2
aI16
asS'hughj001'
p497
(lp498
g497
aS'Jared Hughes'
p499
aI2
aI2
aI0
aI0
aI0
aI0
aI0
aI0
aI0
aI0
aI0
aI1
aI0
asS'chafa001'
p500
(lp501
g500
aS'Andrew Chafin'
p502
aI2
aI2
aI0
aI1
aI0
aI0
aI0
aI1
aI0
aI0
aI0
aI1
aI1
asS'machj002'
p503
(lp504
g503
aS'Jean Machi'
p505
aI2
aI1
aI0
aI0
aI0
aI0
aI0
aI0
aI0
aI0
aI0
aI0
aI0
asS'hardj003'
p506
(lp507
g506
aS'J.J. Hardy'
p508
aI569
aI529
aI56
aI142
aI28
aI0
aI9
aI52
aI0
aI0
aI29
aI104
aI197
asS'stubd001'
p509
(lp510
g509
aS'Drew Stubbs'
p511
aI424
aI388
aI67
aI112
aI22
aI4
aI15
aI43
aI20
aI3
aI30
aI136
aI187
asS'cruzt002'
p512
(lp513
g512
aS'Tony Cruz'
p514
aI150
aI135
aI11
aI27
aI5
aI0
aI1
aI17
aI0
aI3
aI13
aI28
aI35
asS'valac001'
p515
(lp516
g515
aS'Chris Valaika'
p517
aI131
aI121
aI10
aI28
aI4
aI0
aI3
aI13
aI1
aI0
aI7
aI35
aI41
asS'markn001'
p518
(lp519
g518
aS'Nick Markakis'
p520
aI710
aI642
aI81
aI177
aI27
aI1
aI14
aI50
aI4
aI2
aI62
aI84
aI248
asS'waina001'
p521
(lp522
g521
aS'Adam Wainwright'
p523
aI82
aI72
aI4
aI13
aI3
aI0
aI0
aI6
aI0
aI0
aI3
aI22
aI16
asS'beckg001'
p524
(lp525
g524
aS'Gordon Beckham'
p526
aI483
aI446
aI53
aI101
aI27
aI0
aI9
aI44
aI3
aI0
aI22
aI81
aI155
asS'mortc002'
p527
(lp528
g527
aS'Charlie Morton'
p529
aI49
aI40
aI1
aI2
aI0
aI0
aI0
aI1
aI0
aI0
aI1
aI21
aI2
asS'trumm001'
p530
(lp531
g530
aS'Mark Trumbo'
p532
aI362
aI328
aI37
aI77
aI15
aI1
aI14
aI61
aI2
aI3
aI28
aI89
aI136
asS'sotog001'
p533
(lp534
g533
aS'Geovany Soto'
p535
aI87
aI80
aI8
aI20
aI6
aI0
aI1
aI11
aI0
aI0
aI6
aI19
aI29
asS'suzuk001'
p536
(lp537
g536
aS'Kurt Suzuki'
p538
aI503
aI452
aI37
aI130
aI34
aI0
aI3
aI61
aI0
aI1
aI34
aI46
aI173
asS'hahnj001'
p539
(lp540
g539
aS'Jesse Hahn'
p541
aI24
aI22
aI1
aI2
aI0
aI0
aI0
aI1
aI0
aI0
aI0
aI12
aI2
asS'redmt002'
p542
(lp543
g542
aS'Todd Redmond'
p544
aI2
aI1
aI0
aI0
aI0
aI0
aI0
aI0
aI0
aI0
aI0
aI0
aI0
asS'mossb001'
p545
(lp546
g545
aS'Brandon Moss'
p547
aI580
aI500
aI70
aI117
aI23
aI2
aI25
aI81
aI1
aI0
aI67
aI153
aI219
asS'dietd001'
p548
(lp549
g548
aS'Derek Dietrich'
p550
aI183
aI158
aI31
aI36
aI6
aI2
aI5
aI17
aI1
aI0
aI13
aI38
aI61
asS'ackld001'
p551
(lp552
g551
aS'Dustin Ackley'
p553
aI542
aI502
aI64
aI123
aI27
aI4
aI14
aI65
aI8
aI4
aI32
aI90
aI200
asS'simma001'
p554
(lp555
g554
aS'Andrelton Simmons'
p556
aI576
aI540
aI44
aI132
aI18
aI4
aI7
aI46
aI4
aI5
aI32
aI60
aI179
asS'phamt001'
p557
(lp558
g557
aS'Tommy Pham'
p559
aI2
aI2
aI0
aI0
aI0
aI0
aI0
aI0
aI0
aI0
aI0
aI2
aI0
asS'mastj001'
p560
(lp561
g560
aS'Justin Masterson'
p562
aI13
aI11
aI1
aI2
aI0
aI0
aI0
aI1
aI0
aI0
aI0
aI4
aI2
asS'pears001'
p563
(lp564
g563
aS'Steve Pearce'
p565
aI383
aI338
aI51
aI99
aI26
aI0
aI21
aI49
aI5
aI0
aI40
aI76
aI188
asS'forsl001'
p566
(lp567
g566
aS'Logan Forsythe'
p568
aI336
aI301
aI32
aI67
aI12
aI1
aI6
aI26
aI2
aI0
aI25
aI71
aI99
asS'sandp001'
p569
(lp570
g569
aS'Pablo Sandoval'
p571
aI638
aI588
aI68
aI164
aI26
aI3
aI16
aI73
aI0
aI0
aI39
aI85
aI244
asS'morrb002'
p572
(lp573
g572
aS'Bryan Morris'
p574
aI1
aI1
aI0
aI0
aI0
aI0
aI0
aI0
aI0
aI0
aI0
aI1
aI0
asS'morrb001'
p575
(lp576
g575
aS'Brandon Morrow'
p577
aI2
aI2
aI0
aI0
aI0
aI0
aI0
aI0
aI0
aI0
aI0
aI2
aI0
asS'andeb004'
p578
(lp579
g578
aS'Brett Anderson'
p580
aI15
aI14
aI0
aI2
aI2
aI0
aI0
aI1
aI0
aI0
aI0
aI7
aI4
asS'andeb005'
p581
(lp582
g581
aS'Bryan Anderson'
p583
aI1
aI1
aI0
aI0
aI0
aI0
aI0
aI0
aI0
aI0
aI0
aI0
aI0
asS'rober002'
p584
(lp585
g584
aS'Ryan Roberts'
p586
aI22
aI19
aI1
aI2
aI0
aI0
aI0
aI0
aI0
aI0
aI3
aI7
aI2
asS'browb005'
p587
(lp588
g587
aS'Brooks Brown'
p589
aI1
aI1
aI0
aI0
aI0
aI0
aI0
aI0
aI0
aI0
aI0
aI1
aI0
asS'rosaa001'
p590
(lp591
g590
aS'Adam Rosales'
p592
aI181
aI164
aI20
aI43
aI7
aI0
aI4
aI19
aI4
aI2
aI13
aI42
aI62
asS'mansj001'
p593
(lp594
g593
aS'Jeff Manship'
p595
aI2
aI2
aI0
aI0
aI0
aI0
aI0
aI0
aI0
aI0
aI0
aI0
aI0
asS'marts002'
p596
(lp597
g596
aS'Starling Marte'
p598
aI545
aI495
aI73
aI144
aI29
aI6
aI13
aI56
aI30
aI11
aI33
aI131
aI224
asS'semim001'
p599
(lp600
g599
aS'Marcus Semien'
p601
aI255
aI231
aI30
aI54
aI10
aI2
aI6
aI28
aI3
aI0
aI21
aI70
aI86
asS'green002'
p602
(lp603
g602
aS'Nick Greenwood'
p604
aI6
aI5
aI0
aI0
aI0
aI0
aI0
aI0
aI0
aI0
aI0
aI0
aI0
asS'mccab002'
p605
(lp606
g605
aS'Brian McCann'
p607
aI538
aI495
aI57
aI115
aI15
aI1
aI23
aI75
aI0
aI0
aI32
aI77
aI201
asS'kelld001'
p608
(lp609
g608
aS'Don Kelly'
p610
aI185
aI163
aI24
aI40
aI5
aI1
aI0
aI7
aI6
aI1
aI20
aI29
aI47
asS'mccab001'
p611
(lp612
g611
aS'Brandon McCarthy'
p613
aI32
aI29
aI0
aI4
aI0
aI0
aI0
aI3
aI0
aI0
aI0
aI11
aI4
asS'davik003'
p614
(lp615
g614
aS'Khris Davis'
p616
aI549
aI501
aI70
aI122
aI37
aI2
aI22
aI69
aI4
aI1
aI32
aI122
aI229
asS'rizza001'
p617
(lp618
g617
aS'Anthony Rizzo'
p619
aI616
aI524
aI89
aI150
aI28
aI1
aI32
aI78
aI5
aI4
aI73
aI116
aI276
asS'barnt001'
p620
(lp621
g620
aS'Tucker Barnhart'
p622
aI60
aI54
aI3
aI10
aI0
aI0
aI1
aI1
aI0
aI0
aI4
aI10
aI13
asS'beltc001'
p623
(lp624
g623
aS'Carlos Beltran'
p625
aI449
aI403
aI46
aI94
aI23
aI0
aI15
aI49
aI3
aI1
aI37
aI80
aI162
asS'szczm001'
p626
(lp627
g626
aS'Matt Szczur'
p628
aI66
aI62
aI6
aI14
aI2
aI0
aI2
aI5
aI0
aI0
aI4
aI11
aI22
asS'terdj001'
p629
(lp630
g629
aS'Joey Terdoslavich'
p631
aI11
aI10
aI1
aI3
aI2
aI0
aI0
aI2
aI0
aI0
aI0
aI3
aI5
asS'parrg001'
p632
(lp633
g632
aS'Gerardo Parra'
p634
aI574
aI529
aI64
aI138
aI22
aI4
aI9
aI40
aI9
aI7
aI32
aI100
aI195
asS'santd001'
p635
(lp636
g635
aS'Danny Santana'
p637
aI430
aI405
aI70
aI129
aI27
aI7
aI7
aI40
aI20
aI4
aI19
aI98
aI191
asS'erlir001'
p638
(lp639
g638
aS'Robbie Erlin'
p640
aI19
aI18
aI0
aI2
aI0
aI0
aI0
aI1
aI0
aI0
aI1
aI6
aI2
asS'goinr001'
p641
(lp642
g641
aS'Ryan Goins'
p643
aI193
aI181
aI14
aI34
aI6
aI3
aI1
aI15
aI0
aI1
aI5
aI42
aI49
asS'soria001'
p644
(lp645
g644
aS'Alfonso Soriano'
p646
aI238
aI226
aI22
aI50
aI15
aI0
aI6
aI23
aI1
aI0
aI6
aI71
aI83
asS'bettc001'
p647
(lp648
g647
aS'Chad Bettis'
p649
aI3
aI3
aI0
aI0
aI0
aI0
aI0
aI0
aI0
aI0
aI0
aI1
aI0
asS'cabra002'
p650
(lp651
g650
aS'Asdrubal Cabrera'
p652
aI616
aI553
aI74
aI133
aI31
aI4
aI14
aI61
aI10
aI2
aI49
aI108
aI214
asS'mcdoj003'
p653
(lp654
g653
aS'John McDonald'
p655
aI91
aI76
aI4
aI13
aI2
aI0
aI0
aI5
aI1
aI1
aI7
aI18
aI15
asS'moreb001'
p656
(lp657
g656
aS'Brent Morel'
p658
aI41
aI39
aI1
aI7
aI2
aI0
aI0
aI4
aI0
aI0
aI2
aI9
aI9
asS'mousm001'
p659
(lp660
g659
aS'Mike Moustakas'
p661
aI500
aI457
aI45
aI97
aI21
aI1
aI15
aI54
aI1
aI0
aI35
aI74
aI165
asS'pirej001'
p662
(lp663
g662
aS'Jose Pirela'
p664
aI25
aI24
aI6
aI8
aI1
aI2
aI0
aI3
aI0
aI0
aI1
aI4
aI13
asS'yelic001'
p665
(lp666
g665
aS'Christian Yelich'
p667
aI660
aI582
aI94
aI165
aI30
aI6
aI9
aI54
aI21
aI7
aI70
aI137
aI234
asS'brucj001'
p668
(lp669
g668
aS'Jay Bruce'
p670
aI545
aI493
aI71
aI107
aI21
aI1
aI18
aI66
aI12
aI3
aI44
aI149
aI184
asS'schin001'
p671
(lp672
g671
aS'Nate Schierholtz'
p673
aI383
aI353
aI32
aI69
aI11
aI4
aI7
aI37
aI4
aI5
aI20
aI84
aI109
asS'buckj001'
p674
(lp675
g674
aS'John Buck'
p676
aI97
aI89
aI9
aI20
aI2
aI0
aI1
aI6
aI0
aI0
aI8
aI26
aI25
asS'cronc002'
p677
(lp678
g677
aS'C.J. Cron'
p679
aI253
aI242
aI28
aI62
aI12
aI1
aI11
aI37
aI0
aI0
aI10
aI61
aI109
asS'harrj002'
p680
(lp681
g680
aS'Josh Harrison'
p682
aI550
aI520
aI77
aI164
aI38
aI7
aI13
aI52
aI18
aI7
aI22
aI81
aI255
asS'gatte001'
p683
(lp684
g683
aS'Evan Gattis'
p685
aI401
aI369
aI41
aI97
aI17
aI1
aI22
aI52
aI0
aI0
aI22
aI97
aI182
asS'browg001'
p686
(lp687
g686
aS'Gary Brown'
p688
aI7
aI7
aI1
aI3
aI0
aI0
aI0
aI1
aI0
aI0
aI0
aI0
aI3
asS'santh001'
p689
(lp690
g689
aS'Hector Santiago'
p691
aI5
aI4
aI0
aI1
aI0
aI0
aI0
aI0
aI0
aI0
aI0
aI1
aI1
asS'floyg001'
p692
(lp693
g692
aS'Gavin Floyd'
p694
aI18
aI18
aI0
aI2
aI0
aI0
aI0
aI0
aI0
aI0
aI0
aI12
aI2
asS'sizes001'
p695
(lp696
g695
aS'Scott Sizemore'
p697
aI16
aI16
aI3
aI5
aI2
aI0
aI0
aI4
aI0
aI0
aI0
aI8
aI7
asS'krate001'
p698
(lp699
g698
aS'Erik Kratz'
p700
aI115
aI110
aI12
aI24
aI4
aI0
aI5
aI13
aI0
aI0
aI4
aI22
aI43
asS'slowk001'
p701
(lp702
g701
aS'Kevin Slowey'
p703
aI5
aI5
aI0
aI0
aI0
aI0
aI0
aI0
aI0
aI0
aI0
aI2
aI0
asS'tovaw001'
p704
(lp705
g704
aS'Wilfredo Tovar'
p706
aI3
aI3
aI0
aI0
aI0
aI0
aI0
aI0
aI0
aI0
aI0
aI0
aI0
asS'ondrl001'
p707
(lp708
g707
aS'Logan Ondrusek'
p709
aI3
aI3
aI0
aI0
aI0
aI0
aI0
aI0
aI0
aI0
aI0
aI3
aI0
asS'holtt001'
p710
(lp711
g710
aS'Tyler Holt'
p712
aI76
aI71
aI4
aI19
aI2
aI0
aI0
aI2
aI2
aI2
aI3
aI25
aI21
asS'sucrj001'
p713
(lp714
g713
aS'Jesus Sucre'
p715
aI64
aI61
aI4
aI13
aI2
aI0
aI0
aI5
aI0
aI0
aI0
aI17
aI15
asS'holab001'
p716
(lp717
g716
aS'Bryan Holaday'
p718
aI171
aI156
aI14
aI36
aI5
aI1
aI0
aI15
aI1
aI1
aI8
aI37
aI43
asS'escoa003'
p719
(lp720
g719
aS'Alcides Escobar'
p721
aI620
aI579
aI74
aI165
aI34
aI5
aI3
aI50
aI31
aI6
aI23
aI83
aI218
asS'suare001'
p722
(lp723
g722
aS'Eugenio Suarez'
p724
aI277
aI244
aI33
aI59
aI9
aI1
aI4
aI23
aI3
aI2
aI22
aI67
aI82
asS'nieta001'
p725
(lp726
g725
aS'Adrian Nieto'
p727
aI118
aI106
aI8
aI25
aI5
aI0
aI2
aI7
aI0
aI1
aI8
aI38
aI36
asS'davic003'
p728
(lp729
g728
aS'Chris Davis'
p730
aI525
aI450
aI65
aI88
aI16
aI0
aI26
aI72
aI2
aI1
aI60
aI173
aI182
asS'arrij001'
p731
(lp732
g731
aS'Jake Arrieta'
p733
aI47
aI39
aI3
aI7
aI2
aI1
aI0
aI3
aI0
aI0
aI2
aI16
aI11
asS'rua-r001'
p734
(lp735
g734
aS'Ryan Rua'
p736
aI109
aI105
aI11
aI31
aI7
aI0
aI2
aI14
aI1
aI0
aI2
aI18
aI44
asS'hollm001'
p737
(lp738
g737
aS'Matt Holliday'
p739
aI667
aI574
aI83
aI156
aI37
aI0
aI20
aI90
aI4
aI1
aI74
aI100
aI253
asS'bautj002'
p740
(lp741
g740
aS'Jose Bautista'
p742
aI673
aI553
aI101
aI158
aI27
aI0
aI35
aI103
aI6
aI2
aI104
aI96
aI290
asS'tillc001'
p743
(lp744
g743
aS'Chris Tillman'
p745
aI5
aI4
aI1
aI0
aI0
aI0
aI0
aI0
aI0
aI0
aI0
aI2
aI0
asS'penac001'
p746
(lp747
g746
aS'Carlos Pena'
p748
aI63
aI59
aI4
aI8
aI3
aI0
aI1
aI2
aI1
aI0
aI4
aI11
aI14
asS'polaj001'
p749
(lp750
g749
aS'Jorge Polanco'
p751
aI8
aI6
aI2
aI2
aI1
aI1
aI0
aI3
aI0
aI0
aI2
aI2
aI5
asS'degrj001'
p752
(lp753
g752
aS'Jacob deGrom'
p754
aI53
aI46
aI3
aI10
aI2
aI0
aI0
aI2
aI0
aI0
aI1
aI13
aI12
asS'giavj001'
p755
(lp756
g755
aS'Johnny Giavotella'
p757
aI41
aI37
aI8
aI8
aI1
aI0
aI1
aI5
aI0
aI1
aI1
aI5
aI12
asS'calhk001'
p758
(lp759
g758
aS'Kole Calhoun'
p760
aI537
aI493
aI90
aI134
aI31
aI3
aI17
aI58
aI5
aI3
aI38
aI104
aI222
asS'cartc002'
p761
(lp762
g761
aS'Chris Carter'
p763
aI572
aI507
aI68
aI115
aI21
aI1
aI37
aI88
aI5
aI2
aI56
aI182
aI249
asS'gonzm002'
p764
(lp765
g764
aS'Marwin Gonzalez'
p766
aI310
aI285
aI33
aI79
aI15
aI1
aI6
aI23
aI2
aI4
aI17
aI58
aI114
asS'parkk001'
p767
(lp768
g767
aS'Kyle Parker'
p769
aI26
aI26
aI1
aI5
aI1
aI0
aI0
aI1
aI0
aI0
aI0
aI14
aI6
asS'herrd002'
p770
(lp771
g770
aS'Dilson Herrera'
p772
aI66
aI59
aI6
aI13
aI0
aI1
aI3
aI11
aI0
aI0
aI7
aI17
aI24
asS'gomeh001'
p773
(lp774
g773
aS'Hector Gomez'
p775
aI21
aI20
aI2
aI3
aI1
aI0
aI0
aI1
aI0
aI0
aI1
aI9
aI4
asS'gee-d001'
p776
(lp777
g776
aS'Dillon Gee'
p778
aI43
aI38
aI1
aI1
aI0
aI0
aI0
aI1
aI0
aI0
aI2
aI17
aI1
asS'panij002'
p779
(lp780
g779
aS'Joe Panik'
p781
aI287
aI269
aI31
aI82
aI10
aI2
aI1
aI18
aI0
aI0
aI16
aI33
aI99
asS'valbl001'
p782
(lp783
g782
aS'Luis Valbuena'
p784
aI547
aI478
aI68
aI119
aI33
aI4
aI16
aI51
aI1
aI2
aI65
aI113
aI208
asS'vanss001'
p785
(lp786
g785
aS'Scott Van Slyke'
p787
aI246
aI212
aI32
aI63
aI13
aI1
aI11
aI29
aI4
aI2
aI28
aI71
aI111
asS'recka001'
p788
(lp789
g788
aS'Anthony Recker'
p790
aI189
aI174
aI18
aI35
aI9
aI0
aI7
aI27
aI1
aI1
aI10
aI64
aI65
asS'nunov001'
p791
(lp792
g791
aS'Vidal Nuno'
p793
aI25
aI18
aI2
aI1
aI0
aI0
aI0
aI0
aI0
aI0
aI0
aI8
aI1
asS'bolsm001'
p794
(lp795
g794
aS'Mike Bolsinger'
p796
aI20
aI19
aI1
aI2
aI0
aI0
aI0
aI1
aI0
aI0
aI0
aI7
aI2
asS'russj003'
p797
(lp798
g797
aS'James Russell'
p799
aI2
aI2
aI0
aI0
aI0
aI0
aI0
aI0
aI0
aI0
aI0
aI0
aI0
asS'phegj001'
p800
(lp801
g800
aS'Josh Phegley'
p802
aI38
aI37
aI4
aI8
aI2
aI0
aI3
aI7
aI0
aI0
aI0
aI11
aI19
asS'wheez001'
p803
(lp804
g803
aS'Zack Wheeler'
p805
aI63
aI50
aI1
aI4
aI1
aI0
aI0
aI3
aI0
aI0
aI1
aI24
aI5
asS'wheez002'
p806
(lp807
g806
aS'Zelous Wheeler'
p808
aI62
aI57
aI6
aI11
aI0
aI0
aI2
aI5
aI0
aI0
aI2
aI12
aI17
asS'choos001'
p809
(lp810
g809
aS'Shin-Soo Choo'
p811
aI529
aI455
aI58
aI110
aI19
aI1
aI13
aI40
aI3
aI4
aI58
aI131
aI170
asS'moraf001'
p812
(lp813
g812
aS'Franklin Morales'
p814
aI39
aI30
aI2
aI3
aI0
aI0
aI0
aI0
aI0
aI0
aI3
aI15
aI3
asS'solia001'
p815
(lp816
g815
aS'Ali Solis'
p817
aI7
aI6
aI0
aI0
aI0
aI0
aI0
aI1
aI0
aI0
aI0
aI4
aI0
asS'pereh001'
p818
(lp819
g818
aS'Hernan Perez'
p820
aI6
aI5
aI1
aI1
aI0
aI0
aI0
aI0
aI0
aI0
aI1
aI1
aI1
asS'davii001'
p821
(lp822
g821
aS'Ike Davis'
p823
aI427
aI360
aI43
aI84
aI19
aI0
aI11
aI51
aI0
aI4
aI63
aI78
aI136
asS'dools001'
p824
(lp825
g824
aS'Sean Doolittle'
p826
aI1
aI1
aI0
aI0
aI0
aI0
aI0
aI0
aI0
aI0
aI0
aI0
aI0
asS'kahnt001'
p827
(lp828
g827
aS'Tommy Kahnle'
p829
aI4
aI3
aI0
aI0
aI0
aI0
aI0
aI0
aI0
aI0
aI0
aI1
aI0
asS'paxtj001'
p830
(lp831
g830
aS'James Paxton'
p832
aI2
aI1
aI0
aI0
aI0
aI0
aI0
aI0
aI0
aI0
aI0
aI1
aI0
asS'millb001'
p833
(lp834
g833
aS'Brad Mills'
p835
aI3
aI3
aI0
aI0
aI0
aI0
aI0
aI0
aI0
aI0
aI0
aI1
aI0
asS'millb002'
p836
(lp837
g836
aS'Brad Miller'
p838
aI411
aI367
aI47
aI81
aI15
aI4
aI10
aI36
aI4
aI2
aI34
aI95
aI134
asS'sabac001'
p839
(lp840
g839
aS'CC Sabathia'
p841
aI2
aI2
aI0
aI0
aI0
aI0
aI0
aI0
aI0
aI0
aI0
aI0
aI0
asS'ozunm001'
p842
(lp843
g842
aS'Marcell Ozuna'
p844
aI612
aI565
aI72
aI152
aI26
aI5
aI23
aI85
aI3
aI1
aI41
aI164
aI257
asS'swisn001'
p845
(lp846
g845
aS'Nick Swisher'
p847
aI401
aI360
aI33
aI75
aI20
aI0
aI8
aI42
aI0
aI0
aI36
aI111
aI119
asS'boesb001'
p848
(lp849
g848
aS'Brennan Boesch'
p850
aI79
aI75
aI6
aI14
aI2
aI0
aI2
aI7
aI3
aI0
aI2
aI19
aI22
asS'lucrj001'
p851
(lp852
g851
aS'Jonathan Lucroy'
p853
aI655
aI585
aI73
aI176
aI53
aI2
aI13
aI69
aI4
aI4
aI66
aI71
aI272
asS'rosst001'
p854
(lp855
g854
aS'Tyson Ross'
p856
aI63
aI56
aI6
aI10
aI1
aI0
aI0
aI3
aI0
aI0
aI3
aI22
aI11
asS'snidt001'
p857
(lp858
g857
aS'Travis Snider'
p859
aI359
aI322
aI37
aI85
aI15
aI1
aI13
aI38
aI1
aI1
aI34
aI67
aI141
asS'hughp001'
p860
(lp861
g860
aS'Phil Hughes'
p862
aI6
aI6
aI0
aI0
aI0
aI0
aI0
aI0
aI0
aI0
aI0
aI4
aI0
asS'mastd002'
p863
(lp864
g863
aS'Darin Mastroianni'
p865
aI44
aI43
aI7
aI5
aI0
aI0
aI1
aI2
aI1
aI0
aI1
aI10
aI8
asS'axeld001'
p866
(lp867
g866
aS'Dylan Axelrod'
p868
aI4
aI4
aI0
aI0
aI0
aI0
aI0
aI0
aI0
aI0
aI0
aI4
aI0
asS'hudst001'
p869
(lp870
g869
aS'Tim Hudson'
p871
aI62
aI53
aI0
aI2
aI0
aI0
aI0
aI1
aI0
aI0
aI2
aI20
aI2
asS'colvt001'
p872
(lp873
g872
aS'Tyler Colvin'
p874
aI149
aI139
aI16
aI31
aI10
aI3
aI2
aI18
aI1
aI0
aI8
aI45
aI53
asS'guthj001'
p875
(lp876
g875
aS'Jeremy Guthrie'
p877
aI7
aI5
aI0
aI0
aI0
aI0
aI0
aI0
aI0
aI0
aI0
aI1
aI0
asS'mcgec001'
p878
(lp879
g878
aS'Casey McGehee'
p880
aI691
aI616
aI56
aI177
aI29
aI1
aI4
aI76
aI4
aI2
aI67
aI102
aI220
asS'chave002'
p881
(lp882
g881
aS'Endy Chavez'
p883
aI258
aI232
aI22
aI64
aI12
aI2
aI2
aI23
aI5
aI2
aI15
aI30
aI86
asS'chave001'
p884
(lp885
g884
aS'Eric Chavez'
p886
aI81
aI69
aI6
aI17
aI3
aI1
aI3
aI8
aI2
aI0
aI11
aI19
aI31
asS'bourp001'
p887
(lp888
g887
aS'Peter Bourjos'
p889
aI294
aI264
aI32
aI61
aI9
aI5
aI4
aI24
aI9
aI3
aI20
aI78
aI92
asS'eliar001'
p890
(lp891
g890
aS'Roenis Elias'
p892
aI4
aI4
aI0
aI0
aI0
aI0
aI0
aI0
aI0
aI0
aI0
aI1
aI0
asS'latom001'
p893
(lp894
g893
aS'Mat Latos'
p895
aI32
aI30
aI2
aI3
aI0
aI0
aI0
aI1
aI0
aI0
aI1
aI12
aI3
asS'corrk001'
p896
(lp897
g896
aS'Kevin Correia'
p898
aI11
aI11
aI1
aI3
aI1
aI0
aI0
aI1
aI0
aI0
aI0
aI3
aI4
asS'arenn001'
p899
(lp900
g899
aS'Nolan Arenado'
p901
aI467
aI432
aI58
aI124
aI34
aI2
aI18
aI61
aI2
aI1
aI25
aI58
aI216
asS'alvap001'
p902
(lp903
g902
aS'Pedro Alvarez'
p904
aI445
aI398
aI46
aI92
aI13
aI1
aI18
aI56
aI8
aI3
aI45
aI113
aI161
asS'milew001'
p905
(lp906
g905
aS'Wade Miley'
p907
aI69
aI57
aI3
aI9
aI0
aI0
aI0
aI1
aI0
aI0
aI3
aI14
aI9
asS'snydb002'
p908
(lp909
g908
aS'Brad Snyder'
p910
aI34
aI30
aI3
aI5
aI1
aI0
aI2
aI3
aI0
aI0
aI4
aI10
aI12
asS'hickb002'
p911
(lp912
g911
aS'Brandon Hicks'
p913
aI242
aI204
aI27
aI33
aI6
aI1
aI8
aI22
aI0
aI1
aI32
aI77
aI65
asS'ruf-d001'
p914
(lp915
g914
aS'Darin Ruf'
p916
aI117
aI102
aI13
aI24
aI8
aI0
aI3
aI8
aI0
aI0
aI8
aI32
aI41
asS'wheer001'
p917
(lp918
g917
aS'Ryan Wheeler'
p919
aI64
aI56
aI6
aI13
aI2
aI0
aI2
aI13
aI0
aI0
aI5
aI12
aI21
asS'lucae001'
p920
(lp921
g920
aS'Ed Lucas'
p922
aI189
aI179
aI19
aI45
aI5
aI0
aI1
aI9
aI1
aI0
aI8
aI48
aI53
asS'bartd001'
p923
(lp924
g923
aS'Daric Barton'
p925
aI64
aI57
aI7
aI9
aI1
aI0
aI0
aI5
aI0
aI0
aI5
aI14
aI10
asS'jonea003'
p926
(lp927
g926
aS'Adam Jones'
p928
aI682
aI644
aI88
aI181
aI30
aI2
aI29
aI96
aI7
aI1
aI19
aI133
aI302
asS'valed001'
p929
(lp930
g929
aS'Danny Valencia'
p931
aI284
aI264
aI20
aI68
aI16
aI1
aI4
aI30
aI1
aI1
aI14
aI62
aI98
asS'willj005'
p932
(lp933
g932
aS'Jackson Williams'
p934
aI16
aI14
aI1
aI3
aI0
aI0
aI1
aI3
aI0
aI0
aI2
aI4
aI6
asS'tulot001'
p935
(lp936
g935
aS'Troy Tulowitzki'
p937
aI375
aI315
aI71
aI107
aI18
aI1
aI21
aI52
aI1
aI1
aI50
aI57
aI190
asS'frein001'
p938
(lp939
g938
aS'Nate Freiman'
p940
aI93
aI87
aI12
aI19
aI5
aI0
aI5
aI15
aI0
aI0
aI5
aI23
aI39
asS'morem001'
p941
(lp942
g941
aS'Mitch Moreland'
p943
aI184
aI167
aI18
aI41
aI9
aI1
aI2
aI23
aI0
aI0
aI12
aI43
aI58
asS'vargk001'
p944
(lp945
g944
aS'Kennys Vargas'
p946
aI234
aI215
aI26
aI59
aI10
aI1
aI9
aI38
aI0
aI0
aI12
aI63
aI98
asS'heisc001'
p947
(lp948
g947
aS'Chris Heisey'
p949
aI299
aI275
aI34
aI61
aI15
aI2
aI8
aI22
aI9
aI2
aI15
aI64
aI104
asS'mathj001'
p950
(lp951
g950
aS'Jeff Mathis'
p952
aI195
aI175
aI12
aI35
aI7
aI0
aI2
aI12
aI0
aI0
aI15
aI64
aI48
asS'middw001'
p953
(lp954
g953
aS'Will Middlebrooks'
p955
aI234
aI215
aI14
aI41
aI10
aI0
aI2
aI19
aI1
aI1
aI15
aI70
aI57
asS'abreb001'
p956
(lp957
g956
aS'Bobby Abreu'
p958
aI155
aI133
aI12
aI33
aI9
aI0
aI1
aI14
aI1
aI0
aI20
aI21
aI45
asS'jimeu001'
p959
(lp960
g959
aS'Ubaldo Jimenez'
p961
aI1
aI1
aI0
aI0
aI0
aI0
aI0
aI0
aI0
aI0
aI0
aI0
aI0
asS'huffd001'
p962
(lp963
g962
aS'David Huff'
p964
aI3
aI3
aI1
aI1
aI0
aI0
aI0
aI0
aI0
aI0
aI0
aI2
aI1
asS'lestj001'
p965
(lp966
g965
aS'Jon Lester'
p967
aI5
aI5
aI0
aI0
aI0
aI0
aI0
aI0
aI0
aI0
aI0
aI3
aI0
asS'arrue001'
p968
(lp969
g968
aS'Erisbel Arruebarrena'
p970
aI45
aI41
aI4
aI8
aI1
aI0
aI0
aI4
aI0
aI0
aI3
aI17
aI9
asS'brenb002'
p971
(lp972
g971
aS'Bryce Brentz'
p973
aI26
aI26
aI5
aI8
aI2
aI0
aI0
aI2
aI0
aI0
aI0
aI9
aI10
asS'boxbb001'
p974
(lp975
g974
aS'Brad Boxberger'
p976
aI1
aI1
aI0
aI0
aI0
aI0
aI0
aI0
aI0
aI0
aI0
aI0
aI0
asS'altuj001'
p977
(lp978
g977
aS'Jose Altuve'
p979
aI707
aI660
aI85
aI225
aI47
aI3
aI7
aI59
aI56
aI9
aI36
aI53
aI299
asS'pennb002'
p980
(lp981
g980
aS'Brad Penny'
p982
aI8
aI6
aI1
aI2
aI1
aI0
aI0
aI0
aI0
aI0
aI0
aI3
aI3
asS'famij001'
p983
(lp984
g983
aS'Jeurys Familia'
p985
aI3
aI3
aI0
aI2
aI0
aI0
aI0
aI1
aI0
aI0
aI0
aI0
aI2
asS'renda001'
p986
(lp987
g986
aS'Anthony Rendon'
p988
aI683
aI613
aI111
aI176
aI39
aI6
aI21
aI83
aI17
aI3
aI58
aI104
aI290
asS'martm003'
p989
(lp990
g989
aS'Michael Martinez'
p991
aI44
aI39
aI2
aI5
aI1
aI0
aI0
aI2
aI0
aI0
aI4
aI13
aI6
asS'bethc001'
p992
(lp993
g992
aS'Christian Bethancourt'
p994
aI117
aI113
aI7
aI28
aI3
aI0
aI0
aI9
aI1
aI1
aI3
aI26
aI31
asS'garzm001'
p995
(lp996
g995
aS'Matt Garza'
p997
aI57
aI49
aI2
aI3
aI1
aI0
aI0
aI0
aI0
aI0
aI1
aI21
aI4
asS'gausk001'
p998
(lp999
g998
aS'Kevin Gausman'
p1000
aI3
aI3
aI0
aI0
aI0
aI0
aI0
aI0
aI0
aI0
aI0
aI2
aI0
asS'samaj001'
p1001
(lp1002
g1001
aS'Jeff Samardzija'
p1003
aI38
aI34
aI3
aI6
aI3
aI0
aI0
aI3
aI0
aI0
aI0
aI10
aI9
asS'lyont001'
p1004
(lp1005
g1004
aS'Tyler Lyons'
p1006
aI9
aI7
aI0
aI0
aI0
aI0
aI0
aI0
aI0
aI0
aI2
aI5
aI0
asS'aguij001'
p1007
(lp1008
g1007
aS'Jesus Aguilar'
p1009
aI38
aI33
aI2
aI4
aI0
aI0
aI0
aI3
aI0
aI0
aI4
aI13
aI4
asS'rodrs002'
p1010
(lp1011
g1010
aS'Sean Rodriguez'
p1012
aI259
aI237
aI30
aI50
aI13
aI3
aI12
aI41
aI2
aI1
aI10
aI66
aI105
asS'dudal001'
p1013
(lp1014
g1013
aS'Lucas Duda'
p1015
aI596
aI514
aI74
aI130
aI27
aI0
aI30
aI92
aI3
aI2
aI69
aI135
aI247
asS'nievw001'
p1016
(lp1017
g1016
aS'Wil Nieves'
p1018
aI128
aI122
aI9
aI31
aI8
aI0
aI1
aI7
aI1
aI0
aI1
aI34
aI42
asS'chirr001'
p1019
(lp1020
g1019
aS'Robinson Chirinos'
p1021
aI338
aI306
aI36
aI73
aI15
aI0
aI13
aI40
aI0
aI1
aI17
aI71
aI127
asS'braur002'
p1022
(lp1023
g1022
aS'Ryan Braun'
p1024
aI580
aI530
aI68
aI141
aI30
aI6
aI19
aI81
aI11
aI5
aI41
aI113
aI240
asS'piera001'
p1025
(lp1026
g1025
aS'A.J. Pierzynski'
p1027
aI362
aI338
aI25
aI85
aI12
aI1
aI5
aI37
aI0
aI1
aI14
aI54
aI114
asS'granc001'
p1028
(lp1029
g1028
aS'Curtis Granderson'
p1030
aI654
aI564
aI73
aI128
aI27
aI2
aI20
aI66
aI8
aI2
aI79
aI141
aI219
asS'chatt001'
p1031
(lp1032
g1031
aS'Tyler Chatwood'
p1033
aI10
aI10
aI0
aI1
aI0
aI0
aI0
aI0
aI0
aI0
aI0
aI5
aI1
asS'marta005'
p1034
(lp1035
g1034
aS'Alfredo Marte'
p1036
aI114
aI106
aI8
aI18
aI5
aI1
aI2
aI9
aI1
aI0
aI6
aI34
aI31
asS'marta004'
p1037
(lp1038
g1037
aS'Andy Marte'
p1039
aI16
aI16
aI1
aI3
aI0
aI0
aI1
aI3
aI0
aI0
aI0
aI3
aI6
asS'falui001'
p1040
(lp1041
g1040
aS'Irving Falu'
p1042
aI35
aI30
aI0
aI3
aI0
aI0
aI0
aI1
aI1
aI0
aI4
aI5
aI3
asS'flany001'
p1043
(lp1044
g1043
aS'Yohan Flande'
p1045
aI17
aI12
aI0
aI1
aI0
aI0
aI0
aI1
aI0
aI0
aI1
aI6
aI1
asS'kubej002'
p1046
(lp1047
g1046
aS'Jason Kubel'
p1048
aI176
aI156
aI12
aI35
aI6
aI1
aI1
aI13
aI1
aI0
aI19
aI59
aI46
asS'bradj001'
p1049
(lp1050
g1049
aS'Jackie Bradley'
p1051
aI423
aI384
aI45
aI76
aI19
aI2
aI1
aI30
aI8
aI0
aI31
aI121
aI102
asS'reynm001'
p1052
(lp1053
g1052
aS'Mark Reynolds'
p1054
aI433
aI378
aI47
aI74
aI9
aI0
aI22
aI45
aI5
aI1
aI47
aI122
aI149
asS'fedet001'
p1055
(lp1056
g1055
aS'Tim Federowicz'
p1057
aI78
aI71
aI2
aI8
aI3
aI0
aI1
aI5
aI0
aI0
aI3
aI18
aI14
asS'blank002'
p1058
(lp1059
g1058
aS'Kyle Blanks'
p1060
aI66
aI55
aI10
aI17
aI1
aI0
aI2
aI7
aI0
aI0
aI8
aI16
aI24
asS'heana001'
p1061
(lp1062
g1061
aS'Andrew Heaney'
p1063
aI9
aI8
aI0
aI1
aI0
aI0
aI0
aI0
aI0
aI0
aI0
aI2
aI1
asS'wachm001'
p1064
(lp1065
g1064
aS'Michael Wacha'
p1066
aI32
aI29
aI1
aI1
aI0
aI0
aI0
aI2
aI0
aI0
aI0
aI18
aI1
asS'montj003'
p1067
(lp1068
g1067
aS'Jesus Montero'
p1069
aI17
aI17
aI1
aI4
aI0
aI0
aI1
aI2
aI0
aI0
aI0
aI3
aI7
asS'mejij001'
p1070
(lp1071
g1070
aS'Jenrry Mejia'
p1072
aI18
aI17
aI0
aI0
aI0
aI0
aI0
aI0
aI0
aI0
aI0
aI7
aI0
asS'reveb001'
p1073
(lp1074
g1073
aS'Ben Revere'
p1075
aI626
aI601
aI71
aI184
aI13
aI7
aI2
aI28
aI49
aI8
aI13
aI49
aI217
asS'casac001'
p1076
(lp1077
g1076
aS'Curt Casali'
p1078
aI84
aI72
aI10
aI12
aI3
aI0
aI0
aI3
aI0
aI0
aI8
aI23
aI15
asS'stewc001'
p1079
(lp1080
g1079
aS'Chris Stewart'
p1081
aI154
aI136
aI9
aI40
aI5
aI0
aI0
aI10
aI0
aI1
aI12
aI27
aI45
asS'wilsc004'
p1082
(lp1083
g1082
aS'C.J. Wilson'
p1084
aI3
aI2
aI1
aI0
aI0
aI0
aI0
aI0
aI0
aI0
aI1
aI2
aI0
asS'noesh001'
p1085
(lp1086
g1085
aS'Hector Noesi'
p1087
aI4
aI4
aI0
aI0
aI0
aI0
aI0
aI0
aI0
aI0
aI0
aI1
aI0
asS'hillk002'
p1088
(lp1089
g1088
aS'Koyie Hill'
p1090
aI22
aI21
aI2
aI5
aI1
aI0
aI0
aI1
aI0
aI0
aI1
aI5
aI6
asS'triuc001'
p1091
(lp1092
g1091
aS'Carlos Triunfel'
p1093
aI16
aI15
aI3
aI2
aI0
aI0
aI1
aI1
aI0
aI0
aI1
aI5
aI5
asS'amara001'
p1094
(lp1095
g1094
aS'Alexi Amarista'
p1096
aI466
aI423
aI39
aI101
aI13
aI2
aI5
aI40
aI12
aI1
aI29
aI69
aI133
asS'cuddm001'
p1097
(lp1098
g1097
aS'Michael Cuddyer'
p1099
aI205
aI190
aI32
aI63
aI15
aI1
aI10
aI31
aI3
aI0
aI14
aI30
aI110
asS'hartc001'
p1100
(lp1101
g1100
aS'Corey Hart'
p1102
aI255
aI232
aI17
aI47
aI9
aI0
aI6
aI21
aI2
aI0
aI16
aI59
aI74
asS'gosea001'
p1103
(lp1104
g1103
aS'Anthony Gose'
p1105
aI274
aI239
aI31
aI54
aI8
aI1
aI2
aI13
aI15
aI5
aI25
aI74
aI70
asS'butle001'
p1106
(lp1107
g1106
aS'Eddie Butler'
p1108
aI6
aI6
aI0
aI0
aI0
aI0
aI0
aI0
aI0
aI0
aI0
aI3
aI0
asS'satij001'
p1109
(lp1110
g1109
aS'Josh Satin'
p1111
aI43
aI35
aI2
aI3
aI2
aI0
aI0
aI3
aI0
aI0
aI6
aI14
aI5
asS'choim001'
p1112
(lp1113
g1112
aS'Michael Choice'
p1114
aI280
aI253
aI20
aI46
aI6
aI1
aI9
aI36
aI1
aI0
aI21
aI69
aI81
asS'martj006'
p1115
(lp1116
g1115
aS'J.D. Martinez'
p1117
aI480
aI441
aI57
aI139
aI30
aI3
aI23
aI76
aI6
aI3
aI30
aI126
aI244
asS'domic001'
p1118
(lp1119
g1118
aS'Chris Dominguez'
p1120
aI18
aI17
aI1
aI1
aI0
aI0
aI1
aI2
aI0
aI0
aI1
aI4
aI4
asS'wielj001'
p1121
(lp1122
g1121
aS'Joe Wieland'
p1123
aI3
aI3
aI0
aI0
aI0
aI0
aI0
aI0
aI0
aI0
aI0
aI2
aI0
asS'andre001'
p1124
(lp1125
g1124
aS'Elvis Andrus'
p1126
aI685
aI619
aI72
aI163
aI35
aI1
aI2
aI41
aI27
aI15
aI46
aI96
aI206
asS'leons001'
p1127
(lp1128
g1127
aS'Sandy Leon'
p1129
aI70
aI64
aI7
aI10
aI1
aI0
aI1
aI3
aI0
aI0
aI6
aI20
aI14
asS'villp001'
p1130
(lp1131
g1130
aS'Pedro Villarreal'
p1132
aI2
aI2
aI0
aI1
aI0
aI0
aI0
aI0
aI0
aI0
aI0
aI1
aI1
asS'ibanr001'
p1133
(lp1134
g1133
aS'Raul Ibanez'
p1135
aI280
aI246
aI23
aI41
aI8
aI3
aI5
aI26
aI3
aI2
aI33
aI59
aI70
asS'greeg002'
p1136
(lp1137
g1136
aS'Grant Green'
p1138
aI103
aI99
aI7
aI27
aI5
aI0
aI1
aI11
aI1
aI4
aI2
aI20
aI35
asS'kiesr001'
p1139
(lp1140
g1139
aS'Roger Kieschnick'
p1141
aI41
aI41
aI2
aI8
aI1
aI0
aI1
aI2
aI0
aI0
aI0
aI16
aI12
asS'ellia001'
p1142
(lp1143
g1142
aS'A.J. Ellis'
p1144
aI347
aI283
aI21
aI54
aI9
aI0
aI3
aI25
aI0
aI0
aI53
aI57
aI72
asS'johne002'
p1145
(lp1146
g1145
aS'Elliot Johnson'
p1147
aI20
aI19
aI1
aI2
aI2
aI0
aI0
aI0
aI0
aI0
aI0
aI7
aI4
asS'pheld001'
p1148
(lp1149
g1148
aS'David Phelps'
p1150
aI5
aI4
aI0
aI0
aI0
aI0
aI0
aI0
aI0
aI0
aI0
aI1
aI0
asS'sizeg001'
p1151
(lp1152
g1151
aS'Grady Sizemore'
p1153
aI381
aI347
aI35
aI81
aI19
aI4
aI5
aI27
aI6
aI1
aI33
aI76
aI123
asS'gardb001'
p1154
(lp1155
g1154
aS'Brett Gardner'
p1156
aI636
aI555
aI87
aI142
aI25
aI8
aI17
aI58
aI21
aI5
aI56
aI134
aI234
asS'barnb002'
p1157
(lp1158
g1157
aS'Brandon Barnes'
p1159
aI313
aI292
aI37
aI75
aI17
aI4
aI8
aI27
aI5
aI4
aI15
aI100
aI124
asS'matsd001'
p1160
(lp1161
g1160
aS'Daisuke Matsuzaka'
p1162
aI17
aI11
aI0
aI2
aI0
aI0
aI0
aI1
aI0
aI0
aI1
aI6
aI2
asS'kersc001'
p1163
(lp1164
g1163
aS'Clayton Kershaw'
p1165
aI74
aI63
aI5
aI11
aI0
aI1
aI0
aI3
aI1
aI0
aI4
aI23
aI13
asS'spanc001'
p1166
(lp1167
g1166
aS'Cory Spangenberg'
p1168
aI65
aI62
aI7
aI18
aI2
aI1
aI2
aI9
aI4
aI2
aI2
aI14
aI28
asS'frann001'
p1169
(lp1170
g1169
aS'Nick Franklin'
p1171
aI90
aI81
aI7
aI13
aI2
aI1
aI1
aI6
aI2
aI0
aI6
aI32
aI20
asS'browa003'
p1172
(lp1173
g1172
aS'Andrew Brown'
p1174
aI49
aI44
aI6
aI8
aI1
aI0
aI2
aI7
aI0
aI0
aI3
aI15
aI15
asS'buted001'
p1175
(lp1176
g1175
aS'Drew Butera'
p1177
aI192
aI170
aI16
aI32
aI6
aI1
aI3
aI14
aI0
aI0
aI17
aI41
aI49
asS'blana001'
p1178
(lp1179
g1178
aS'Andres Blanco'
p1180
aI53
aI47
aI4
aI13
aI5
aI0
aI1
aI3
aI0
aI0
aI2
aI6
aI21
asS'adrie001'
p1181
(lp1182
g1181
aS'Ehire Adrianza'
p1183
aI106
aI97
aI10
aI23
aI6
aI0
aI0
aI5
aI1
aI1
aI5
aI22
aI29
asS'moora001'
p1184
(lp1185
g1184
aS'Adam Moore'
p1186
aI12
aI10
aI1
aI2
aI1
aI0
aI0
aI1
aI0
aI0
aI2
aI5
aI3
asS'spruz001'
p1187
(lp1188
g1187
aS'Zeke Spruill'
p1189
aI5
aI5
aI0
aI1
aI1
aI0
aI0
aI0
aI0
aI0
aI0
aI1
aI2
asS'hayeb001'
p1190
(lp1191
g1190
aS'Brett Hayes'
p1192
aI53
aI52
aI3
aI7
aI1
aI0
aI1
aI2
aI0
aI0
aI1
aI12
aI11
asS'willj004'
p1193
(lp1194
g1193
aS'Josh Willingham'
p1195
aI364
aI297
aI48
aI64
aI10
aI1
aI14
aI40
aI2
aI0
aI53
aI102
aI118
asS'gregd001'
p1196
(lp1197
g1196
aS'Didi Gregorius'
p1198
aI299
aI270
aI35
aI61
aI9
aI5
aI6
aI27
aI3
aI0
aI22
aI52
aI98
asS'chenw001'
p1199
(lp1200
g1199
aS'Wei-Yin Chen'
p1201
aI1
aI1
aI0
aI0
aI0
aI0
aI0
aI0
aI0
aI0
aI0
aI1
aI0
asS'nix-j001'
p1202
(lp1203
g1202
aS'Jayson Nix'
p1204
aI91
aI83
aI2
aI10
aI0
aI0
aI1
aI4
aI1
aI2
aI3
aI28
aI13
asS'smolj002'
p1205
(lp1206
g1205
aS'Jake Smolinski'
p1207
aI92
aI86
aI12
aI30
aI5
aI0
aI3
aI12
aI0
aI0
aI3
aI24
aI44
asS'ryanb002'
p1208
(lp1209
g1208
aS'Brendan Ryan'
p1210
aI124
aI114
aI5
aI19
aI4
aI0
aI0
aI8
aI0
aI2
aI4
aI30
aI23
asS'freef001'
p1211
(lp1212
g1211
aS'Freddie Freeman'
p1213
aI708
aI607
aI93
aI175
aI43
aI4
aI18
aI78
aI3
aI4
aI90
aI145
aI280
asS'perem004'
p1214
(lp1215
g1214
aS'Martin Perez'
p1216
aI2
aI1
aI0
aI0
aI0
aI0
aI0
aI0
aI0
aI0
aI0
aI1
aI0
asS'puigy001'
p1217
(lp1218
g1217
aS'Yasiel Puig'
p1219
aI640
aI558
aI92
aI165
aI37
aI9
aI16
aI69
aI11
aI7
aI67
aI124
aI268
asS'carmf001'
p1220
(lp1221
g1220
aS'Roberto Hernandez'
p1222
aI58
aI49
aI1
aI4
aI0
aI0
aI0
aI2
aI0
aI0
aI0
aI24
aI4
asS'rosaw001'
p1223
(lp1224
g1223
aS'Wilin Rosario'
p1225
aI410
aI382
aI46
aI102
aI25
aI0
aI13
aI54
aI1
aI0
aI23
aI70
aI166
asS'gomec002'
p1226
(lp1227
g1226
aS'Carlos Gomez'
p1228
aI644
aI574
aI95
aI163
aI34
aI4
aI23
aI73
aI34
aI12
aI47
aI141
aI274
asS'bloow001'
p1229
(lp1230
g1229
aS'Willie Bloomquist'
p1231
aI139
aI133
aI15
aI37
aI6
aI0
aI1
aI14
aI1
aI1
aI4
aI32
aI46
asS'wortd001'
p1232
(lp1233
g1232
aS'Danny Worth'
p1234
aI46
aI42
aI5
aI7
aI1
aI0
aI0
aI5
aI0
aI1
aI2
aI12
aI8
asS'weavj003'
p1235
(lp1236
g1235
aS'Jered Weaver'
p1237
aI2
aI2
aI0
aI0
aI0
aI0
aI0
aI0
aI0
aI0
aI0
aI1
aI0
asS'coloc002'
p1238
(lp1239
g1238
aS'Christian Colon'
p1240
aI49
aI45
aI8
aI15
aI5
aI1
aI0
aI6
aI2
aI0
aI3
aI4
aI22
asS'dunna001'
p1241
(lp1242
g1241
aS'Adam Dunn'
p1243
aI511
aI429
aI49
aI94
aI18
aI0
aI22
aI64
aI1
aI1
aI71
aI159
aI178
asS'hawkl001'
p1244
(lp1245
g1244
aS'LaTroy Hawkins'
p1246
aI1
aI1
aI0
aI0
aI0
aI0
aI0
aI0
aI0
aI0
aI0
aI1
aI0
asS'gorzt001'
p1247
(lp1248
g1247
aS'Tom Gorzelanny'
p1249
aI1
aI1
aI0
aI0
aI0
aI0
aI0
aI0
aI0
aI0
aI0
aI1
aI0
asS'flahr001'
p1250
(lp1251
g1250
aS'Ryan Flaherty'
p1252
aI312
aI281
aI33
aI62
aI15
aI1
aI7
aI32
aI1
aI0
aI22
aI68
aI100
asS'jennd002'
p1253
(lp1254
g1253
aS'Desmond Jennings'
p1255
aI542
aI479
aI64
aI117
aI30
aI2
aI10
aI36
aI15
aI6
aI47
aI108
aI181
asS'reddj001'
p1256
(lp1257
g1256
aS'Josh Reddick'
p1258
aI396
aI363
aI53
aI96
aI16
aI7
aI12
aI54
aI1
aI1
aI28
aI63
aI162
asS'shucj001'
p1259
(lp1260
g1259
aS'J.B. Shuck'
p1261
aI114
aI110
aI12
aI16
aI1
aI0
aI2
aI9
aI2
aI0
aI3
aI12
aI23
asS'casia001'
p1262
(lp1263
g1262
aS'Alexi Casilla'
p1264
aI4
aI4
aI0
aI0
aI0
aI0
aI0
aI0
aI0
aI0
aI0
aI1
aI0
asS'almoa001'
p1265
(lp1266
g1265
aS'Abraham Almonte'
p1267
aI220
aI204
aI19
aI47
aI10
aI1
aI3
aI15
aI4
aI3
aI12
aI60
aI68
asS'rodry001'
p1268
(lp1269
g1268
aS'Yorman Rodriguez'
p1270
aI29
aI27
aI3
aI6
aI0
aI0
aI0
aI2
aI0
aI1
aI1
aI12
aI6
asS'mcalz001'
p1271
(lp1272
g1271
aS'Zach McAllister'
p1273
aI2
aI2
aI0
aI1
aI0
aI0
aI0
aI0
aI0
aI0
aI0
aI0
aI1
asS'carre001'
p1274
(lp1275
g1274
aS'Ezequiel Carrera'
p1276
aI73
aI69
aI12
aI18
aI4
aI1
aI0
aI2
aI7
aI1
aI3
aI14
aI24
asS'hared001'
p1277
(lp1278
g1277
aS'Dan Haren'
p1279
aI60
aI54
aI2
aI10
aI1
aI0
aI0
aI5
aI0
aI0
aI3
aI20
aI11
asS'uggld001'
p1280
(lp1281
g1280
aS'Dan Uggla'
p1282
aI157
aI141
aI14
aI21
aI3
aI0
aI2
aI10
aI0
aI0
aI11
aI46
aI30
asS'baezj001'
p1283
(lp1284
g1283
aS'Javier Baez'
p1285
aI229
aI213
aI25
aI36
aI6
aI0
aI9
aI20
aI5
aI1
aI15
aI95
aI69
asS'gordd002'
p1286
(lp1287
g1286
aS'Dee Gordon'
p1288
aI650
aI609
aI92
aI176
aI24
aI12
aI2
aI34
aI64
aI19
aI31
aI107
aI230
asS'hicka001'
p1289
(lp1290
g1289
aS'Aaron Hicks'
p1291
aI225
aI186
aI22
aI40
aI8
aI0
aI1
aI18
aI4
aI3
aI36
aI56
aI51
asS'bartj001'
p1292
(lp1293
g1292
aS'Jason Bartlett'
p1294
aI4
aI3
aI3
aI0
aI0
aI0
aI0
aI0
aI0
aI0
aI0
aI3
aI0
asS'morak001'
p1295
(lp1296
g1295
aS'Kendrys Morales'
p1297
aI401
aI367
aI28
aI80
aI20
aI0
aI8
aI42
aI0
aI0
aI27
aI68
aI124
asS'leagb001'
p1298
(lp1299
g1298
aS'Brandon League'
p1300
aI2
aI2
aI0
aI0
aI0
aI0
aI0
aI0
aI0
aI0
aI0
aI1
aI0
asS'santc002'
p1301
(lp1302
g1301
aS'Carlos Santana'
p1303
aI660
aI541
aI68
aI125
aI25
aI0
aI27
aI85
aI5
aI2
aI113
aI124
aI231
asS'lakej001'
p1304
(lp1305
g1304
aS'Junior Lake'
p1306
aI326
aI308
aI30
aI65
aI10
aI3
aI9
aI25
aI7
aI3
aI14
aI110
aI108
asS'shoem001'
p1307
(lp1308
g1307
aS'Matt Shoemaker'
p1309
aI2
aI1
aI0
aI0
aI0
aI0
aI0
aI0
aI0
aI0
aI0
aI1
aI0
asS'richa001'
p1310
(lp1311
g1310
aS'Antoan Richardson'
p1312
aI17
aI16
aI2
aI5
aI0
aI0
aI0
aI1
aI5
aI0
aI1
aI3
aI5
asS'olivm001'
p1313
(lp1314
g1313
aS'Miguel Olivo'
p1315
aI25
aI23
aI4
aI5
aI0
aI1
aI0
aI2
aI0
aI0
aI1
aI12
aI7
asS'campt001'
p1316
(lp1317
g1316
aS'Tony Campana'
p1318
aI76
aI75
aI10
aI14
aI1
aI1
aI0
aI5
aI4
aI2
aI0
aI16
aI17
asS'herne001'
p1319
(lp1320
g1319
aS'Enrique Hernandez'
p1321
aI134
aI121
aI13
aI30
aI6
aI3
aI3
aI14
aI0
aI0
aI12
aI21
aI51
asS'hosme001'
p1322
(lp1323
g1322
aS'Eric Hosmer'
p1324
aI547
aI503
aI54
aI136
aI35
aI1
aI9
aI58
aI4
aI2
aI35
aI93
aI200
asS'ziegb001'
p1325
(lp1326
g1325
aS'Brad Ziegler'
p1327
aI1
aI1
aI0
aI0
aI0
aI0
aI0
aI0
aI0
aI0
aI0
aI1
aI0
asS'cirip001'
p1328
(lp1329
g1328
aS'Pedro Ciriaco'
p1330
aI49
aI47
aI7
aI10
aI2
aI0
aI0
aI2
aI4
aI0
aI0
aI9
aI12
asS'collt002'
p1331
(lp1332
g1331
aS'Tyler Collins'
p1333
aI25
aI24
aI3
aI6
aI0
aI0
aI1
aI4
aI0
aI0
aI1
aI4
aI9
asS'cabre001'
p1334
(lp1335
g1334
aS'Everth Cabrera'
p1336
aI391
aI357
aI36
aI83
aI13
aI1
aI3
aI20
aI18
aI8
aI20
aI86
aI107
asS'joneg002'
p1337
(lp1338
g1337
aS'Garrett Jones'
p1339
aI547
aI496
aI59
aI122
aI33
aI2
aI15
aI53
aI0
aI1
aI46
aI116
aI204
asS'castn001'
p1340
(lp1341
g1340
aS'Nick Castellanos'
p1342
aI579
aI533
aI50
aI138
aI31
aI4
aI11
aI66
aI2
aI2
aI36
aI140
aI210
asS'parra001'
p1343
(lp1344
g1343
aS'Andy Parrino'
p1345
aI51
aI46
aI4
aI7
aI3
aI0
aI1
aI3
aI0
aI0
aI3
aI14
aI13
asS'ellim001'
p1346
(lp1347
g1346
aS'Mark Ellis'
p1348
aI202
aI178
aI15
aI32
aI6
aI0
aI0
aI12
aI4
aI1
aI14
aI38
aI38
asS'johnd004'
p1349
(lp1350
g1349
aS'Dan Johnson'
p1351
aI48
aI38
aI8
aI8
aI2
aI0
aI1
aI7
aI0
aI0
aI7
aI10
aI13
asS'rutlj001'
p1352
(lp1353
g1352
aS'Josh Rutledge'
p1354
aI342
aI309
aI44
aI83
aI16
aI7
aI4
aI33
aI2
aI3
aI20
aI83
aI125
asS'valdj002'
p1355
(lp1356
g1355
aS'Jordany Valdespin'
p1357
aI113
aI98
aI8
aI21
aI2
aI1
aI3
aI10
aI1
aI0
aI9
aI16
aI34
asS'rogej002'
p1358
(lp1359
g1358
aS'Jason Rogers'
p1360
aI10
aI9
aI0
aI1
aI1
aI0
aI0
aI0
aI0
aI0
aI1
aI1
aI2
asS'romes001'
p1361
(lp1362
g1361
aS'Stefen Romero'
p1363
aI190
aI177
aI19
aI34
aI6
aI2
aI3
aI11
aI0
aI4
aI4
aI48
aI53
asS'polla001'
p1364
(lp1365
g1364
aS'A.J. Pollock'
p1366
aI287
aI265
aI41
aI80
aI19
aI6
aI7
aI24
aI14
aI3
aI19
aI46
aI132
asS'archc001'
p1367
(lp1368
g1367
aS'Chris Archer'
p1369
aI4
aI4
aI0
aI0
aI0
aI0
aI0
aI0
aI0
aI0
aI0
aI2
aI0
asS'presa001'
p1370
(lp1371
g1370
aS'Alex Presley'
p1372
aI271
aI254
aI22
aI62
aI6
aI1
aI6
aI19
aI5
aI1
aI13
aI44
aI88
asS'annad001'
p1373
(lp1374
g1373
aS'Dean Anna'
p1375
aI25
aI22
aI3
aI3
aI1
aI0
aI1
aI3
aI0
aI0
aI2
aI6
aI7
asS'cumpb001'
p1376
(lp1377
g1376
aS'Brandon Cumpton'
p1378
aI20
aI17
aI1
aI2
aI0
aI0
aI0
aI1
aI0
aI0
aI1
aI7
aI2
asS'cabrm002'
p1379
(lp1380
g1379
aS'Melky Cabrera'
p1381
aI621
aI568
aI81
aI171
aI35
aI3
aI16
aI73
aI6
aI2
aI43
aI67
aI260
asS'cabrm001'
p1382
(lp1383
g1382
aS'Miguel Cabrera'
p1384
aI685
aI611
aI101
aI191
aI52
aI1
aI25
aI109
aI1
aI1
aI60
aI117
aI320
asS'schaj002'
p1385
(lp1386
g1385
aS'Jordan Schafer'
p1387
aI240
aI210
aI26
aI50
aI9
aI1
aI1
aI15
aI30
aI7
aI22
aI48
aI64
asS'morgn001'
p1388
(lp1389
g1388
aS'Nyjer Morgan'
p1390
aI52
aI41
aI8
aI14
aI1
aI0
aI1
aI6
aI3
aI0
aI7
aI6
aI18
asS'perea002'
p1391
(lp1392
g1391
aS'Audry Perez'
p1393
aI1
aI0
aI0
aI0
aI0
aI0
aI0
aI0
aI0
aI0
aI1
aI0
aI0
asS'hernc005'
p1394
(lp1395
g1394
aS'Cesar Hernandez'
p1396
aI125
aI114
aI13
aI27
aI2
aI0
aI1
aI4
aI1
aI1
aI9
aI33
aI32
asS'felds001'
p1397
(lp1398
g1397
aS'Scott Feldman'
p1399
aI2
aI2
aI0
aI0
aI0
aI0
aI0
aI0
aI0
aI0
aI0
aI2
aI0
asS'bonie001'
p1400
(lp1401
g1400
aS'Emilio Bonifacio'
p1402
aI426
aI394
aI47
aI102
aI17
aI4
aI3
aI24
aI26
aI8
aI26
aI85
aI136
asS'kazms001'
p1403
(lp1404
g1403
aS'Scott Kazmir'
p1405
aI4
aI4
aI0
aI0
aI0
aI0
aI0
aI0
aI0
aI0
aI0
aI1
aI0
asS'parmc001'
p1406
(lp1407
g1406
aS'Chris Parmelee'
p1408
aI270
aI250
aI27
aI64
aI11
aI0
aI7
aI28
aI0
aI3
aI17
aI64
aI96
asS'genns001'
p1409
(lp1410
g1409
aS'Scooter Gennett'
p1411
aI474
aI440
aI55
aI127
aI31
aI3
aI9
aI54
aI6
aI3
aI22
aI67
aI191
asS'volqe001'
p1412
(lp1413
g1412
aS'Edinson Volquez'
p1414
aI64
aI53
aI3
aI2
aI0
aI0
aI0
aI2
aI0
aI0
aI3
aI27
aI2
asS'porcr001'
p1415
(lp1416
g1415
aS'Rick Porcello'
p1417
aI5
aI4
aI0
aI0
aI0
aI0
aI0
aI0
aI0
aI0
aI0
aI2
aI0
asS'ellsj001'
p1418
(lp1419
g1418
aS'Jacoby Ellsbury'
p1420
aI635
aI575
aI71
aI156
aI27
aI5
aI16
aI70
aI39
aI5
aI49
aI93
aI241
asS'sante001'
p1421
(lp1422
g1421
aS'Ervin Santana'
p1423
aI73
aI63
aI7
aI7
aI1
aI0
aI0
aI1
aI0
aI0
aI2
aI28
aI8
asS'iwakh001'
p1424
(lp1425
g1424
aS'Hisashi Iwakuma'
p1426
aI6
aI4
aI0
aI0
aI0
aI0
aI0
aI0
aI0
aI0
aI1
aI3
aI0
asS'taveo001'
p1427
(lp1428
g1427
aS'Oscar Taveras'
p1429
aI248
aI234
aI18
aI56
aI8
aI0
aI3
aI22
aI0
aI1
aI12
aI37
aI73
asS'ramoc001'
p1430
(lp1431
g1430
aS'Cesar Ramos'
p1432
aI1
aI1
aI0
aI0
aI0
aI0
aI0
aI0
aI0
aI0
aI0
aI1
aI0
asS'klubc001'
p1433
(lp1434
g1433
aS'Corey Kluber'
p1435
aI6
aI5
aI0
aI1
aI0
aI0
aI0
aI0
aI0
aI0
aI0
aI2
aI1
asS'cruzn002'
p1436
(lp1437
g1436
aS'Nelson Cruz'
p1438
aI678
aI613
aI87
aI166
aI32
aI2
aI40
aI108
aI4
aI5
aI55
aI140
aI322
asS'ortid001'
p1439
(lp1440
g1439
aS'David Ortiz'
p1441
aI602
aI518
aI59
aI136
aI27
aI0
aI35
aI104
aI0
aI0
aI75
aI95
aI268
asS'cainl001'
p1442
(lp1443
g1442
aS'Lorenzo Cain'
p1444
aI502
aI471
aI55
aI142
aI29
aI4
aI5
aI53
aI28
aI5
aI24
aI108
aI194
asS'smyld001'
p1445
(lp1446
g1445
aS'Drew Smyly'
p1447
aI1
aI1
aI0
aI0
aI0
aI0
aI0
aI0
aI0
aI0
aI0
aI1
aI0
asS'gonzg003'
p1448
(lp1449
g1448
aS'Gio Gonzalez'
p1450
aI52
aI46
aI3
aI4
aI1
aI0
aI1
aI2
aI0
aI0
aI0
aI26
aI8
asS'soton001'
p1451
(lp1452
g1451
aS'Neftali Soto'
p1453
aI31
aI30
aI1
aI3
aI1
aI0
aI0
aI1
aI1
aI0
aI0
aI8
aI4
asS'aumop001'
p1454
(lp1455
g1454
aS'Phillippe Aumont'
p1456
aI1
aI1
aI0
aI0
aI0
aI0
aI0
aI0
aI0
aI0
aI0
aI1
aI0
asS'negrk001'
p1457
(lp1458
g1457
aS'Kristopher Negron'
p1459
aI158
aI144
aI19
aI39
aI10
aI1
aI6
aI17
aI5
aI0
aI12
aI40
aI69
asS'robic001'
p1460
(lp1461
g1460
aS'Clint Robinson'
p1462
aI10
aI9
aI3
aI3
aI0
aI0
aI0
aI2
aI0
aI0
aI1
aI1
aI3
asS'wertj001'
p1463
(lp1464
g1463
aS'Jayson Werth'
p1465
aI629
aI534
aI85
aI156
aI37
aI1
aI16
aI82
aI9
aI1
aI83
aI113
aI243
asS'espid001'
p1466
(lp1467
g1466
aS'Danny Espinosa'
p1468
aI364
aI333
aI31
aI73
aI14
aI3
aI8
aI27
aI8
aI1
aI18
aI122
aI117
asS'berrq001'
p1469
(lp1470
g1469
aS'Quintin Berry'
p1471
aI2
aI2
aI3
aI0
aI0
aI0
aI0
aI0
aI1
aI0
aI0
aI1
aI0
asS'buchc001'
p1472
(lp1473
g1472
aS'Clay Buchholz'
p1474
aI2
aI2
aI0
aI1
aI0
aI0
aI0
aI0
aI0
aI0
aI0
aI0
aI1
asS'molij001'
p1475
(lp1476
g1475
aS'Jose Molina'
p1477
aI247
aI225
aI4
aI40
aI2
aI0
aI0
aI10
aI3
aI0
aI14
aI55
aI42
asS'yound003'
p1478
(lp1479
g1478
aS'Delmon Young'
p1480
aI255
aI242
aI27
aI73
aI11
aI1
aI7
aI30
aI2
aI0
aI10
aI51
aI107
asS'craia001'
p1481
(lp1482
g1481
aS'Allen Craig'
p1483
aI505
aI461
aI41
aI99
aI20
aI1
aI8
aI46
aI2
aI1
aI35
aI113
aI145
asS'ethia001'
p1484
(lp1485
g1484
aS'Andre Ethier'
p1486
aI380
aI341
aI29
aI85
aI17
aI6
aI4
aI42
aI2
aI2
aI31
aI74
aI126
asS'friec001'
p1487
(lp1488
g1487
aS'Christian Friedrich'
p1489
aI5
aI5
aI0
aI1
aI0
aI0
aI0
aI0
aI0
aI0
aI0
aI2
aI1
asS'avill001'
p1490
(lp1491
g1490
aS'Luis Avilan'
p1492
aI1
aI0
aI0
aI0
aI0
aI0
aI0
aI0
aI0
aI0
aI0
aI0
aI0
asS'utlec001'
p1493
(lp1494
g1493
aS'Chase Utley'
p1495
aI664
aI589
aI74
aI159
aI36
aI6
aI11
aI78
aI10
aI1
aI53
aI85
aI240
asS'ramow001'
p1496
(lp1497
g1496
aS'Wilson Ramos'
p1498
aI361
aI341
aI32
aI91
aI12
aI0
aI11
aI47
aI0
aI0
aI17
aI57
aI136
asS'grimj002'
p1499
(lp1500
g1499
aS'Justin Grimm'
p1501
aI2
aI2
aI0
aI0
aI0
aI0
aI0
aI0
aI0
aI0
aI0
aI2
aI0
asS'maybc001'
p1502
(lp1503
g1502
aS'Cameron Maybin'
p1504
aI272
aI251
aI24
aI59
aI13
aI4
aI1
aI15
aI4
aI3
aI19
aI56
aI83
asS'johnc003'
p1505
(lp1506
g1505
aS'Chris Johnson'
p1507
aI611
aI582
aI43
aI153
aI27
aI0
aI10
aI58
aI6
aI0
aI23
aI159
aI210
asS'garcy001'
p1508
(lp1509
g1508
aS'Yimi Garcia'
p1510
aI1
aI1
aI0
aI0
aI0
aI0
aI0
aI0
aI0
aI0
aI0
aI0
aI0
asS'contc001'
p1511
(lp1512
g1511
aS'Carlos Contreras'
p1513
aI1
aI1
aI0
aI0
aI0
aI0
aI0
aI0
aI0
aI0
aI0
aI1
aI0
asS'conrb001'
p1514
(lp1515
g1514
aS'Brooks Conrad'
p1516
aI34
aI30
aI2
aI3
aI1
aI0
aI1
aI2
aI0
aI0
aI3
aI14
aI7
asS'kipnj001'
p1517
(lp1518
g1517
aS'Jason Kipnis'
p1519
aI555
aI500
aI61
aI120
aI25
aI1
aI6
aI41
aI22
aI3
aI50
aI100
aI165
asS'consj001'
p1520
(lp1521
g1520
aS'Jose Constanza'
p1522
aI4
aI4
aI1
aI0
aI0
aI0
aI0
aI0
aI0
aI0
aI0
aI1
aI0
asS'watkl001'
p1523
(lp1524
g1523
aS'Logan Watkins'
p1525
aI68
aI65
aI10
aI16
aI3
aI0
aI1
aI6
aI1
aI0
aI1
aI16
aI22
asS'wooda002'
p1526
(lp1527
g1526
aS'Alex Wood'
p1528
aI48
aI41
aI1
aI3
aI0
aI0
aI0
aI2
aI0
aI0
aI2
aI28
aI3
asS'seagk001'
p1529
(lp1530
g1529
aS'Kyle Seager'
p1531
aI654
aI590
aI71
aI158
aI27
aI4
aI25
aI96
aI7
aI5
aI52
aI118
aI268
asS'jacke001'
p1532
(lp1533
g1532
aS'Edwin Jackson'
p1534
aI44
aI40
aI2
aI7
aI2
aI0
aI0
aI0
aI0
aI0
aI0
aI21
aI9
asS'montm001'
p1535
(lp1536
g1535
aS'Miguel Montero'
p1537
aI560
aI489
aI40
aI119
aI23
aI0
aI13
aI72
aI0
aI4
aI56
aI97
aI181
asS'giamj001'
p1538
(lp1539
g1538
aS'Jason Giambi'
p1540
aI70
aI60
aI3
aI8
aI2
aI0
aI2
aI5
aI0
aI0
aI9
aI12
aI16
asS'goset001'
p1541
(lp1542
g1541
aS'Tuffy Gosewisch'
p1543
aI132
aI129
aI6
aI29
aI8
aI0
aI1
aI7
aI0
aI0
aI3
aI24
aI40
asS'mclon001'
p1544
(lp1545
g1544
aS'Nate McLouth'
p1546
aI162
aI139
aI10
aI24
aI6
aI0
aI1
aI7
aI4
aI1
aI16
aI35
aI33
asS'zunim001'
p1547
(lp1548
g1547
aS'Mike Zunino'
p1549
aI476
aI438
aI51
aI87
aI20
aI2
aI22
aI60
aI0
aI3
aI17
aI158
aI177
asS'reimn001'
p1550
(lp1551
g1550
aS'Nolan Reimold'
p1552
aI78
aI69
aI5
aI16
aI5
aI0
aI3
aI13
aI1
aI0
aI6
aI32
aI30
asS'fifes001'
p1553
(lp1554
g1553
aS'Stephen Fife'
p1555
aI3
aI3
aI0
aI0
aI0
aI0
aI0
aI0
aI0
aI0
aI0
aI1
aI0
asS'odorj001'
p1556
(lp1557
g1556
aS'Jake Odorizzi'
p1558
aI6
aI4
aI0
aI0
aI0
aI0
aI0
aI1
aI0
aI0
aI1
aI3
aI0
asS'blacc001'
p1559
(lp1560
g1559
aS'Charlie Blackmon'
p1561
aI648
aI593
aI82
aI171
aI27
aI3
aI19
aI72
aI28
aI10
aI31
aI96
aI261
asS'lemad001'
p1562
(lp1563
g1562
aS'DJ LeMahieu'
p1564
aI538
aI494
aI59
aI132
aI15
aI5
aI5
aI42
aI10
aI10
aI33
aI97
aI172
asS'guyeb001'
p1565
(lp1566
g1565
aS'Brandon Guyer'
p1567
aI294
aI259
aI37
aI69
aI15
aI1
aI3
aI26
aI6
aI1
aI16
aI52
aI95
asS'bergc001'
p1568
(lp1569
g1568
aS'Christian Bergman'
p1570
aI20
aI19
aI0
aI1
aI0
aI0
aI0
aI0
aI0
aI0
aI0
aI6
aI1
asS'mikom001'
p1571
(lp1572
g1571
aS'Miles Mikolas'
p1573
aI2
aI1
aI0
aI0
aI0
aI0
aI0
aI0
aI0
aI0
aI0
aI0
aI0
asS'guera001'
p1574
(lp1575
g1574
aS'Alex Guerrero'
p1576
aI13
aI13
aI0
aI1
aI0
aI0
aI0
aI0
aI0
aI0
aI0
aI6
aI1
asS'grays001'
p1577
(lp1578
g1577
aS'Sonny Gray'
p1579
aI4
aI2
aI0
aI0
aI0
aI0
aI0
aI0
aI0
aI0
aI0
aI1
aI0
asS'gonza003'
p1580
(lp1581
g1580
aS'Adrian Gonzalez'
p1582
aI660
aI591
aI83
aI163
aI41
aI0
aI27
aI116
aI1
aI1
aI56
aI112
aI285
asS'gonza002'
p1583
(lp1584
g1583
aS'Alex Gonzalez'
p1585
aI32
aI30
aI4
aI5
aI0
aI1
aI0
aI2
aI0
aI0
aI2
aI4
aI7
asS'kroli001'
p1586
(lp1587
g1586
aS'Ian Krol'
p1588
aI1
aI1
aI0
aI0
aI0
aI0
aI0
aI0
aI0
aI0
aI0
aI0
aI0
asS'houst002'
p1589
(lp1590
g1589
aS'T.J. House'
p1591
aI2
aI2
aI0
aI0
aI0
aI0
aI0
aI0
aI0
aI0
aI0
aI2
aI0
asS'lirir001'
p1592
(lp1593
g1592
aS'Rymer Liriano'
p1594
aI121
aI109
aI13
aI24
aI2
aI0
aI1
aI6
aI4
aI1
aI9
aI39
aI29
asS'nelsc001'
p1595
(lp1596
g1595
aS'Chris Nelson'
p1597
aI81
aI73
aI5
aI17
aI3
aI0
aI0
aI7
aI1
aI2
aI7
aI14
aI20
asS'bailh001'
p1598
(lp1599
g1598
aS'Homer Bailey'
p1600
aI51
aI41
aI3
aI6
aI0
aI0
aI0
aI3
aI0
aI0
aI2
aI18
aI6
asS'martc006'
p1601
(lp1602
g1601
aS'Carlos Martinez'
p1603
aI13
aI12
aI0
aI3
aI0
aI0
aI0
aI2
aI0
aI0
aI0
aI4
aI3
asS'belim001'
p1604
(lp1605
g1604
aS'Matt Belisle'
p1606
aI1
aI1
aI0
aI0
aI0
aI0
aI0
aI0
aI0
aI0
aI0
aI0
aI0
asS'cosaj001'
p1607
(lp1608
g1607
aS'Jarred Cosart'
p1609
aI24
aI21
aI1
aI4
aI0
aI0
aI0
aI0
aI0
aI0
aI0
aI7
aI4
asS'dozib001'
p1610
(lp1611
g1610
aS'Brian Dozier'
p1612
aI707
aI598
aI112
aI145
aI33
aI1
aI23
aI71
aI21
aI7
aI89
aI129
aI249
asS'kawam001'
p1613
(lp1614
g1613
aS'Munenori Kawasaki'
p1615
aI274
aI240
aI31
aI62
aI7
aI1
aI0
aI17
aI1
aI0
aI22
aI49
aI71
asS'souzs001'
p1616
(lp1617
g1616
aS'Steven Souza'
p1618
aI26
aI23
aI2
aI3
aI0
aI0
aI2
aI2
aI0
aI0
aI3
aI7
aI9
asS'freed001'
p1619
(lp1620
g1619
aS'David Freese'
p1621
aI511
aI462
aI53
aI120
aI25
aI1
aI10
aI55
aI1
aI3
aI38
aI124
aI177
asS'pradm001'
p1622
(lp1623
g1622
aS'Martin Prado'
p1624
aI573
aI536
aI62
aI151
aI26
aI4
aI12
aI58
aI3
aI1
aI26
aI80
aI221
asS'linda001'
p1625
(lp1626
g1625
aS'Adam Lind'
p1627
aI318
aI290
aI38
aI93
aI24
aI2
aI6
aI40
aI0
aI0
aI28
aI48
aI139
asS'beeld001'
p1628
(lp1629
g1628
aS'Dallas Beeler'
p1630
aI4
aI4
aI0
aI1
aI0
aI0
aI0
aI0
aI0
aI0
aI0
aI2
aI1
asS'konep001'
p1631
(lp1632
g1631
aS'Paul Konerko'
p1633
aI224
aI208
aI15
aI43
aI8
aI0
aI5
aI22
aI0
aI0
aI10
aI51
aI66
asS'rogee002'
p1634
(lp1635
g1634
aS'Esmil Rogers'
p1636
aI1
aI1
aI0
aI0
aI0
aI0
aI0
aI0
aI0
aI0
aI0
aI0
aI0
asS'gomej001'
p1637
(lp1638
g1637
aS'Jonny Gomes'
p1639
aI321
aI273
aI28
aI64
aI8
aI0
aI6
aI37
aI0
aI0
aI35
aI88
aI90
asS'lougd001'
p1640
(lp1641
g1640
aS'David Lough'
p1642
aI197
aI174
aI31
aI43
aI6
aI3
aI4
aI16
aI8
aI5
aI15
aI33
aI67
asS'sweer001'
p1643
(lp1644
g1643
aS'Ryan Sweeney'
p1645
aI226
aI207
aI22
aI52
aI9
aI0
aI3
aI20
aI0
aI0
aI15
aI33
aI70
asS'alcaa001'
p1646
(lp1647
g1646
aS'Arismendy Alcantara'
p1648
aI300
aI278
aI31
aI57
aI11
aI2
aI10
aI29
aI8
aI5
aI17
aI93
aI102
asS'vottj001'
p1649
(lp1650
g1649
aS'Joey Votto'
p1651
aI272
aI220
aI32
aI56
aI16
aI0
aI6
aI23
aI1
aI1
aI47
aI49
aI90
asS'suzui001'
p1652
(lp1653
g1652
aS'Ichiro Suzuki'
p1654
aI385
aI359
aI42
aI102
aI13
aI2
aI1
aI22
aI15
aI3
aI21
aI68
aI122
asS'philb001'
p1655
(lp1656
g1655
aS'Brandon Phillips'
p1657
aI499
aI462
aI44
aI123
aI25
aI0
aI8
aI51
aI2
aI3
aI23
aI74
aI172
asS'headc001'
p1658
(lp1659
g1658
aS'Chase Headley'
p1660
aI531
aI470
aI55
aI114
aI20
aI1
aI13
aI49
aI7
aI3
aI51
aI122
aI175
asS'canor001'
p1661
(lp1662
g1661
aS'Robinson Cano'
p1663
aI665
aI595
aI77
aI187
aI37
aI2
aI14
aI82
aI10
aI3
aI61
aI68
aI270
asS'lavar001'
p1664
(lp1665
g1664
aS'Ryan Lavarnway'
p1666
aI10
aI10
aI0
aI0
aI0
aI0
aI0
aI0
aI0
aI0
aI0
aI3
aI0
asS'salec001'
p1667
(lp1668
g1667
aS'Chris Sale'
p1669
aI3
aI3
aI0
aI0
aI0
aI0
aI0
aI0
aI0
aI0
aI0
aI2
aI0
asS'sprig001'
p1670
(lp1671
g1670
aS'George Springer'
p1672
aI345
aI295
aI45
aI68
aI8
aI1
aI20
aI51
aI5
aI2
aI39
aI114
aI138
asS'quinj001'
p1673
(lp1674
g1673
aS'Jose Quintana'
p1675
aI10
aI9
aI0
aI0
aI0
aI0
aI0
aI0
aI0
aI0
aI0
aI4
aI0
asS'ceder002'
p1676
(lp1677
g1676
aS'Ronny Cedeno'
p1678
aI9
aI9
aI0
aI0
aI0
aI0
aI0
aI0
aI0
aI0
aI0
aI2
aI0
asS'osuls001'
p1679
(lp1680
g1679
aS"Sean O'Sullivan"
p1681
aI3
aI3
aI0
aI0
aI0
aI0
aI0
aI0
aI0
aI0
aI0
aI2
aI0
asS'schus001'
p1682
(lp1683
g1682
aS'Skip Schumaker'
p1684
aI271
aI247
aI22
aI58
aI12
aI0
aI2
aI22
aI2
aI1
aI18
aI50
aI76
asS'ramia003'
p1685
(lp1686
g1685
aS'Alexei Ramirez'
p1687
aI657
aI622
aI82
aI170
aI35
aI2
aI15
aI74
aI21
aI4
aI24
aI81
aI254
asS'ramia001'
p1688
(lp1689
g1688
aS'Aramis Ramirez'
p1690
aI531
aI494
aI47
aI141
aI23
aI1
aI15
aI66
aI3
aI0
aI21
aI75
aI211
asS'gomej002'
p1691
(lp1692
g1691
aS'Jeanmar Gomez'
p1693
aI2
aI1
aI0
aI1
aI0
aI0
aI0
aI0
aI0
aI0
aI0
aI0
aI1
asS'getzc001'
p1694
(lp1695
g1694
aS'Chris Getz'
p1696
aI28
aI25
aI1
aI4
aI1
aI0
aI0
aI0
aI2
aI0
aI1
aI4
aI5
asS'glenb001'
p1697
(lp1698
g1697
aS'Brad Glenn'
p1699
aI16
aI15
aI0
aI1
aI0
aI0
aI0
aI0
aI0
aI0
aI1
aI5
aI1
asS'guzmj005'
p1700
(lp1701
g1700
aS'Jesus Guzman'
p1702
aI184
aI165
aI10
aI31
aI4
aI0
aI2
aI9
aI3
aI0
aI19
aI52
aI41
asS'verlj001'
p1703
(lp1704
g1703
aS'Justin Verlander'
p1705
aI7
aI6
aI1
aI2
aI0
aI0
aI0
aI0
aI0
aI0
aI0
aI0
aI2
asS'gossp001'
p1706
(lp1707
g1706
aS'Philip Gosselin'
p1708
aI136
aI128
aI17
aI34
aI4
aI0
aI1
aI3
aI2
aI2
aI5
aI27
aI41
asS'tehej001'
p1709
(lp1710
g1709
aS'Julio Teheran'
p1711
aI76
aI66
aI1
aI7
aI1
aI0
aI0
aI6
aI0
aI0
aI1
aI21
aI8
asS'murpd006'
p1712
(lp1713
g1712
aS'Daniel Murphy'
p1714
aI642
aI596
aI79
aI172
aI37
aI2
aI9
aI57
aI13
aI5
aI39
aI86
aI240
asS'kobej001'
p1715
(lp1716
g1715
aS'Jeff Kobernus'
p1717
aI8
aI6
aI2
aI0
aI0
aI0
aI0
aI0
aI0
aI0
aI1
aI1
aI0
asS'venaw001'
p1718
(lp1719
g1718
aS'Will Venable'
p1720
aI448
aI406
aI47
aI91
aI13
aI2
aI8
aI33
aI11
aI6
aI33
aI107
aI132
asS'medit001'
p1721
(lp1722
g1721
aS'Tommy Medica'
p1723
aI259
aI240
aI31
aI56
aI11
aI2
aI9
aI27
aI6
aI1
aI14
aI75
aI98
asS'figuc001'
p1724
(lp1725
g1724
aS'Cole Figueroa'
p1726
aI49
aI43
aI6
aI10
aI2
aI1
aI0
aI6
aI0
aI0
aI4
aI4
aI14
asS'ranaa001'
p1727
(lp1728
g1727
aS'Anthony Ranaudo'
p1729
aI5
aI5
aI0
aI0
aI0
aI0
aI0
aI0
aI0
aI0
aI0
aI3
aI0
asS'bogax001'
p1730
(lp1731
g1730
aS'Xander Bogaerts'
p1732
aI594
aI538
aI60
aI129
aI28
aI1
aI12
aI46
aI2
aI3
aI39
aI138
aI195
asS'kempm001'
p1733
(lp1734
g1733
aS'Matt Kemp'
p1735
aI599
aI541
aI77
aI155
aI38
aI3
aI25
aI89
aI8
aI5
aI52
aI145
aI274
asS'lee-c003'
p1736
(lp1737
g1736
aS'Cliff Lee'
p1738
aI25
aI24
aI2
aI6
aI0
aI0
aI0
aI1
aI0
aI0
aI0
aI9
aI6
asS'marij002'
p1739
(lp1740
g1739
aS'Jake Marisnick'
p1741
aI237
aI221
aI21
aI55
aI8
aI0
aI3
aI19
aI11
aI3
aI8
aI67
aI72
asS'nadyx001'
p1742
(lp1743
g1742
aS'Xavier Nady'
p1744
aI42
aI37
aI4
aI5
aI1
aI0
aI3
aI4
aI0
aI0
aI5
aI9
aI15
asS'darvy001'
p1745
(lp1746
g1745
aS'Yu Darvish'
p1747
aI5
aI5
aI0
aI1
aI1
aI0
aI0
aI0
aI0
aI0
aI0
aI2
aI2
asS'gibsk002'
p1748
(lp1749
g1748
aS'Kyle Gibson'
p1750
aI4
aI4
aI0
aI1
aI0
aI0
aI0
aI0
aI0
aI0
aI0
aI2
aI1
asS'watst001'
p1751
(lp1752
g1751
aS'Tony Watson'
p1753
aI3
aI3
aI0
aI1
aI0
aI0
aI0
aI0
aI0
aI0
aI0
aI2
aI1
asS'napom001'
p1754
(lp1755
g1754
aS'Mike Napoli'
p1756
aI500
aI415
aI49
aI103
aI20
aI0
aI17
aI55
aI3
aI2
aI78
aI133
aI174
asS'overl001'
p1757
(lp1758
g1757
aS'Lyle Overbay'
p1759
aI296
aI258
aI24
aI60
aI14
aI0
aI4
aI35
aI2
aI0
aI36
aI60
aI86
asS'adaml001'
p1760
(lp1761
g1760
aS'Lane Adams'
p1762
aI3
aI3
aI1
aI0
aI0
aI0
aI0
aI0
aI0
aI0
aI0
aI2
aI0
asS'casts001'
p1763
(lp1764
g1763
aS'Starlin Castro'
p1765
aI569
aI528
aI58
aI154
aI33
aI1
aI14
aI65
aI4
aI4
aI35
aI100
aI231
asS'seguj002'
p1766
(lp1767
g1766
aS'Jean Segura'
p1768
aI557
aI513
aI61
aI126
aI14
aI6
aI5
aI31
aI20
aI9
aI28
aI70
aI167
asS'petiy001'
p1769
(lp1770
g1769
aS'Yusmeiro Petit'
p1771
aI27
aI25
aI2
aI1
aI0
aI0
aI0
aI0
aI0
aI0
aI1
aI13
aI1
asS'pricd001'
p1772
(lp1773
g1772
aS'David Price'
p1774
aI4
aI4
aI0
aI0
aI0
aI0
aI0
aI0
aI0
aI0
aI0
aI2
aI0
asS'maybj001'
p1775
(lp1776
g1775
aS'John Mayberry'
p1777
aI168
aI146
aI15
aI31
aI10
aI0
aI7
aI23
aI0
aI0
aI20
aI35
aI62
asS'workb001'
p1778
(lp1779
g1778
aS'Brandon Workman'
p1780
aI4
aI3
aI0
aI0
aI0
aI0
aI0
aI0
aI0
aI0
aI0
aI3
aI0
asS'rusic001'
p1781
(lp1782
g1781
aS'Chris Rusin'
p1783
aI3
aI3
aI0
aI0
aI0
aI0
aI0
aI0
aI0
aI0
aI0
aI1
aI0
asS'fryee001'
p1784
(lp1785
g1784
aS'Eric Fryer'
p1786
aI81
aI75
aI11
aI16
aI4
aI0
aI1
aI5
aI1
aI0
aI5
aI15
aI23
asS'turnj002'
p1787
(lp1788
g1787
aS'Jacob Turner'
p1789
aI29
aI23
aI1
aI4
aI2
aI0
aI0
aI0
aI0
aI0
aI1
aI12
aI6
asS'turnj001'
p1790
(lp1791
g1790
aS'Justin Turner'
p1792
aI322
aI288
aI46
aI98
aI21
aI1
aI7
aI43
aI6
aI1
aI28
aI58
aI142
asS'burnb002'
p1793
(lp1794
g1793
aS'Billy Burns'
p1795
aI6
aI6
aI4
aI1
aI0
aI0
aI0
aI0
aI3
aI1
aI0
aI0
aI1
asS'barmc001'
p1796
(lp1797
g1796
aS'Clint Barmes'
p1798
aI116
aI102
aI15
aI25
aI5
aI0
aI0
aI7
aI1
aI1
aI9
aI18
aI30
asS'wongk001'
p1799
(lp1800
g1799
aS'Kolten Wong'
p1801
aI433
aI402
aI52
aI100
aI14
aI3
aI12
aI42
aI20
aI4
aI21
aI71
aI156
asS'singj001'
p1802
(lp1803
g1802
aS'Jon Singleton'
p1804
aI362
aI310
aI42
aI52
aI13
aI0
aI13
aI44
aI2
aI3
aI50
aI134
aI104
asS'duffd001'
p1805
(lp1806
g1805
aS'Danny Duffy'
p1807
aI7
aI6
aI1
aI0
aI0
aI0
aI0
aI0
aI0
aI0
aI0
aI3
aI0
asS'ahmen001'
p1808
(lp1809
g1808
aS'Nick Ahmed'
p1810
aI75
aI70
aI9
aI14
aI2
aI0
aI1
aI4
aI0
aI1
aI3
aI10
aI19
asS'martr004'
p1811
(lp1812
g1811
aS'Russell Martin'
p1813
aI460
aI379
aI45
aI110
aI20
aI0
aI11
aI67
aI4
aI4
aI59
aI78
aI163
asS'kalir001'
p1814
(lp1815
g1814
aS'Ryan Kalish'
p1816
aI130
aI121
aI13
aI30
aI4
aI4
aI0
aI5
aI3
aI2
aI8
aI28
aI42
asS'murpd004'
p1817
(lp1818
g1817
aS'Donnie Murphy'
p1819
aI128
aI112
aI11
aI22
aI3
aI0
aI4
aI14
aI0
aI1
aI11
aI38
aI37
asS'elmoj001'
p1820
(lp1821
g1820
aS'Jake Elmore'
p1822
aI12
aI11
aI0
aI2
aI0
aI0
aI0
aI0
aI0
aI0
aI1
aI4
aI2
asS'white004'
p1823
(lp1824
g1823
aS'Eli Whiteside'
p1825
aI26
aI25
aI0
aI3
aI1
aI0
aI0
aI2
aI1
aI0
aI0
aI8
aI4
asS'peacb001'
p1826
(lp1827
g1826
aS'Brad Peacock'
p1828
aI5
aI5
aI0
aI0
aI0
aI0
aI0
aI0
aI0
aI0
aI0
aI5
aI0
asS'robis001'
p1829
(lp1830
g1829
aS'Shane Robinson'
p1831
aI66
aI60
aI3
aI9
aI1
aI1
aI0
aI4
aI0
aI1
aI6
aI10
aI12
asS'skagt001'
p1832
(lp1833
g1832
aS'Tyler Skaggs'
p1834
aI3
aI3
aI0
aI0
aI0
aI0
aI0
aI0
aI0
aI0
aI0
aI2
aI0
asS'vazqc001'
p1835
(lp1836
g1835
aS'Christian Vazquez'
p1837
aI201
aI175
aI15
aI42
aI9
aI0
aI1
aI20
aI0
aI0
aI19
aI33
aI54
asS'drews001'
p1838
(lp1839
g1838
aS'Stephen Drew'
p1840
aI300
aI271
aI18
aI44
aI14
aI1
aI7
aI26
aI1
aI1
aI27
aI75
aI81
asS'troum001'
p1841
(lp1842
g1841
aS'Mike Trout'
p1843
aI705
aI602
aI115
aI173
aI39
aI9
aI36
aI111
aI16
aI2
aI83
aI184
aI338
asS'furcr001'
p1844
(lp1845
g1844
aS'Rafael Furcal'
p1846
aI37
aI35
aI4
aI6
aI0
aI1
aI0
aI2
aI0
aI0
aI2
aI7
aI8
asS'navae001'
p1847
(lp1848
g1847
aS'Efren Navarro'
p1849
aI174
aI159
aI17
aI39
aI10
aI1
aI1
aI14
aI1
aI3
aI13
aI27
aI54
asS'desmi001'
p1850
(lp1851
g1850
aS'Ian Desmond'
p1852
aI648
aI593
aI73
aI151
aI26
aI3
aI24
aI91
aI24
aI5
aI46
aI183
aI255
asS'santd002'
p1853
(lp1854
g1853
aS'Domingo Santana'
p1855
aI18
aI17
aI1
aI0
aI0
aI0
aI0
aI0
aI0
aI0
aI1
aI14
aI0
asS'pettj001'
p1856
(lp1857
g1856
aS'Jonathan Pettibone'
p1858
aI2
aI2
aI0
aI0
aI0
aI0
aI0
aI0
aI0
aI0
aI0
aI1
aI0
asS'murpd005'
p1859
(lp1860
g1859
aS'David Murphy'
p1861
aI462
aI416
aI40
aI109
aI25
aI1
aI8
aI58
aI2
aI3
aI36
aI61
aI160
asS'gricr001'
p1862
(lp1863
g1862
aS'Randal Grichuk'
p1864
aI116
aI110
aI11
aI27
aI6
aI1
aI3
aI8
aI0
aI2
aI5
aI31
aI44
asS'doubf001'
p1865
(lp1866
g1865
aS'Felix Doubront'
p1867
aI8
aI7
aI0
aI1
aI0
aI0
aI0
aI0
aI0
aI0
aI1
aI5
aI1
asS'woodt004'
p1868
(lp1869
g1868
aS'Travis Wood'
p1870
aI66
aI56
aI9
aI13
aI2
aI0
aI3
aI10
aI0
aI0
aI1
aI17
aI24
asS'lairg001'
p1871
(lp1872
g1871
aS'Gerald Laird'
p1873
aI167
aI152
aI12
aI31
aI8
aI0
aI0
aI10
aI0
aI0
aI14
aI33
aI39
asS'saltj001'
p1874
(lp1875
g1874
aS'Jarrod Saltalamacchia'
p1876
aI435
aI373
aI43
aI82
aI20
aI0
aI11
aI44
aI0
aI1
aI55
aI143
aI135
asS'jasoj001'
p1877
(lp1878
g1877
aS'John Jaso'
p1879
aI344
aI307
aI42
aI81
aI18
aI3
aI9
aI40
aI2
aI0
aI28
aI60
aI132
asS'owinc001'
p1880
(lp1881
g1880
aS'Chris Owings'
p1882
aI332
aI310
aI34
aI81
aI15
aI6
aI6
aI26
aI8
aI1
aI16
aI67
aI126
asS'franj005'
p1883
(lp1884
g1883
aS'Juan Francisco'
p1885
aI320
aI287
aI40
aI63
aI16
aI2
aI16
aI43
aI0
aI2
aI27
aI116
aI131
asS'franj004'
p1886
(lp1887
g1886
aS'Jeff Francoeur'
p1888
aI28
aI24
aI2
aI2
aI0
aI0
aI0
aI1
aI0
aI0
aI3
aI7
aI2
asS'franj003'
p1889
(lp1890
g1889
aS'Jeff Francis'
p1891
aI2
aI2
aI0
aI0
aI0
aI0
aI0
aI0
aI0
aI0
aI0
aI2
aI0
asS'bianj001'
p1892
(lp1893
g1892
aS'Jeff Bianchi'
p1894
aI74
aI70
aI4
aI12
aI1
aI0
aI0
aI6
aI0
aI0
aI3
aI17
aI13
asS'penab002'
p1895
(lp1896
g1895
aS'Brayan Pena'
p1897
aI372
aI348
aI23
aI88
aI18
aI1
aI5
aI26
aI2
aI3
aI20
aI42
aI123
asS'goldp001'
p1898
(lp1899
g1898
aS'Paul Goldschmidt'
p1900
aI479
aI406
aI75
aI122
aI39
aI1
aI19
aI69
aI9
aI3
aI64
aI110
aI220
asS'gillc001'
p1901
(lp1902
g1901
aS'Conor Gillaspie'
p1903
aI506
aI464
aI50
aI131
aI31
aI5
aI7
aI57
aI0
aI4
aI36
aI78
aI193
asS'wilka002'
p1904
(lp1905
g1904
aS'Andy Wilkins'
p1906
aI45
aI43
aI2
aI6
aI2
aI0
aI0
aI2
aI0
aI0
aI2
aI22
aI8
asS'phelc001'
p1907
(lp1908
g1907
aS'Cord Phelps'
p1909
aI3
aI3
aI0
aI0
aI0
aI0
aI0
aI0
aI0
aI0
aI0
aI0
aI0
asS'gillc002'
p1910
(lp1911
g1910
aS'Cole Gillespie'
p1912
aI81
aI74
aI9
aI18
aI2
aI0
aI1
aI5
aI2
aI2
aI6
aI13
aI23
asS'eatoa002'
p1913
(lp1914
g1913
aS'Adam Eaton'
p1915
aI538
aI486
aI76
aI146
aI26
aI10
aI1
aI35
aI15
aI9
aI43
aI83
aI195
asS'garcj002'
p1916
(lp1917
g1916
aS'Santiago Casilla'
p1918
aI1
aI1
aI0
aI0
aI0
aI0
aI0
aI0
aI0
aI0
aI0
aI0
aI0
asS'chamj002'
p1919
(lp1920
g1919
aS'Joba Chamberlain'
p1921
aI1
aI1
aI0
aI0
aI0
aI0
aI0
aI0
aI0
aI0
aI0
aI1
aI0
asS'crawb001'
p1922
(lp1923
g1922
aS'Brandon Crawford'
p1924
aI564
aI491
aI54
aI121
aI20
aI10
aI10
aI69
aI5
aI3
aI59
aI129
aI191
asS'voger001'
p1925
(lp1926
g1925
aS'Ryan Vogelsong'
p1927
aI66
aI61
aI3
aI7
aI2
aI0
aI0
aI2
aI0
aI0
aI2
aI20
aI9
asS'garcj004'
p1928
(lp1929
g1928
aS'Jaime Garcia'
p1930
aI16
aI12
aI2
aI3
aI0
aI0
aI0
aI0
aI0
aI0
aI0
aI2
aI3
asS'branm003'
p1931
(lp1932
g1931
aS'Michael Brantley'
p1933
aI676
aI611
aI94
aI200
aI45
aI2
aI20
aI97
aI23
aI1
aI52
aI56
aI309
asS'coghc001'
p1934
(lp1935
g1934
aS'Chris Coghlan'
p1936
aI432
aI385
aI50
aI109
aI28
aI5
aI9
aI41
aI7
aI4
aI39
aI81
aI174
asS'mcfat001'
p1937
(lp1938
g1937
aS'T.J. McFarland'
p1939
aI1
aI0
aI0
aI0
aI0
aI0
aI0
aI0
aI0
aI0
aI0
aI0
aI0
asS'herre001'
p1940
(lp1941
g1940
aS'Elian Herrera'
p1942
aI140
aI135
aI14
aI37
aI7
aI1
aI0
aI5
aI4
aI1
aI3
aI36
aI46
asS'edgij001'
p1943
(lp1944
g1943
aS'Josh Edgin'
p1945
aI1
aI1
aI0
aI0
aI0
aI0
aI0
aI0
aI0
aI0
aI0
aI1
aI0
asS'pennc001'
p1946
(lp1947
g1946
aS'Cliff Pennington'
p1948
aI201
aI177
aI21
aI45
aI5
aI3
aI2
aI10
aI6
aI1
aI20
aI36
aI62
asS'perer003'
p1949
(lp1950
g1949
aS'Roberto Perez'
p1951
aI95
aI85
aI10
aI23
aI5
aI0
aI1
aI4
aI0
aI0
aI5
aI26
aI31
asS'johnk003'
p1952
(lp1953
g1952
aS'Kelly Johnson'
p1954
aI297
aI265
aI29
aI57
aI14
aI2
aI7
aI27
aI2
aI2
aI29
aI71
aI96
asS'martl004'
p1955
(lp1956
g1955
aS'Leonys Martin'
p1957
aI583
aI533
aI68
aI146
aI13
aI7
aI7
aI40
aI31
aI12
aI39
aI114
aI194
asS'johnk004'
p1958
(lp1959
g1958
aS'Kris Johnson'
p1960
aI1
aI1
aI0
aI0
aI0
aI0
aI0
aI0
aI0
aI0
aI0
aI1
aI0
asS'keucd001'
p1961
(lp1962
g1961
aS'Dallas Keuchel'
p1963
aI4
aI3
aI1
aI0
aI0
aI0
aI0
aI0
aI0
aI0
aI1
aI2
aI0
asS'infao001'
p1964
(lp1965
g1964
aS'Omar Infante'
p1966
aI575
aI528
aI50
aI133
aI21
aI3
aI6
aI66
aI9
aI3
aI33
aI68
aI178
asS'zeidj001'
p1967
(lp1968
g1967
aS'Josh Zeid'
p1969
aI1
aI1
aI0
aI0
aI0
aI0
aI0
aI0
aI0
aI0
aI0
aI1
aI0
asS'almoz001'
p1970
(lp1971
g1970
aS'Zoilo Almonte'
p1972
aI36
aI36
aI2
aI5
aI0
aI0
aI1
aI3
aI1
aI0
aI0
aI14
aI8
asS'mercj002'
p1973
(lp1974
g1973
aS'Jordy Mercer'
p1975
aI555
aI506
aI56
aI129
aI27
aI2
aI12
aI55
aI4
aI1
aI35
aI89
aI196
asS'cingt001'
p1976
(lp1977
g1976
aS'Tony Cingrani'
p1978
aI22
aI21
aI0
aI3
aI0
aI0
aI0
aI0
aI0
aI0
aI0
aI5
aI3
asS'hamec001'
p1979
(lp1980
g1979
aS'Cole Hamels'
p1981
aI69
aI62
aI1
aI13
aI2
aI0
aI0
aI0
aI0
aI0
aI0
aI28
aI15
asS'ishit001'
p1982
(lp1983
g1982
aS'Travis Ishikawa'
p1984
aI119
aI107
aI9
aI27
aI4
aI1
aI3
aI18
aI0
aI0
aI9
aI34
aI42
asS'matzt001'
p1985
(lp1986
g1985
aS'Tyler Matzek'
p1987
aI43
aI38
aI2
aI7
aI1
aI0
aI0
aI0
aI0
aI0
aI2
aI13
aI8
asS'bourm001'
p1988
(lp1989
g1988
aS'Michael Bourn'
p1990
aI487
aI444
aI57
aI114
aI17
aI10
aI3
aI28
aI10
aI6
aI35
aI114
aI160
asS'jacka001'
p1991
(lp1992
g1991
aS'Austin Jackson'
p1993
aI656
aI597
aI71
aI153
aI30
aI6
aI4
aI47
aI20
aI6
aI47
aI144
aI207
asS'paulf001'
p1994
(lp1995
g1994
aS'Felipe Paulino'
p1996
aI1
aI1
aI0
aI0
aI0
aI0
aI0
aI0
aI0
aI0
aI0
aI0
aI0
asS'uribj002'
p1997
(lp1998
g1997
aS'Juan Uribe'
p1999
aI404
aI386
aI36
aI120
aI23
aI0
aI9
aI54
aI0
aI1
aI15
aI77
aI170
asS'ruggj001'
p2000
(lp2001
g2000
aS'Justin Ruggiano'
p2002
aI250
aI224
aI29
aI63
aI13
aI1
aI6
aI28
aI2
aI4
aI18
aI70
aI96
asS'chavj001'
p2003
(lp2004
g2003
aS'Jesse Chavez'
p2005
aI3
aI3
aI0
aI0
aI0
aI0
aI0
aI0
aI0
aI0
aI0
aI3
aI0
asS'peguc001'
p2006
(lp2007
g2006
aS'Carlos Peguero'
p2008
aI10
aI9
aI1
aI2
aI1
aI0
aI0
aI1
aI0
aI0
aI1
aI5
aI3
asS'laroa001'
p2009
(lp2010
g2009
aS'Adam LaRoche'
p2011
aI586
aI494
aI73
aI128
aI19
aI0
aI26
aI92
aI3
aI0
aI82
aI108
aI225
asS'fernj003'
p2012
(lp2013
g2012
aS'Jose Fernandez'
p2014
aI18
aI16
aI1
aI2
aI0
aI0
aI0
aI1
aI0
aI0
aI0
aI6
aI2
asS'olt-m001'
p2015
(lp2016
g2015
aS'Mike Olt'
p2017
aI258
aI225
aI23
aI36
aI8
aI0
aI12
aI33
aI0
aI1
aI25
aI100
aI80
asS'paulx001'
p2018
(lp2019
g2018
aS'Xavier Paul'
p2020
aI21
aI20
aI2
aI2
aI0
aI0
aI0
aI0
aI0
aI0
aI1
aI8
aI2
asS'norrd001'
p2021
(lp2022
g2021
aS'Derek Norris'
p2023
aI442
aI385
aI46
aI104
aI19
aI1
aI10
aI55
aI2
aI2
aI54
aI86
aI155
asS'weekr001'
p2024
(lp2025
g2024
aS'Rickie Weeks'
p2026
aI286
aI252
aI36
aI69
aI19
aI1
aI8
aI29
aI3
aI4
aI25
aI73
aI114
asS'hassa002'
p2027
(lp2028
g2027
aS'Alex Hassan'
p2029
aI9
aI8
aI1
aI1
aI0
aI0
aI0
aI0
aI0
aI0
aI1
aI5
aI1
asS'longe001'
p2030
(lp2031
g2030
aS'Evan Longoria'
p2032
aI700
aI624
aI83
aI158
aI26
aI1
aI22
aI91
aI5
aI0
aI57
aI133
aI252
asS'figaa001'
p2033
(lp2034
g2033
aS'Alfredo Figaro'
p2035
aI1
aI1
aI0
aI0
aI0
aI0
aI0
aI0
aI0
aI0
aI0
aI0
aI0
asS'diazj004'
p2036
(lp2037
g2036
aS'Jonathan Diaz'
p2038
aI45
aI38
aI3
aI6
aI1
aI0
aI0
aI4
aI1
aI0
aI3
aI14
aI7
asS'peavj001'
p2039
(lp2040
g2039
aS'Jake Peavy'
p2041
aI24
aI23
aI1
aI0
aI0
aI0
aI0
aI0
aI0
aI0
aI0
aI14
aI0
asS'escoy001'
p2042
(lp2043
g2042
aS'Yunel Escobar'
p2044
aI529
aI476
aI33
aI123
aI18
aI0
aI7
aI39
aI1
aI1
aI43
aI60
aI162
asS'roset001'
p2045
(lp2046
g2045
aS'Trevor Rosenthal'
p2047
aI1
aI1
aI0
aI0
aI0
aI0
aI0
aI0
aI0
aI0
aI0
aI1
aI0
asS'solej001'
p2048
(lp2049
g2048
aS'Jorge Soler'
p2050
aI97
aI89
aI11
aI26
aI8
aI1
aI5
aI20
aI1
aI0
aI6
aI24
aI51
asS'jay-j001'
p2051
(lp2052
g2051
aS'Jon Jay'
p2053
aI468
aI413
aI52
aI125
aI16
aI3
aI3
aI46
aI6
aI3
aI28
aI78
aI156
asS'gorda001'
p2054
(lp2055
g2054
aS'Alex Gordon'
p2056
aI643
aI563
aI87
aI150
aI34
aI1
aI19
aI74
aI12
aI3
aI65
aI126
aI243
asS'fielp001'
p2057
(lp2058
g2057
aS'Prince Fielder'
p2059
aI178
aI150
aI19
aI37
aI8
aI0
aI3
aI16
aI0
aI0
aI25
aI24
aI54
asS'uptoj001'
p2060
(lp2061
g2060
aS'Justin Upton'
p2062
aI641
aI566
aI77
aI153
aI34
aI2
aI29
aI102
aI8
aI4
aI60
aI171
aI278
asS'encae001'
p2063
(lp2064
g2063
aS'Edwin Encarnacion'
p2065
aI542
aI477
aI75
aI128
aI27
aI2
aI34
aI98
aI2
aI0
aI62
aI82
aI261
asS'burna001'
p2066
(lp2067
g2066
aS'A.J. Burnett'
p2068
aI65
aI60
aI5
aI8
aI2
aI0
aI0
aI1
aI0
aI0
aI3
aI23
aI10
asS'altha001'
p2069
(lp2070
g2069
aS'Aaron Altherr'
p2071
aI5
aI5
aI0
aI0
aI0
aI0
aI0
aI0
aI0
aI0
aI0
aI2
aI0
asS'saunm001'
p2072
(lp2073
g2072
aS'Michael Saunders'
p2074
aI263
aI231
aI38
aI63
aI11
aI3
aI8
aI34
aI4
aI5
aI26
aI59
aI104
asS'lockj001'
p2075
(lp2076
g2075
aS'Jeff Locke'
p2077
aI50
aI45
aI3
aI5
aI0
aI0
aI0
aI0
aI0
aI0
aI2
aI30
aI5
asS'haraa001'
p2078
(lp2079
g2078
aS'Aaron Harang'
p2080
aI71
aI61
aI2
aI5
aI0
aI0
aI0
aI1
aI0
aI0
aI1
aI29
aI5
asS'grany001'
p2081
(lp2082
g2081
aS'Yasmani Grandal'
p2083
aI443
aI377
aI47
aI85
aI19
aI1
aI15
aI49
aI3
aI0
aI58
aI115
aI151
asS'villj001'
p2084
(lp2085
g2084
aS'Jonathan Villar'
p2086
aI289
aI263
aI31
aI55
aI13
aI2
aI7
aI27
aI17
aI4
aI19
aI80
aI93
asS'solay001'
p2087
(lp2088
g2087
aS'Yangervis Solarte'
p2089
aI535
aI469
aI56
aI122
aI19
aI1
aI10
aI48
aI0
aI1
aI53
aI58
aI173
asS'cozaz001'
p2090
(lp2091
g2090
aS'Zack Cozart'
p2092
aI543
aI506
aI48
aI112
aI18
aI5
aI4
aI38
aI7
aI0
aI25
aI79
aI152
asS'gomey001'
p2093
(lp2094
g2093
aS'Yan Gomes'
p2095
aI518
aI485
aI61
aI135
aI25
aI3
aI21
aI74
aI0
aI0
aI24
aI120
aI229
asS'hanir001'
p2096
(lp2097
g2096
aS'Ryan Hanigan'
p2098
aI263
aI225
aI18
aI49
aI9
aI0
aI5
aI34
aI1
aI0
aI31
aI39
aI73
asS'ariaj001'
p2099
(lp2100
g2099
aS'Joaquin Arias'
p2101
aI204
aI193
aI18
aI49
aI9
aI0
aI0
aI15
aI1
aI0
aI8
aI23
aI58
asS'mesod001'
p2102
(lp2103
g2102
aS'Devin Mesoraco'
p2104
aI440
aI384
aI54
aI105
aI25
aI0
aI25
aI80
aI1
aI3
aI41
aI103
aI205
asS'scutm001'
p2105
(lp2106
g2105
aS'Marco Scutaro'
p2107
aI13
aI11
aI1
aI1
aI0
aI0
aI0
aI0
aI0
aI0
aI1
aI3
aI1
asS'adamc001'
p2108
(lp2109
g2108
aS'Cristhian Adames'
p2110
aI15
aI15
aI1
aI1
aI0
aI0
aI0
aI0
aI0
aI0
aI0
aI5
aI1
asS'happj001'
p2111
(lp2112
g2111
aS'J.A. Happ'
p2113
aI4
aI4
aI0
aI0
aI0
aI0
aI0
aI0
aI0
aI0
aI0
aI4
aI0
asS'perad001'
p2114
(lp2115
g2114
aS'David Peralta'
p2116
aI348
aI329
aI40
aI94
aI12
aI9
aI8
aI36
aI6
aI3
aI16
aI60
aI148
asS'machm001'
p2117
(lp2118
g2117
aS'Manny Machado'
p2119
aI354
aI327
aI38
aI91
aI14
aI0
aI12
aI32
aI2
aI0
aI20
aI68
aI141
asS'kenni001'
p2120
(lp2121
g2120
aS'Ian Kennedy'
p2122
aI63
aI52
aI3
aI6
aI1
aI0
aI1
aI5
aI0
aI0
aI5
aI24
aI10
asS'pench001'
p2123
(lp2124
g2123
aS'Hunter Pence'
p2125
aI708
aI650
aI106
aI180
aI29
aI10
aI20
aI74
aI13
aI6
aI52
aI130
aI289
asS'zobrb001'
p2126
(lp2127
g2126
aS'Ben Zobrist'
p2128
aI654
aI570
aI83
aI155
aI34
aI3
aI10
aI52
aI10
aI5
aI75
aI84
aI225
asS'penar002'
p2129
(lp2130
g2129
aS'Ramiro Pena'
p2131
aI165
aI147
aI9
aI36
aI6
aI0
aI3
aI9
aI1
aI0
aI13
aI38
aI51
asS'hammj002'
p2132
(lp2133
g2132
aS'Jason Hammel'
p2134
aI43
aI37
aI2
aI5
aI0
aI0
aI0
aI3
aI0
aI0
aI1
aI14
aI5
asS'denoc001'
p2135
(lp2136
g2135
aS'Chris Denorfia'
p2137
aI358
aI330
aI36
aI76
aI12
aI4
aI3
aI21
aI9
aI3
aI25
aI70
aI105
asS'huntt001'
p2138
(lp2139
g2138
aS'Torii Hunter'
p2140
aI586
aI549
aI71
aI157
aI33
aI2
aI17
aI83
aI4
aI3
aI23
aI89
aI245
asS'petig001'
p2141
(lp2142
g2141
aS'Gregorio Petit'
p2143
aI100
aI97
aI14
aI27
aI8
aI0
aI2
aI9
aI0
aI1
aI1
aI25
aI41
asS'ramij004'
p2144
(lp2145
g2144
aS'Jose Ramirez'
p2146
aI266
aI237
aI27
aI62
aI10
aI2
aI2
aI17
aI10
aI1
aI13
aI35
aI82
asS'bakes002'
p2147
(lp2148
g2147
aS'Scott Baker'
p2149
aI1
aI1
aI0
aI0
aI0
aI0
aI0
aI0
aI0
aI0
aI0
aI1
aI0
asS'schem001'
p2150
(lp2151
g2150
aS'Max Scherzer'
p2152
aI4
aI2
aI0
aI0
aI0
aI0
aI0
aI0
aI0
aI0
aI0
aI1
aI0
asS'pimes001'
p2153
(lp2154
g2153
aS'Stolmy Pimentel'
p2155
aI5
aI5
aI0
aI0
aI0
aI0
aI0
aI0
aI0
aI0
aI0
aI3
aI0
asS'kozmp001'
p2156
(lp2157
g2156
aS'Pete Kozma'
p2158
aI26
aI23
aI4
aI7
aI3
aI0
aI0
aI0
aI0
aI0
aI3
aI4
aI10
asS'mauej001'
p2159
(lp2160
g2159
aS'Joe Mauer'
p2161
aI518
aI455
aI60
aI126
aI27
aI2
aI4
aI55
aI3
aI0
aI60
aI96
aI169
asS'calla001'
p2162
(lp2163
g2162
aS'Alberto Callaspo'
p2164
aI451
aI404
aI37
aI90
aI15
aI0
aI4
aI39
aI0
aI1
aI40
aI50
aI117
asS'plout001'
p2165
(lp2166
g2165
aS'Trevor Plouffe'
p2167
aI582
aI520
aI69
aI134
aI40
aI2
aI14
aI80
aI2
aI1
aI53
aI109
aI220
asS'bracb001'
p2168
(lp2169
g2168
aS'Brad Brach'
p2170
aI2
aI1
aI0
aI0
aI0
aI0
aI0
aI0
aI0
aI0
aI0
aI0
aI0
asS'youne003'
p2171
(lp2172
g2171
aS'Eric Young'
p2173
aI316
aI280
aI48
aI64
aI10
aI5
aI1
aI17
aI30
aI6
aI24
aI60
aI87
asS'lambj001'
p2174
(lp2175
g2174
aS'Jake Lamb'
p2176
aI133
aI126
aI15
aI29
aI4
aI1
aI4
aI11
aI1
aI1
aI6
aI37
aI47
asS'dickr001'
p2177
(lp2178
g2177
aS'R.A. Dickey'
p2179
aI9
aI9
aI0
aI0
aI0
aI0
aI0
aI0
aI0
aI0
aI0
aI2
aI0
asS'andec001'
p2180
(lp2181
g2180
aS'Chase Anderson'
p2182
aI41
aI34
aI0
aI1
aI0
aI0
aI0
aI0
aI0
aI0
aI0
aI14
aI1
asS'mornj001'
p2183
(lp2184
g2183
aS'Justin Morneau'
p2185
aI550
aI502
aI62
aI160
aI32
aI3
aI17
aI82
aI0
aI3
aI34
aI60
aI249
asS'poseb001'
p2186
(lp2187
g2186
aS'Buster Posey'
p2188
aI605
aI547
aI72
aI170
aI28
aI2
aI22
aI89
aI0
aI1
aI47
aI69
aI268
asS'hannj001'
p2189
(lp2190
g2189
aS'Jack Hannahan'
p2191
aI50
aI48
aI3
aI9
aI3
aI0
aI0
aI2
aI0
aI0
aI2
aI17
aI12
asS'bumgm001'
p2192
(lp2193
g2192
aS'Madison Bumgarner'
p2194
aI78
aI66
aI10
aI17
aI2
aI0
aI4
aI15
aI0
aI0
aI2
aI29
aI31
asS'dukez001'
p2195
(lp2196
g2195
aS'Zach Duke'
p2197
aI2
aI1
aI0
aI0
aI0
aI0
aI0
aI0
aI0
aI0
aI0
aI1
aI0
asS'congh001'
p2198
(lp2199
g2198
aS'Hank Conger'
p2200
aI260
aI231
aI24
aI51
aI12
aI0
aI4
aI25
aI0
aI2
aI22
aI57
aI75
asS'beltb001'
p2201
(lp2202
g2201
aS'Brandon Belt'
p2203
aI235
aI214
aI30
aI52
aI8
aI0
aI12
aI27
aI3
aI1
aI18
aI64
aI96
asS'sardl001'
p2204
(lp2205
g2204
aS'Luis Sardinas'
p2206
aI125
aI115
aI12
aI30
aI6
aI0
aI0
aI8
aI5
aI1
aI5
aI21
aI36
asS'sandj002'
p2207
(lp2208
g2207
aS'Jerry Sands'
p2209
aI22
aI21
aI1
aI4
aI0
aI0
aI1
aI4
aI0
aI0
aI0
aI6
aI7
asS'hendk001'
p2210
(lp2211
g2210
aS'Kyle Hendricks'
p2212
aI30
aI24
aI1
aI3
aI0
aI0
aI0
aI1
aI0
aI0
aI3
aI11
aI3
asS'maxwj002'
p2213
(lp2214
g2213
aS'Justin Maxwell'
p2215
aI45
aI40
aI4
aI6
aI1
aI0
aI0
aI3
aI0
aI1
aI2
aI20
aI7
asS'zimmj003'
p2216
(lp2217
g2216
aS'Jordan Zimmermann'
p2218
aI67
aI55
aI3
aI10
aI1
aI0
aI0
aI1
aI0
aI0
aI2
aI21
aI11
asS'butlb003'
p2219
(lp2220
g2219
aS'Billy Butler'
p2221
aI603
aI549
aI57
aI149
aI32
aI0
aI9
aI66
aI0
aI0
aI41
aI96
aI208
asS'romaj003'
p2222
(lp2223
g2222
aS'Jamie Romak'
p2224
aI23
aI21
aI2
aI1
aI1
aI0
aI0
aI3
aI0
aI0
aI2
aI8
aI2
asS'hagum001'
p2225
(lp2226
g2225
aS'Matt Hague'
p2227
aI2
aI2
aI0
aI0
aI0
aI0
aI0
aI0
aI0
aI0
aI0
aI1
aI0
asS'ludwr001'
p2228
(lp2229
g2228
aS'Ryan Ludwick'
p2230
aI400
aI357
aI28
aI87
aI20
aI0
aI9
aI45
aI0
aI2
aI31
aI94
aI134
asS'martv001'
p2231
(lp2232
g2231
aS'Victor Martinez'
p2233
aI641
aI561
aI87
aI188
aI33
aI0
aI32
aI103
aI3
aI2
aI70
aI42
aI317
asS'younc003'
p2234
(lp2235
g2234
aS'Chris Young'
p2236
aI367
aI326
aI40
aI72
aI20
aI0
aI11
aI38
aI8
aI3
aI32
aI70
aI125
asS'figgc001'
p2237
(lp2238
g2237
aS'Chone Figgins'
p2239
aI76
aI60
aI8
aI13
aI3
aI0
aI0
aI1
aI4
aI1
aI14
aI15
aI16
asS'lobaj001'
p2240
(lp2241
g2240
aS'Jose Lobaton'
p2242
aI230
aI214
aI18
aI50
aI9
aI0
aI2
aI12
aI0
aI0
aI15
aI61
aI65
asS'duffm002'
p2243
(lp2244
g2243
aS'Matt Duffy'
p2245
aI64
aI60
aI5
aI16
aI2
aI0
aI0
aI8
aI0
aI1
aI1
aI14
aI18
asS'haled001'
p2246
(lp2247
g2246
aS'David Hale'
p2248
aI19
aI17
aI1
aI1
aI0
aI0
aI0
aI1
aI0
aI0
aI0
aI8
aI1
asS'browd004'
p2249
(lp2250
g2249
aS'Domonic Brown'
p2251
aI512
aI473
aI47
aI111
aI22
aI1
aI10
aI63
aI7
aI1
aI34
aI91
aI165
asS'jeted001'
p2252
(lp2253
g2252
aS'Derek Jeter'
p2254
aI634
aI581
aI47
aI149
aI19
aI1
aI4
aI50
aI10
aI2
aI35
aI87
aI182
asS'sancc001'
p2255
(lp2256
g2255
aS'Carlos Sanchez'
p2257
aI104
aI100
aI6
aI25
aI5
aI0
aI0
aI5
aI1
aI1
aI3
aI25
aI30
asS'schal001'
p2258
(lp2259
g2258
aS'Logan Schafer'
p2260
aI136
aI116
aI13
aI21
aI9
aI1
aI0
aI8
aI2
aI1
aI15
aI27
aI32
asS'hestc001'
p2261
(lp2262
g2261
aS'Chris Heston'
p2263
aI1
aI1
aI0
aI0
aI0
aI0
aI0
aI0
aI0
aI0
aI0
aI1
aI0
asS'polag001'
p2264
(lp2265
g2264
aS'Gregory Polanco'
p2266
aI312
aI277
aI50
aI65
aI9
aI0
aI7
aI33
aI14
aI5
aI30
aI59
aI95
asS'evann001'
p2267
(lp2268
g2267
aS'Nick Evans'
p2269
aI23
aI22
aI2
aI6
aI2
aI0
aI2
aI7
aI0
aI0
aI1
aI10
aI14
asS'stule002'
p2270
(lp2271
g2270
aS'Eric Stults'
p2272
aI53
aI48
aI1
aI4
aI1
aI0
aI0
aI1
aI0
aI0
aI1
aI18
aI5
asS'holmd002'
p2273
(lp2274
g2273
aS'David Holmberg'
p2275
aI7
aI5
aI0
aI0
aI0
aI0
aI0
aI0
aI0
aI0
aI0
aI2
aI0
asS'stanm004'
p2276
(lp2277
g2276
aS'Giancarlo Stanton'
p2278
aI638
aI539
aI89
aI155
aI31
aI1
aI37
aI105
aI13
aI1
aI94
aI170
aI299
asS'moliy001'
p2279
(lp2280
g2279
aS'Yadier Molina'
p2281
aI445
aI404
aI40
aI114
aI21
aI0
aI7
aI38
aI1
aI1
aI28
aI55
aI156
asS'hamij003'
p2282
(lp2283
g2282
aS'Josh Hamilton'
p2284
aI381
aI338
aI43
aI89
aI21
aI0
aI10
aI44
aI3
aI3
aI32
aI108
aI140
asS'river003'
p2285
(lp2286
g2285
aS'Rene Rivera'
p2287
aI329
aI294
aI27
aI74
aI18
aI1
aI11
aI44
aI0
aI0
aI27
aI76
aI127
asS'peree003'
p2288
(lp2289
g2288
aS'Eury Perez'
p2290
aI10
aI10
aI2
aI2
aI0
aI0
aI0
aI0
aI1
aI0
aI0
aI3
aI2
asS'lylej001'
p2291
(lp2292
g2291
aS'Jordan Lyles'
p2293
aI52
aI48
aI4
aI9
aI3
aI0
aI1
aI3
aI0
aI0
aI3
aI21
aI15
asS'pridj001'
p2294
(lp2295
g2294
aS'Jason Pridie'
p2296
aI4
aI4
aI1
aI0
aI0
aI0
aI0
aI0
aI0
aI0
aI0
aI2
aI0
asS'jansk001'
p2297
(lp2298
g2297
aS'Kenley Jansen'
p2299
aI1
aI1
aI0
aI0
aI0
aI0
aI0
aI0
aI0
aI0
aI0
aI1
aI0
asS'wolfr001'
p2300
(lp2301
g2300
aS'Randy Wolf'
p2302
aI7
aI7
aI0
aI1
aI0
aI0
aI0
aI0
aI0
aI0
aI0
aI1
aI1
asS'stamc001'
p2303
(lp2304
g2303
aS'Craig Stammen'
p2305
aI8
aI7
aI0
aI2
aI1
aI0
aI0
aI0
aI0
aI0
aI0
aI4
aI3
asS'roart001'
p2306
(lp2307
g2306
aS'Tanner Roark'
p2308
aI70
aI58
aI1
aI7
aI0
aI0
aI0
aI0
aI0
aI0
aI1
aI21
aI7
asS'gyorj001'
p2309
(lp2310
g2309
aS'Jedd Gyorko'
p2311
aI443
aI400
aI37
aI84
aI17
aI1
aI10
aI51
aI3
aI2
aI36
aI100
aI133
asS'hoovj002'
p2312
(lp2313
g2312
aS'J.J. Hoover'
p2314
aI1
aI0
aI1
aI0
aI0
aI0
aI0
aI0
aI0
aI0
aI1
aI0
aI0
asS'domij002'
p2315
(lp2316
g2315
aS'Jose Dominguez'
p2317
aI1
aI1
aI0
aI0
aI0
aI0
aI0
aI0
aI0
aI0
aI0
aI1
aI0
asS'colac001'
p2318
(lp2319
g2318
aS'Chris Colabello'
p2320
aI220
aI205
aI17
aI47
aI13
aI0
aI6
aI39
aI0
aI2
aI14
aI66
aI78
asS'alony001'
p2321
(lp2322
g2321
aS'Yonder Alonso'
p2323
aI288
aI267
aI27
aI64
aI19
aI1
aI7
aI27
aI6
aI1
aI17
aI36
aI106
asS'dobbg001'
p2324
(lp2325
g2324
aS'Greg Dobbs'
p2326
aI43
aI41
aI0
aI7
aI1
aI0
aI0
aI2
aI0
aI0
aI1
aI8
aI8
asS'kraum001'
p2327
(lp2328
g2327
aS'Marc Krauss'
p2329
aI208
aI186
aI16
aI36
aI6
aI0
aI6
aI21
aI0
aI0
aI21
aI54
aI60
asS'duvaa001'
p2330
(lp2331
g2330
aS'Adam Duvall'
p2332
aI77
aI73
aI8
aI14
aI2
aI0
aI3
aI5
aI0
aI0
aI3
aI20
aI25
asS'iannc001'
p2333
(lp2334
g2333
aS'Chris Iannetta'
p2335
aI373
aI306
aI41
aI77
aI22
aI0
aI7
aI43
aI3
aI0
aI54
aI91
aI120
asS'walkn001'
p2336
(lp2337
g2336
aS'Neil Walker'
p2338
aI571
aI512
aI74
aI139
aI25
aI3
aI23
aI76
aI2
aI2
aI45
aI88
aI239
asS'arcio001'
p2339
(lp2340
g2339
aS'Oswaldo Arcia'
p2341
aI410
aI372
aI46
aI86
aI16
aI3
aI20
aI57
aI1
aI2
aI31
aI127
aI168
asS'zimmr001'
p2342
(lp2343
g2342
aS'Ryan Zimmerman'
p2344
aI240
aI214
aI26
aI60
aI19
aI1
aI5
aI38
aI0
aI0
aI22
aI37
aI96
asS'hatcc002'
p2345
(lp2346
g2345
aS'Chris Hatcher'
p2347
aI1
aI1
aI0
aI0
aI0
aI0
aI0
aI0
aI0
aI0
aI0
aI0
aI0
asS'bernd001'
p2348
(lp2349
g2348
aS'Doug Bernier'
p2350
aI9
aI7
aI2
aI2
aI0
aI0
aI0
aI0
aI0
aI0
aI1
aI2
aI2
asS'smoaj001'
p2351
(lp2352
g2351
aS'Justin Smoak'
p2353
aI276
aI248
aI28
aI50
aI13
aI0
aI7
aI30
aI0
aI1
aI24
aI66
aI84
asS'dysos001'
p2354
(lp2355
g2354
aS'Sam Dyson'
p2356
aI1
aI1
aI0
aI0
aI0
aI0
aI0
aI0
aI0
aI0
aI0
aI0
aI0
asS'dickc002'
p2357
(lp2358
g2357
aS'Corey Dickerson'
p2359
aI478
aI436
aI74
aI136
aI27
aI6
aI24
aI76
aI8
aI7
aI37
aI101
aI247
asS'staut001'
p2360
(lp2361
g2360
aS'Tim Stauffer'
p2362
aI8
aI7
aI0
aI1
aI0
aI0
aI0
aI0
aI0
aI0
aI0
aI2
aI1
asS'dickc001'
p2363
(lp2364
g2363
aS'Chris Dickerson'
p2365
aI112
aI98
aI12
aI22
aI4
aI0
aI2
aI6
aI3
aI0
aI12
aI38
aI32
asS'lackj001'
p2366
(lp2367
g2366
aS'John Lackey'
p2368
aI19
aI15
aI1
aI2
aI0
aI0
aI0
aI0
aI0
aI0
aI0
aI5
aI2
asS'baxtm001'
p2369
(lp2370
g2369
aS'Mike Baxter'
p2371
aI8
aI7
aI0
aI0
aI0
aI0
aI0
aI0
aI0
aI0
aI1
aI2
aI0
asS'ruizc001'
p2372
(lp2373
g2372
aS'Carlos Ruiz'
p2374
aI445
aI381
aI43
aI96
aI25
aI1
aI6
aI31
aI4
aI2
aI46
aI60
aI141
asS'moort002'
p2375
(lp2376
g2375
aS'Tyler Moore'
p2377
aI100
aI91
aI8
aI21
aI2
aI0
aI4
aI14
aI0
aI0
aI7
aI29
aI35
asS'romia001'
p2378
(lp2379
g2378
aS'Andrew Romine'
p2380
aI273
aI251
aI30
aI57
aI6
aI0
aI2
aI12
aI12
aI2
aI18
aI60
aI69
asS'romia002'
p2381
(lp2382
g2381
aS'Austin Romine'
p2383
aI13
aI13
aI2
aI3
aI1
aI0
aI0
aI1
aI0
aI0
aI0
aI4
aI4
asS'ramie004'
p2384
(lp2385
g2384
aS'Erasmo Ramirez'
p2386
aI3
aI2
aI0
aI0
aI0
aI0
aI0
aI0
aI0
aI0
aI0
aI1
aI0
asS'mazzv001'
p2387
(lp2388
g2387
aS'Vin Mazzaro'
p2389
aI1
aI1
aI0
aI0
aI0
aI0
aI0
aI0
aI0
aI0
aI0
aI0
aI0
asS'corpc001'
p2390
(lp2391
g2390
aS'Carlos Corporan'
p2392
aI190
aI170
aI22
aI40
aI6
aI0
aI6
aI19
aI0
aI0
aI14
aI37
aI64
asS'taylc001'
p2393
(lp2394
g2393
aS'Chris Taylor'
p2395
aI151
aI136
aI16
aI39
aI8
aI0
aI0
aI9
aI5
aI2
aI11
aI39
aI47
asS'grosr001'
p2396
(lp2397
g2396
aS'Robbie Grossman'
p2398
aI422
aI360
aI42
aI84
aI14
aI2
aI6
aI37
aI9
aI3
aI55
aI105
aI120
asS'estrm001'
p2399
(lp2400
g2399
aS'Marco Estrada'
p2401
aI40
aI32
aI0
aI3
aI0
aI0
aI0
aI2
aI0
aI0
aI3
aI13
aI3
asS'collj001'
p2402
(lp2403
g2402
aS'Josh Collmenter'
p2404
aI58
aI54
aI2
aI6
aI2
aI0
aI0
aI2
aI0
aI0
aI3
aI15
aI8
asS'lagaj001'
p2405
(lp2406
g2405
aS'Juan Lagares'
p2407
aI452
aI416
aI46
aI117
aI24
aI3
aI4
aI47
aI13
aI4
aI20
aI87
aI159
asS'dankj002'
p2408
(lp2409
g2408
aS'Jordan Danks'
p2410
aI132
aI117
aI14
aI26
aI2
aI0
aI2
aI10
aI5
aI3
aI14
aI46
aI34
asS'stewi001'
p2411
(lp2412
g2411
aS'Ian Stewart'
p2413
aI72
aI68
aI8
aI12
aI2
aI3
aI2
aI7
aI1
aI0
aI3
aI31
aI26
asS'susaa001'
p2414
(lp2415
g2414
aS'Andrew Susac'
p2416
aI95
aI88
aI13
aI24
aI8
aI0
aI3
aI19
aI0
aI0
aI7
aI28
aI41
asS'dankj001'
p2417
(lp2418
g2417
aS'John Danks'
p2419
aI3
aI3
aI0
aI1
aI0
aI0
aI0
aI0
aI0
aI0
aI0
aI1
aI1
asS'florw001'
p2420
(lp2421
g2420
aS'Wilmer Flores'
p2422
aI274
aI259
aI28
aI65
aI13
aI1
aI6
aI29
aI1
aI0
aI12
aI31
aI98
asS'gentc001'
p2423
(lp2424
g2423
aS'Craig Gentry'
p2425
aI258
aI232
aI38
aI59
aI6
aI1
aI0
aI12
aI20
aI2
aI17
aI44
aI67
asS'tholj001'
p2426
(lp2427
g2426
aS'Josh Thole'
p2428
aI150
aI133
aI11
aI33
aI4
aI0
aI0
aI7
aI0
aI3
aI14
aI25
aI37
asS'hernp001'
p2429
(lp2430
g2429
aS'Pedro Hernandez'
p2431
aI2
aI2
aI0
aI0
aI0
aI0
aI0
aI0
aI0
aI0
aI0
aI2
aI0
asS'bakej001'
p2432
(lp2433
g2432
aS'Jeff Baker'
p2434
aI225
aI208
aI27
aI55
aI10
aI4
aI3
aI28
aI1
aI0
aI13
aI51
aI82
asS'bettm001'
p2435
(lp2436
g2435
aS'Mookie Betts'
p2437
aI213
aI189
aI34
aI55
aI12
aI1
aI5
aI18
aI7
aI3
aI21
aI31
aI84
asS'hecha001'
p2438
(lp2439
g2438
aS'Adeiny Hechavarria'
p2440
aI574
aI536
aI53
aI148
aI20
aI10
aI1
aI34
aI7
aI5
aI26
aI86
aI191
asS'bakej002'
p2441
(lp2442
g2441
aS'John Baker'
p2443
aI208
aI182
aI9
aI35
aI7
aI0
aI0
aI15
aI0
aI0
aI19
aI58
aI42
asS'chrin001'
p2444
(lp2445
g2444
aS'Nick Christiani'
p2446
aI1
aI1
aI0
aI0
aI0
aI0
aI0
aI0
aI0
aI0
aI0
aI0
aI0
asS'doumr001'
p2447
(lp2448
g2447
aS'Ryan Doumit'
p2449
aI166
aI157
aI11
aI31
aI4
aI0
aI5
aI17
aI1
aI0
aI7
aI49
aI50
asS'harpb003'
p2450
(lp2451
g2450
aS'Bryce Harper'
p2452
aI395
aI352
aI41
aI96
aI10
aI2
aI13
aI32
aI2
aI2
aI38
aI104
aI149
asS'lawrb002'
p2453
(lp2454
g2453
aS'Brett Lawrie'
p2455
aI282
aI259
aI27
aI64
aI9
aI0
aI12
aI38
aI0
aI0
aI16
aI49
aI109
asS'escoe001'
p2456
(lp2457
g2456
aS'Eduardo Escobar'
p2458
aI465
aI433
aI52
aI119
aI35
aI2
aI6
aI37
aI1
aI1
aI24
aI93
aI176
asS'ramih003'
p2459
(lp2460
g2459
aS'Hanley Ramirez'
p2461
aI512
aI449
aI64
aI127
aI35
aI0
aI13
aI71
aI14
aI5
aI56
aI84
aI201
asS'mccua001'
p2462
(lp2463
g2462
aS'Andrew McCutchen'
p2464
aI648
aI548
aI89
aI172
aI38
aI6
aI25
aI83
aI18
aI3
aI84
aI115
aI297
asS'wrigd002'
p2465
(lp2466
g2465
aS'David Wright'
p2467
aI586
aI535
aI54
aI144
aI30
aI1
aI8
aI63
aI8
aI5
aI42
aI113
aI200
asS'kendk001'
p2468
(lp2469
g2468
aS'Kyle Kendrick'
p2470
aI71
aI66
aI2
aI9
aI1
aI0
aI0
aI1
aI0
aI0
aI1
aI31
aI10
asS'lynnl001'
p2471
(lp2472
g2471
aS'Lance Lynn'
p2473
aI69
aI60
aI5
aI4
aI1
aI0
aI0
aI1
aI0
aI0
aI4
aI34
aI5
asS'venty001'
p2474
(lp2475
g2474
aS'Yordano Ventura'
p2476
aI5
aI4
aI1
aI1
aI0
aI0
aI0
aI0
aI0
aI0
aI0
aI3
aI1
asS'quinh001'
p2477
(lp2478
g2477
aS'Humberto Quintero'
p2479
aI2
aI2
aI0
aI0
aI0
aI0
aI0
aI1
aI0
aI0
aI0
aI1
aI0
asS'adduj002'
p2480
(lp2481
g2480
aS'Jim Adduci'
p2482
aI114
aI101
aI13
aI17
aI3
aI0
aI1
aI8
aI3
aI1
aI10
aI27
aI23
asS'johne003'
p2483
(lp2484
g2483
aS'Erik Johnson'
p2485
aI3
aI3
aI0
aI0
aI0
aI0
aI0
aI0
aI0
aI0
aI0
aI0
aI0
asS'nicaj001'
p2486
(lp2487
g2486
aS'Juan Nicasio'
p2488
aI27
aI24
aI0
aI2
aI0
aI0
aI0
aI4
aI0
aI0
aI0
aI13
aI2
asS'iztum001'
p2489
(lp2490
g2489
aS'Maicer Izturis'
p2491
aI38
aI35
aI3
aI10
aI1
aI0
aI0
aI1
aI1
aI0
aI2
aI4
aI11
asS'teixm001'
p2492
(lp2493
g2492
aS'Mark Teixeira'
p2494
aI508
aI440
aI56
aI95
aI14
aI0
aI22
aI62
aI1
aI1
aI58
aI109
aI175
asS'claip001'
p2495
(lp2496
g2495
aS'Preston Claiborne'
p2497
aI1
aI0
aI0
aI0
aI0
aI0
aI0
aI0
aI0
aI0
aI0
aI0
aI0
asS'jokie001'
p2498
(lp2499
g2498
aS'Eric Jokisch'
p2500
aI5
aI3
aI0
aI0
aI0
aI0
aI0
aI0
aI0
aI0
aI0
aI1
aI0
asS'martn002'
p2501
(lp2502
g2501
aS'Nick Martinez'
p2503
aI3
aI3
aI1
aI0
aI0
aI0
aI0
aI0
aI0
aI0
aI0
aI2
aI0
asS'rodrg002'
p2504
(lp2505
g2504
aS'Guilder Rodriguez'
p2506
aI14
aI12
aI2
aI2
aI0
aI0
aI0
aI1
aI0
aI0
aI1
aI5
aI2
asS'wietm001'
p2507
(lp2508
g2507
aS'Matt Wieters'
p2509
aI112
aI104
aI13
aI32
aI5
aI0
aI5
aI18
aI0
aI1
aI6
aI19
aI52
asS'deckj001'
p2510
(lp2511
g2510
aS'Jaff Decker'
p2512
aI5
aI5
aI0
aI0
aI0
aI0
aI0
aI0
aI0
aI0
aI0
aI3
aI0
asS'jonej005'
p2513
(lp2514
g2513
aS'James Jones'
p2515
aI328
aI312
aI46
aI78
aI9
aI5
aI0
aI9
aI27
aI1
aI12
aI67
aI97
asS'tabaj002'
p2516
(lp2517
g2516
aS'Jose Tabata'
p2518
aI186
aI174
aI14
aI49
aI5
aI2
aI0
aI17
aI1
aI2
aI7
aI26
aI58
asS'buchd001'
p2519
(lp2520
g2519
aS'David Buchanan'
p2521
aI39
aI30
aI2
aI3
aI1
aI0
aI0
aI2
aI0
aI0
aI4
aI10
aI4
asS'bourj002'
p2522
(lp2523
g2522
aS'Justin Bour'
p2524
aI83
aI74
aI10
aI21
aI3
aI0
aI1
aI11
aI0
aI0
aI9
aI19
aI27
asS'hillt001'
p2525
(lp2526
g2525
aS'Taylor Hill'
p2527
aI3
aI3
aI0
aI1
aI0
aI0
aI0
aI0
aI0
aI0
aI0
aI0
aI1
asS'bourj001'
p2528
(lp2529
g2528
aS'Jason Bourgeois'
p2530
aI34
aI33
aI5
aI8
aI0
aI1
aI0
aI1
aI0
aI0
aI1
aI6
aI10
asS'avila001'
p2531
(lp2532
g2531
aS'Alex Avila'
p2533
aI457
aI390
aI44
aI85
aI22
aI0
aI11
aI47
aI0
aI3
aI61
aI151
aI140
asS'tanam001'
p2534
(lp2535
g2534
aS'Masahiro Tanaka'
p2536
aI9
aI9
aI0
aI1
aI0
aI0
aI0
aI0
aI0
aI0
aI0
aI5
aI1
asS'despo001'
p2537
(lp2538
g2537
aS'Odrisamer Despaigne'
p2539
aI28
aI24
aI0
aI0
aI0
aI0
aI0
aI0
aI0
aI0
aI1
aI10
aI0
asS'kuroh001'
p2540
(lp2541
g2540
aS'Hiroki Kuroda'
p2542
aI3
aI3
aI0
aI0
aI0
aI0
aI0
aI0
aI0
aI0
aI0
aI0
aI0
asS'germg001'
p2543
(lp2544
g2543
aS'Gonzalez Germen'
p2545
aI1
aI1
aI0
aI0
aI0
aI0
aI0
aI0
aI0
aI0
aI0
aI1
aI0
asS'frank001'
p2546
(lp2547
g2546
aS'Kevin Frandsen'
p2548
aI236
aI220
aI17
aI57
aI8
aI0
aI1
aI17
aI0
aI0
aI6
aI26
aI68
asS'ceccg001'
p2549
(lp2550
g2549
aS'Garin Cecchini'
p2551
aI36
aI31
aI6
aI8
aI3
aI0
aI1
aI4
aI0
aI0
aI3
aI11
aI14
asS'carrc003'
p2552
(lp2553
g2552
aS'Carlos Carrasco'
p2554
aI2
aI2
aI0
aI0
aI0
aI0
aI0
aI0
aI0
aI0
aI0
aI2
aI0
asS'casha001'
p2555
(lp2556
g2555
aS'Andrew Cashner'
p2557
aI42
aI35
aI3
aI6
aI1
aI1
aI0
aI2
aI0
aI0
aI1
aI14
aI9
asS'aschc001'
p2558
(lp2559
g2558
aS'Cody Asche'
p2560
aI434
aI397
aI43
aI100
aI25
aI0
aI10
aI46
aI0
aI1
aI33
aI102
aI155
asS'lowrj001'
p2561
(lp2562
g2561
aS'Jed Lowrie'
p2563
aI566
aI502
aI59
aI125
aI29
aI3
aI6
aI50
aI0
aI0
aI51
aI79
aI178
asS'beckj002'
p2564
(lp2565
g2564
aS'Josh Beckett'
p2566
aI43
aI39
aI4
aI7
aI3
aI0
aI0
aI2
aI0
aI0
aI1
aI14
aI10
asS'vincn001'
p2567
(lp2568
g2567
aS'Nick Vincent'
p2569
aI1
aI1
aI0
aI0
aI0
aI0
aI0
aI0
aI0
aI0
aI0
aI1
aI0
asS'castw002'
p2570
(lp2571
g2570
aS'Welington Castillo'
p2572
aI417
aI380
aI28
aI90
aI19
aI0
aI13
aI46
aI0
aI0
aI26
aI102
aI148
asS'nunee002'
p2573
(lp2574
g2573
aS'Eduardo Nunez'
p2575
aI213
aI204
aI26
aI51
aI7
aI4
aI4
aI24
aI9
aI3
aI5
aI31
aI78
asS'taylm002'
p2576
(lp2577
g2576
aS'Michael Taylor'
p2578
aI76
aI67
aI8
aI15
aI4
aI0
aI1
aI5
aI0
aI2
aI8
aI26
aI22
asS'blang001'
p2579
(lp2580
g2579
aS'Gregor Blanco'
p2581
aI444
aI393
aI51
aI102
aI18
aI6
aI5
aI38
aI16
aI5
aI41
aI77
aI147
asS'lirif001'
p2582
(lp2583
g2582
aS'Francisco Liriano'
p2584
aI52
aI45
aI1
aI5
aI0
aI0
aI0
aI0
aI0
aI0
aI2
aI14
aI5
asS'ray-r002'
p2585
(lp2586
g2585
aS'Robbie Ray'
p2587
aI2
aI2
aI0
aI1
aI0
aI0
aI0
aI0
aI0
aI0
aI0
aI0
aI1
asS'wadat001'
p2588
(lp2589
g2588
aS'Tsuyoshi Wada'
p2590
aI24
aI20
aI0
aI1
aI0
aI0
aI0
aI0
aI0
aI0
aI1
aI10
aI1
asS'stras001'
p2591
(lp2592
g2591
aS'Stephen Strasburg'
p2593
aI76
aI60
aI3
aI6
aI1
aI0
aI0
aI3
aI0
aI0
aI7
aI26
aI7
asS'victs001'
p2594
(lp2595
g2594
aS'Shane Victorino'
p2596
aI133
aI123
aI14
aI33
aI6
aI1
aI2
aI12
aI2
aI0
aI6
aI21
aI47
asS'tepen001'
p2597
(lp2598
g2597
aS'Nick Tepesch'
p2599
aI2
aI2
aI0
aI1
aI0
aI0
aI0
aI0
aI0
aI0
aI0
aI0
aI1
asS'koeht001'
p2600
(lp2601
g2600
aS'Tom Koehler'
p2602
aI59
aI50
aI0
aI3
aI0
aI0
aI0
aI0
aI0
aI0
aI1
aI27
aI3
asS'rollj001'
p2603
(lp2604
g2603
aS'Jimmy Rollins'
p2605
aI609
aI538
aI78
aI131
aI22
aI4
aI17
aI55
aI28
aI6
aI64
aI100
aI212
asS'treib001'
p2606
(lp2607
g2606
aS'Blake Treinen'
p2608
aI15
aI12
aI0
aI1
aI0
aI0
aI0
aI0
aI0
aI0
aI1
aI8
aI1
asS'centj001'
p2609
(lp2610
g2609
aS'Juan Centeno'
p2611
aI33
aI30
aI1
aI6
aI0
aI0
aI0
aI2
aI0
aI0
aI3
aI5
aI6
asS'corcd001'
p2612
(lp2613
g2612
aS'Daniel Corcino'
p2614
aI5
aI3
aI0
aI1
aI0
aI0
aI0
aI0
aI0
aI0
aI0
aI0
aI1
asS'cervf001'
p2615
(lp2616
g2615
aS'Francisco Cervelli'
p2617
aI162
aI146
aI18
aI44
aI11
aI1
aI2
aI13
aI1
aI0
aI11
aI41
aI63
asS'salad001'
p2618
(lp2619
g2618
aS'Danny Salazar'
p2620
aI3
aI3
aI0
aI0
aI0
aI0
aI0
aI0
aI0
aI0
aI0
aI3
aI0
asS'castj006'
p2621
(lp2622
g2621
aS'Jason Castro'
p2623
aI512
aI465
aI43
aI103
aI21
aI2
aI14
aI56
aI1
aI0
aI34
aI151
aI170
asS'mills001'
p2624
(lp2625
g2624
aS'Shelby Miller'
p2626
aI63
aI48
aI6
aI9
aI5
aI0
aI0
aI4
aI0
aI0
aI2
aI25
aI14
asS'wilsb002'
p2627
(lp2628
g2627
aS'Bobby Wilson'
p2629
aI4
aI4
aI0
aI1
aI0
aI0
aI0
aI0
aI0
aI0
aI0
aI0
aI1
asS'thort001'
p2630
(lp2631
g2630
aS'Tyler Thornburg'
p2632
aI2
aI1
aI0
aI0
aI0
aI0
aI0
aI0
aI0
aI0
aI0
aI0
aI0
asS'holtb002'
p2633
(lp2634
g2633
aS'Brock Holt'
p2635
aI492
aI449
aI68
aI126
aI23
aI5
aI4
aI29
aI12
aI2
aI33
aI98
aI171
asS'greiz001'
p2636
(lp2637
g2636
aS'Zack Greinke'
p2638
aI69
aI60
aI5
aI12
aI6
aI0
aI1
aI3
aI0
aI0
aI5
aI11
aI21
asS'florp001'
p2639
(lp2640
g2639
aS'Pedro Florimon'
p2641
aI86
aI76
aI7
aI7
aI1
aI1
aI0
aI1
aI6
aI0
aI8
aI22
aI10
asS'gindc001'
p2642
(lp2643
g2642
aS'Caleb Gindl'
p2644
aI23
aI19
aI0
aI3
aI0
aI0
aI0
aI0
aI0
aI0
aI4
aI5
aI3
asS'waltz001'
p2645
(lp2646
g2645
aS'Zach Walters'
p2647
aI137
aI127
aI16
aI23
aI3
aI0
aI10
aI17
aI0
aI0
aI9
aI48
aI56
asS'perej001'
p2648
(lp2649
g2648
aS'Juan Perez'
p2650
aI109
aI100
aI13
aI17
aI7
aI0
aI1
aI3
aI0
aI1
aI5
aI25
aI27
asS'butld001'
p2651
(lp2652
g2651
aS'Dan Butler'
p2653
aI20
aI19
aI1
aI4
aI3
aI0
aI0
aI2
aI0
aI0
aI1
aI5
aI7
asS'lastt001'
p2654
(lp2655
g2654
aS'Tommy La Stella'
p2656
aI360
aI319
aI22
aI80
aI16
aI1
aI1
aI31
aI2
aI1
aI36
aI40
aI101
asS'cowgc001'
p2657
(lp2658
g2657
aS'Collin Cowgill'
p2659
aI293
aI260
aI37
aI65
aI10
aI1
aI5
aI21
aI4
aI0
aI26
aI74
aI92
asS'abrej003'
p2660
(lp2661
g2660
aS'Jose Abreu'
p2662
aI622
aI556
aI80
aI176
aI35
aI2
aI36
aI107
aI3
aI1
aI51
aI131
aI323
asS'buckb002'
p2663
(lp2664
g2663
aS'Billy Buckner'
p2665
aI1
aI1
aI0
aI0
aI0
aI0
aI0
aI0
aI0
aI0
aI0
aI0
aI0
asS'lamba001'
p2666
(lp2667
g2666
aS'Andrew Lambo'
p2668
aI39
aI39
aI3
aI10
aI4
aI0
aI0
aI1
aI0
aI0
aI0
aI8
aI14
asS'browc003'
p2669
(lp2670
g2669
aS'Corey Brown'
p2671
aI1
aI1
aI0
aI0
aI0
aI0
aI0
aI0
aI0
aI0
aI0
aI1
aI0
asS'gimec001'
p2672
(lp2673
g2672
aS'Chris Gimenez'
p2674
aI128
aI116
aI13
aI28
aI10
aI0
aI0
aI11
aI0
aI1
aI12
aI29
aI38
asS'myerw001'
p2675
(lp2676
g2675
aS'Wil Myers'
p2677
aI361
aI325
aI37
aI72
aI14
aI0
aI6
aI35
aI6
aI1
aI34
aI90
aI104
asS'peraj001'
p2678
(lp2679
g2678
aS'Jhonny Peralta'
p2680
aI628
aI560
aI61
aI147
aI38
aI0
aI21
aI75
aI3
aI2
aI58
aI112
aI248
asS'rojam002'
p2681
(lp2682
g2681
aS'Miguel Rojas'
p2683
aI162
aI149
aI16
aI27
aI3
aI0
aI1
aI9
aI0
aI0
aI10
aI28
aI33
asS'spand001'
p2684
(lp2685
g2684
aS'Denard Span'
p2686
aI668
aI610
aI94
aI184
aI39
aI8
aI5
aI37
aI31
aI7
aI50
aI65
aI254
asS'tolls001'
p2687
(lp2688
g2687
aS'Steven Tolleson'
p2689
aI189
aI170
aI21
aI43
aI7
aI2
aI3
aI16
aI3
aI1
aI12
aI49
aI63
asS'roacd001'
p2690
(lp2691
g2690
aS'Donn Roach'
p2692
aI4
aI4
aI0
aI1
aI1
aI0
aI0
aI0
aI0
aI0
aI0
aI1
aI2
asS'dejed001'
p2693
(lp2694
g2693
aS'David DeJesus'
p2695
aI273
aI238
aI24
aI59
aI15
aI2
aI6
aI19
aI0
aI3
aI30
aI43
aI96
asS'hernf002'
p2696
(lp2697
g2696
aS'Felix Hernandez'
p2698
aI3
aI2
aI0
aI0
aI0
aI0
aI0
aI0
aI0
aI0
aI0
aI0
aI0
asS'defrj001'
p2699
(lp2700
g2699
aS'Justin De Fratus'
p2701
aI1
aI1
aI0
aI0
aI0
aI0
aI0
aI0
aI0
aI0
aI0
aI1
aI0
asS'crisc001'
p2702
(lp2703
g2702
aS'Coco Crisp'
p2704
aI536
aI463
aI68
aI114
aI21
aI3
aI9
aI47
aI19
aI5
aI66
aI66
aI168
asS'pintj001'
p2705
(lp2706
g2705
aS'Josmil Pinto'
p2707
aI197
aI169
aI25
aI37
aI8
aI0
aI7
aI18
aI0
aI1
aI24
aI50
aI66
asS'campe001'
p2708
(lp2709
g2708
aS'Eric Campbell'
p2710
aI211
aI190
aI16
aI50
aI9
aI0
aI3
aI16
aI3
aI0
aI17
aI55
aI68
asS'pujoa001'
p2711
(lp2712
g2711
aS'Albert Pujols'
p2713
aI695
aI633
aI89
aI172
aI37
aI1
aI28
aI105
aI5
aI1
aI48
aI71
aI295
asS'abret001'
p2714
(lp2715
g2714
aS'Tony Abreu'
p2716
aI4
aI4
aI0
aI0
aI0
aI0
aI0
aI0
aI0
aI0
aI0
aI0
aI0
asS'schlg001'
p2717
(lp2718
g2717
aS'Gus Schlosser'
p2719
aI1
aI1
aI0
aI1
aI0
aI0
aI0
aI0
aI0
aI0
aI0
aI0
aI1
asS'pedrd001'
p2720
(lp2721
g2720
aS'Dustin Pedroia'
p2722
aI609
aI551
aI72
aI153
aI33
aI0
aI7
aI53
aI6
aI6
aI51
aI75
aI207
asS'coleg001'
p2723
(lp2724
g2723
aS'Gerrit Cole'
p2725
aI52
aI46
aI3
aI8
aI0
aI0
aI1
aI2
aI0
aI0
aI2
aI17
aI11
asS'desca001'
p2726
(lp2727
g2726
aS'Anthony DeSclafani'
p2728
aI11
aI10
aI1
aI1
aI0
aI0
aI0
aI2
aI0
aI0
aI1
aI3
aI1
asS'pompd001'
p2729
(lp2730
g2729
aS'Dalton Pompey'
p2731
aI43
aI39
aI5
aI9
aI1
aI2
aI1
aI4
aI1
aI0
aI4
aI12
aI17
asS'clevs001'
p2732
(lp2733
g2732
aS'Steve Clevenger'
p2734
aI97
aI89
aI8
aI20
aI8
aI1
aI0
aI8
aI0
aI0
aI8
aI19
aI30
asS'alvah001'
p2735
(lp2736
g2735
aS'Henderson Alvarez'
p2737
aI67
aI57
aI2
aI11
aI0
aI0
aI0
aI2
aI0
aI0
aI1
aI20
aI11
asS'franm004'
p2738
(lp2739
g2738
aS'Maikel Franco'
p2740
aI58
aI56
aI5
aI10
aI2
aI0
aI0
aI5
aI0
aI0
aI1
aI13
aI12
asS'sanch002'
p2741
(lp2742
g2741
aS'Hector Sanchez'
p2743
aI177
aI163
aI8
aI32
aI8
aI0
aI3
aI28
aI0
aI1
aI8
aI55
aI49
asS'vogts001'
p2744
(lp2745
g2744
aS'Stephen Vogt'
p2746
aI287
aI269
aI26
aI75
aI10
aI2
aI9
aI35
aI1
aI0
aI16
aI39
aI116
asS'perec002'
p2747
(lp2748
g2747
aS'Chris Perez'
p2749
aI1
aI1
aI0
aI0
aI0
aI0
aI0
aI0
aI0
aI0
aI0
aI1
aI0
asS'incie001'
p2750
(lp2751
g2750
aS'Ender Inciarte'
p2752
aI447
aI418
aI54
aI116
aI18
aI2
aI4
aI27
aI19
aI3
aI25
aI53
aI150
asS'sancg001'
p2753
(lp2754
g2753
aS'Gaby Sanchez'
p2755
aI290
aI262
aI31
aI60
aI18
aI1
aI7
aI33
aI2
aI0
aI23
aI58
aI101
asS'bernr001'
p2756
(lp2757
g2756
aS'Roger Bernadina'
p2758
aI80
aI66
aI5
aI11
aI3
aI0
aI1
aI9
aI2
aI1
aI10
aI19
aI17
asS'cobba001'
p2759
(lp2760
g2759
aS'Alex Cobb'
p2761
aI9
aI8
aI0
aI1
aI1
aI0
aI0
aI1
aI0
aI0
aI0
aI2
aI2
asS'lanej001'
p2762
(lp2763
g2762
aS'Jason Lane'
p2764
aI3
aI3
aI0
aI1
aI0
aI0
aI0
aI0
aI0
aI0
aI0
aI0
aI1
asS'omals001'
p2765
(lp2766
g2765
aS"Shawn O'Malley"
p2767
aI16
aI16
aI3
aI3
aI0
aI0
aI0
aI1
aI2
aI0
aI0
aI8
aI3
asS'reyej001'
p2768
(lp2769
g2768
aS'Jose Reyes'
p2770
aI655
aI610
aI94
aI175
aI33
aI4
aI9
aI51
aI30
aI2
aI38
aI73
aI243
asS'colob001'
p2771
(lp2772
g2771
aS'Bartolo Colon'
p2773
aI69
aI62
aI3
aI2
aI1
aI0
aI0
aI0
aI0
aI0
aI0
aI33
aI3
asS'hutcd001'
p2774
(lp2775
g2774
aS'Drew Hutchison'
p2776
aI4
aI4
aI0
aI2
aI0
aI0
aI0
aI0
aI0
aI0
aI0
aI2
aI2
asS'mahop002'
p2777
(lp2778
g2777
aS'Paul Maholm'
p2779
aI16
aI9
aI1
aI0
aI0
aI0
aI0
aI0
aI0
aI0
aI2
aI6
aI0
asS'chacj001'
p2780
(lp2781
g2780
aS'Jhoulys Chacin'
p2782
aI17
aI15
aI2
aI5
aI1
aI0
aI0
aI0
aI0
aI0
aI1
aI4
aI6
asS'minom001'
p2783
(lp2784
g2783
aS'Mike Minor'
p2785
aI48
aI45
aI4
aI7
aI1
aI0
aI1
aI4
aI0
aI0
aI1
aI16
aI11
asa(dp2786
g2291
(lp2787
g2291
ag2293
aS'126.2'
p2788
aI127
aI64
aI61
aI12
aI46
aI1
aI90
asg5
(lp2789
g5
ag7
aS' 97.0'
p2790
aI89
aI35
aI33
aI11
aI38
aI4
aI96
asS'corde001'
p2791
(lp2792
g2791
aS'Erik Cordier'
p2793
aS'  6.0'
p2794
aI5
aI4
aI1
aI0
aI2
aI0
aI9
asS'ramoa001'
p2795
(lp2796
g2795
aS'A.J. Ramos'
p2797
aS' 64.0'
p2798
aI36
aI16
aI15
aI1
aI43
aI7
aI73
asg26
(lp2799
g26
ag28
aS' 64.0'
p2800
aI43
aI31
aI28
aI4
aI34
aI4
aI81
asS'putzj001'
p2801
(lp2802
g2801
aS'J.J. Putz'
p2803
aS' 13.2'
p2804
aI17
aI10
aI10
aI1
aI6
aI1
aI14
asg32
(lp2805
g32
ag34
aS' 86.0'
p2806
aI92
aI40
aI39
aI10
aI19
aI1
aI47
asS'pricb001'
p2807
(lp2808
g2807
aS'Bryan Price'
p2809
aS'  2.2'
p2810
aI8
aI6
aI6
aI3
aI1
aI0
aI1
asg38
(lp2811
g38
ag40
aS' 96.1'
p2812
aI88
aI48
aI45
aI8
aI42
aI0
aI66
asS'kimbc001'
p2813
(lp2814
g2813
aS'Craig Kimbrel'
p2815
aS' 61.2'
p2816
aI30
aI13
aI11
aI2
aI26
aI0
aI95
asg50
(lp2817
g50
ag52
aS' 90.1'
p2818
aI81
aI47
aI42
aI13
aI32
aI2
aI70
asg53
(lp2819
g53
ag55
aS' 70.1'
p2820
aI72
aI35
aI34
aI3
aI27
aI4
aI54
asg56
(lp2821
g56
ag58
aS'115.0'
p2822
aI125
aI64
aI61
aI12
aI36
aI2
aI82
asg59
(lp2823
g59
ag61
aS'187.2'
p2824
aI193
aI80
aI71
aI17
aI45
aI0
aI138
asg68
(lp2825
g68
ag70
aS'  9.1'
p2826
aI20
aI11
aI11
aI4
aI3
aI0
aI9
asS'perkg001'
p2827
(lp2828
g2827
aS'Glen Perkins'
p2829
aS' 61.2'
p2830
aI62
aI29
aI25
aI7
aI11
aI2
aI66
asS'fujik001'
p2831
(lp2832
g2831
aS'Kyuji Fujikawa'
p2833
aS' 13.0'
p2834
aI18
aI8
aI7
aI2
aI6
aI2
aI17
asS'sanca006'
p2835
(lp2836
g2835
aS'Aaron Sanchez'
p2837
aS' 33.0'
p2838
aI14
aI5
aI4
aI1
aI9
aI0
aI27
asS'wilsa001'
p2839
(lp2840
g2839
aS'Alex Wilson'
p2841
aS' 28.1'
p2842
aI20
aI8
aI6
aI3
aI5
aI0
aI19
asS'pinoy001'
p2843
(lp2844
g2843
aS'Yohan Pino'
p2845
aS' 60.1'
p2846
aI66
aI37
aI34
aI8
aI14
aI0
aI50
asS'scrie001'
p2847
(lp2848
g2847
aS'Evan Scribner'
p2849
aS' 11.2'
p2850
aI11
aI6
aI6
aI4
aI0
aI0
aI11
asS'lecus001'
p2851
(lp2852
g2851
aS'Sam LeCure'
p2853
aS' 56.2'
p2854
aI62
aI27
aI24
aI6
aI24
aI1
aI48
asS'baezp001'
p2855
(lp2856
g2855
aS'Pedro Baez'
p2857
aS' 24.0'
p2858
aI16
aI7
aI7
aI3
aI5
aI1
aI18
asS'leond003'
p2859
(lp2860
g2859
aS'Dominic Leone'
p2861
aS' 66.1'
p2862
aI52
aI18
aI16
aI4
aI25
aI3
aI70
asg95
(lp2863
g95
ag97
aS'192.1'
p2864
aI195
aI86
aI75
aI21
aI54
aI2
aI146
asS'guerm001'
p2865
(lp2866
g2865
aS'Matt Guerrier'
p2867
aS' 28.0'
p2868
aI30
aI12
aI12
aI1
aI10
aI3
aI12
asS'barnm001'
p2869
(lp2870
g2869
aS'Matt Barnes'
p2871
aS'  9.0'
p2872
aI11
aI4
aI4
aI1
aI2
aI0
aI8
asS'marse001'
p2873
(lp2874
g2873
aS'Evan Marshall'
p2875
aS' 49.1'
p2876
aI50
aI17
aI15
aI3
aI17
aI3
aI54
asg701
(lp2877
g701
ag703
aS' 37.1'
p2878
aI53
aI23
aI22
aI3
aI9
aI1
aI24
asg119
(lp2879
g119
ag121
aS' 60.0'
p2880
aI49
aI30
aI28
aI4
aI30
aI5
aI61
asS'ramin001'
p2881
(lp2882
g2881
aS'Neil Ramirez'
p2883
aS' 43.2'
p2884
aI29
aI11
aI7
aI2
aI17
aI0
aI53
asg122
(lp2885
g122
ag124
aS' 21.2'
p2886
aI19
aI12
aI11
aI0
aI9
aI1
aI13
asS'putnz001'
p2887
(lp2888
g2887
aS'Zach Putnam'
p2889
aS' 54.2'
p2890
aI39
aI14
aI12
aI2
aI20
aI1
aI46
asS'valdr002'
p2891
(lp2892
g2891
aS'Raul Valdes'
p2893
aS'  3.2'
p2894
aI5
aI5
aI5
aI2
aI3
aI0
aI4
asg857
(lp2895
g857
ag859
aS'  1.0'
p2896
aI1
aI2
aI2
aI0
aI2
aI0
aI1
asg140
(lp2897
g140
ag142
aS'165.1'
p2898
aI149
aI68
aI67
aI20
aI52
aI2
aI139
asS'meeke001'
p2899
(lp2900
g2899
aS'Evan Meek'
p2901
aS' 23.1'
p2902
aI26
aI16
aI15
aI3
aI11
aI1
aI16
asS'bochb003'
p2903
(lp2904
g2903
aS'Brett Bochy'
p2905
aS'  3.1'
p2906
aI1
aI2
aI2
aI1
aI2
aI0
aI3
asS'lopew001'
p2907
(lp2908
g2907
aS'Wilton Lopez'
p2909
aS'  6.1'
p2910
aI18
aI8
aI8
aI3
aI0
aI0
aI4
asg959
(lp2911
g959
ag961
aS'125.1'
p2912
aI113
aI68
aI67
aI14
aI77
aI0
aI116
asg962
(lp2913
g962
ag964
aS' 59.0'
p2914
aI61
aI25
aI22
aI5
aI23
aI2
aI39
asg161
(lp2915
g161
ag163
aS' 53.1'
p2916
aI69
aI46
aI42
aI5
aI35
aI6
aI42
asS'adamm001'
p2917
(lp2918
g2917
aS'Mike Adams'
p2919
aS' 18.2'
p2920
aI16
aI8
aI6
aI1
aI8
aI1
aI21
asg164
(lp2921
g164
ag166
aS' 26.2'
p2922
aI37
aI25
aI20
aI10
aI8
aI1
aI20
asS'rodrw003'
p2923
(lp2924
g2923
aS'Wilking Rodriguez'
p2925
aS'  2.0'
p2926
aI1
aI0
aI0
aI0
aI1
aI0
aI1
asS'pryos001'
p2927
(lp2928
g2927
aS'Stephen Pryor'
p2929
aS'  1.2'
p2930
aI1
aI1
aI0
aI0
aI2
aI0
aI1
asS'britz001'
p2931
(lp2932
g2931
aS'Zach Britton'
p2933
aS' 76.1'
p2934
aI46
aI17
aI14
aI4
aI23
aI0
aI62
asS'hendl001'
p2935
(lp2936
g2935
aS'Liam Hendriks'
p2937
aS' 32.2'
p2938
aI38
aI21
aI19
aI3
aI7
aI0
aI23
asS'gregk001'
p2939
(lp2940
g2939
aS'Kevin Gregg'
p2941
aS'  9.0'
p2942
aI11
aI10
aI10
aI2
aI5
aI0
aI6
asg185
(lp2943
g185
ag187
aS'199.2'
p2944
aI223
aI107
aI97
aI14
aI43
aI5
aI142
asg188
(lp2945
g188
ag190
aS' 31.0'
p2946
aI23
aI6
aI5
aI2
aI5
aI0
aI28
asg191
(lp2947
g191
ag193
aS' 32.1'
p2948
aI33
aI22
aI22
aI4
aI7
aI1
aI29
asS'rodrh003'
p2949
(lp2950
g2949
aS'Henry Rodriguez'
p2951
aS'  1.2'
p2952
aI2
aI2
aI2
aI0
aI5
aI0
aI1
asS'kohnm001'
p2953
(lp2954
g2953
aS'Michael Kohn'
p2955
aS' 23.2'
p2956
aI11
aI9
aI8
aI1
aI20
aI1
aI26
asg206
(lp2957
g206
ag208
aS' 52.0'
p2958
aI53
aI41
aI39
aI10
aI24
aI1
aI47
asS'schet001'
p2959
(lp2960
g2959
aS'Tanner Scheppers'
p2961
aS' 23.0'
p2962
aI31
aI24
aI23
aI6
aI10
aI0
aI17
asS'smitj002'
p2963
(lp2964
g2963
aS'Joe Smith'
p2965
aS' 74.2'
p2966
aI45
aI16
aI15
aI4
aI15
aI3
aI68
asS'burtj001'
p2967
(lp2968
g2967
aS'Jared Burton'
p2969
aS' 64.0'
p2970
aI58
aI34
aI31
aI6
aI25
aI3
aI46
asg212
(lp2971
g212
ag214
aS'198.1'
p2972
aI183
aI87
aI78
aI22
aI45
aI0
aI141
asS'marte002'
p2973
(lp2974
g2973
aS'Ethan Martin'
p2975
aS'  4.0'
p2976
aI1
aI2
aI2
aI1
aI3
aI0
aI4
asS'nunel001'
p2977
(lp2978
g2977
aS'Juan Carlos Oviedo'
p2979
aS' 31.2'
p2980
aI27
aI14
aI13
aI3
aI16
aI1
aI26
asg221
(lp2981
g221
ag223
aS'164.0'
p2982
aI153
aI52
aI44
aI18
aI24
aI0
aI98
asg233
(lp2983
g233
ag235
aS'  7.1'
p2984
aI7
aI5
aI4
aI0
aI4
aI1
aI9
asg236
(lp2985
g236
ag238
aS' 77.2'
p2986
aI71
aI44
aI42
aI6
aI35
aI2
aI86
asg242
(lp2987
g242
ag244
aS' 44.1'
p2988
aI44
aI21
aI20
aI8
aI23
aI0
aI42
asS'reede002'
p2989
(lp2990
g2989
aS'Evan Reed'
p2991
aS' 32.1'
p2992
aI39
aI19
aI15
aI2
aI12
aI1
aI26
asg254
(lp2993
g254
ag256
aS'227.0'
p2994
aI224
aI95
aI81
aI23
aI44
aI0
aI180
asg257
(lp2995
g257
ag259
aS'  8.0'
p2996
aI13
aI7
aI7
aI1
aI1
aI1
aI5
asg1526
(lp2997
g1526
ag1528
aS'171.2'
p2998
aI151
aI58
aI53
aI16
aI45
aI1
aI170
asS'cishs001'
p2999
(lp3000
g2999
aS'Steve Cishek'
p3001
aS' 65.1'
p3002
aI58
aI26
aI23
aI3
aI21
aI2
aI84
asS'lobsk001'
p3003
(lp3004
g3003
aS'Kyle Lobstein'
p3005
aS' 39.1'
p3006
aI35
aI20
aI19
aI3
aI14
aI2
aI27
asS'uehak001'
p3007
(lp3008
g3007
aS'Koji Uehara'
p3009
aS' 64.1'
p3010
aI51
aI18
aI18
aI10
aI8
aI0
aI80
asS'sants001'
p3011
(lp3012
g3011
aS'Sergio Santos'
p3013
aS' 21.0'
p3014
aI28
aI22
aI20
aI5
aI18
aI2
aI29
asS'maron001'
p3015
(lp3016
g3015
aS'Nick Maronde'
p3017
aS'  6.1'
p3018
aI12
aI9
aI9
aI0
aI7
aI0
aI7
asg290
(lp3019
g290
ag292
aS' 34.2'
p3020
aI32
aI16
aI16
aI4
aI21
aI1
aI31
asg293
(lp3021
g293
ag295
aS'164.1'
p3022
aI164
aI65
aI61
aI26
aI54
aI1
aI116
asg296
(lp3023
g296
ag298
aS'  0.1'
p3024
aI0
aI0
aI0
aI0
aI0
aI0
aI0
asS'garcl005'
p3025
(lp3026
g3025
aS'Luis Garcia'
p3027
aS' 14.0'
p3028
aI14
aI12
aI10
aI2
aI13
aI0
aI12
asg299
(lp3029
g299
ag301
aS'  1.0'
p3030
aI1
aI2
aI2
aI0
aI2
aI0
aI0
asS'lee-c004'
p3031
(lp3032
g3031
aS'C.C. Lee'
p3033
aS' 28.0'
p3034
aI30
aI15
aI14
aI3
aI12
aI1
aI26
asS'tuivs001'
p3035
(lp3036
g3035
aS'Sam Tuivailala'
p3037
aS'  1.0'
p3038
aI5
aI4
aI4
aI2
aI2
aI0
aI1
asS'ramir003'
p3039
(lp3040
g3039
aS'Ramon Ramirez'
p3041
aS'  1.0'
p3042
aI0
aI0
aI0
aI0
aI1
aI0
aI2
asg317
(lp3043
g317
ag319
aS'154.2'
p3044
aI117
aI53
aI47
aI13
aI41
aI1
aI157
asg320
(lp3045
g320
ag322
aS' 69.1'
p3046
aI82
aI42
aI38
aI6
aI19
aI0
aI57
asg323
(lp3047
g323
ag325
aS'  1.0'
p3048
aI0
aI1
aI1
aI0
aI5
aI0
aI0
asg326
(lp3049
g326
ag328
aS' 16.0'
p3050
aI14
aI3
aI3
aI1
aI7
aI0
aI8
asg332
(lp3051
g332
ag334
aS'111.0'
p3052
aI112
aI56
aI54
aI10
aI39
aI3
aI67
asS'clemp002'
p3053
(lp3054
g3053
aS'Paul Clemens'
p3055
aS' 24.2'
p3056
aI28
aI20
aI16
aI5
aI13
aI1
aI16
asg1937
(lp3057
g1937
ag1939
aS' 58.2'
p3058
aI70
aI22
aI18
aI2
aI13
aI2
aI34
asg341
(lp3059
g341
ag343
aS' 63.0'
p3060
aI68
aI34
aI28
aI5
aI21
aI4
aI39
asg941
(lp3061
g941
ag943
aS'  1.0'
p3062
aI0
aI0
aI0
aI0
aI0
aI0
aI0
asS'bresc001'
p3063
(lp3064
g3063
aS'Craig Breslow'
p3065
aS' 54.1'
p3066
aI73
aI40
aI36
aI8
aI28
aI1
aI37
asg347
(lp3067
g347
ag349
aS' 35.1'
p3068
aI41
aI19
aI18
aI4
aI12
aI1
aI20
asS'roweb001'
p3069
(lp3070
g3069
aS'Ben Rowen'
p3071
aS'  8.2'
p3072
aI10
aI4
aI4
aI0
aI4
aI3
aI7
asS'surke001'
p3073
(lp3074
g3073
aS'Eric Surkamp'
p3075
aS' 24.1'
p3076
aI22
aI14
aI13
aI3
aI13
aI3
aI20
asS'lincb001'
p3077
(lp3078
g3077
aS'Brad Lincoln'
p3079
aS'  2.1'
p3080
aI5
aI3
aI3
aI1
aI0
aI0
aI2
asS'mccud001'
p3081
(lp3082
g3081
aS'Daniel McCutchen'
p3083
aS'  2.1'
p3084
aI4
aI3
aI2
aI1
aI2
aI0
aI0
asS'kirkm001'
p3085
(lp3086
g3085
aS'Michael Kirkman'
p3087
aS'  5.2'
p3088
aI5
aI1
aI1
aI0
aI1
aI0
aI3
asS'pomed001'
p3089
(lp3090
g3089
aS'Drew Pomeranz'
p3091
aS' 69.0'
p3092
aI51
aI22
aI18
aI7
aI26
aI0
aI64
asS'hageb001'
p3093
(lp3094
g3093
aS'Bradin Hagens'
p3095
aS'  2.2'
p3096
aI4
aI1
aI1
aI0
aI3
aI1
aI2
asS'alvaj003'
p3097
(lp3098
g3097
aS'Jose Alvarez'
p3099
aS'  0.2'
p3100
aI1
aI0
aI0
aI0
aI0
aI0
aI1
asS'chapk002'
p3101
(lp3102
g3101
aS'Kevin Chapman'
p3103
aS' 21.1'
p3104
aI22
aI11
aI11
aI3
aI11
aI0
aI19
asg377
(lp3105
g377
ag379
aS'196.1'
p3106
aI181
aI80
aI75
aI22
aI56
aI7
aI127
asS'downs001'
p3107
(lp3108
g3107
aS'Scott Downs'
p3109
aS' 38.0'
p3110
aI36
aI24
aI21
aI2
aI20
aI2
aI25
asS'veald001'
p3111
(lp3112
g3111
aS'Donnie Veal'
p3113
aS'  6.0'
p3114
aI6
aI5
aI5
aI0
aI7
aI1
aI6
asg2039
(lp3115
g2039
ag2041
aS'202.2'
p3116
aI196
aI91
aI84
aI23
aI63
aI2
aI158
asS'websa001'
p3117
(lp3118
g3117
aS'Allen Webster'
p3119
aS' 59.0'
p3120
aI58
aI35
aI33
aI3
aI28
aI0
aI36
asS'kells001'
p3121
(lp3122
g3121
aS'Shawn Kelley'
p3123
aS' 51.2'
p3124
aI45
aI26
aI26
aI5
aI20
aI4
aI67
asS'petrj001'
p3125
(lp3126
g3125
aS'Jake Petricka'
p3127
aS' 73.0'
p3128
aI67
aI24
aI24
aI3
aI33
aI4
aI55
asS'betad001'
p3129
(lp3130
g3129
aS'Dellin Betances'
p3131
aS' 90.0'
p3132
aI46
aI15
aI14
aI4
aI24
aI1
aI135
asg410
(lp3133
g410
ag412
aS'110.2'
p3134
aI123
aI76
aI69
aI9
aI55
aI2
aI105
asS'parnb001'
p3135
(lp3136
g3135
aS'Bobby Parnell'
p3137
aS'  1.0'
p3138
aI2
aI1
aI1
aI0
aI1
aI0
aI1
asg416
(lp3139
g416
ag418
aS'153.0'
p3140
aI151
aI76
aI71
aI16
aI60
aI4
aI143
asg422
(lp3141
g422
ag424
aS'  1.0'
p3142
aI1
aI0
aI0
aI0
aI0
aI0
aI0
asS'wootr001'
p3143
(lp3144
g3143
aS'Rob Wooten'
p3145
aS' 34.1'
p3146
aI42
aI18
aI18
aI1
aI8
aI0
aI29
asS'wangw001'
p3147
(lp3148
g3147
aS'Wei-Chung Wang'
p3149
aS' 17.1'
p3150
aI30
aI23
aI21
aI6
aI8
aI1
aI13
asg428
(lp3151
g428
ag430
aS'168.2'
p3152
aI124
aI51
aI49
aI5
aI51
aI1
aI164
asg2387
(lp3153
g2387
ag2389
aS' 10.1'
p3154
aI8
aI4
aI4
aI2
aI5
aI0
aI7
asg434
(lp3155
g434
ag436
aS' 78.1'
p3156
aI103
aI65
aI54
aI9
aI30
aI2
aI51
asg437
(lp3157
g437
ag439
aS' 56.1'
p3158
aI58
aI29
aI26
aI2
aI19
aI4
aI31
asg446
(lp3159
g446
ag448
aS'198.2'
p3160
aI198
aI88
aI78
aI23
aI61
aI0
aI154
asg449
(lp3161
g449
ag451
aS'214.1'
p3162
aI217
aI93
aI88
aI23
aI50
aI3
aI164
asg77
(lp3163
g77
ag79
aS'  1.0'
p3164
aI1
aI0
aI0
aI0
aI0
aI0
aI0
asS'crowa001'
p3165
(lp3166
g3165
aS'Aaron Crow'
p3167
aS' 59.0'
p3168
aI52
aI32
aI27
aI10
aI24
aI1
aI34
asS'rothm001'
p3169
(lp3170
g3169
aS'Michael Roth'
p3171
aS' 12.1'
p3172
aI16
aI12
aI12
aI2
aI9
aI2
aI9
asS'waldj001'
p3173
(lp3174
g3173
aS'Jordan Walden'
p3175
aS' 50.0'
p3176
aI33
aI17
aI16
aI2
aI27
aI1
aI62
asS'leblw001'
p3177
(lp3178
g3177
aS'Wade LeBlanc'
p3179
aS' 29.2'
p3180
aI27
aI13
aI13
aI2
aI7
aI2
aI21
asS'withc001'
p3181
(lp3182
g3181
aS'Chris Withrow'
p3183
aS' 21.1'
p3184
aI10
aI8
aI7
aI1
aI18
aI0
aI28
asS'cabrc001'
p3185
(lp3186
g3185
aS'Cesar Cabral'
p3187
aS'  1.0'
p3188
aI4
aI3
aI3
aI0
aI2
aI0
aI2
asg491
(lp3189
g491
ag493
aS' 75.2'
p3190
aI94
aI44
aI44
aI10
aI18
aI0
aI60
asS'pestv001'
p3191
(lp3192
g3191
aS'Vinnie Pestano'
p3193
aS' 18.2'
p3194
aI18
aI8
aI6
aI3
aI5
aI0
aI26
asS'gilek001'
p3195
(lp3196
g3195
aS'Ken Giles'
p3197
aS' 45.2'
p3198
aI25
aI7
aI6
aI1
aI11
aI1
aI64
asg497
(lp3199
g497
ag499
aS' 64.1'
p3200
aI51
aI21
aI14
aI4
aI19
aI5
aI36
asg500
(lp3201
g500
ag502
aS' 14.0'
p3202
aI13
aI6
aI6
aI0
aI8
aI1
aI10
asg503
(lp3203
g503
ag505
aS' 66.1'
p3204
aI45
aI19
aI19
aI5
aI18
aI3
aI51
asS'edwaj001'
p3205
(lp3206
g3205
aS'Jon Edwards'
p3207
aS'  8.1'
p3208
aI13
aI5
aI4
aI0
aI5
aI0
aI9
asS'ryank002'
p3209
(lp3210
g3209
aS'Kyle Ryan'
p3211
aS' 10.1'
p3212
aI10
aI3
aI3
aI0
aI2
aI0
aI4
asg521
(lp3213
g521
ag523
aS'227.0'
p3214
aI184
aI64
aI60
aI10
aI50
aI5
aI179
asS'wrigw001'
p3215
(lp3216
g3215
aS'Wesley Wright'
p3217
aS' 48.1'
p3218
aI48
aI19
aI17
aI2
aI19
aI2
aI37
asS'cedex001'
p3219
(lp3220
g3219
aS'Xavier Cedeno'
p3221
aS'  7.0'
p3222
aI10
aI4
aI3
aI1
aI0
aI0
aI5
asg527
(lp3223
g527
ag529
aS'157.1'
p3224
aI143
aI76
aI65
aI9
aI57
aI2
aI126
asS'bedae001'
p3225
(lp3226
g3225
aS'Erik Bedard'
p3227
aS' 75.2'
p3228
aI84
aI46
aI40
aI10
aI29
aI0
aI64
asg539
(lp3229
g539
ag541
aS' 73.1'
p3230
aI57
aI26
aI25
aI4
aI32
aI1
aI70
asg542
(lp3231
g542
ag544
aS' 75.0'
p3232
aI73
aI33
aI27
aI5
aI27
aI6
aI60
asg560
(lp3233
g560
ag562
aS'128.2'
p3234
aI141
aI90
aI84
aI12
aI69
aI2
aI116
asS'oberb001'
p3235
(lp3236
g3235
aS'Brett Oberholtzer'
p3237
aS'143.2'
p3238
aI170
aI73
aI70
aI12
aI28
aI0
aI94
asS'verhd001'
p3239
(lp3240
g3239
aS'Drew VerHagen'
p3241
aS'  5.0'
p3242
aI5
aI3
aI3
aI0
aI3
aI0
aI4
asg92
(lp3243
g92
ag94
aS' 82.0'
p3244
aI80
aI41
aI38
aI13
aI33
aI1
aI61
asg2384
(lp3245
g2384
ag2386
aS' 75.1'
p3246
aI82
aI44
aI44
aI13
aI34
aI2
aI60
asg572
(lp3247
g572
ag574
aS' 64.1'
p3248
aI58
aI17
aI13
aI6
aI24
aI6
aI50
asg575
(lp3249
g575
ag577
aS' 33.1'
p3250
aI37
aI21
aI21
aI2
aI18
aI0
aI30
asS'elbes001'
p3251
(lp3252
g3251
aS'Scott Elbert'
p3253
aS'  4.1'
p3254
aI4
aI1
aI1
aI0
aI1
aI0
aI2
asg578
(lp3255
g578
ag580
aS' 43.1'
p3256
aI44
aI18
aI14
aI1
aI13
aI3
aI29
asS'nerih001'
p3257
(lp3258
g3257
aS'Hector Neris'
p3259
aS'  1.0'
p3260
aI0
aI0
aI0
aI0
aI0
aI0
aI1
asg1979
(lp3261
g1979
ag1981
aS'204.2'
p3262
aI176
aI60
aI56
aI14
aI59
aI3
aI198
asg587
(lp3263
g587
ag589
aS' 26.0'
p3264
aI20
aI9
aI8
aI3
aI5
aI1
aI21
asg689
(lp3265
g689
ag691
aS'127.1'
p3266
aI120
aI63
aI53
aI15
aI53
aI3
aI108
asS'owenr001'
p3267
(lp3268
g3267
aS'Rudy Owens'
p3269
aS'  5.2'
p3270
aI9
aI5
aI5
aI1
aI2
aI0
aI1
asS'gregl001'
p3271
(lp3272
g3271
aS'Luke Gregerson'
p3273
aS' 72.1'
p3274
aI58
aI20
aI17
aI6
aI15
aI3
aI59
asS'mccop001'
p3275
(lp3276
g3275
aS'Pat McCoy'
p3277
aS' 14.0'
p3278
aI21
aI6
aI6
aI0
aI13
aI3
aI11
asg602
(lp3279
g602
ag604
aS' 36.0'
p3280
aI36
aI19
aI19
aI5
aI5
aI1
aI17
asS'farmb001'
p3281
(lp3282
g3281
aS'Buck Farmer'
p3283
aS'  9.1'
p3284
aI12
aI12
aI12
aI2
aI5
aI0
aI11
asg905
(lp3285
g905
ag907
aS'201.1'
p3286
aI207
aI103
aI97
aI23
aI75
aI3
aI183
asg638
(lp3287
g638
ag640
aS' 61.1'
p3288
aI71
aI34
aI34
aI6
aI15
aI1
aI46
asS'wagnn001'
p3289
(lp3290
g3289
aS'Neil Wagner'
p3291
aS' 10.0'
p3292
aI12
aI9
aI9
aI1
aI4
aI0
aI6
asS'bedrc001'
p3293
(lp3294
g3293
aS'Cam Bedrosian'
p3295
aS' 19.1'
p3296
aI23
aI17
aI14
aI2
aI12
aI1
aI20
asg1232
(lp3297
g1232
ag1234
aS'  2.0'
p3298
aI4
aI1
aI1
aI0
aI0
aI0
aI2
asS'ogana001'
p3299
(lp3300
g3299
aS'Alexi Ogando'
p3301
aS' 25.0'
p3302
aI33
aI19
aI19
aI1
aI15
aI1
aI22
asS'kickm001'
p3303
(lp3304
g3303
aS'Mike Kickham'
p3305
aS'  2.0'
p3306
aI8
aI5
aI5
aI1
aI1
aI0
aI1
asg692
(lp3307
g692
ag694
aS' 54.1'
p3308
aI55
aI23
aI16
aI6
aI13
aI0
aI45
asS'stitm001'
p3309
(lp3310
g3309
aS'Matt Stites'
p3311
aS' 33.0'
p3312
aI33
aI23
aI21
aI6
aI16
aI1
aI26
asS'aceva001'
p3313
(lp3314
g3313
aS'Alfredo Aceves'
p3315
aS' 19.1'
p3316
aI23
aI14
aI14
aI6
aI4
aI0
aI16
asg707
(lp3317
g707
ag709
aS' 41.0'
p3318
aI50
aI26
aI25
aI5
aI16
aI1
aI42
asS'roseb003'
p3319
(lp3320
g3319
aS'B.J. Rosenberg'
p3321
aS' 12.0'
p3322
aI20
aI10
aI9
aI5
aI7
aI0
aI9
asS'mujie001'
p3323
(lp3324
g3323
aS'Edward Mujica'
p3325
aS' 60.0'
p3326
aI69
aI28
aI26
aI6
aI14
aI2
aI43
asg2525
(lp3327
g2525
ag2527
aS'  9.0'
p3328
aI16
aI9
aI9
aI0
aI3
aI1
aI5
asg731
(lp3329
g731
ag733
aS'156.2'
p3330
aI114
aI46
aI44
aI5
aI41
aI2
aI167
asS'rodrp001'
p3331
(lp3332
g3331
aS'Paco Rodriguez'
p3333
aS' 14.0'
p3334
aI12
aI6
aI6
aI1
aI4
aI0
aI14
asS'vargj001'
p3335
(lp3336
g3335
aS'Jason Vargas'
p3337
aS'187.0'
p3338
aI197
aI82
aI77
aI19
aI41
aI4
aI128
asg1511
(lp3339
g1511
ag1513
aS' 19.1'
p3340
aI19
aI16
aI14
aI2
aI17
aI0
aI19
asg743
(lp3341
g743
ag745
aS'207.1'
p3342
aI189
aI83
aI77
aI21
aI66
aI1
aI150
asg752
(lp3343
g752
ag754
aS'140.1'
p3344
aI117
aI44
aI42
aI7
aI43
aI2
aI144
asg2759
(lp3345
g2759
ag2761
aS'166.1'
p3346
aI142
aI56
aI53
aI11
aI47
aI1
aI149
asg1556
(lp3347
g1556
ag1558
aS'168.0'
p3348
aI156
aI79
aI77
aI20
aI59
aI0
aI174
asS'cookr001'
p3349
(lp3350
g3349
aS'Ryan Cook'
p3351
aS' 50.0'
p3352
aI32
aI19
aI19
aI3
aI22
aI1
aI50
asg776
(lp3353
g776
ag778
aS'137.1'
p3354
aI128
aI61
aI61
aI18
aI43
aI0
aI94
asg1709
(lp3355
g1709
ag1711
aS'221.0'
p3356
aI188
aI82
aI71
aI22
aI51
aI4
aI186
asg791
(lp3357
g791
ag793
aS'161.2'
p3358
aI157
aI89
aI82
aI25
aI46
aI1
aI129
asS'riena001'
p3359
(lp3360
g3359
aS'Andre Rienzo'
p3361
aS' 64.2'
p3362
aI82
aI54
aI49
aI12
aI33
aI0
aI51
asg794
(lp3363
g794
ag796
aS' 52.1'
p3364
aI66
aI36
aI32
aI7
aI17
aI1
aI48
asg797
(lp3365
g797
ag799
aS' 57.2'
p3366
aI45
aI20
aI19
aI3
aI20
aI3
aI42
asg803
(lp3367
g803
ag805
aS'185.1'
p3368
aI167
aI84
aI73
aI14
aI79
aI3
aI187
asS'neshp001'
p3369
(lp3370
g3369
aS'Pat Neshek'
p3371
aS' 67.1'
p3372
aI44
aI14
aI14
aI4
aI9
aI2
aI68
asg812
(lp3373
g812
ag814
aS'142.1'
p3374
aI166
aI90
aI85
aI24
aI65
aI4
aI100
asS'shawb001'
p3375
(lp3376
g3375
aS'Bryan Shaw'
p3377
aS' 76.1'
p3378
aI61
aI26
aI22
aI6
aI22
aI4
aI64
asS'carpd001'
p3379
(lp3380
g3379
aS'David Carpenter'
p3381
aS' 64.0'
p3382
aI62
aI27
aI24
aI5
aI16
aI0
aI67
asS'jeffj001'
p3383
(lp3384
g3383
aS'Jeremy Jeffress'
p3385
aS' 32.0'
p3386
aI35
aI10
aI10
aI1
aI10
aI2
aI29
asg824
(lp3387
g824
ag826
aS' 62.2'
p3388
aI38
aI19
aI19
aI5
aI8
aI1
aI89
asg827
(lp3389
g827
ag829
aS' 68.2'
p3390
aI51
aI39
aI32
aI7
aI31
aI2
aI63
asS'fienc001'
p3391
(lp3392
g3391
aS'Casey Fien'
p3393
aS' 63.1'
p3394
aI64
aI29
aI28
aI7
aI10
aI0
aI51
asg833
(lp3395
g833
ag835
aS' 20.2'
p3396
aI29
aI22
aI21
aI5
aI11
aI0
aI19
asg839
(lp3397
g839
ag841
aS' 46.0'
p3398
aI58
aI31
aI27
aI10
aI10
aI0
aI48
asS'achta001'
p3399
(lp3400
g3399
aS'A.J. Achter'
p3401
aS' 11.0'
p3402
aI14
aI7
aI4
aI2
aI3
aI0
aI5
asg860
(lp3403
g860
ag862
aS'209.2'
p3404
aI221
aI88
aI82
aI16
aI16
aI1
aI186
asg611
(lp3405
g611
ag613
aS'200.0'
p3406
aI222
aI100
aI90
aI25
aI33
aI4
aI175
asg866
(lp3407
g866
ag868
aS' 18.1'
p3408
aI14
aI6
aI6
aI5
aI4
aI1
aI20
asS'cokep001'
p3409
(lp3410
g3409
aS'Phil Coke'
p3411
aS' 58.0'
p3412
aI69
aI28
aI25
aI5
aI20
aI2
aI41
asg875
(lp3413
g875
ag877
aS'202.2'
p3414
aI215
aI100
aI93
aI23
aI49
aI0
aI124
asS'rodnf001'
p3415
(lp3416
g3415
aS'Fernando Rodney'
p3417
aS' 66.1'
p3418
aI61
aI24
aI21
aI3
aI28
aI3
aI76
asg890
(lp3419
g890
ag892
aS'163.2'
p3420
aI151
aI77
aI70
aI16
aI64
aI3
aI143
asS'colec001'
p3421
(lp3422
g3421
aS'Casey Coleman'
p3423
aS' 12.0'
p3424
aI16
aI8
aI7
aI0
aI6
aI0
aI5
asg893
(lp3425
g893
ag895
aS'102.1'
p3426
aI92
aI42
aI37
aI9
aI26
aI2
aI74
asg896
(lp3427
g896
ag898
aS'154.0'
p3428
aI191
aI104
aI93
aI20
aI40
aI2
aI79
asS'grubj002'
p3429
(lp3430
g3429
aS'Jarrett Grube'
p3431
aS'  0.2'
p3432
aI1
aI1
aI1
aI1
aI0
aI0
aI0
asS'odayd001'
p3433
(lp3434
g3433
aS"Darren O'Day"
p3435
aS' 68.2'
p3436
aI42
aI14
aI13
aI6
aI19
aI4
aI73
asS'rzepm001'
p3437
(lp3438
g3437
aS'Marc Rzepczynski'
p3439
aS' 46.0'
p3440
aI42
aI19
aI14
aI1
aI19
aI3
aI46
asS'tomlj001'
p3441
(lp3442
g3441
aS'Josh Tomlin'
p3443
aS'104.0'
p3444
aI120
aI66
aI55
aI18
aI14
aI3
aI94
asS'mitcb001'
p3445
(lp3446
g3445
aS'Bryan Mitchell'
p3447
aS' 11.0'
p3448
aI10
aI3
aI3
aI0
aI3
aI0
aI7
asg1994
(lp3449
g1994
ag1996
aS' 18.1'
p3450
aI35
aI24
aI23
aI6
aI12
aI1
aI14
asg149
(lp3451
g149
ag151
aS'170.1'
p3452
aI211
aI107
aI98
aI25
aI48
aI5
aI133
asS'germj001'
p3453
(lp3454
g3453
aS'Justin Germano'
p3455
aS'  5.1'
p3456
aI8
aI7
aI7
aI1
aI3
aI1
aI3
asS'papej001'
p3457
(lp3458
g3457
aS'Jonathan Papelbon'
p3459
aS' 66.1'
p3460
aI45
aI15
aI15
aI2
aI15
aI1
aI63
asS'strih001'
p3461
(lp3462
g3461
aS'Hunter Strickland'
p3463
aS'  7.0'
p3464
aI5
aI0
aI0
aI0
aI0
aI0
aI9
asS'daviw001'
p3465
(lp3466
g3465
aS'Wade Davis'
p3467
aS' 72.0'
p3468
aI38
aI8
aI8
aI0
aI23
aI0
aI109
asS'jenkc001'
p3469
(lp3470
g3469
aS'Chad Jenkins'
p3471
aS' 31.2'
p3472
aI34
aI10
aI9
aI2
aI6
aI1
aI18
asS'thiec001'
p3473
(lp3474
g3473
aS'Caleb Thielbar'
p3475
aS' 47.2'
p3476
aI51
aI19
aI18
aI3
aI16
aI1
aI35
asg974
(lp3477
g974
ag976
aS' 64.2'
p3478
aI34
aI17
aI17
aI9
aI20
aI0
aI104
asS'walkt004'
p3479
(lp3480
g3479
aS'Taijuan Walker'
p3481
aS' 38.0'
p3482
aI31
aI12
aI11
aI2
aI18
aI1
aI34
asg980
(lp3483
g980
ag982
aS' 26.0'
p3484
aI34
aI20
aI19
aI3
aI13
aI0
aI13
asg983
(lp3485
g983
ag985
aS' 77.1'
p3486
aI59
aI26
aI19
aI3
aI32
aI5
aI73
asS'pattr002'
p3487
(lp3488
g3487
aS'Red Patterson'
p3489
aS'  4.2'
p3490
aI2
aI1
aI1
aI0
aI3
aI0
aI1
asg2270
(lp3491
g2270
ag2272
aS'176.0'
p3492
aI197
aI93
aI84
aI26
aI45
aI3
aI111
asg995
(lp3493
g995
ag997
aS'163.1'
p3494
aI143
aI77
aI66
aI12
aI50
aI2
aI126
asg998
(lp3495
g998
ag1000
aS'113.1'
p3496
aI111
aI48
aI45
aI7
aI38
aI0
aI88
asg1001
(lp3497
g1001
ag1003
aS'219.2'
p3498
aI191
aI86
aI73
aI20
aI43
aI3
aI202
asg1004
(lp3499
g1004
ag1006
aS' 36.2'
p3500
aI33
aI23
aI18
aI4
aI11
aI2
aI36
asS'clipt001'
p3501
(lp3502
g3501
aS'Tyler Clippard'
p3503
aS' 70.1'
p3504
aI47
aI22
aI17
aI5
aI23
aI1
aI82
asg209
(lp3505
g209
ag211
aS' 65.1'
p3506
aI53
aI19
aI17
aI9
aI16
aI3
aI62
asg1031
(lp3507
g1031
ag1033
aS' 24.0'
p3508
aI21
aI13
aI12
aI4
aI8
aI0
aI20
asg1130
(lp3509
g1130
ag1132
aS' 14.2'
p3510
aI11
aI7
aI7
aI1
aI7
aI1
aI12
asg356
(lp3511
g356
ag358
aS'  7.0'
p3512
aI12
aI7
aI7
aI0
aI3
aI0
aI6
asg1043
(lp3513
g1043
ag1045
aS' 59.0'
p3514
aI55
aI34
aI34
aI5
aI16
aI2
aI34
asg380
(lp3515
g380
ag382
aS'159.0'
p3516
aI203
aI96
aI95
aI22
aI38
aI1
aI115
asg431
(lp3517
g431
ag433
aS'243.2'
p3518
aI169
aI69
aI61
aI22
aI65
aI2
aI242
asg1061
(lp3519
g1061
ag1063
aS' 29.1'
p3520
aI32
aI19
aI19
aI6
aI7
aI0
aI20
asS'cappc001'
p3521
(lp3522
g3521
aS'Carter Capps'
p3523
aS' 20.1'
p3524
aI19
aI9
aI9
aI1
aI5
aI0
aI25
asg1070
(lp3525
g1070
ag1072
aS' 93.2'
p3526
aI98
aI41
aI38
aI9
aI41
aI8
aI98
asg1778
(lp3527
g1778
ag1780
aS' 87.0'
p3528
aI88
aI57
aI50
aI11
aI36
aI0
aI70
asg1082
(lp3529
g1082
ag1084
aS'175.2'
p3530
aI169
aI95
aI88
aI17
aI85
aI5
aI151
asg1085
(lp3531
g1085
ag1087
aS'172.1'
p3532
aI180
aI98
aI91
aI28
aI56
aI1
aI123
asS'reeda001'
p3533
(lp3534
g3533
aS'Addison Reed'
p3535
aS' 59.1'
p3536
aI57
aI31
aI28
aI11
aI15
aI2
aI69
asS'grilj001'
p3537
(lp3538
g3537
aS'Jason Grilli'
p3539
aS' 54.0'
p3540
aI51
aI26
aI24
aI4
aI21
aI2
aI57
asS'camps002'
p3541
(lp3542
g3541
aS'Shawn Camp'
p3543
aS'  3.1'
p3544
aI7
aI2
aI2
aI1
aI0
aI0
aI1
asS'smitw002'
p3545
(lp3546
g3545
aS'Will Smith'
p3547
aS' 65.2'
p3548
aI62
aI31
aI27
aI6
aI31
aI6
aI86
asS'oflae001'
p3549
(lp3550
g3549
aS"Eric O'Flaherty"
p3551
aS' 20.0'
p3552
aI15
aI5
aI5
aI3
aI4
aI0
aI15
asg1106
(lp3553
g1106
ag1108
aS' 16.0'
p3554
aI23
aI12
aI12
aI2
aI7
aI1
aI3
asg647
(lp3555
g647
ag649
aS' 24.2'
p3556
aI42
aI26
aI25
aI4
aI10
aI2
aI13
asS'grees005'
p3557
(lp3558
g3557
aS'Shane Greene'
p3559
aS' 78.2'
p3560
aI81
aI38
aI33
aI8
aI29
aI0
aI81
asS'forne001'
p3561
(lp3562
g3561
aS'Eric Fornataro'
p3563
aS'  9.2'
p3564
aI11
aI6
aI5
aI0
aI1
aI0
aI3
asS'thomt001'
p3565
(lp3566
g3565
aS'Taylor Thompson'
p3567
aS'  5.1'
p3568
aI9
aI6
aI6
aI1
aI4
aI0
aI4
asg1121
(lp3569
g1121
ag1123
aS' 11.1'
p3570
aI16
aI9
aI9
aI3
aI5
aI0
aI8
asS'cisnj001'
p3571
(lp3572
g3571
aS'Jose Cisnero'
p3573
aS'  4.2'
p3574
aI8
aI5
aI5
aI0
aI4
aI0
aI5
asg179
(lp3575
g179
ag181
aS' 25.2'
p3576
aI34
aI20
aI16
aI3
aI8
aI1
aI17
asg86
(lp3577
g86
ag88
aS'126.0'
p3578
aI108
aI55
aI48
aI4
aI30
aI1
aI102
asS'strom001'
p3579
(lp3580
g3579
aS'Marcus Stroman'
p3581
aS'130.2'
p3582
aI125
aI56
aI53
aI7
aI28
aI1
aI111
asS'jaimj001'
p3583
(lp3584
g3583
aS'Juan Jaime'
p3585
aS' 12.1'
p3586
aI14
aI8
aI8
aI1
aI9
aI0
aI18
asg965
(lp3587
g965
ag967
aS'219.2'
p3588
aI194
aI76
aI60
aI16
aI48
aI0
aI220
asg1148
(lp3589
g1148
ag1150
aS'113.0'
p3590
aI115
aI62
aI55
aI13
aI46
aI2
aI92
asS'dalem002'
p3591
(lp3592
g3591
aS'Matt Daley'
p3593
aS' 14.1'
p3594
aI12
aI11
aI8
aI4
aI6
aI1
aI10
asS'lopej002'
p3595
(lp3596
g3595
aS'Javier Lopez'
p3597
aS' 37.2'
p3598
aI31
aI14
aI13
aI2
aI19
aI6
aI22
asS'varva001'
p3599
(lp3600
g3599
aS'Anthony Varvaro'
p3601
aS' 54.2'
p3602
aI46
aI18
aI16
aI5
aI13
aI1
aI50
asg1160
(lp3603
g1160
ag1162
aS' 83.1'
p3604
aI62
aI38
aI36
aI6
aI50
aI5
aI78
asS'knebc001'
p3605
(lp3606
g3605
aS'Corey Knebel'
p3607
aS'  8.2'
p3608
aI11
aI7
aI6
aI0
aI3
aI0
aI11
asS'camia001'
p3609
(lp3610
g3609
aS'Arquimedes Caminero'
p3611
aS'  6.2'
p3612
aI8
aI8
aI8
aI2
aI4
aI0
aI8
asS'melam001'
p3613
(lp3614
g3613
aS'Mark Melancon'
p3615
aS' 71.0'
p3616
aI51
aI15
aI15
aI2
aI11
aI1
aI71
asS'smitc004'
p3617
(lp3618
g3617
aS'Carson Smith'
p3619
aS'  8.1'
p3620
aI2
aI0
aI0
aI0
aI3
aI0
aI10
asS'roe-c001'
p3621
(lp3622
g3621
aS'Chaz Roe'
p3623
aS'  2.0'
p3624
aI3
aI3
aI2
aI0
aI3
aI0
aI4
asS'smitc003'
p3625
(lp3626
g3625
aS'Chad Smith'
p3627
aS' 11.2'
p3628
aI15
aI7
aI7
aI1
aI3
aI0
aI9
asg1175
(lp3629
g1175
ag1177
aS'  1.2'
p3630
aI2
aI2
aI2
aI1
aI0
aI0
aI2
asg1163
(lp3631
g1163
ag1165
aS'198.1'
p3632
aI139
aI42
aI39
aI9
aI31
aI0
aI239
asS'crock001'
p3633
(lp3634
g3633
aS'Kyle Crockett'
p3635
aS' 30.0'
p3636
aI26
aI6
aI6
aI2
aI8
aI2
aI28
asS'blevj001'
p3637
(lp3638
g3637
aS'Jerry Blevins'
p3639
aS' 57.1'
p3640
aI48
aI31
aI31
aI3
aI23
aI6
aI66
asS'broxj001'
p3641
(lp3642
g3641
aS'Jonathan Broxton'
p3643
aS' 58.2'
p3644
aI41
aI15
aI15
aI4
aI19
aI0
aI49
asg1298
(lp3645
g1298
ag1300
aS' 63.0'
p3646
aI65
aI23
aI18
aI0
aI27
aI5
aI38
asg1199
(lp3647
g1199
ag1201
aS'185.2'
p3648
aI193
aI77
aI73
aI23
aI35
aI2
aI136
asS'dunnj001'
p3649
(lp3650
g3649
aS'Jake Dunning'
p3651
aS'  0.2'
p3652
aI0
aI0
aI0
aI0
aI1
aI0
aI0
asg1064
(lp3653
g1064
ag1066
aS'107.0'
p3654
aI95
aI41
aI38
aI6
aI33
aI0
aI94
asg1214
(lp3655
g1214
ag1216
aS' 51.1'
p3656
aI50
aI25
aI25
aI3
aI19
aI1
aI35
asS'goede001'
p3657
(lp3658
g3657
aS'Erik Goeddel'
p3659
aS'  6.2'
p3660
aI3
aI2
aI2
aI0
aI4
aI1
aI6
asg338
(lp3661
g338
ag340
aS' 77.2'
p3662
aI89
aI42
aI40
aI6
aI19
aI4
aI72
asg1220
(lp3663
g1220
ag1222
aS'164.2'
p3664
aI156
aI84
aI75
aI19
aI73
aI7
aI105
asg2495
(lp3665
g2495
ag2497
aS' 21.0'
p3666
aI24
aI9
aI7
aI1
aI10
aI3
aI16
asS'herry001'
p3667
(lp3668
g3667
aS'Yoslan Herrera'
p3669
aS' 16.2'
p3670
aI22
aI5
aI5
aI0
aI9
aI3
aI13
asS'tazaj001'
p3671
(lp3672
g3671
aS'Junichi Tazawa'
p3673
aS' 63.0'
p3674
aI58
aI23
aI20
aI5
aI17
aI1
aI64
asg1586
(lp3675
g1586
ag1588
aS' 32.2'
p3676
aI42
aI23
aI18
aI6
aI13
aI4
aI28
asS'pereo002'
p3677
(lp3678
g3677
aS'Oliver Perez'
p3679
aS' 58.2'
p3680
aI50
aI25
aI19
aI5
aI24
aI2
aI76
asg1235
(lp3681
g1235
ag1237
aS'213.1'
p3682
aI193
aI87
aI85
aI27
aI65
aI1
aI169
asg1241
(lp3683
g1241
ag1243
aS'  1.0'
p3684
aI2
aI1
aI1
aI0
aI1
aI0
aI0
asg1244
(lp3685
g1244
ag1246
aS' 54.1'
p3686
aI52
aI23
aI20
aI3
aI13
aI2
aI32
asg1247
(lp3687
g1247
ag1249
aS' 21.0'
p3688
aI22
aI3
aI2
aI1
aI8
aI0
aI23
asS'jennd003'
p3689
(lp3690
g3689
aS'Dan Jennings'
p3691
aS' 40.1'
p3692
aI45
aI11
aI6
aI3
aI17
aI1
aI38
asg17
(lp3693
g17
ag19
aS'110.2'
p3694
aI112
aI43
aI35
aI9
aI22
aI1
aI79
asS'choar001'
p3695
(lp3696
g3695
aS'Randy Choate'
p3697
aS' 36.0'
p3698
aI27
aI18
aI18
aI2
aI13
aI2
aI32
asg830
(lp3699
g830
ag832
aS' 74.0'
p3700
aI60
aI29
aI25
aI3
aI29
aI2
aI59
asg1271
(lp3701
g1271
ag1273
aS' 86.0'
p3702
aI96
aI54
aI50
aI7
aI28
aI1
aI74
asg1277
(lp3703
g1277
ag1279
aS'186.0'
p3704
aI183
aI101
aI83
aI27
aI36
aI7
aI145
asS'parkb001'
p3705
(lp3706
g3705
aS'Blake Parker'
p3707
aS' 21.0'
p3708
aI24
aI13
aI12
aI3
aI4
aI0
aI24
asg1826
(lp3709
g1826
ag1828
aS'131.2'
p3710
aI136
aI80
aI69
aI20
aI70
aI4
aI119
asg1307
(lp3711
g1307
ag1309
aS'136.0'
p3712
aI122
aI49
aI46
aI14
aI24
aI0
aI124
asS'hembh001'
p3713
(lp3714
g3713
aS'Heath Hembree'
p3715
aS' 10.0'
p3716
aI11
aI5
aI5
aI1
aI5
aI2
aI6
asS'rodrf003'
p3717
(lp3718
g3717
aS'Francisco Rodriguez'
p3719
aS' 68.0'
p3720
aI49
aI23
aI23
aI14
aI18
aI1
aI73
asg1325
(lp3721
g1325
ag1327
aS' 67.0'
p3722
aI60
aI29
aI26
aI5
aI24
aI6
aI54
asS'rodrf004'
p3723
(lp3724
g3723
aS'Fernando Rodriguez'
p3725
aS'  9.0'
p3726
aI4
aI1
aI1
aI0
aI2
aI0
aI4
asg2075
(lp3727
g2075
ag2077
aS'131.1'
p3728
aI127
aI63
aI57
aI16
aI40
aI2
aI89
asS'mottj001'
p3729
(lp3730
g3729
aS'Jason Motte'
p3731
aS' 25.0'
p3732
aI29
aI14
aI13
aI7
aI9
aI0
aI17
asS'collt001'
p3733
(lp3734
g3733
aS'Tim Collins'
p3735
aS' 21.0'
p3736
aI18
aI9
aI9
aI2
aI11
aI0
aI15
asS'could001'
p3737
(lp3738
g3737
aS'Daniel Coulombe'
p3739
aS'  4.1'
p3740
aI5
aI3
aI2
aI1
aI2
aI0
aI4
asS'hollg001'
p3741
(lp3742
g3741
aS'Greg Holland'
p3743
aS' 62.1'
p3744
aI37
aI13
aI10
aI3
aI20
aI0
aI90
asS'josed001'
p3745
(lp3746
g3745
aS'Donnie Joseph'
p3747
aS'  0.2'
p3748
aI5
aI6
aI6
aI1
aI1
aI0
aI2
asS'delej002'
p3749
(lp3750
g3749
aS'Jorge De Leon'
p3751
aS'  7.1'
p3752
aI9
aI4
aI4
aI2
aI3
aI0
aI4
asS'kleip001'
p3753
(lp3754
g3753
aS'Phil Klein'
p3755
aS' 19.0'
p3756
aI11
aI6
aI6
aI3
aI10
aI5
aI23
asS'buehm001'
p3757
(lp3758
g3757
aS'Mark Buehrle'
p3759
aS'202.0'
p3760
aI228
aI83
aI76
aI15
aI46
aI0
aI119
asg2216
(lp3761
g2216
ag2218
aS'199.2'
p3762
aI185
aI67
aI59
aI13
aI29
aI0
aI182
asg2234
(lp3763
g2234
ag2236
aS'165.0'
p3764
aI143
aI70
aI67
aI26
aI60
aI3
aI108
asS'brooa001'
p3765
(lp3766
g3765
aS'Aaron Brooks'
p3767
aS'  2.2'
p3768
aI12
aI13
aI13
aI1
aI3
aI0
aI2
asS'lindm001'
p3769
(lp3770
g3769
aS'Matt Lindstrom'
p3771
aS' 34.0'
p3772
aI47
aI23
aI19
aI3
aI12
aI0
aI18
asS'millj005'
p3773
(lp3774
g3773
aS'Jim Miller'
p3775
aS'  2.2'
p3776
aI7
aI6
aI6
aI3
aI2
aI0
aI2
asS'millj006'
p3777
(lp3778
g3777
aS'Justin Miller'
p3779
aS' 12.1'
p3780
aI14
aI9
aI7
aI2
aI2
aI0
aI5
asS'putkl001'
p3781
(lp3782
g3781
aS'Luke Putkonen'
p3783
aS'  2.2'
p3784
aI6
aI8
aI8
aI2
aI2
aI0
aI1
asg1367
(lp3785
g1367
ag1369
aS'194.2'
p3786
aI177
aI85
aI72
aI12
aI72
aI1
aI173
asS'allec002'
p3787
(lp3788
g3787
aS'Cody Allen'
p3789
aS' 69.2'
p3790
aI48
aI21
aI16
aI7
aI26
aI5
aI91
asS'marmc001'
p3791
(lp3792
g3791
aS'Carlos Marmol'
p3793
aS' 13.1'
p3794
aI16
aI12
aI12
aI3
aI10
aI2
aI14
asS'hellj001'
p3795
(lp3796
g3795
aS'Jeremy Hellickson'
p3797
aS' 63.2'
p3798
aI71
aI35
aI32
aI8
aI21
aI1
aI54
asg1373
(lp3799
g1373
ag1375
aS'  1.0'
p3800
aI3
aI2
aI2
aI0
aI0
aI0
aI0
asg2429
(lp3801
g2429
ag2431
aS'  5.2'
p3802
aI6
aI3
aI3
aI0
aI2
aI0
aI2
asS'howej003'
p3803
(lp3804
g3803
aS'J.P. Howell'
p3805
aS' 49.0'
p3806
aI31
aI14
aI13
aI2
aI25
aI1
aI48
asS'barra001'
p3807
(lp3808
g3807
aS'Aaron Barrett'
p3809
aS' 40.2'
p3810
aI33
aI17
aI12
aI1
aI20
aI2
aI49
asg1397
(lp3811
g1397
ag1399
aS'180.1'
p3812
aI185
aI86
aI75
aI16
aI50
aI5
aI107
asg2540
(lp3813
g2540
ag2542
aS'199.0'
p3814
aI191
aI91
aI82
aI20
aI35
aI0
aI146
asg1403
(lp3815
g1403
ag1405
aS'190.1'
p3816
aI171
aI81
aI75
aI16
aI50
aI1
aI164
asg2591
(lp3817
g2591
ag2593
aS'215.0'
p3818
aI198
aI86
aI75
aI23
aI43
aI4
aI242
asg1412
(lp3819
g1412
ag1414
aS'192.2'
p3820
aI166
aI75
aI65
aI17
aI71
aI6
aI140
asg1415
(lp3821
g1415
ag1417
aS'204.2'
p3822
aI211
aI89
aI78
aI18
aI41
aI4
aI129
asg1421
(lp3823
g1421
ag1423
aS'196.0'
p3824
aI193
aI90
aI86
aI16
aI63
aI4
aI179
asg1424
(lp3825
g1424
ag1426
aS'179.0'
p3826
aI167
aI70
aI70
aI20
aI21
aI2
aI154
asg1430
(lp3827
g1430
ag1432
aS' 82.2'
p3828
aI73
aI39
aI34
aI8
aI39
aI7
aI66
asg1433
(lp3829
g1433
ag1435
aS'235.2'
p3830
aI207
aI72
aI64
aI14
aI51
aI3
aI269
asS'hagan001'
p3831
(lp3832
g3831
aS'Nick Hagadone'
p3833
aS' 23.1'
p3834
aI18
aI7
aI7
aI3
aI6
aI2
aI27
asg1445
(lp3835
g1445
ag1447
aS'153.0'
p3836
aI136
aI57
aI55
aI18
aI42
aI2
aI133
asg1448
(lp3837
g1448
ag1450
aS'158.2'
p3838
aI134
aI66
aI63
aI10
aI56
aI0
aI162
asg1454
(lp3839
g1454
ag1456
aS'  5.2'
p3840
aI14
aI12
aI12
aI3
aI5
aI0
aI6
asS'cottn001'
p3841
(lp3842
g3841
aS'Neal Cotts'
p3843
aS' 66.2'
p3844
aI66
aI33
aI32
aI6
aI23
aI3
aI63
asS'belij001'
p3845
(lp3846
g3845
aS'Jeff Beliveau'
p3847
aS' 24.0'
p3848
aI19
aI7
aI7
aI1
aI7
aI1
aI28
asg1472
(lp3849
g1472
ag1474
aS'170.1'
p3850
aI182
aI108
aI101
aI17
aI54
aI2
aI132
asS'martd005'
p3851
(lp3852
g3851
aS'David Martinez'
p3853
aS'  7.0'
p3854
aI5
aI4
aI4
aI1
aI2
aI0
aI6
asS'simms001'
p3855
(lp3856
g3855
aS'Shae Simmons'
p3857
aS' 21.2'
p3858
aI15
aI8
aI7
aI1
aI11
aI1
aI23
asS'balfg001'
p3859
(lp3860
g3859
aS'Grant Balfour'
p3861
aS' 62.1'
p3862
aI49
aI34
aI34
aI3
aI41
aI3
aI57
asg1487
(lp3863
g1487
ag1489
aS' 24.1'
p3864
aI25
aI21
aI16
aI3
aI10
aI1
aI27
asg1490
(lp3865
g1490
ag1492
aS' 43.1'
p3866
aI47
aI22
aI22
aI2
aI21
aI7
aI25
asg1499
(lp3867
g1499
ag1501
aS' 69.0'
p3868
aI59
aI32
aI29
aI4
aI27
aI2
aI70
asg1667
(lp3869
g1667
ag1669
aS'174.0'
p3870
aI129
aI48
aI42
aI13
aI39
aI2
aI208
asg1508
(lp3871
g1508
ag1510
aS' 10.0'
p3872
aI6
aI2
aI2
aI2
aI1
aI0
aI9
asS'thatj001'
p3873
(lp3874
g3873
aS'Joe Thatcher'
p3875
aS' 30.1'
p3876
aI36
aI16
aI13
aI3
aI4
aI1
aI27
asS'marss002'
p3877
(lp3878
g3877
aS'Sean Marshall'
p3879
aS' 14.0'
p3880
aI23
aI14
aI12
aI1
aI12
aI0
aI14
asS'snods001'
p3881
(lp3882
g3881
aS'Scott Snodgress'
p3883
aS'  2.1'
p3884
aI8
aI7
aI4
aI1
aI3
aI1
aI1
asg485
(lp3885
g485
ag487
aS' 80.1'
p3886
aI77
aI29
aI26
aI7
aI11
aI3
aI55
asS'jepsk001'
p3887
(lp3888
g3887
aS'Kevin Jepsen'
p3889
aS' 65.0'
p3890
aI45
aI19
aI19
aI4
aI23
aI2
aI75
asg1532
(lp3891
g1532
ag1534
aS'140.2'
p3892
aI168
aI105
aI99
aI18
aI63
aI3
aI123
asS'robed002'
p3893
(lp3894
g3893
aS'David Robertson'
p3895
aS' 64.1'
p3896
aI45
aI23
aI22
aI7
aI23
aI2
aI96
asS'lindj004'
p3897
(lp3898
g3897
aS'Josh Lindblom'
p3899
aS'  4.2'
p3900
aI5
aI2
aI2
aI1
aI2
aI0
aI2
asS'parrm001'
p3901
(lp3902
g3901
aS'Manny Parra'
p3903
aS' 36.2'
p3904
aI39
aI20
aI19
aI4
aI18
aI1
aI34
asS'bassc001'
p3905
(lp3906
g3905
aS'Chris Bassitt'
p3907
aS' 29.2'
p3908
aI34
aI13
aI13
aI0
aI13
aI1
aI21
asg1553
(lp3909
g1553
ag1555
aS'  6.0'
p3910
aI7
aI4
aI4
aI3
aI1
aI0
aI5
asS'kintb001'
p3911
(lp3912
g3911
aS'Brandon Kintzler'
p3913
aS' 58.1'
p3914
aI62
aI22
aI21
aI8
aI16
aI3
aI31
asS'sorir001'
p3915
(lp3916
g3915
aS'Rafael Soriano'
p3917
aS' 62.0'
p3918
aI51
aI23
aI22
aI4
aI19
aI0
aI59
asS'mcgej001'
p3919
(lp3920
g3919
aS'Jake McGee'
p3921
aS' 71.1'
p3922
aI48
aI15
aI15
aI2
aI16
aI1
aI90
asg1568
(lp3923
g1568
ag1570
aS' 54.2'
p3924
aI75
aI37
aI36
aI9
aI10
aI2
aI31
asS'hendj001'
p3925
(lp3926
g3925
aS'Jim Henderson'
p3927
aS' 11.1'
p3928
aI14
aI10
aI9
aI3
aI4
aI1
aI17
asg1571
(lp3929
g1571
ag1573
aS' 57.1'
p3930
aI64
aI43
aI41
aI8
aI18
aI2
aI38
asS'wrigs001'
p3931
(lp3932
g3931
aS'Steven Wright'
p3933
aS' 21.0'
p3934
aI21
aI8
aI6
aI2
aI4
aI0
aI22
asg1577
(lp3935
g1577
ag1579
aS'219.0'
p3936
aI187
aI84
aI75
aI15
aI74
aI2
aI183
asg1589
(lp3937
g1589
ag1591
aS'102.0'
p3938
aI113
aI41
aI38
aI10
aI22
aI1
aI80
asg1598
(lp3939
g1598
ag1600
aS'145.2'
p3940
aI134
aI60
aI60
aI16
aI45
aI1
aI124
asS'martc007'
p3941
(lp3942
g3941
aS'Chris Martin'
p3943
aS' 15.2'
p3944
aI22
aI12
aI12
aI2
aI4
aI0
aI14
asg1601
(lp3945
g1601
ag1603
aS' 89.1'
p3946
aI90
aI41
aI40
aI4
aI36
aI8
aI84
asg1604
(lp3947
g1604
ag1606
aS' 64.2'
p3948
aI74
aI35
aI35
aI5
aI19
aI2
aI43
asg1607
(lp3949
g1607
ag1609
aS'180.1'
p3950
aI173
aI80
aI74
aI9
aI73
aI1
aI115
asS'wallj002'
p3951
(lp3952
g3951
aS'Josh Wall'
p3953
aS'  1.0'
p3954
aI5
aI6
aI6
aI0
aI3
aI0
aI0
asg1187
(lp3955
g1187
ag1189
aS' 22.2'
p3956
aI27
aI11
aI9
aI0
aI4
aI0
aI14
asS'albua001'
p3957
(lp3958
g3957
aS'Al Alburquerque'
p3959
aS' 57.1'
p3960
aI46
aI16
aI16
aI7
aI21
aI1
aI63
asS'ambrh001'
p3961
(lp3962
g3961
aS'Hector Ambriz'
p3963
aS'  2.0'
p3964
aI2
aI2
aI1
aI0
aI2
aI0
aI1
asS'herrk001'
p3965
(lp3966
g3965
aS'Kelvin Herrera'
p3967
aS' 70.0'
p3968
aI54
aI12
aI11
aI0
aI26
aI0
aI59
asS'albem001'
p3969
(lp3970
g3969
aS'Matt Albers'
p3971
aS' 10.0'
p3972
aI10
aI1
aI1
aI0
aI3
aI0
aI8
asg1628
(lp3973
g1628
ag1630
aS' 11.0'
p3974
aI10
aI5
aI4
aI0
aI7
aI1
aI6
asS'rondj001'
p3975
(lp3976
g3975
aS'Jorge Rondon'
p3977
aS'  1.0'
p3978
aI0
aI0
aI0
aI0
aI1
aI0
aI0
asg2045
(lp3979
g2045
ag2047
aS' 70.1'
p3980
aI57
aI25
aI25
aI2
aI42
aI5
aI87
asS'coloa001'
p3981
(lp3982
g3981
aS'Alex Colome'
p3983
aS' 23.2'
p3984
aI19
aI7
aI7
aI1
aI10
aI0
aI13
asS'hudsd001'
p3985
(lp3986
g3985
aS'Daniel Hudson'
p3987
aS'  2.2'
p3988
aI4
aI4
aI4
aI0
aI0
aI0
aI2
asS'buchr001'
p3989
(lp3990
g3989
aS'Ryan Buchter'
p3991
aS'  1.0'
p3992
aI0
aI0
aI0
aI0
aI1
aI0
aI1
asS'bassa001'
p3993
(lp3994
g3993
aS'Anthony Bass'
p3995
aS' 27.0'
p3996
aI32
aI20
aI19
aI6
aI7
aI1
aI7
asS'harrm001'
p3997
(lp3998
g3997
aS'Matt Harrison'
p3999
aS' 17.1'
p4000
aI20
aI8
aI8
aI1
aI12
aI0
aI10
asS'tonkm001'
p4001
(lp4002
g4001
aS'Michael Tonkin'
p4003
aS' 19.0'
p4004
aI23
aI13
aI10
aI2
aI6
aI0
aI16
asS'brotr001'
p4005
(lp4006
g4005
aS'Rex Brothers'
p4007
aS' 56.1'
p4008
aI65
aI38
aI35
aI7
aI39
aI0
aI55
asS'felin001'
p4009
(lp4010
g4009
aS'Neftali Feliz'
p4011
aS' 31.2'
p4012
aI20
aI7
aI7
aI5
aI11
aI0
aI21
asS'shrec001'
p4013
(lp4014
g4013
aS'Chasen Shreve'
p4015
aS' 12.1'
p4016
aI10
aI1
aI1
aI0
aI3
aI0
aI15
asg1673
(lp4017
g1673
ag1675
aS'200.1'
p4018
aI197
aI87
aI74
aI10
aI52
aI3
aI178
asS'gelts001'
p4019
(lp4020
g4019
aS'Steve Geltz'
p4021
aS'  8.1'
p4022
aI6
aI3
aI3
aI3
aI5
aI0
aI14
asS'abadf001'
p4023
(lp4024
g4023
aS'Fernando Abad'
p4025
aS' 57.1'
p4026
aI34
aI11
aI10
aI4
aI15
aI3
aI51
asg1682
(lp4027
g1682
ag1684
aS'  1.0'
p4028
aI0
aI0
aI0
aI0
aI1
aI0
aI0
asS'delas001'
p4029
(lp4030
g4029
aS'Steve Delabar'
p4031
aS' 25.2'
p4032
aI19
aI14
aI14
aI3
aI19
aI0
aI21
asS'oterd001'
p4033
(lp4034
g4033
aS'Dan Otero'
p4035
aS' 86.2'
p4036
aI80
aI24
aI22
aI4
aI15
aI7
aI45
asg2582
(lp4037
g2582
ag2584
aS'162.1'
p4038
aI130
aI68
aI61
aI13
aI81
aI3
aI175
asg1691
(lp4039
g1691
ag1693
aS' 62.0'
p4040
aI70
aI24
aI22
aI6
aI23
aI7
aI38
asS'webbd001'
p4041
(lp4042
g4041
aS'Daniel Webb'
p4043
aS' 67.2'
p4044
aI59
aI31
aI30
aI6
aI42
aI5
aI58
asS'franf001'
p4045
(lp4046
g4045
aS'Frank Francisco'
p4047
aS'  3.2'
p4048
aI7
aI6
aI5
aI2
aI3
aI0
aI5
asS'olivl001'
p4049
(lp4050
g4049
aS'Lester Oliveros'
p4051
aS'  6.1'
p4052
aI6
aI5
aI5
aI2
aI3
aI0
aI5
asg1679
(lp4053
g1679
ag1681
aS' 12.2'
p4054
aI15
aI9
aI9
aI3
aI2
aI0
aI7
asg1703
(lp4055
g1703
ag1705
aS'206.0'
p4056
aI223
aI114
aI104
aI18
aI65
aI1
aI159
asS'harrw002'
p4057
(lp4058
g4057
aS'Will Harris'
p4059
aS' 29.0'
p4060
aI27
aI14
aI14
aI3
aI9
aI2
aI35
asg392
(lp4061
g392
ag394
aS'155.2'
p4062
aI154
aI86
aI82
aI19
aI63
aI0
aI134
asS'swara001'
p4063
(lp4064
g4063
aS'Anthony Swarzak'
p4065
aS' 86.0'
p4066
aI100
aI48
aI44
aI5
aI28
aI5
aI47
asS'feier001'
p4067
(lp4068
g4067
aS'Ryan Feierabend'
p4069
aS'  7.1'
p4070
aI12
aI5
aI5
aI0
aI2
aI1
aI4
asS'thomi001'
p4071
(lp4072
g4071
aS'Ian Thomas'
p4073
aS' 10.2'
p4074
aI10
aI5
aI5
aI0
aI6
aI1
aI13
asS'badeb001'
p4075
(lp4076
g4075
aS'Burke Badenhop'
p4077
aS' 70.2'
p4078
aI70
aI20
aI18
aI1
aI19
aI5
aI40
asS'warra001'
p4079
(lp4080
g4079
aS'Adam Warren'
p4081
aS' 78.2'
p4082
aI63
aI27
aI26
aI4
aI24
aI1
aI76
asS'rosis001'
p4083
(lp4084
g4083
aS'Seth Rosin'
p4085
aS'  4.0'
p4086
aI6
aI3
aI3
aI0
aI1
aI0
aI3
asS'britd001'
p4087
(lp4088
g4087
aS'Drake Britton'
p4089
aS'  6.2'
p4090
aI5
aI0
aI0
aI0
aI2
aI0
aI4
asS'mediy001'
p4091
(lp4092
g4091
aS'Yoervis Medina'
p4093
aS' 57.0'
p4094
aI48
aI18
aI17
aI3
aI28
aI3
aI60
asg1727
(lp4095
g1727
ag1729
aS' 39.1'
p4096
aI39
aI21
aI21
aI10
aI16
aI0
aI15
asg1736
(lp4097
g1736
ag1738
aS' 81.1'
p4098
aI100
aI40
aI33
aI7
aI12
aI0
aI72
asg1745
(lp4099
g1745
ag1747
aS'144.1'
p4100
aI133
aI54
aI49
aI13
aI49
aI1
aI182
asg2012
(lp4101
g2012
ag2014
aS' 51.2'
p4102
aI36
aI19
aI14
aI4
aI13
aI1
aI70
asg1757
(lp4103
g1757
ag1759
aS'  0.1'
p4104
aI0
aI0
aI0
aI0
aI0
aI0
aI0
asg2078
(lp4105
g2078
ag2080
aS'204.1'
p4106
aI215
aI88
aI81
aI15
aI71
aI4
aI161
asS'thorm001'
p4107
(lp4108
g4107
aS'Matt Thornton'
p4109
aS' 36.0'
p4110
aI33
aI9
aI7
aI0
aI8
aI2
aI28
asg1769
(lp4111
g1769
ag1771
aS'117.0'
p4112
aI97
aI51
aI48
aI12
aI22
aI5
aI133
asg1772
(lp4113
g1772
ag1774
aS'248.1'
p4114
aI230
aI100
aI90
aI25
aI38
aI1
aI271
asS'mercm001'
p4115
(lp4116
g4115
aS'Melvin Mercedes'
p4117
aS'  2.0'
p4118
aI0
aI0
aI0
aI0
aI0
aI0
aI2
asg1781
(lp4119
g1781
ag1783
aS' 12.2'
p4120
aI16
aI10
aI10
aI1
aI5
aI1
aI8
asg1787
(lp4121
g1787
ag1789
aS'113.0'
p4122
aI148
aI81
aI77
aI12
aI33
aI2
aI71
asS'qualc001'
p4123
(lp4124
g4123
aS'Chad Qualls'
p4125
aS' 51.1'
p4126
aI54
aI22
aI19
aI5
aI5
aI2
aI43
asS'jonen001'
p4127
(lp4128
g4127
aS'Nate Jones'
p4129
aV  0.0
p4130
aI0
aI0
aI0
aI0
aI0
aI0
aI0
asS'duenb001'
p4131
(lp4132
g4131
aS'Brian Duensing'
p4133
aS' 54.1'
p4134
aI52
aI20
aI20
aI6
aI20
aI2
aI33
asS'irwip001'
p4135
(lp4136
g4135
aS'Phil Irwin'
p4137
aS'  4.0'
p4138
aI6
aI3
aI3
aI1
aI2
aI0
aI2
asS'scahr001'
p4139
(lp4140
g4139
aS'Rob Scahill'
p4141
aS' 15.0'
p4142
aI17
aI8
aI8
aI3
aI9
aI2
aI11
asS'mattr001'
p4143
(lp4144
g4143
aS'Ryan Mattheus'
p4145
aS'  8.2'
p4146
aI7
aI1
aI1
aI0
aI4
aI0
aI4
asS'hillr001'
p4147
(lp4148
g4147
aS'Rich Hill'
p4149
aS'  5.1'
p4150
aI6
aI1
aI1
aI0
aI3
aI1
aI9
asg1805
(lp4151
g1805
ag1807
aS'149.1'
p4152
aI113
aI52
aI42
aI12
aI53
aI2
aI113
asS'presr001'
p4153
(lp4154
g4153
aS'Ryan Pressly'
p4155
aS' 28.1'
p4156
aI30
aI10
aI9
aI3
aI8
aI2
aI14
asS'alvar001'
p4157
(lp4158
g4157
aS'R.J. Alvarez'
p4159
aS'  8.0'
p4160
aI3
aI1
aI1
aI0
aI5
aI1
aI9
asS'wilsb001'
p4161
(lp4162
g4161
aS'Brian Wilson'
p4163
aS' 48.1'
p4164
aI49
aI26
aI25
aI5
aI29
aI3
aI54
asS'colel001'
p4165
(lp4166
g4165
aS'Louis Coleman'
p4167
aS' 34.0'
p4168
aI39
aI21
aI21
aI6
aI18
aI1
aI24
asS'massn001'
p4169
(lp4170
g4169
aS'Nick Masset'
p4171
aS' 45.0'
p4172
aI56
aI31
aI29
aI3
aI24
aI0
aI36
asS'romos001'
p4173
(lp4174
g4173
aS'Sergio Romo'
p4175
aS' 58.0'
p4176
aI43
aI24
aI24
aI9
aI12
aI2
aI59
asS'novai001'
p4177
(lp4178
g4177
aS'Ivan Nova'
p4179
aS' 20.2'
p4180
aI32
aI19
aI19
aI6
aI6
aI0
aI12
asS'logab001'
p4181
(lp4182
g4181
aS'Boone Logan'
p4183
aS' 25.0'
p4184
aI31
aI20
aI19
aI6
aI11
aI1
aI32
asS'bonil001'
p4185
(lp4186
g4185
aS'Lisalverto Bonilla'
p4187
aS' 20.2'
p4188
aI13
aI8
aI7
aI2
aI12
aI1
aI17
asS'salaf001'
p4189
(lp4190
g4189
aS'Fernando Salas'
p4191
aS' 58.2'
p4192
aI50
aI22
aI22
aI5
aI14
aI4
aI61
asg1856
(lp4193
g1856
ag1858
aS'  9.0'
p4194
aI17
aI10
aI9
aI2
aI3
aI1
aI6
asg1865
(lp4195
g1865
ag1867
aS' 79.2'
p4196
aI91
aI54
aI49
aI12
aI33
aI0
aI51
asg1868
(lp4197
g1868
ag1870
aS'173.2'
p4198
aI190
aI110
aI97
aI20
aI76
aI1
aI146
asS'darnl001'
p4199
(lp4200
g4199
aS'Logan Darnell'
p4201
aS' 24.0'
p4202
aI31
aI20
aI19
aI5
aI8
aI0
aI22
asS'moorm003'
p4203
(lp4204
g4203
aS'Matt Moore'
p4205
aS' 10.0'
p4206
aI10
aI3
aI3
aI1
aI5
aI0
aI6
asg1889
(lp4207
g1889
ag1891
aS' 20.0'
p4208
aI18
aI13
aI13
aI3
aI3
aI1
aI15
asS'patej001'
p4209
(lp4210
g4209
aS'Joe Paterson'
p4211
aS'  1.1'
p4212
aI4
aI5
aI5
aI0
aI1
aI0
aI0
asS'rasmr001'
p4213
(lp4214
g4213
aS'Rob Rasmussen'
p4215
aS' 11.1'
p4216
aI8
aI4
aI4
aI1
aI7
aI0
aI13
asg197
(lp4217
g197
ag199
aS' 32.1'
p4218
aI24
aI10
aI10
aI1
aI11
aI3
aI27
asS'gravk001'
p4219
(lp4220
g4219
aS'Kendall Graveman'
p4221
aS'  4.2'
p4222
aI4
aI2
aI2
aI0
aI0
aI0
aI4
asg1916
(lp4223
g1916
ag1918
aS' 58.1'
p4224
aI35
aI13
aI11
aI3
aI15
aI2
aI45
asg1919
(lp4225
g1919
ag1921
aS' 63.0'
p4226
aI57
aI26
aI25
aI3
aI24
aI3
aI59
asg1925
(lp4227
g1925
ag1927
aS'184.2'
p4228
aI178
aI86
aI82
aI18
aI58
aI2
aI151
asg1928
(lp4229
g1928
ag1930
aS' 43.2'
p4230
aI39
aI20
aI20
aI6
aI7
aI0
aI39
asS'farnk001'
p4231
(lp4232
g4231
aS'Kyle Farnsworth'
p4233
aS' 28.2'
p4234
aI32
aI14
aI14
aI2
aI15
aI2
aI18
asg1943
(lp4235
g1943
ag1945
aS' 27.1'
p4236
aI19
aI6
aI4
aI2
aI6
aI0
aI28
asS'beatp001'
p4237
(lp4238
g4237
aS'Pedro Beato'
p4239
aS'  4.1'
p4240
aI3
aI0
aI0
aI0
aI3
aI0
aI3
asS'lannj001'
p4241
(lp4242
g4241
aS'John Lannan'
p4243
aS'  4.0'
p4244
aI7
aI7
aI7
aI3
aI2
aI0
aI2
asS'patts002'
p4245
(lp4246
g4245
aS'Spencer Patton'
p4247
aS'  9.1'
p4248
aI6
aI1
aI1
aI0
aI2
aI0
aI8
asS'eveld001'
p4249
(lp4250
g4249
aS'Dana Eveland'
p4251
aS' 27.1'
p4252
aI24
aI8
aI8
aI2
aI6
aI1
aI27
asg1958
(lp4253
g1958
ag1960
aS' 13.1'
p4254
aI17
aI7
aI7
aI2
aI9
aI0
aI12
asg1961
(lp4255
g1961
ag1963
aS'200.0'
p4256
aI187
aI71
aI65
aI11
aI48
aI2
aI146
asg1967
(lp4257
g1967
ag1969
aS' 20.2'
p4258
aI30
aI18
aI16
aI6
aI7
aI1
aI18
asS'garcf003'
p4259
(lp4260
g4259
aS'Frank Garces'
p4261
aS'  9.0'
p4262
aI8
aI2
aI2
aI1
aI1
aI0
aI10
asg1976
(lp4263
g1976
ag1978
aS' 63.1'
p4264
aI62
aI33
aI32
aI12
aI35
aI2
aI61
asS'porea001'
p4265
(lp4266
g4265
aS'Aaron Poreda'
p4267
aS' 21.1'
p4268
aI30
aI14
aI14
aI2
aI7
aI1
aI21
asS'furbc001'
p4269
(lp4270
g4269
aS'Charlie Furbush'
p4271
aS' 42.1'
p4272
aI40
aI17
aI17
aI4
aI9
aI0
aI51
asg593
(lp4273
g593
ag595
aS' 23.0'
p4274
aI24
aI17
aI17
aI1
aI14
aI5
aI16
asg1985
(lp4275
g1985
ag1987
aS'117.2'
p4276
aI120
aI53
aI53
aI9
aI44
aI1
aI91
asS'koreb001'
p4277
(lp4278
g4277
aS'Bobby Korecky'
p4279
aS'  3.1'
p4280
aI4
aI3
aI3
aI0
aI1
aI0
aI2
asS'peraj002'
p4281
(lp4282
g4281
aS'Joel Peralta'
p4283
aS' 63.1'
p4284
aI60
aI31
aI31
aI9
aI15
aI1
aI74
asS'holld003'
p4285
(lp4286
g4285
aS'Derek Holland'
p4287
aS' 37.0'
p4288
aI34
aI8
aI6
aI0
aI5
aI1
aI25
asS'alvad001'
p4289
(lp4290
g4289
aS'Dario Alvarez'
p4291
aS'  1.1'
p4292
aI4
aI2
aI2
aI1
aI0
aI0
aI1
asg2003
(lp4293
g2003
ag2005
aS'146.0'
p4294
aI142
aI64
aI56
aI17
aI49
aI3
aI136
asS'adcon001'
p4295
(lp4296
g4295
aS'Nathan Adcock'
p4297
aS' 10.0'
p4298
aI11
aI5
aI5
aI2
aI5
aI0
aI9
asg1748
(lp4299
g1748
ag1750
aS'179.1'
p4300
aI178
aI91
aI89
aI12
aI57
aI0
aI107
asS'norrd002'
p4301
(lp4302
g4301
aS'Daniel Norris'
p4303
aS'  6.2'
p4304
aI5
aI4
aI4
aI1
aI5
aI0
aI4
asS'savej001'
p4305
(lp4306
g4305
aS'Joe Savery'
p4307
aS'  4.0'
p4308
aI3
aI0
aI0
aI0
aI1
aI0
aI0
asS'diazj006'
p4309
(lp4310
g4309
aS'Jairo Diaz'
p4311
aS'  5.2'
p4312
aI4
aI2
aI2
aI0
aI3
aI0
aI8
asg2033
(lp4313
g2033
ag2035
aS'  8.2'
p4314
aI11
aI7
aI7
aI2
aI1
aI0
aI8
asS'saunj001'
p4315
(lp4316
g4315
aS'Joe Saunders'
p4317
aS' 43.0'
p4318
aI65
aI37
aI32
aI9
aI24
aI1
aI23
asS'diazj005'
p4319
(lp4320
g4319
aS'Jumbo Diaz'
p4321
aS' 34.2'
p4322
aI29
aI13
aI13
aI3
aI14
aI4
aI37
asS'chapa001'
p4323
(lp4324
g4323
aS'Aroldis Chapman'
p4325
aS' 54.0'
p4326
aI21
aI12
aI12
aI1
aI24
aI0
aI106
asS'marim001'
p4327
(lp4328
g4327
aS'Michael Mariot'
p4329
aS' 25.0'
p4330
aI31
aI21
aI18
aI2
aI12
aI1
aI21
asg2120
(lp4331
g2120
ag2122
aS'201.0'
p4332
aI189
aI85
aI81
aI16
aI70
aI4
aI207
asS'guerj002'
p4333
(lp4334
g4333
aS'Javy Guerra'
p4335
aS' 46.1'
p4336
aI41
aI15
aI15
aI3
aI20
aI5
aI38
asS'atchs001'
p4337
(lp4338
g4337
aS'Scott Atchison'
p4339
aS' 72.0'
p4340
aI60
aI24
aI22
aI4
aI14
aI4
aI49
asg2066
(lp4341
g2066
ag2068
aS'213.2'
p4342
aI205
aI122
aI109
aI20
aI96
aI2
aI190
asS'beimj001'
p4343
(lp4344
g4343
aS'Joe Beimel'
p4345
aS' 45.0'
p4346
aI39
aI12
aI11
aI4
aI14
aI4
aI25
asS'vizca001'
p4347
(lp4348
g4347
aS'Arodys Vizcaino'
p4349
aS'  5.0'
p4350
aI5
aI3
aI3
aI1
aI3
aI0
aI4
asS'loupa001'
p4351
(lp4352
g4351
aS'Aaron Loup'
p4353
aS' 68.2'
p4354
aI50
aI25
aI24
aI4
aI30
aI5
aI56
asS'farqd001'
p4355
(lp4356
g4355
aS'Danny Farquhar'
p4357
aS' 71.0'
p4358
aI58
aI23
aI21
aI5
aI22
aI1
aI81
asS'stord001'
p4359
(lp4360
g4359
aS'Drew Storen'
p4361
aS' 56.1'
p4362
aI44
aI8
aI7
aI2
aI11
aI3
aI46
asg2111
(lp4363
g2111
ag2113
aS'158.0'
p4364
aI160
aI79
aI74
aI22
aI51
aI0
aI133
asS'rucid001'
p4365
(lp4366
g4365
aS'Drew Rucinski'
p4367
aS'  7.1'
p4368
aI9
aI4
aI4
aI0
aI2
aI0
aI8
asS'guilp001'
p4369
(lp4370
g4369
aS'Preston Guilmet'
p4371
aS' 10.1'
p4372
aI8
aI6
aI6
aI2
aI2
aI0
aI12
asS'thoma003'
p4373
(lp4374
g4373
aS'Aaron Thompson'
p4375
aS'  7.1'
p4376
aI8
aI2
aI2
aI0
aI2
aI1
aI6
asS'pattt001'
p4377
(lp4378
g4377
aS'Troy Patton'
p4379
aS' 14.0'
p4380
aI16
aI8
aI8
aI2
aI5
aI1
aI13
asg2132
(lp4381
g2132
ag2134
aS'176.1'
p4382
aI154
aI70
aI68
aI23
aI44
aI2
aI158
asg1634
(lp4383
g1634
ag1636
aS' 45.2'
p4384
aI50
aI30
aI29
aI8
aI17
aI0
aI44
asS'huntt002'
p4385
(lp4386
g4385
aS'Tommy Hunter'
p4387
aS' 60.2'
p4388
aI55
aI22
aI20
aI4
aI12
aI3
aI45
asg2144
(lp4389
g2144
ag2146
aS' 10.0'
p4390
aI11
aI6
aI6
aI2
aI7
aI0
aI10
asg2147
(lp4391
g2147
ag2149
aS' 80.2'
p4392
aI82
aI49
aI49
aI15
aI14
aI3
aI55
asg2150
(lp4393
g2150
ag2152
aS'220.1'
p4394
aI196
aI80
aI77
aI18
aI63
aI1
aI252
asg2153
(lp4395
g2153
ag2155
aS' 32.2'
p4396
aI34
aI19
aI19
aI5
aI16
aI2
aI38
asS'axfoj001'
p4397
(lp4398
g4397
aS'John Axford'
p4399
aS' 54.2'
p4400
aI43
aI26
aI24
aI6
aI36
aI3
aI63
asS'claua001'
p4401
(lp4402
g4401
aS'Alex Claudio'
p4403
aS' 12.1'
p4404
aI14
aI4
aI4
aI0
aI4
aI0
aI14
asS'billb002'
p4405
(lp4406
g4405
aS'Bruce Billings'
p4407
aS'  4.0'
p4408
aI4
aI4
aI4
aI2
aI1
aI0
aI7
asg2168
(lp4409
g2168
ag2170
aS' 62.1'
p4410
aI48
aI24
aI22
aI6
aI25
aI1
aI54
asg854
(lp4411
g854
ag856
aS'195.2'
p4412
aI165
aI75
aI61
aI13
aI72
aI2
aI195
asS'nolis001'
p4413
(lp4414
g4413
aS'Sean Nolin'
p4415
aS'  1.0'
p4416
aI1
aI1
aI1
aI1
aI0
aI0
aI0
asS'westm002'
p4417
(lp4418
g4417
aS'Matt West'
p4419
aS'  4.0'
p4420
aI6
aI3
aI3
aI0
aI1
aI0
aI3
asS'stinj001'
p4421
(lp4422
g4421
aS'Josh Stinson'
p4423
aS' 13.0'
p4424
aI16
aI9
aI9
aI2
aI6
aI0
aI6
asg2177
(lp4425
g2177
ag2179
aS'215.2'
p4426
aI191
aI101
aI89
aI26
aI74
aI2
aI173
asS'streh001'
p4427
(lp4428
g4427
aS'Huston Street'
p4429
aS' 59.1'
p4430
aI42
aI9
aI9
aI4
aI14
aI3
aI57
asS'veraj001'
p4431
(lp4432
g4431
aS'Jose Veras'
p4433
aS' 46.0'
p4434
aI37
aI25
aI23
aI6
aI27
aI1
aI50
asg2180
(lp4435
g2180
ag2182
aS'114.1'
p4436
aI117
aI56
aI51
aI16
aI40
aI2
aI105
asS'woodb004'
p4437
(lp4438
g4437
aS'Blake Wood'
p4439
aS'  6.1'
p4440
aI4
aI5
aI5
aI0
aI7
aI2
aI7
asS'riefc001'
p4441
(lp4442
g4441
aS'C.J. Riefenhauser'
p4443
aS'  5.1'
p4444
aI6
aI5
aI5
aI0
aI3
aI1
aI2
asS'nathj001'
p4445
(lp4446
g4445
aS'Joe Nathan'
p4447
aS' 58.0'
p4448
aI60
aI32
aI31
aI5
aI29
aI3
aI54
asg2192
(lp4449
g2192
ag2194
aS'217.1'
p4450
aI194
aI81
aI72
aI21
aI43
aI3
aI219
asg2195
(lp4451
g2195
ag2197
aS' 58.2'
p4452
aI49
aI19
aI16
aI3
aI17
aI1
aI74
asS'burns001'
p4453
(lp4454
g4453
aS'Sean Burnett'
p4455
aS'  0.2'
p4456
aI1
aI1
aI1
aI0
aI0
aI0
aI0
asS'holdj001'
p4457
(lp4458
g4457
aS'John Holdzkom'
p4459
aS'  9.0'
p4460
aI4
aI2
aI2
aI1
aI2
aI0
aI14
asS'wilht001'
p4461
(lp4462
g4461
aS'Tom Wilhelmsen'
p4463
aS' 79.1'
p4464
aI47
aI22
aI20
aI6
aI36
aI6
aI72
asS'cletm001'
p4465
(lp4466
g4465
aS'Maikel Cleto'
p4467
aS' 29.1'
p4468
aI24
aI18
aI15
aI3
aI23
aI2
aI32
asS'buenf001'
p4469
(lp4470
g4469
aS'Francisley Bueno'
p4471
aS' 32.1'
p4472
aI36
aI16
aI15
aI3
aI7
aI2
aI20
asS'campl001'
p4473
(lp4474
g4473
aS'Leonel Campos'
p4475
aS'  7.0'
p4476
aI9
aI5
aI4
aI0
aI4
aI0
aI9
asS'frasj002'
p4477
(lp4478
g4477
aS'Jason Frasor'
p4479
aS' 47.1'
p4480
aI40
aI17
aI14
aI3
aI18
aI2
aI46
asS'siegk001'
p4481
(lp4482
g4481
aS'Kevin Siegrist'
p4483
aS' 30.1'
p4484
aI32
aI23
aI23
aI5
aI16
aI0
aI37
asS'may-t001'
p4485
(lp4486
g4485
aS'Trevor May'
p4487
aS' 45.2'
p4488
aI59
aI41
aI40
aI7
aI22
aI1
aI44
asg869
(lp4489
g869
ag871
aS'189.1'
p4490
aI199
aI86
aI75
aI15
aI34
aI3
aI120
asS'diekj001'
p4491
(lp4492
g4491
aS'Jake Diekman'
p4493
aS' 71.0'
p4494
aI66
aI36
aI30
aI4
aI35
aI5
aI100
asS'blacv001'
p4495
(lp4496
g4495
aS'Vic Black'
p4497
aS' 34.2'
p4498
aI26
aI12
aI10
aI2
aI19
aI0
aI32
asS'quack001'
p4499
(lp4500
g4499
aS'Kevin Quackenbush'
p4501
aS' 54.1'
p4502
aI42
aI15
aI15
aI2
aI18
aI4
aI56
asS'leroc001'
p4503
(lp4504
g4503
aS'Chris Leroux'
p4505
aS'  2.0'
p4506
aI7
aI5
aI5
aI0
aI2
aI1
aI3
asS'outmj001'
p4507
(lp4508
g4507
aS'Josh Outman'
p4509
aS' 28.1'
p4510
aI24
aI10
aI9
aI4
aI16
aI2
aI26
asg2246
(lp4511
g2246
ag2248
aS' 87.1'
p4512
aI89
aI38
aI32
aI5
aI39
aI8
aI44
asS'affej001'
p4513
(lp4514
g4513
aS'Jeremy Affeldt'
p4515
aS' 55.1'
p4516
aI47
aI14
aI14
aI1
aI14
aI1
aI41
asg2261
(lp4517
g2261
ag2263
aS'  5.1'
p4518
aI6
aI3
aI3
aI0
aI3
aI0
aI4
asg2273
(lp4519
g2273
ag2275
aS' 30.0'
p4520
aI27
aI16
aI16
aI8
aI16
aI1
aI18
asS'drabk001'
p4521
(lp4522
g4521
aS'Kyle Drabek'
p4523
aS'  3.0'
p4524
aI2
aI0
aI0
aI0
aI2
aI0
aI5
asS'valvj001'
p4525
(lp4526
g4525
aS'Jose Valverde'
p4527
aS' 20.2'
p4528
aI24
aI16
aI13
aI4
aI10
aI3
aI23
asS'luetl001'
p4529
(lp4530
g4529
aS'Lucas Luetge'
p4531
aS'  9.0'
p4532
aI6
aI5
aI5
aI3
aI5
aI0
aI7
asS'ortej001'
p4533
(lp4534
g4533
aS'Jose Ortega'
p4535
aS'  1.1'
p4536
aI0
aI4
aI4
aI0
aI4
aI0
aI1
asS'chenb001'
p4537
(lp4538
g4537
aS'Bruce Chen'
p4539
aS' 48.1'
p4540
aI69
aI40
aI40
aI7
aI16
aI1
aI36
asS'sadlc002'
p4541
(lp4542
g4541
aS'Casey Sadler'
p4543
aS' 10.1'
p4544
aI12
aI9
aI9
aI0
aI5
aI0
aI7
asg2297
(lp4545
g2297
ag2299
aS' 65.1'
p4546
aI55
aI20
aI20
aI5
aI19
aI2
aI101
asg2300
(lp4547
g2300
ag2302
aS' 25.2'
p4548
aI33
aI17
aI15
aI4
aI6
aI0
aI19
asg2303
(lp4549
g2303
ag2305
aS' 72.2'
p4550
aI78
aI34
aI31
aI5
aI14
aI2
aI56
asS'carrs001'
p4551
(lp4552
g4551
aS'Scott Carroll'
p4553
aS'129.1'
p4554
aI147
aI81
aI69
aI13
aI45
aI1
aI64
asg2306
(lp4555
g2306
ag2308
aS'198.2'
p4556
aI178
aI64
aI63
aI16
aI39
aI1
aI138
asS'belir001'
p4557
(lp4558
g4557
aS'Ronald Belisario'
p4559
aS' 66.1'
p4560
aI78
aI46
aI41
aI4
aI18
aI7
aI47
asS'gomeb001'
p4561
(lp4562
g4561
aS'Brandon Gomes'
p4563
aS' 34.0'
p4564
aI28
aI14
aI14
aI5
aI11
aI2
aI24
asg2312
(lp4565
g2312
ag2314
aS' 62.2'
p4566
aI56
aI36
aI34
aI13
aI31
aI3
aI75
asg2315
(lp4567
g2315
ag2317
aS'  6.1'
p4568
aI7
aI8
aI8
aI2
aI3
aI0
aI8
asg2567
(lp4569
g2567
ag2569
aS' 55.0'
p4570
aI44
aI22
aI22
aI5
aI11
aI1
aI62
asS'finnb001'
p4571
(lp4572
g4571
aS'Brandon Finnegan'
p4573
aS'  7.0'
p4574
aI6
aI1
aI1
aI0
aI1
aI0
aI10
asS'harrl002'
p4575
(lp4576
g4575
aS'Lucas Harrell'
p4577
aS' 12.1'
p4578
aI19
aI14
aI13
aI2
aI9
aI1
aI9
asS'boyeb001'
p4579
(lp4580
g4579
aS'Blaine Boyer'
p4581
aS' 40.1'
p4582
aI34
aI16
aI16
aI2
aI8
aI0
aI29
asg2345
(lp4583
g2345
ag2347
aS' 56.0'
p4584
aI55
aI22
aI21
aI4
aI12
aI1
aI60
asg2354
(lp4585
g2354
ag2356
aS' 42.0'
p4586
aI41
aI14
aI10
aI1
aI15
aI4
aI33
asS'rasmc002'
p4587
(lp4588
g4587
aS'Cory Rasmus'
p4589
aS' 56.0'
p4590
aI42
aI17
aI16
aI5
aI17
aI1
aI57
asS'beavb001'
p4591
(lp4592
g4591
aS'Blake Beavan'
p4593
aS'  4.0'
p4594
aI6
aI2
aI2
aI2
aI0
aI0
aI1
asg2360
(lp4595
g2360
ag2362
aS' 64.1'
p4596
aI67
aI25
aI25
aI4
aI23
aI4
aI67
asg2366
(lp4597
g2366
ag2368
aS'198.0'
p4598
aI206
aI94
aI84
aI24
aI47
aI1
aI164
asg2378
(lp4599
g2378
ag2380
aS'  1.0'
p4600
aI4
aI3
aI3
aI2
aI0
aI0
aI1
asS'ottaa001'
p4601
(lp4602
g4601
aS'Adam Ottavino'
p4603
aS' 65.0'
p4604
aI67
aI26
aI26
aI6
aI16
aI1
aI70
asS'downd001'
p4605
(lp4606
g4605
aS'Darin Downs'
p4607
aS' 34.2'
p4608
aI28
aI22
aI21
aI2
aI19
aI2
aI27
asS'matub001'
p4609
(lp4610
g4609
aS'Brian Matusz'
p4611
aS' 51.2'
p4612
aI51
aI23
aI20
aI7
aI17
aI4
aI53
asS'pelfm001'
p4613
(lp4614
g4613
aS'Mike Pelfrey'
p4615
aS' 23.2'
p4616
aI29
aI23
aI21
aI5
aI18
aI0
aI10
asS'mendr002'
p4617
(lp4618
g4617
aS'Roman Mendez'
p4619
aS' 33.0'
p4620
aI20
aI8
aI8
aI2
aI17
aI2
aI22
asS'strop001'
p4621
(lp4622
g4621
aS'Pedro Strop'
p4623
aS' 61.0'
p4624
aI40
aI19
aI15
aI2
aI25
aI3
aI71
asg2399
(lp4625
g2399
ag2401
aS'150.2'
p4626
aI137
aI77
aI73
aI29
aI44
aI0
aI127
asg2402
(lp4627
g2402
ag2404
aS'179.1'
p4628
aI163
aI75
aI69
aI18
aI39
aI2
aI115
asS'hollm003'
p4629
(lp4630
g4629
aS'Mario Hollands'
p4631
aS' 47.0'
p4632
aI45
aI25
aI23
aI3
aI21
aI2
aI35
asg2417
(lp4633
g2417
ag2419
aS'193.2'
p4634
aI205
aI106
aI102
aI25
aI74
aI1
aI129
asS'rondh001'
p4635
(lp4636
g4635
aS'Hector Rondon'
p4637
aS' 63.1'
p4638
aI52
aI21
aI17
aI2
aI15
aI0
aI63
asS'cecib001'
p4639
(lp4640
g4639
aS'Brett Cecil'
p4641
aS' 53.1'
p4642
aI46
aI16
aI16
aI2
aI27
aI4
aI76
asS'rices001'
p4643
(lp4644
g4643
aS'Scott Rice'
p4645
aS' 13.2'
p4646
aI15
aI9
aI9
aI1
aI12
aI1
aI13
asg1376
(lp4647
g1376
ag1378
aS' 70.0'
p4648
aI82
aI41
aI38
aI2
aI18
aI2
aI46
asS'lowem002'
p4649
(lp4650
g4649
aS'Mark Lowe'
p4651
aS'  7.0'
p4652
aI10
aI7
aI3
aI2
aI6
aI4
aI6
asS'bellt002'
p4653
(lp4654
g4653
aS'Trevor Bell'
p4655
aS'  0.2'
p4656
aI5
aI5
aI5
aI0
aI2
aI0
aI0
asg2441
(lp4657
g2441
ag2443
aS'  1.0'
p4658
aI0
aI0
aI0
aI0
aI1
aI0
aI0
asg2444
(lp4659
g2444
ag2446
aS' 13.0'
p4660
aI12
aI8
aI8
aI2
aI6
aI3
aI8
asS'sorij001'
p4661
(lp4662
g4661
aS'Joakim Soria'
p4663
aS' 44.1'
p4664
aI38
aI19
aI16
aI2
aI6
aI2
aI48
asS'escoe002'
p4665
(lp4666
g4665
aS'Edwin Escobar'
p4667
aS'  2.0'
p4668
aI1
aI1
aI1
aI0
aI0
aI0
aI2
asg2468
(lp4669
g2468
ag2470
aS'199.0'
p4670
aI214
aI108
aI102
aI25
aI57
aI4
aI121
asg2471
(lp4671
g2471
ag2473
aS'203.2'
p4672
aI185
aI72
aI62
aI13
aI72
aI1
aI181
asg2474
(lp4673
g2474
ag2476
aS'183.0'
p4674
aI168
aI70
aI65
aI14
aI69
aI1
aI159
asS'whelk001'
p4675
(lp4676
g4675
aS'Kevin Whelan'
p4677
aS'  1.1'
p4678
aI3
aI2
aI2
aI2
aI2
aI0
aI1
asg2483
(lp4679
g2483
ag2485
aS' 23.2'
p4680
aI27
aI18
aI17
aI1
aI15
aI1
aI18
asg2486
(lp4681
g2486
ag2488
aS' 93.2'
p4682
aI107
aI59
aI56
aI19
aI31
aI1
aI63
asS'lafrb001'
p4683
(lp4684
g4683
aS'Bobby LaFromboise'
p4685
aS'  3.2'
p4686
aI3
aI1
aI1
aI1
aI0
aI0
aI4
asg2498
(lp4687
g2498
ag2500
aS' 14.1'
p4688
aI18
aI6
aI3
aI3
aI4
aI0
aI10
asg2501
(lp4689
g2501
ag2503
aS'140.1'
p4690
aI150
aI79
aI71
aI18
aI55
aI1
aI77
asS'frees001'
p4691
(lp4692
g4691
aS'Sam Freeman'
p4693
aS' 38.0'
p4694
aI34
aI13
aI11
aI2
aI19
aI0
aI35
asg2519
(lp4695
g2519
ag2521
aS'117.2'
p4696
aI120
aI55
aI49
aI12
aI32
aI2
aI71
asS'hardb001'
p4697
(lp4698
g4697
aS'Blaine Hardy'
p4699
aS' 39.0'
p4700
aI34
aI12
aI11
aI1
aI20
aI3
aI31
asS'morim002'
p4701
(lp4702
g4701
aS'Mike Morin'
p4703
aS' 59.0'
p4704
aI51
aI22
aI19
aI3
aI19
aI6
aI54
asg2534
(lp4705
g2534
ag2536
aS'136.1'
p4706
aI123
aI47
aI42
aI15
aI21
aI0
aI141
asg2537
(lp4707
g2537
ag2539
aS' 96.1'
p4708
aI85
aI44
aI36
aI6
aI32
aI0
aI65
asS'benoj001'
p4709
(lp4710
g4709
aS'Joaquin Benoit'
p4711
aS' 54.1'
p4712
aI28
aI10
aI9
aI3
aI14
aI2
aI64
asg2543
(lp4713
g2543
ag2545
aS' 30.1'
p4714
aI30
aI16
aI16
aI7
aI14
aI1
aI31
asg455
(lp4715
g455
ag457
aS' 69.2'
p4716
aI74
aI39
aI36
aI6
aI19
aI2
aI55
asS'markj001'
p4717
(lp4718
g4717
aS'Justin Marks'
p4719
aS'  2.0'
p4720
aI4
aI3
aI3
aI0
aI3
aI0
aI2
asg2552
(lp4721
g2552
ag2554
aS'134.0'
p4722
aI103
aI40
aI38
aI7
aI29
aI1
aI140
asg2555
(lp4723
g2555
ag2557
aS'123.1'
p4724
aI110
aI42
aI35
aI7
aI29
aI3
aI93
asg2564
(lp4725
g2564
ag2566
aS'115.2'
p4726
aI96
aI41
aI37
aI17
aI39
aI2
aI107
asS'capuc001'
p4727
(lp4728
g4727
aS'Chris Capuano'
p4729
aS' 97.1'
p4730
aI101
aI51
aI47
aI10
aI34
aI3
aI84
asS'jansc001'
p4731
(lp4732
g4731
aS'Casey Janssen'
p4733
aS' 45.2'
p4734
aI47
aI22
aI20
aI6
aI7
aI0
aI28
asg2585
(lp4735
g2585
ag2587
aS' 28.2'
p4736
aI43
aI26
aI26
aI5
aI11
aI0
aI19
asg1832
(lp4737
g1832
ag1834
aS'113.0'
p4738
aI107
aI59
aI54
aI9
aI30
aI1
aI86
asg2588
(lp4739
g2588
ag2590
aS' 69.1'
p4740
aI67
aI28
aI25
aI7
aI19
aI1
aI57
asg1751
(lp4741
g1751
ag1753
aS' 77.1'
p4742
aI64
aI16
aI14
aI5
aI15
aI0
aI81
asg2597
(lp4743
g2597
ag2599
aS'126.0'
p4744
aI128
aI66
aI61
aI15
aI44
aI2
aI56
asg2600
(lp4745
g2600
ag2602
aS'191.1'
p4746
aI177
aI84
aI81
aI16
aI71
aI0
aI153
asg2606
(lp4747
g2606
ag2608
aS' 50.2'
p4748
aI57
aI17
aI14
aI1
aI13
aI1
aI30
asS'fielj002'
p4749
(lp4750
g4749
aS'Josh Fields'
p4751
aS' 54.2'
p4752
aI50
aI29
aI27
aI2
aI17
aI3
aI70
asg2612
(lp4753
g2612
ag2614
aS' 18.2'
p4754
aI13
aI9
aI9
aI2
aI10
aI0
aI15
asg2618
(lp4755
g2618
ag2620
aS'110.0'
p4756
aI117
aI57
aI52
aI13
aI35
aI4
aI120
asg2624
(lp4757
g2624
ag2626
aS'183.0'
p4758
aI160
aI78
aI76
aI22
aI73
aI4
aI127
asg2630
(lp4759
g2630
ag2632
aS' 29.2'
p4760
aI24
aI14
aI14
aI1
aI21
aI0
aI28
asg2636
(lp4761
g2636
ag2638
aS'202.1'
p4762
aI190
aI69
aI61
aI19
aI43
aI3
aI207
asS'yatek001'
p4763
(lp4764
g4763
aS'Kirby Yates'
p4765
aS' 36.0'
p4766
aI33
aI16
aI15
aI4
aI15
aI3
aI42
asS'bellh001'
p4767
(lp4768
g4767
aS'Heath Bell'
p4769
aS' 17.1'
p4770
aI24
aI16
aI14
aI1
aI8
aI1
aI12
asg2663
(lp4771
g2663
ag2665
aS'  5.2'
p4772
aI6
aI3
aI3
aI1
aI4
aI1
aI4
asg2672
(lp4773
g2672
ag2674
aS'  1.0'
p4774
aI0
aI0
aI0
aI0
aI0
aI0
aI1
asS'luekj001'
p4775
(lp4776
g4775
aS'Josh Lueke'
p4777
aS' 30.1'
p4778
aI38
aI20
aI19
aI7
aI5
aI1
aI19
asS'tolls002'
p4779
(lp4780
g4779
aS'Shawn Tolleson'
p4781
aS' 71.2'
p4782
aI56
aI23
aI22
aI10
aI28
aI5
aI69
asg2687
(lp4783
g2687
ag2689
aS'  1.0'
p4784
aI1
aI0
aI0
aI0
aI0
aI0
aI1
asg2690
(lp4785
g2690
ag2692
aS' 30.1'
p4786
aI36
aI17
aI16
aI2
aI15
aI1
aI17
asg2210
(lp4787
g2210
ag2212
aS' 80.1'
p4788
aI72
aI24
aI22
aI4
aI15
aI2
aI47
asg2696
(lp4789
g2696
ag2698
aS'236.0'
p4790
aI170
aI68
aI56
aI16
aI46
aI1
aI248
asg2699
(lp4791
g2699
ag2701
aS' 52.2'
p4792
aI45
aI19
aI14
aI4
aI12
aI4
aI49
asS'adama001'
p4793
(lp4794
g4793
aS'Austin Adams'
p4795
aS'  7.0'
p4796
aI9
aI7
aI7
aI1
aI1
aI0
aI4
asg2717
(lp4797
g2717
ag2719
aS' 17.2'
p4798
aI23
aI16
aI15
aI2
aI6
aI1
aI8
asg2723
(lp4799
g2723
ag2725
aS'138.0'
p4800
aI127
aI58
aI56
aI11
aI40
aI1
aI138
asg2726
(lp4801
g2726
ag2728
aS' 33.0'
p4802
aI40
aI23
aI23
aI4
aI5
aI0
aI26
asS'figup001'
p4803
(lp4804
g4803
aS'Pedro Figueroa'
p4805
aS'  9.0'
p4806
aI10
aI7
aI4
aI1
aI3
aI0
aI3
asg2735
(lp4807
g2735
ag2737
aS'187.0'
p4808
aI198
aI65
aI55
aI14
aI33
aI3
aI111
asS'butlk001'
p4809
(lp4810
g4809
aS'Keith Butler'
p4811
aS'  2.0'
p4812
aI6
aI6
aI6
aI0
aI1
aI0
aI2
asS'partc001'
p4813
(lp4814
g4813
aS'Curtis Partch'
p4815
aS'  7.0'
p4816
aI2
aI0
aI0
aI0
aI7
aI0
aI6
asg2747
(lp4817
g2747
ag2749
aS' 46.1'
p4818
aI38
aI23
aI22
aI6
aI25
aI0
aI39
asS'dennr001'
p4819
(lp4820
g4819
aS'Ryan Dennick'
p4821
aS'  4.2'
p4822
aI7
aI7
aI6
aI2
aI4
aI0
aI3
asS'milla002'
p4823
(lp4824
g4823
aS'Andrew Miller'
p4825
aS' 62.1'
p4826
aI33
aI16
aI14
aI3
aI17
aI2
aI103
asg2762
(lp4827
g2762
ag2764
aS' 10.1'
p4828
aI7
aI1
aI1
aI1
aI0
aI0
aI6
asS'webbr001'
p4829
(lp4830
g4829
aS'Ryan Webb'
p4831
aS' 49.1'
p4832
aI50
aI21
aI21
aI2
aI12
aI2
aI37
asS'sippt001'
p4833
(lp4834
g4833
aS'Tony Sipp'
p4835
aS' 50.2'
p4836
aI28
aI19
aI19
aI5
aI17
aI2
aI63
asg2771
(lp4837
g2771
ag2773
aS'202.1'
p4838
aI218
aI97
aI92
aI22
aI30
aI3
aI151
asg2774
(lp4839
g2774
ag2776
aS'184.2'
p4840
aI173
aI92
aI92
aI23
aI60
aI1
aI184
asS'pinem001'
p4841
(lp4842
g4841
aS'Michael Pineda'
p4843
aS' 76.1'
p4844
aI56
aI18
aI16
aI5
aI7
aI0
aI59
asg2777
(lp4845
g2777
ag2779
aS' 70.2'
p4846
aI82
aI44
aI38
aI8
aI28
aI3
aI34
asS'friee001'
p4847
(lp4848
g4847
aS'Ernesto Frieri'
p4849
aS' 41.2'
p4850
aI47
aI34
aI34
aI11
aI14
aI2
aI48
asg2780
(lp4851
g2780
ag2782
aS' 63.1'
p4852
aI63
aI38
aI38
aI8
aI28
aI1
aI42
asg2783
(lp4853
g2783
ag2785
aS'145.1'
p4854
aI165
aI77
aI77
aI21
aI44
aI2
aI120
asa.