(lp0
(dp1
S'mcdod002'
p2
(lp3
g2
aS'Darnell McDonald'
p4
aI103
aI88
aI17
aI18
aI7
aI0
aI2
aI9
aI1
aI1
aI12
aI19
aI31
asS'corbp001'
p5
(lp6
g5
aS'Patrick Corbin'
p7
aI43
aI36
aI3
aI4
aI0
aI1
aI0
aI4
aI0
aI0
aI1
aI17
aI6
asS'garca003'
p8
(lp9
g8
aS'Avisail Garcia'
p10
aI51
aI47
aI7
aI15
aI0
aI0
aI0
aI3
aI0
aI2
aI3
aI10
aI15
asS'torrc001'
p11
(lp12
g11
aS'Carlos Torres'
p13
aI13
aI9
aI1
aI2
aI0
aI0
aI0
aI1
aI0
aI0
aI1
aI4
aI2
asS'belta001'
p14
(lp15
g14
aS'Adrian Beltre'
p16
aI654
aI604
aI95
aI194
aI33
aI2
aI36
aI102
aI1
aI0
aI36
aI82
aI339
asS'tream001'
p17
(lp18
g17
aS'Matt Treanor'
p19
aI122
aI103
aI11
aI18
aI3
aI1
aI2
aI10
aI1
aI1
aI14
aI29
aI29
asS'expol001'
p20
(lp21
g20
aS'Luis Exposito'
p22
aI22
aI18
aI2
aI1
aI0
aI0
aI0
aI0
aI0
aI0
aI3
aI5
aI1
asS'peres002'
p23
(lp24
g23
aS'Salvador Perez'
p25
aI305
aI289
aI38
aI87
aI16
aI0
aI11
aI39
aI0
aI0
aI12
aI27
aI136
asS'gonzc001'
p26
(lp27
g26
aS'Carlos Gonzalez'
p28
aI579
aI518
aI89
aI157
aI31
aI5
aI22
aI85
aI20
aI5
aI56
aI115
aI264
asS'worlv001'
p29
(lp30
g29
aS'Vance Worley'
p31
aI44
aI37
aI0
aI3
aI1
aI0
aI0
aI2
aI0
aI0
aI0
aI13
aI4
asS'famij001'
p32
(lp33
g32
aS'Jeurys Familia'
p34
aI1
aI1
aI0
aI0
aI0
aI0
aI0
aI0
aI0
aI0
aI0
aI1
aI0
asS'culbc001'
p35
(lp36
g35
aS'Charlie Culberson'
p37
aI23
aI22
aI0
aI3
aI0
aI0
aI0
aI1
aI0
aI0
aI0
aI7
aI3
asS'aybae001'
p38
(lp39
g38
aS'Erick Aybar'
p40
aI554
aI517
aI67
aI150
aI31
aI5
aI8
aI45
aI20
aI4
aI22
aI61
aI215
asS'arrob001'
p41
(lp42
g41
aS'Bronson Arroyo'
p43
aI71
aI63
aI4
aI9
aI1
aI0
aI1
aI3
aI0
aI0
aI1
aI28
aI13
asS'therr001'
p44
(lp45
g44
aS'Ryan Theriot'
p46
aI384
aI352
aI45
aI95
aI16
aI1
aI0
aI28
aI13
aI5
aI24
aI47
aI113
asS'tejar001'
p47
(lp48
g47
aS'Ruben Tejada'
p49
aI501
aI464
aI53
aI134
aI26
aI0
aI1
aI25
aI4
aI4
aI27
aI73
aI163
asS'kellj001'
p50
(lp51
g50
aS'Joe Kelly'
p52
aI35
aI33
aI3
aI5
aI2
aI0
aI0
aI2
aI0
aI0
aI0
aI13
aI7
asS'teagt001'
p53
(lp54
g53
aS'Taylor Teagarden'
p55
aI64
aI57
aI4
aI9
aI3
aI0
aI2
aI9
aI0
aI0
aI5
aI23
aI18
asS'herrc001'
p56
(lp57
g56
aS'Chris Herrmann'
p58
aI19
aI18
aI0
aI1
aI0
aI0
aI0
aI1
aI0
aI0
aI1
aI5
aI1
asS'kottg001'
p59
(lp60
g59
aS'George Kottaras'
p61
aI209
aI171
aI20
aI36
aI6
aI1
aI9
aI31
aI0
aI0
aI37
aI48
aI71
asS'cainm001'
p62
(lp63
g62
aS'Matt Cain'
p64
aI84
aI74
aI6
aI13
aI2
aI0
aI1
aI6
aI0
aI0
aI2
aI33
aI18
asS'wrigj001'
p65
(lp66
g65
aS'Jamey Wright'
p67
aI2
aI2
aI0
aI0
aI0
aI0
aI0
aI0
aI0
aI0
aI0
aI1
aI0
asS'willj003'
p68
(lp69
g68
aS'Jerome Williams'
p70
aI4
aI4
aI1
aI1
aI1
aI0
aI0
aI0
aI0
aI0
aI0
aI0
aI2
asS'niesj001'
p71
(lp72
g71
aS'Jon Niese'
p73
aI68
aI55
aI8
aI12
aI0
aI0
aI0
aI2
aI0
aI0
aI6
aI19
aI12
asS'burre001'
p74
(lp75
g74
aS'Emmanuel Burriss'
p76
aI150
aI136
aI15
aI29
aI1
aI0
aI0
aI7
aI5
aI3
aI10
aI25
aI30
asS'hoesl001'
p77
(lp78
g77
aS'L.J. Hoes'
p79
aI1
aI1
aI0
aI0
aI0
aI0
aI0
aI0
aI0
aI0
aI0
aI0
aI0
asS'quenc001'
p80
(lp81
g80
aS'Carlos Quentin'
p82
aI340
aI284
aI44
aI74
aI21
aI0
aI16
aI46
aI0
aI1
aI36
aI41
aI143
asS'jurrj001'
p83
(lp84
g83
aS'Jair Jurrjens'
p85
aI17
aI13
aI1
aI1
aI0
aI0
aI0
aI0
aI0
aI0
aI1
aI6
aI1
asS'nieuk001'
p86
(lp87
g86
aS'Kirk Nieuwenhuis'
p88
aI314
aI282
aI40
aI71
aI12
aI1
aI7
aI28
aI4
aI4
aI25
aI98
aI106
asS'lahab001'
p89
(lp90
g89
aS'Bryan LaHair'
p91
aI380
aI340
aI42
aI88
aI17
aI0
aI16
aI40
aI4
aI2
aI39
aI124
aI153
asS'maldm001'
p92
(lp93
g92
aS'Martin Maldonado'
p94
aI256
aI233
aI22
aI62
aI9
aI0
aI8
aI30
aI1
aI1
aI17
aI56
aI95
asS'heywj001'
p95
(lp96
g95
aS'Jason Heyward'
p97
aI651
aI587
aI93
aI158
aI30
aI6
aI27
aI82
aI21
aI8
aI58
aI152
aI281
asS'sellj002'
p98
(lp99
g98
aS'Justin Sellers'
p100
aI50
aI44
aI6
aI9
aI3
aI1
aI1
aI2
aI0
aI0
aI5
aI14
aI17
asS'sanca004'
p101
(lp102
g101
aS'Anibal Sanchez'
p103
aI35
aI30
aI1
aI3
aI0
aI1
aI0
aI0
aI0
aI0
aI1
aI18
aI5
asS'lecus001'
p104
(lp105
g104
aS'Sam LeCure'
p106
aI2
aI1
aI0
aI0
aI0
aI0
aI0
aI0
aI0
aI0
aI0
aI1
aI0
asS'gally001'
p107
(lp108
g107
aS'Yovani Gallardo'
p109
aI75
aI67
aI3
aI11
aI3
aI0
aI1
aI9
aI0
aI0
aI0
aI25
aI17
asS'hernd002'
p110
(lp111
g110
aS'David Hernandez'
p112
aI1
aI1
aI0
aI1
aI0
aI0
aI0
aI0
aI0
aI0
aI0
aI0
aI1
asS'crawc002'
p113
(lp114
g113
aS'Carl Crawford'
p115
aI125
aI117
aI23
aI33
aI10
aI2
aI3
aI19
aI5
aI0
aI3
aI22
aI56
asS'negrk001'
p116
(lp117
g116
aS'Kristopher Negron'
p118
aI5
aI4
aI2
aI1
aI0
aI0
aI0
aI0
aI0
aI0
aI1
aI2
aI1
asS'vicid001'
p119
(lp120
g119
aS'Dayan Viciedo'
p121
aI543
aI505
aI64
aI129
aI18
aI1
aI25
aI78
aI0
aI2
aI28
aI120
aI224
asS'valdw001'
p122
(lp123
g122
aS'Wilson Valdez'
p124
aI208
aI194
aI15
aI40
aI4
aI0
aI0
aI15
aI3
aI1
aI8
aI36
aI44
asS'rodra001'
p125
(lp126
g125
aS'Alex Rodriguez'
p127
aI529
aI463
aI74
aI126
aI17
aI1
aI18
aI57
aI13
aI1
aI51
aI116
aI199
asS'rodra002'
p128
(lp129
g128
aS'Aneury Rodriguez'
p130
aI1
aI1
aI0
aI1
aI0
aI0
aI0
aI0
aI0
aI0
aI0
aI0
aI1
asS'davir003'
p131
(lp132
g131
aS'Rajai Davis'
p133
aI487
aI447
aI64
aI115
aI24
aI3
aI8
aI43
aI46
aI13
aI29
aI102
aI169
asS'fulds001'
p134
(lp135
g134
aS'Sam Fuld'
p136
aI107
aI98
aI14
aI25
aI3
aI2
aI0
aI5
aI7
aI2
aI8
aI14
aI32
asS'samaj001'
p137
(lp138
g137
aS'Jeff Samardzija'
p139
aI61
aI50
aI0
aI5
aI0
aI0
aI0
aI3
aI0
aI0
aI3
aI16
aI5
asS'cespy001'
p140
(lp141
g140
aS'Yoenis Cespedes'
p142
aI540
aI487
aI70
aI142
aI25
aI5
aI23
aI82
aI16
aI4
aI43
aI102
aI246
asS'flowt001'
p143
(lp144
g143
aS'Tyler Flowers'
p145
aI153
aI136
aI19
aI29
aI6
aI0
aI7
aI13
aI2
aI1
aI12
aI56
aI56
asS'galvf001'
p146
(lp147
g146
aS'Freddy Galvis'
p148
aI200
aI190
aI14
aI43
aI15
aI1
aI3
aI24
aI0
aI0
aI7
aI29
aI69
asS'norrb001'
p149
(lp150
g149
aS'Bud Norris'
p151
aI60
aI50
aI2
aI5
aI1
aI0
aI0
aI3
aI0
aI0
aI1
aI15
aI6
asS'joycm001'
p152
(lp153
g152
aS'Matthew Joyce'
p154
aI462
aI399
aI55
aI96
aI18
aI3
aI17
aI59
aI4
aI3
aI55
aI102
aI171
asS'lewic001'
p155
(lp156
g155
aS'Colby Lewis'
p157
aI4
aI4
aI0
aI2
aI0
aI0
aI0
aI2
aI0
aI0
aI0
aI2
aI2
asS'domim001'
p158
(lp159
g158
aS'Matt Dominguez'
p160
aI113
aI109
aI14
aI31
aI2
aI2
aI5
aI16
aI0
aI0
aI4
aI17
aI52
asS'adamm002'
p161
(lp162
g161
aS'Matt Adams'
p163
aI91
aI86
aI8
aI21
aI6
aI0
aI2
aI13
aI0
aI0
aI5
aI24
aI33
asS'santj003'
p164
(lp165
g164
aS'Johan Santana'
p166
aI40
aI35
aI0
aI3
aI0
aI0
aI0
aI0
aI0
aI0
aI0
aI14
aI3
asS'rodrw002'
p167
(lp168
g167
aS'Wandy Rodriguez'
p169
aI72
aI61
aI2
aI4
aI0
aI0
aI0
aI2
aI0
aI0
aI3
aI14
aI4
asS'suzui001'
p170
(lp171
g170
aS'Ichiro Suzuki'
p172
aI663
aI629
aI77
aI178
aI28
aI6
aI9
aI55
aI29
aI7
aI22
aI61
aI245
asS'darnj001'
p173
(lp174
g173
aS'James Darnell'
p175
aI19
aI17
aI1
aI4
aI1
aI0
aI1
aI1
aI0
aI0
aI2
aI2
aI8
asS'thomc002'
p176
(lp177
g176
aS'Clete Thomas'
p178
aI29
aI28
aI2
aI4
aI1
aI0
aI1
aI4
aI0
aI0
aI0
aI16
aI8
asS'hills004'
p179
(lp180
g179
aS'Steven Hill'
p181
aI10
aI10
aI1
aI2
aI1
aI0
aI0
aI0
aI0
aI0
aI0
aI3
aI3
asS'mcbrm002'
p182
(lp183
g182
aS'Matt McBride'
p184
aI81
aI78
aI8
aI16
aI2
aI0
aI2
aI11
aI0
aI0
aI1
aI17
aI24
asS'ingeb001'
p185
(lp186
g185
aS'Brandon Inge'
p187
aI331
aI303
aI33
aI66
aI14
aI0
aI12
aI54
aI0
aI1
aI24
aI91
aI116
asS'mosed001'
p188
(lp189
g188
aS'Dustin Moseley'
p190
aI1
aI1
aI0
aI0
aI0
aI0
aI0
aI0
aI0
aI0
aI0
aI0
aI0
asS'hendl001'
p191
(lp192
g191
aS'Liam Hendriks'
p193
aI2
aI2
aI0
aI0
aI0
aI0
aI0
aI0
aI0
aI0
aI0
aI1
aI0
asS'burnc001'
p194
(lp195
g194
aS'Cory Burns'
p196
aI1
aI1
aI0
aI0
aI0
aI0
aI0
aI0
aI0
aI0
aI0
aI1
aI0
asS'eovan001'
p197
(lp198
g197
aS'Nathan Eovaldi'
p199
aI36
aI32
aI2
aI3
aI0
aI0
aI0
aI0
aI0
aI0
aI1
aI20
aI3
asS'morrl001'
p200
(lp201
g200
aS'Logan Morrison'
p202
aI334
aI296
aI30
aI68
aI15
aI1
aI11
aI36
aI1
aI0
aI31
aI58
aI118
asS'kontg001'
p203
(lp204
g203
aS'George Kontos'
p205
aI1
aI1
aI0
aI0
aI0
aI0
aI0
aI0
aI0
aI0
aI0
aI0
aI0
asS'hairs001'
p206
(lp207
g206
aS'Scott Hairston'
p208
aI398
aI377
aI52
aI99
aI25
aI3
aI20
aI57
aI8
aI2
aI19
aI83
aI190
asS'nievw001'
p209
(lp210
g209
aS'Wil Nieves'
p211
aI89
aI83
aI7
aI25
aI3
aI0
aI2
aI8
aI0
aI1
aI4
aI17
aI34
asS'barnd001'
p212
(lp213
g212
aS'Darwin Barney'
p214
aI588
aI548
aI73
aI139
aI26
aI4
aI7
aI44
aI6
aI1
aI33
aI58
aI194
asS'lohsk001'
p215
(lp216
g215
aS'Kyle Lohse'
p217
aI79
aI64
aI4
aI6
aI1
aI0
aI0
aI3
aI0
aI0
aI2
aI19
aI7
asS'sweer001'
p218
(lp219
g218
aS'Ryan Sweeney'
p220
aI219
aI204
aI22
aI53
aI19
aI2
aI0
aI16
aI0
aI0
aI12
aI43
aI76
asS'santr002'
p221
(lp222
g221
aS'Ramon Santiago'
p223
aI259
aI228
aI19
aI47
aI7
aI1
aI2
aI17
aI1
aI0
aI20
aI39
aI62
asS'fistd001'
p224
(lp225
g224
aS'Doug Fister'
p226
aI2
aI2
aI0
aI0
aI0
aI0
aI0
aI0
aI0
aI0
aI0
aI1
aI0
asS'riosa002'
p227
(lp228
g227
aS'Alex Rios'
p229
aI640
aI605
aI93
aI184
aI37
aI8
aI25
aI91
aI23
aI6
aI26
aI92
aI312
asS'dysoj001'
p230
(lp231
g230
aS'Jarrod Dyson'
p232
aI330
aI292
aI52
aI76
aI8
aI5
aI0
aI9
aI30
aI5
aI30
aI56
aI94
asS'jimel002'
p233
(lp234
g233
aS'Luis Jimenez'
p235
aI18
aI17
aI0
aI1
aI0
aI0
aI0
aI0
aI0
aI0
aI1
aI4
aI1
asS'delgr001'
p236
(lp237
g236
aS'Randall Delgado'
p238
aI28
aI25
aI3
aI6
aI0
aI0
aI0
aI1
aI0
aI0
aI0
aI9
aI6
asS'bowdm001'
p239
(lp240
g239
aS'Michael Bowden'
p241
aI2
aI2
aI0
aI0
aI0
aI0
aI0
aI0
aI0
aI0
aI0
aI2
aI0
asS'moyej001'
p242
(lp243
g242
aS'Jamie Moyer'
p244
aI17
aI13
aI1
aI2
aI0
aI0
aI0
aI2
aI0
aI0
aI1
aI10
aI2
asS'resoc001'
p245
(lp246
g245
aS'Chris Resop'
p247
aI5
aI3
aI0
aI0
aI0
aI0
aI0
aI0
aI0
aI0
aI1
aI2
aI0
asS'harvm001'
p248
(lp249
g248
aS'Matt Harvey'
p250
aI21
aI18
aI0
aI6
aI2
aI0
aI0
aI3
aI0
aI0
aI0
aI7
aI8
asS'puntn001'
p251
(lp252
g251
aS'Nick Punto'
p253
aI191
aI160
aI20
aI35
aI7
aI0
aI1
aI10
aI6
aI0
aI25
aI42
aI45
asS'hundn001'
p254
(lp255
g254
aS'Nick Hundley'
p256
aI225
aI204
aI14
aI32
aI7
aI1
aI3
aI22
aI0
aI3
aI15
aI56
aI50
asS'cishs001'
p257
(lp258
g257
aS'Steve Cishek'
p259
aI1
aI1
aI0
aI0
aI0
aI0
aI0
aI0
aI0
aI0
aI0
aI0
aI0
asS'frazt001'
p260
(lp261
g260
aS'Todd Frazier'
p262
aI465
aI422
aI55
aI115
aI26
aI6
aI19
aI67
aI3
aI2
aI36
aI103
aI210
asS'wised001'
p263
(lp264
g263
aS'Dewayne Wise'
p265
aI239
aI224
aI31
aI58
aI10
aI2
aI8
aI30
aI19
aI4
aI11
aI52
aI96
asS'carrj002'
p266
(lp267
g266
aS'Joel Carreno'
p268
aI1
aI1
aI0
aI0
aI0
aI0
aI0
aI0
aI0
aI0
aI0
aI0
aI0
asS'navad001'
p269
(lp270
g269
aS'Dioner Navarro'
p271
aI73
aI69
aI6
aI20
aI3
aI1
aI2
aI12
aI0
aI0
aI2
aI12
aI31
asS'navad002'
p272
(lp273
g272
aS'Daniel Nava'
p274
aI317
aI267
aI38
aI65
aI21
aI0
aI6
aI33
aI3
aI0
aI37
aI63
aI104
asS'carrj001'
p275
(lp276
g275
aS'Jamey Carroll'
p277
aI537
aI470
aI65
aI126
aI18
aI1
aI1
aI40
aI9
aI5
aI52
aI65
aI149
asS'avilm001'
p278
(lp279
g278
aS'Mike Aviles'
p280
aI546
aI512
aI57
aI128
aI28
aI0
aI13
aI60
aI14
aI6
aI23
aI77
aI195
asS'watst001'
p281
(lp282
g281
aS'Tony Watson'
p283
aI1
aI1
aI0
aI0
aI0
aI0
aI0
aI0
aI0
aI0
aI0
aI1
aI0
asS'youkk001'
p284
(lp285
g284
aS'Kevin Youkilis'
p286
aI509
aI438
aI72
aI103
aI15
aI2
aI19
aI60
aI0
aI0
aI51
aI108
aI179
asS'lutzz001'
p287
(lp288
g287
aS'Zach Lutz'
p289
aI11
aI11
aI1
aI1
aI0
aI0
aI0
aI0
aI0
aI0
aI0
aI5
aI1
asS'byrdm001'
p290
(lp291
g290
aS'Marlon Byrd'
p292
aI153
aI143
aI10
aI30
aI2
aI0
aI1
aI9
aI0
aI3
aI5
aI31
aI35
asS'guzmj005'
p293
(lp294
g293
aS'Jesus Guzman'
p295
aI321
aI287
aI32
aI71
aI18
aI2
aI9
aI48
aI3
aI3
aI29
aI71
aI120
asS'linct001'
p296
(lp297
g296
aS'Tim Lincecum'
p298
aI61
aI45
aI2
aI4
aI0
aI0
aI0
aI3
aI0
aI0
aI6
aI26
aI4
asS'descd001'
p299
(lp300
g299
aS'Daniel Descalso'
p301
aI426
aI374
aI41
aI85
aI10
aI7
aI4
aI26
aI6
aI3
aI37
aI83
aI121
asS'lee-c003'
p302
(lp303
g302
aS'Cliff Lee'
p304
aI71
aI64
aI3
aI10
aI2
aI0
aI0
aI4
aI1
aI0
aI1
aI23
aI12
asS'parej002'
p305
(lp306
g305
aS'Jimmy Paredes'
p307
aI82
aI74
aI7
aI14
aI1
aI1
aI0
aI3
aI2
aI1
aI6
aI21
aI17
asS'lee-c001'
p308
(lp309
g308
aS'Carlos Lee'
p310
aI615
aI550
aI53
aI145
aI27
aI1
aI9
aI77
aI3
aI0
aI58
aI49
aI201
asS'phipd001'
p311
(lp312
g311
aS'Denis Phipps'
p313
aI11
aI10
aI4
aI3
aI1
aI0
aI1
aI2
aI0
aI0
aI1
aI4
aI7
asS'carsm001'
p314
(lp315
g314
aS'Matt Carson'
p316
aI69
aI66
aI3
aI15
aI1
aI0
aI0
aI4
aI0
aI0
aI2
aI21
aI16
asS'batim001'
p317
(lp318
g317
aS'Miguel Batista'
p319
aI7
aI6
aI0
aI0
aI0
aI0
aI0
aI0
aI0
aI0
aI0
aI4
aI0
asS'gutif001'
p320
(lp321
g320
aS'Franklin Gutierrez'
p322
aI163
aI150
aI18
aI39
aI10
aI1
aI4
aI17
aI3
aI1
aI9
aI31
aI63
asS'olmer001'
p323
(lp324
g323
aS'Ray Olmedo'
p325
aI42
aI41
aI8
aI10
aI2
aI0
aI0
aI1
aI0
aI0
aI0
aI9
aI12
asS'quino001'
p326
(lp327
g326
aS'Omar Quintanilla'
p328
aI190
aI169
aI25
aI41
aI8
aI0
aI4
aI16
aI0
aI1
aI16
aI42
aI61
asS'mchuc001'
p329
(lp330
g329
aS'Collin McHugh'
p331
aI4
aI4
aI0
aI0
aI0
aI0
aI0
aI0
aI0
aI0
aI0
aI2
aI0
asS'blact001'
p332
(lp333
g332
aS'Travis Blackley'
p334
aI2
aI2
aI0
aI0
aI0
aI0
aI0
aI0
aI0
aI0
aI0
aI2
aI0
asS'carpm001'
p335
(lp336
g335
aS'Mike Carp'
p337
aI189
aI164
aI17
aI35
aI6
aI0
aI5
aI20
aI1
aI0
aI21
aI46
aI56
asS'rottv001'
p338
(lp339
g338
aS'Vinny Rottino'
p340
aI71
aI61
aI12
aI9
aI2
aI0
aI3
aI7
aI4
aI0
aI7
aI17
aI20
asS'iglej001'
p341
(lp342
g341
aS'Jose Iglesias'
p343
aI77
aI68
aI5
aI8
aI2
aI0
aI1
aI2
aI1
aI0
aI4
aI16
aI13
asS'carll001'
p344
(lp345
g344
aS'Luke Carlin'
p346
aI14
aI14
aI2
aI3
aI1
aI0
aI0
aI1
aI1
aI0
aI0
aI3
aI4
asS'handb001'
p347
(lp348
g347
aS'Brad Hand'
p349
aI1
aI1
aI0
aI0
aI0
aI0
aI0
aI0
aI0
aI0
aI0
aI0
aI0
asS'werna001'
p350
(lp351
g350
aS'Andrew Werner'
p352
aI14
aI12
aI0
aI1
aI0
aI0
aI0
aI0
aI0
aI0
aI0
aI4
aI1
asS'detwr001'
p353
(lp354
g353
aS'Ross Detwiler'
p355
aI49
aI45
aI0
aI2
aI0
aI0
aI0
aI1
aI0
aI0
aI1
aI22
aI2
asS'bresc001'
p356
(lp357
g356
aS'Craig Breslow'
p358
aI3
aI3
aI0
aI0
aI0
aI0
aI0
aI0
aI0
aI0
aI0
aI2
aI0
asS'casta003'
p359
(lp360
g359
aS'Alex Castellanos'
p361
aI25
aI23
aI3
aI4
aI0
aI1
aI1
aI3
aI0
aI0
aI0
aI8
aI9
asS'robeb003'
p362
(lp363
g362
aS'Brian Roberts'
p364
aI74
aI66
aI2
aI12
aI0
aI0
aI0
aI5
aI1
aI1
aI5
aI12
aI12
asS'howar001'
p365
(lp366
g365
aS'Ryan Howard'
p367
aI292
aI260
aI28
aI57
aI11
aI0
aI14
aI56
aI0
aI0
aI25
aI99
aI110
asS'lincb001'
p368
(lp369
g368
aS'Brad Lincoln'
p370
aI10
aI10
aI2
aI2
aI0
aI0
aI0
aI0
aI0
aI0
aI0
aI6
aI2
asS'fielp001'
p371
(lp372
g371
aS'Prince Fielder'
p373
aI690
aI581
aI83
aI182
aI33
aI1
aI30
aI108
aI1
aI0
aI85
aI84
aI307
asS'diams001'
p374
(lp375
g374
aS'Scott Diamond'
p376
aI8
aI7
aI1
aI1
aI0
aI0
aI0
aI0
aI0
aI0
aI0
aI4
aI1
asS'smits002'
p377
(lp378
g377
aS'Seth Smith'
p379
aI441
aI383
aI55
aI92
aI23
aI2
aI14
aI52
aI2
aI2
aI50
aI98
aI161
asS'salec001'
p380
(lp381
g380
aS'Chris Sale'
p382
aI3
aI2
aI0
aI0
aI0
aI0
aI0
aI0
aI0
aI0
aI0
aI2
aI0
asS'hilla001'
p383
(lp384
g383
aS'Aaron Hill'
p385
aI668
aI609
aI93
aI184
aI44
aI6
aI26
aI85
aI14
aI5
aI52
aI86
aI318
asS'pomed001'
p386
(lp387
g386
aS'Drew Pomeranz'
p388
aI31
aI26
aI2
aI6
aI2
aI0
aI1
aI1
aI0
aI0
aI1
aI15
aI11
asS'paulr001'
p389
(lp390
g389
aS'Ronny Paulino'
p391
aI64
aI63
aI5
aI16
aI3
aI0
aI0
aI5
aI0
aI0
aI1
aI9
aI19
asS'betew001'
p392
(lp393
g392
aS'Wilson Betemit'
p394
aI376
aI341
aI41
aI89
aI19
aI0
aI12
aI40
aI0
aI1
aI31
aI103
aI144
asS'brigr001'
p395
(lp396
g395
aS'Reid Brignac'
p397
aI22
aI21
aI1
aI2
aI0
aI0
aI0
aI1
aI0
aI0
aI1
aI5
aI2
asS'sogae001'
p398
(lp399
g398
aS'Eric Sogard'
p400
aI108
aI102
aI8
aI17
aI3
aI1
aI2
aI7
aI2
aI0
aI5
aI17
aI28
asS'simoa001'
p401
(lp402
g401
aS'Alfredo Simon'
p403
aI4
aI4
aI0
aI0
aI0
aI0
aI0
aI0
aI0
aI0
aI0
aI2
aI0
asS'nolar001'
p404
(lp405
g404
aS'Ricky Nolasco'
p406
aI70
aI56
aI4
aI9
aI3
aI0
aI0
aI8
aI0
aI0
aI4
aI27
aI12
asS'stanm004'
p407
(lp408
g407
aS'Giancarlo Stanton'
p409
aI501
aI449
aI75
aI130
aI30
aI1
aI37
aI86
aI6
aI2
aI46
aI143
aI273
asS'pachj001'
p410
(lp411
g410
aS'Jordan Pacheco'
p412
aI505
aI475
aI51
aI147
aI32
aI3
aI5
aI54
aI7
aI2
aI22
aI61
aI200
asS'jackb002'
p413
(lp414
g413
aS'Brett Jackson'
p415
aI142
aI120
aI14
aI21
aI6
aI1
aI4
aI9
aI0
aI3
aI22
aI59
aI41
asS'rossd001'
p416
(lp417
g416
aS'David Ross'
p418
aI196
aI176
aI18
aI45
aI7
aI0
aI9
aI23
aI1
aI0
aI18
aI60
aI79
asS'herrj002'
p419
(lp420
g419
aS'Jonathan Herrera'
p421
aI251
aI225
aI29
aI59
aI9
aI1
aI3
aI12
aI4
aI1
aI16
aI39
aI79
asS'mckem001'
p422
(lp423
g422
aS'Michael McKenry'
p424
aI275
aI240
aI25
aI56
aI14
aI0
aI12
aI39
aI0
aI0
aI29
aI73
aI106
asS'fowld001'
p425
(lp426
g425
aS'Dexter Fowler'
p427
aI530
aI454
aI72
aI136
aI18
aI11
aI13
aI53
aI12
aI5
aI68
aI128
aI215
asS'cahit001'
p428
(lp429
g428
aS'Trevor Cahill'
p430
aI73
aI67
aI2
aI8
aI0
aI0
aI0
aI4
aI0
aI0
aI1
aI24
aI8
asS'parnb001'
p431
(lp432
g431
aS'Bobby Parnell'
p433
aI1
aI0
aI0
aI0
aI0
aI0
aI0
aI0
aI0
aI0
aI0
aI0
aI0
asS'mossb001'
p434
(lp435
g434
aS'Brandon Moss'
p436
aI296
aI265
aI48
aI77
aI18
aI0
aI21
aI52
aI1
aI1
aI26
aI90
aI158
asS'bauet001'
p437
(lp438
g437
aS'Trevor Bauer'
p439
aI5
aI4
aI0
aI0
aI0
aI0
aI0
aI0
aI0
aI0
aI0
aI1
aI0
asS'pastt001'
p440
(lp441
g440
aS'Tyler Pastornicky'
p442
aI188
aI169
aI21
aI41
aI6
aI1
aI2
aI13
aI2
aI0
aI10
aI32
aI55
asS'arenj001'
p443
(lp444
g443
aS'J.P. Arencibia'
p445
aI372
aI347
aI45
aI81
aI16
aI0
aI18
aI56
aI1
aI0
aI18
aI108
aI151
asS'richg002'
p446
(lp447
g446
aS'Garrett Richards'
p448
aI2
aI2
aI0
aI0
aI0
aI0
aI0
aI0
aI0
aI0
aI0
aI1
aI0
asS'cuetj001'
p449
(lp450
g449
aS'Johnny Cueto'
p451
aI84
aI67
aI3
aI6
aI1
aI0
aI0
aI2
aI0
aI0
aI0
aI24
aI7
asS'younm004'
p452
(lp453
g452
aS'Matt Young'
p454
aI11
aI10
aI2
aI1
aI1
aI0
aI0
aI1
aI0
aI0
aI0
aI9
aI2
asS'rossr002'
p455
(lp456
g455
aS'Robbie Ross'
p457
aI2
aI2
aI1
aI0
aI0
aI0
aI0
aI0
aI0
aI0
aI0
aI1
aI0
asS'carda001'
p458
(lp459
g458
aS'Adrian Cardenas'
p460
aI67
aI60
aI5
aI11
aI6
aI0
aI0
aI2
aI0
aI0
aI7
aI13
aI17
asS'younm003'
p461
(lp462
g461
aS'Michael Young'
p463
aI651
aI611
aI79
aI169
aI27
aI3
aI8
aI67
aI2
aI2
aI33
aI70
aI226
asS'hestj001'
p464
(lp465
g464
aS'John Hester'
p466
aI95
aI85
aI14
aI18
aI1
aI0
aI3
aI4
aI0
aI0
aI8
aI25
aI28
asS'stamc001'
p467
(lp468
g467
aS'Craig Stammen'
p469
aI8
aI6
aI0
aI0
aI0
aI0
aI0
aI0
aI0
aI0
aI0
aI4
aI0
asS'pradm001'
p470
(lp471
g470
aS'Martin Prado'
p472
aI690
aI617
aI81
aI186
aI42
aI6
aI10
aI70
aI17
aI4
aI58
aI69
aI270
asS'johnk003'
p473
(lp474
g473
aS'Kelly Johnson'
p475
aI581
aI507
aI61
aI114
aI19
aI2
aI16
aI55
aI14
aI2
aI62
aI159
aI185
asS'maldc003'
p476
(lp477
g476
aS'Carlos Maldonado'
p478
aI12
aI9
aI0
aI0
aI0
aI0
aI0
aI1
aI0
aI0
aI2
aI4
aI0
asS'novai001'
p479
(lp480
g479
aS'Ivan Nova'
p481
aI9
aI7
aI0
aI1
aI0
aI0
aI0
aI0
aI0
aI0
aI0
aI6
aI1
asS'rossc001'
p482
(lp483
g482
aS'Cody Ross'
p484
aI528
aI476
aI70
aI127
aI34
aI1
aI22
aI81
aI2
aI3
aI42
aI129
aI229
asS'snydb003'
p485
(lp486
g485
aS'Brandon Snyder'
p487
aI69
aI65
aI11
aI18
aI2
aI0
aI3
aI9
aI0
aI0
aI3
aI26
aI29
asS'lombs002'
p488
(lp489
g488
aS'Steve Lombardozzi'
p490
aI416
aI384
aI40
aI105
aI16
aI3
aI3
aI27
aI5
aI3
aI19
aI46
aI136
asS'johnr009'
p491
(lp492
g491
aS'Rob Johnson'
p493
aI58
aI52
aI3
aI13
aI2
aI0
aI0
aI4
aI0
aI0
aI4
aI10
aI15
asS'johnr008'
p494
(lp495
g494
aS'Reed Johnson'
p496
aI288
aI269
aI30
aI78
aI14
aI3
aI3
aI20
aI2
aI2
aI13
aI61
aI107
asS'westj001'
p497
(lp498
g497
aS'Jake Westbrook'
p499
aI58
aI49
aI2
aI6
aI1
aI0
aI0
aI0
aI1
aI0
aI4
aI24
aI7
asS'kinsi001'
p500
(lp501
g500
aS'Ian Kinsler'
p502
aI731
aI655
aI105
aI168
aI42
aI5
aI19
aI72
aI21
aI9
aI60
aI90
aI277
asS'donaj002'
p503
(lp504
g503
aS'Jason Donald'
p505
aI135
aI124
aI18
aI25
aI2
aI1
aI2
aI11
aI4
aI0
aI5
aI40
aI35
asS'donaj001'
p506
(lp507
g506
aS'Josh Donaldson'
p508
aI294
aI274
aI34
aI66
aI16
aI0
aI9
aI33
aI4
aI1
aI14
aI61
aI109
asS'rasmc001'
p509
(lp510
g509
aS'Colby Rasmus'
p511
aI625
aI565
aI75
aI126
aI21
aI5
aI23
aI75
aI4
aI3
aI47
aI149
aI226
asS'burrs001'
p512
(lp513
g512
aS'Sean Burroughs'
p514
aI18
aI17
aI0
aI2
aI1
aI0
aI0
aI1
aI0
aI0
aI1
aI3
aI3
asS'weekj001'
p515
(lp516
g515
aS'Jemile Weeks'
p517
aI511
aI444
aI54
aI98
aI15
aI8
aI2
aI20
aI16
aI5
aI50
aI70
aI135
asS'averx001'
p518
(lp519
g518
aS'Xavier Avery'
p520
aI107
aI94
aI14
aI21
aI6
aI1
aI1
aI6
aI6
aI3
aI11
aI23
aI32
asS'hughj001'
p521
(lp522
g521
aS'Jared Hughes'
p523
aI1
aI1
aI0
aI0
aI0
aI0
aI0
aI0
aI0
aI0
aI0
aI1
aI0
asS'pears001'
p524
(lp525
g524
aS'Steve Pearce'
p526
aI188
aI159
aI16
aI38
aI8
aI1
aI4
aI26
aI1
aI2
aI20
aI41
aI60
asS'fordl001'
p527
(lp528
g527
aS'Lew Ford'
p529
aI79
aI71
aI7
aI13
aI3
aI0
aI3
aI4
aI1
aI0
aI7
aI13
aI25
asS'stubd001'
p530
(lp531
g530
aS'Drew Stubbs'
p532
aI544
aI493
aI75
aI105
aI13
aI2
aI14
aI40
aI30
aI7
aI42
aI166
aI164
asS'cruzt002'
p533
(lp534
g533
aS'Tony Cruz'
p535
aI131
aI126
aI11
aI32
aI9
aI1
aI1
aI11
aI0
aI1
aI3
aI19
aI46
asS'markn001'
p536
(lp537
g536
aS'Nick Markakis'
p538
aI471
aI420
aI59
aI125
aI28
aI3
aI13
aI54
aI1
aI1
aI42
aI51
aI198
asS'waina001'
p539
(lp540
g539
aS'Adam Wainwright'
p541
aI72
aI66
aI5
aI8
aI2
aI0
aI1
aI4
aI0
aI0
aI3
aI32
aI13
asS'beckg001'
p542
(lp543
g542
aS'Gordon Beckham'
p544
aI582
aI525
aI62
aI123
aI24
aI0
aI16
aI60
aI5
aI4
aI40
aI89
aI195
asS'cedex001'
p545
(lp546
g545
aS'Xavier Cedeno'
p547
aI1
aI1
aI0
aI0
aI0
aI0
aI0
aI0
aI0
aI0
aI0
aI1
aI0
asS'mortc002'
p548
(lp549
g548
aS'Charlie Morton'
p550
aI15
aI13
aI0
aI0
aI0
aI0
aI0
aI0
aI0
aI0
aI0
aI8
aI0
asS'trumm001'
p551
(lp552
g551
aS'Mark Trumbo'
p553
aI586
aI544
aI66
aI146
aI19
aI3
aI32
aI95
aI4
aI5
aI36
aI153
aI267
asS'sotog001'
p554
(lp555
g554
aS'Geovany Soto'
p556
aI361
aI324
aI45
aI64
aI12
aI1
aI11
aI39
aI1
aI0
aI30
aI76
aI111
asS'suzuk001'
p557
(lp558
g557
aS'Kurt Suzuki'
p559
aI442
aI408
aI36
aI96
aI20
aI0
aI6
aI43
aI2
aI0
aI20
aI73
aI134
asS'hudso001'
p560
(lp561
g560
aS'Orlando Hudson'
p562
aI283
aI260
aI21
aI53
aI3
aI8
aI3
aI28
aI6
aI3
aI20
aI51
aI81
asS'redmt002'
p563
(lp564
g563
aS'Todd Redmond'
p565
aI1
aI1
aI0
aI0
aI0
aI0
aI0
aI0
aI0
aI0
aI0
aI1
aI0
asS'florj002'
p566
(lp567
g566
aS'Jesus Flores'
p568
aI296
aI277
aI22
aI59
aI12
aI1
aI6
aI26
aI1
aI2
aI13
aI59
aI91
asS'ackld001'
p569
(lp570
g569
aS'Dustin Ackley'
p571
aI668
aI607
aI84
aI137
aI22
aI2
aI12
aI50
aI13
aI3
aI59
aI124
aI199
asS'pierj002'
p572
(lp573
g572
aS'Juan Pierre'
p574
aI439
aI394
aI59
aI121
aI10
aI6
aI1
aI25
aI37
aI7
aI23
aI27
aI146
asS'mijaj001'
p575
(lp576
g575
aS'Jose Mijares'
p577
aI1
aI1
aI0
aI0
aI0
aI0
aI0
aI0
aI0
aI0
aI0
aI1
aI0
asS'mastj001'
p578
(lp579
g578
aS'Justin Masterson'
p580
aI2
aI2
aI0
aI0
aI0
aI0
aI0
aI0
aI0
aI0
aI0
aI1
aI0
asS'lairb001'
p581
(lp582
g581
aS'Brandon Laird'
p583
aI37
aI35
aI2
aI9
aI1
aI0
aI1
aI4
aI0
aI0
aI2
aI8
aI13
asS'gonze001'
p584
(lp585
g584
aS'Edgar Gonzalez'
p586
aI12
aI9
aI0
aI1
aI0
aI0
aI0
aI1
aI0
aI0
aI2
aI5
aI1
asS'forsl001'
p587
(lp588
g587
aS'Logan Forsythe'
p589
aI350
aI315
aI45
aI86
aI13
aI3
aI6
aI26
aI8
aI2
aI28
aI57
aI123
asS'wrigw001'
p590
(lp591
g590
aS'Wesley Wright'
p592
aI3
aI2
aI0
aI0
aI0
aI0
aI0
aI0
aI0
aI0
aI0
aI2
aI0
asS'ottaa001'
p593
(lp594
g593
aS'Adam Ottavino'
p595
aI12
aI9
aI1
aI1
aI0
aI0
aI0
aI0
aI0
aI0
aI0
aI7
aI1
asS'mesam001'
p596
(lp597
g596
aS'Melky Mesa'
p598
aI2
aI2
aI0
aI1
aI0
aI0
aI0
aI1
aI0
aI0
aI0
aI0
aI1
asS'sancj002'
p599
(lp600
g599
aS'Jonathan Sanchez'
p601
aI5
aI5
aI0
aI0
aI0
aI0
aI0
aI0
aI0
aI0
aI0
aI5
aI0
asS'robit001'
p602
(lp603
g602
aS'Trayvon Robinson'
p604
aI164
aI145
aI16
aI32
aI4
aI1
aI3
aI12
aI6
aI3
aI14
aI43
aI47
asS'zambc001'
p605
(lp606
g605
aS'Carlos Zambrano'
p607
aI36
aI34
aI3
aI6
aI0
aI0
aI1
aI2
aI0
aI0
aI0
aI8
aI9
asS'andeb005'
p608
(lp609
g608
aS'Bryan Anderson'
p610
aI14
aI12
aI2
aI3
aI1
aI0
aI0
aI0
aI1
aI0
aI1
aI6
aI4
asS'rober002'
p611
(lp612
g611
aS'Ryan Roberts'
p613
aI489
aI439
aI51
aI103
aI19
aI0
aI12
aI52
aI10
aI6
aI40
aI92
aI158
asS'billc001'
p614
(lp615
g614
aS'Chad Billingsley'
p616
aI48
aI42
aI1
aI8
aI1
aI0
aI0
aI2
aI0
aI0
aI0
aI18
aI9
asS'browb004'
p617
(lp618
g617
aS'Barret Browning'
p619
aI1
aI1
aI0
aI0
aI0
aI0
aI0
aI0
aI0
aI0
aI0
aI0
aI0
asS'hernd003'
p620
(lp621
g620
aS'David Herndon'
p622
aI1
aI1
aI0
aI0
aI0
aI0
aI0
aI0
aI0
aI0
aI0
aI1
aI0
asS'rosaa001'
p623
(lp624
g623
aS'Adam Rosales'
p625
aI111
aI99
aI12
aI22
aI5
aI0
aI2
aI8
aI0
aI0
aI11
aI24
aI33
asS'hernl004'
p626
(lp627
g626
aS'Luis Hernandez'
p628
aI2
aI2
aI0
aI0
aI0
aI0
aI0
aI0
aI0
aI0
aI0
aI0
aI0
asS'gregl001'
p629
(lp630
g629
aS'Luke Gregerson'
p631
aI1
aI1
aI0
aI0
aI0
aI0
aI0
aI0
aI0
aI0
aI0
aI1
aI0
asS'gamem001'
p632
(lp633
g632
aS'Mat Gamel'
p634
aI75
aI69
aI10
aI17
aI2
aI1
aI1
aI6
aI3
aI0
aI4
aI15
aI24
asS'hernl003'
p635
(lp636
g635
aS'Livan Hernandez'
p637
aI5
aI4
aI0
aI0
aI0
aI0
aI0
aI0
aI0
aI0
aI1
aI1
aI0
asS'lerus001'
p638
(lp639
g638
aS'Steven Lerud'
p640
aI10
aI10
aI1
aI2
aI0
aI0
aI0
aI0
aI0
aI0
aI0
aI2
aI2
asS'valbl001'
p641
(lp642
g641
aS'Luis Valbuena'
p643
aI303
aI265
aI26
aI58
aI20
aI0
aI4
aI28
aI0
aI2
aI36
aI55
aI90
asS'elmoj001'
p644
(lp645
g644
aS'Jake Elmore'
p646
aI73
aI68
aI1
aI13
aI4
aI0
aI0
aI7
aI0
aI0
aI5
aI6
aI17
asS'green001'
p647
(lp648
g647
aS'Nick Green'
p649
aI24
aI23
aI1
aI4
aI3
aI0
aI0
aI1
aI0
aI0
aI0
aI6
aI7
asS'mccab002'
p650
(lp651
g650
aS'Brian McCann'
p652
aI487
aI439
aI44
aI101
aI14
aI0
aI20
aI67
aI3
aI0
aI44
aI76
aI175
asS'kelld001'
p653
(lp654
g653
aS'Don Kelly'
p655
aI127
aI113
aI14
aI21
aI2
aI1
aI1
aI7
aI2
aI0
aI14
aI22
aI28
asS'rizza001'
p656
(lp657
g656
aS'Anthony Rizzo'
p658
aI368
aI337
aI44
aI96
aI15
aI0
aI15
aI48
aI3
aI2
aI27
aI62
aI156
asS'beltc001'
p659
(lp660
g659
aS'Carlos Beltran'
p661
aI619
aI547
aI83
aI147
aI26
aI1
aI32
aI97
aI13
aI6
aI65
aI124
aI271
asS'laffa001'
p662
(lp663
g662
aS'Aaron Laffey'
p664
aI1
aI1
aI0
aI0
aI0
aI0
aI0
aI0
aI0
aI0
aI0
aI0
aI0
asS'parrg001'
p665
(lp666
g665
aS'Gerardo Parra'
p667
aI430
aI385
aI58
aI105
aI21
aI2
aI7
aI36
aI15
aI9
aI33
aI77
aI151
asS'mcdoj004'
p668
(lp669
g668
aS'James McDonald'
p670
aI63
aI49
aI8
aI7
aI0
aI0
aI0
aI1
aI0
aI0
aI8
aI23
aI7
asS'schmk001'
p671
(lp672
g671
aS'Konrad Schmidt'
p673
aI8
aI7
aI1
aI0
aI0
aI0
aI0
aI2
aI0
aI0
aI1
aI2
aI0
asS'cabra002'
p674
(lp675
g674
aS'Asdrubal Cabrera'
p676
aI616
aI555
aI70
aI150
aI35
aI1
aI16
aI68
aI9
aI4
aI52
aI99
aI235
asS'mcdoj003'
p677
(lp678
g677
aS'John McDonald'
p679
aI213
aI197
aI16
aI49
aI9
aI0
aI6
aI22
aI0
aI1
aI12
aI33
aI76
asS'langr002'
p680
(lp681
g680
aS'Ryan Langerhans'
p682
aI2
aI1
aI0
aI0
aI0
aI0
aI0
aI0
aI0
aI0
aI0
aI1
aI0
asS'clemj001'
p683
(lp684
g683
aS'Jeff Clement'
p685
aI24
aI22
aI1
aI3
aI1
aI0
aI0
aI1
aI0
aI0
aI2
aI7
aI4
asS'mousm001'
p686
(lp687
g686
aS'Mike Moustakas'
p688
aI614
aI563
aI69
aI136
aI34
aI1
aI20
aI73
aI5
aI2
aI39
aI124
aI232
asS'mayse001'
p689
(lp690
g689
aS'Edwin Maysonet'
p691
aI66
aI60
aI7
aI15
aI1
aI1
aI1
aI4
aI1
aI0
aI3
aI9
aI21
asS'hickb002'
p692
(lp693
g692
aS'Brandon Hicks'
p694
aI70
aI64
aI8
aI11
aI5
aI0
aI3
aI7
aI1
aI0
aI6
aI31
aI25
asS'schin001'
p695
(lp696
g695
aS'Nate Schierholtz'
p697
aI269
aI241
aI20
aI62
aI8
aI5
aI6
aI21
aI3
aI2
aI23
aI46
aI98
asS'nealt001'
p698
(lp699
g698
aS'Thomas Neal'
p700
aI24
aI23
aI2
aI5
aI1
aI0
aI0
aI2
aI0
aI0
aI0
aI6
aI6
asS'buckj001'
p701
(lp702
g701
aS'John Buck'
p703
aI398
aI343
aI29
aI66
aI15
aI1
aI12
aI41
aI0
aI0
aI49
aI103
aI119
asS'peguc001'
p704
(lp705
g704
aS'Carlos Peguero'
p706
aI57
aI56
aI2
aI10
aI2
aI1
aI2
aI7
aI0
aI0
aI1
aI28
aI20
asS'harrj002'
p707
(lp708
g707
aS'Josh Harrison'
p709
aI276
aI249
aI34
aI58
aI9
aI5
aI3
aI16
aI7
aI3
aI10
aI37
aI86
asS'thort001'
p710
(lp711
g710
aS'Tyler Thornburg'
p712
aI5
aI5
aI1
aI1
aI1
aI0
aI0
aI0
aI0
aI0
aI0
aI2
aI2
asS'hinse001'
p713
(lp714
g713
aS'Eric Hinske'
p715
aI147
aI132
aI9
aI26
aI7
aI1
aI2
aI13
aI0
aI0
aI14
aI41
aI41
asS'stewi001'
p716
(lp717
g716
aS'Ian Stewart'
p718
aI202
aI179
aI16
aI36
aI5
aI2
aI5
aI17
aI0
aI3
aI21
aI46
aI60
asS'floyg001'
p719
(lp720
g719
aS'Gavin Floyd'
p721
aI1
aI1
aI0
aI0
aI0
aI0
aI0
aI0
aI0
aI0
aI0
aI0
aI0
asS'krate001'
p722
(lp723
g722
aS'Erik Kratz'
p724
aI157
aI141
aI14
aI35
aI9
aI0
aI9
aI26
aI0
aI0
aI11
aI34
aI71
asS'wilsj002'
p725
(lp726
g725
aS'Jack Wilson'
p727
aI77
aI71
aI4
aI12
aI1
aI1
aI0
aI4
aI0
aI0
aI2
aI12
aI15
asS'humbp001'
p728
(lp729
g728
aS'Philip Humber'
p730
aI5
aI5
aI0
aI1
aI0
aI0
aI0
aI1
aI0
aI0
aI0
aI2
aI1
asS'chrij003'
p731
(lp732
g731
aS'Justin Christian'
p733
aI61
aI56
aI6
aI7
aI1
aI0
aI0
aI2
aI2
aI1
aI5
aI3
aI8
asS'roseb003'
p734
(lp735
g734
aS'B.J. Rosenberg'
p736
aI4
aI3
aI0
aI1
aI0
aI0
aI0
aI1
aI0
aI0
aI0
aI1
aI1
asS'holab001'
p737
(lp738
g737
aS'Bryan Holaday'
p739
aI13
aI12
aI3
aI3
aI1
aI0
aI0
aI0
aI0
aI0
aI0
aI2
aI4
asS'escoa003'
p740
(lp741
g740
aS'Alcides Escobar'
p742
aI648
aI605
aI68
aI177
aI30
aI7
aI5
aI52
aI35
aI5
aI27
aI100
aI236
asS'barar001'
p743
(lp744
g743
aS'Rod Barajas'
p745
aI361
aI321
aI29
aI66
aI11
aI0
aI11
aI31
aI0
aI0
aI29
aI69
aI110
asS'davic003'
p746
(lp747
g746
aS'Chris Davis'
p748
aI562
aI515
aI75
aI139
aI20
aI0
aI33
aI85
aI2
aI3
aI37
aI169
aI258
asS'arrij001'
p749
(lp750
g749
aS'Jake Arrieta'
p751
aI4
aI3
aI0
aI0
aI0
aI0
aI0
aI0
aI0
aI0
aI1
aI2
aI0
asS'hollm001'
p752
(lp753
g752
aS'Matt Holliday'
p754
aI688
aI599
aI95
aI177
aI36
aI2
aI27
aI102
aI4
aI4
aI75
aI132
aI298
asS'bautj002'
p755
(lp756
g755
aS'Jose Bautista'
p757
aI399
aI332
aI64
aI80
aI14
aI0
aI27
aI65
aI5
aI2
aI59
aI63
aI175
asS'fontm001'
p758
(lp759
g758
aS'Mike Fontenot'
p760
aI105
aI97
aI13
aI28
aI2
aI0
aI1
aI5
aI0
aI1
aI7
aI23
aI33
asS'penac001'
p761
(lp762
g761
aS'Carlos Pena'
p763
aI600
aI497
aI72
aI98
aI17
aI2
aI19
aI61
aI2
aI3
aI87
aI182
aI176
asS'ramia003'
p764
(lp765
g764
aS'Alexei Ramirez'
p766
aI621
aI593
aI59
aI157
aI24
aI4
aI9
aI73
aI20
aI7
aI16
aI77
aI216
asS'giavj001'
p767
(lp768
g767
aS'Johnny Giavotella'
p769
aI189
aI181
aI21
aI43
aI7
aI1
aI1
aI15
aI3
aI0
aI8
aI35
aI55
asS'calhk001'
p770
(lp771
g770
aS'Kole Calhoun'
p772
aI25
aI23
aI2
aI4
aI1
aI0
aI0
aI1
aI1
aI0
aI2
aI6
aI5
asS'cartc002'
p773
(lp774
g773
aS'Chris Carter'
p775
aI260
aI218
aI38
aI52
aI12
aI0
aI16
aI39
aI0
aI0
aI39
aI83
aI112
asS'harrm001'
p776
(lp777
g776
aS'Matt Harrison'
p778
aI7
aI5
aI0
aI0
aI0
aI0
aI0
aI0
aI0
aI0
aI0
aI3
aI0
asS'flahr001'
p779
(lp780
g779
aS'Ryan Flaherty'
p781
aI167
aI153
aI15
aI33
aI2
aI1
aI6
aI19
aI1
aI0
aI6
aI43
aI55
asS'gee-d001'
p782
(lp783
g782
aS'Dillon Gee'
p784
aI34
aI27
aI4
aI4
aI2
aI0
aI0
aI1
aI0
aI0
aI2
aI7
aI6
asS'vanss001'
p785
(lp786
g785
aS'Scott Van Slyke'
p787
aI57
aI54
aI4
aI9
aI2
aI0
aI2
aI7
aI1
aI0
aI2
aI14
aI17
asS'recka001'
p788
(lp789
g788
aS'Anthony Recker'
p790
aI58
aI49
aI4
aI7
aI2
aI0
aI1
aI4
aI0
aI0
aI6
aI15
aI12
asS'color001'
p791
(lp792
g791
aS'Roman Colon'
p793
aI1
aI1
aI0
aI0
aI0
aI0
aI0
aI0
aI0
aI0
aI0
aI0
aI0
asS'thomj002'
p794
(lp795
g794
aS'Jim Thome'
p796
aI186
aI163
aI17
aI41
aI7
aI0
aI8
aI25
aI0
aI0
aI22
aI61
aI72
asS'russj003'
p797
(lp798
g797
aS'James Russell'
p799
aI1
aI1
aI0
aI0
aI0
aI0
aI0
aI0
aI0
aI0
aI0
aI0
aI0
asS'soria001'
p800
(lp801
g800
aS'Alfonso Soriano'
p802
aI615
aI561
aI68
aI147
aI33
aI2
aI32
aI108
aI6
aI2
aI44
aI153
aI280
asS'choos001'
p803
(lp804
g803
aS'Shin-Soo Choo'
p805
aI686
aI598
aI88
aI169
aI43
aI2
aI16
aI67
aI21
aI7
aI73
aI150
aI264
asS'moraf001'
p806
(lp807
g806
aS'Franklin Morales'
p808
aI2
aI2
aI0
aI1
aI0
aI0
aI0
aI0
aI0
aI0
aI0
aI1
aI1
asS'loe-k001'
p809
(lp810
g809
aS'Kameron Loe'
p811
aI1
aI0
aI0
aI0
aI0
aI0
aI0
aI0
aI0
aI0
aI0
aI0
aI0
asS'carpd001'
p812
(lp813
g812
aS'David Carpenter'
p814
aI2
aI2
aI0
aI1
aI0
aI0
aI0
aI0
aI0
aI0
aI0
aI0
aI1
asS'davii001'
p815
(lp816
g815
aS'Ike Davis'
p817
aI584
aI519
aI66
aI118
aI26
aI0
aI32
aI90
aI0
aI2
aI61
aI141
aI240
asS'wellv001'
p818
(lp819
g818
aS'Vernon Wells'
p820
aI262
aI243
aI36
aI56
aI9
aI0
aI11
aI29
aI3
aI1
aI16
aI35
aI98
asS'escae001'
p821
(lp822
g821
aS'Edgmer Escalona'
p823
aI1
aI0
aI0
aI0
aI0
aI0
aI0
aI0
aI0
aI0
aI0
aI0
aI0
asS'bellj004'
p824
(lp825
g824
aS'Josh Bell'
p826
aI56
aI52
aI3
aI9
aI2
aI0
aI1
aI4
aI0
aI0
aI4
aI14
aI14
asS'sabac001'
p827
(lp828
g827
aS'CC Sabathia'
p829
aI5
aI5
aI0
aI0
aI0
aI0
aI0
aI0
aI0
aI0
aI0
aI1
aI0
asS'triuc001'
p830
(lp831
g830
aS'Carlos Triunfel'
p832
aI24
aI22
aI2
aI5
aI2
aI0
aI0
aI3
aI0
aI0
aI1
aI4
aI7
asS'swisn001'
p833
(lp834
g833
aS'Nick Swisher'
p835
aI624
aI537
aI75
aI146
aI36
aI0
aI24
aI93
aI2
aI3
aI77
aI141
aI254
asS'boesb001'
p836
(lp837
g836
aS'Brennan Boesch'
p838
aI503
aI470
aI52
aI113
aI22
aI2
aI12
aI54
aI6
aI3
aI26
aI104
aI175
asS'lucrj001'
p839
(lp840
g839
aS'Jonathan Lucroy'
p841
aI346
aI316
aI46
aI101
aI17
aI4
aI12
aI58
aI4
aI1
aI22
aI44
aI162
asS'rosst001'
p842
(lp843
g842
aS'Tyson Ross'
p844
aI2
aI2
aI0
aI0
aI0
aI0
aI0
aI0
aI0
aI0
aI0
aI1
aI0
asS'snidt001'
p845
(lp846
g845
aS'Travis Snider'
p847
aI185
aI164
aI23
aI41
aI7
aI1
aI4
aI17
aI2
aI0
aI17
aI48
aI62
asS'boscj001'
p848
(lp849
g848
aS'J.C. Boscan'
p850
aI10
aI10
aI0
aI2
aI0
aI0
aI0
aI2
aI0
aI0
aI0
aI1
aI2
asS'hughp001'
p851
(lp852
g851
aS'Phil Hughes'
p853
aI2
aI2
aI0
aI0
aI0
aI0
aI0
aI0
aI0
aI0
aI0
aI1
aI0
asS'mastd002'
p854
(lp855
g854
aS'Darin Mastroianni'
p856
aI186
aI163
aI22
aI41
aI3
aI2
aI3
aI17
aI21
aI3
aI18
aI45
aI57
asS'zitob001'
p857
(lp858
g857
aS'Barry Zito'
p859
aI69
aI53
aI3
aI4
aI0
aI0
aI0
aI2
aI0
aI0
aI6
aI12
aI4
asS'hudst001'
p860
(lp861
g860
aS'Tim Hudson'
p862
aI67
aI55
aI4
aI12
aI3
aI0
aI0
aI6
aI0
aI0
aI2
aI18
aI15
asS'colvt001'
p863
(lp864
g863
aS'Tyler Colvin'
p865
aI452
aI420
aI62
aI122
aI27
aI10
aI18
aI72
aI7
aI3
aI21
aI117
aI223
asS'guthj001'
p866
(lp867
g866
aS'Jeremy Guthrie'
p868
aI30
aI25
aI1
aI2
aI0
aI0
aI0
aI1
aI0
aI0
aI1
aI11
aI2
asS'mcgec001'
p869
(lp870
g869
aS'Casey McGehee'
p871
aI352
aI318
aI36
aI69
aI16
aI1
aI9
aI41
aI1
aI1
aI29
aI70
aI114
asS'chave002'
p872
(lp873
g872
aS'Endy Chavez'
p874
aI169
aI158
aI15
aI32
aI6
aI0
aI2
aI12
aI3
aI2
aI6
aI24
aI44
asS'chave001'
p875
(lp876
g875
aS'Eric Chavez'
p877
aI313
aI278
aI36
aI78
aI12
aI0
aI16
aI37
aI0
aI0
aI30
aI59
aI138
asS'bourp001'
p878
(lp879
g878
aS'Peter Bourjos'
p880
aI195
aI168
aI27
aI37
aI7
aI0
aI3
aI19
aI3
aI1
aI15
aI44
aI53
asS'peguf001'
p881
(lp882
g881
aS'Francisco Peguero'
p883
aI16
aI16
aI6
aI3
aI0
aI0
aI0
aI0
aI3
aI0
aI0
aI7
aI3
asS'colec001'
p884
(lp885
g884
aS'Casey Coleman'
p886
aI3
aI3
aI0
aI1
aI0
aI0
aI0
aI0
aI0
aI0
aI0
aI1
aI1
asS'latom001'
p887
(lp888
g887
aS'Mat Latos'
p889
aI80
aI65
aI2
aI12
aI1
aI0
aI1
aI4
aI0
aI0
aI3
aI32
aI16
asS'corrk001'
p890
(lp891
g890
aS'Kevin Correia'
p892
aI55
aI47
aI1
aI5
aI0
aI0
aI0
aI0
aI0
aI1
aI0
aI21
aI5
asS'alvap001'
p893
(lp894
g893
aS'Pedro Alvarez'
p895
aI586
aI525
aI64
aI128
aI25
aI1
aI30
aI85
aI1
aI0
aI57
aI180
aI245
asS'milew001'
p896
(lp897
g896
aS'Wade Miley'
p898
aI75
aI65
aI4
aI11
aI2
aI0
aI0
aI2
aI0
aI0
aI2
aI20
aI13
asS'pillb001'
p899
(lp900
g899
aS'Brett Pill'
p901
aI114
aI105
aI10
aI22
aI3
aI0
aI4
aI11
aI1
aI0
aI6
aI19
aI37
asS'ruf-d001'
p902
(lp903
g902
aS'Darin Ruf'
p904
aI37
aI33
aI4
aI11
aI2
aI1
aI3
aI10
aI0
aI0
aI2
aI12
aI24
asS'wheer001'
p905
(lp906
g905
aS'Ryan Wheeler'
p907
aI119
aI109
aI11
aI26
aI6
aI1
aI1
aI10
aI1
aI0
aI9
aI22
aI37
asS'graht001'
p908
(lp909
g908
aS'Tyler Graham'
p910
aI2
aI2
aI1
aI0
aI0
aI0
aI0
aI0
aI0
aI1
aI0
aI2
aI0
asS'bartd001'
p911
(lp912
g911
aS'Daric Barton'
p913
aI136
aI113
aI8
aI23
aI7
aI0
aI1
aI6
aI1
aI0
aI22
aI32
aI33
asS'hardj003'
p914
(lp915
g914
aS'J.J. Hardy'
p916
aI713
aI663
aI85
aI158
aI30
aI2
aI22
aI68
aI0
aI0
aI38
aI106
aI258
asS'tomlj001'
p917
(lp918
g917
aS'Josh Tomlin'
p919
aI5
aI5
aI0
aI2
aI0
aI0
aI0
aI0
aI0
aI0
aI0
aI3
aI2
asS'jonea002'
p920
(lp921
g920
aS'Andruw Jones'
p922
aI269
aI233
aI27
aI46
aI7
aI0
aI14
aI34
aI0
aI0
aI28
aI71
aI95
asS'saunj001'
p923
(lp924
g923
aS'Joe Saunders'
p925
aI46
aI35
aI1
aI3
aI0
aI0
aI0
aI1
aI0
aI0
aI3
aI7
aI3
asS'navay001'
p926
(lp927
g926
aS'Yamaico Navarro'
p928
aI56
aI50
aI4
aI8
aI0
aI0
aI1
aI4
aI0
aI2
aI5
aI13
aI11
asS'morem001'
p929
(lp930
g929
aS'Mitch Moreland'
p931
aI357
aI327
aI41
aI90
aI18
aI0
aI15
aI50
aI1
aI1
aI23
aI71
aI153
asS'germj001'
p932
(lp933
g932
aS'Justin Germano'
p934
aI24
aI17
aI1
aI1
aI0
aI0
aI0
aI0
aI0
aI0
aI1
aI10
aI1
asS'heisc001'
p935
(lp936
g935
aS'Chris Heisey'
p937
aI375
aI347
aI44
aI92
aI16
aI5
aI7
aI31
aI6
aI3
aI18
aI81
aI139
asS'herng001'
p938
(lp939
g938
aS'Gorkys Hernandez'
p940
aI173
aI156
aI18
aI30
aI2
aI3
aI3
aI13
aI7
aI2
aI13
aI42
aI47
asS'middw001'
p941
(lp942
g941
aS'Will Middlebrooks'
p943
aI286
aI267
aI34
aI77
aI14
aI0
aI15
aI54
aI4
aI1
aI13
aI70
aI136
asS'abreb001'
p944
(lp945
g944
aS'Bobby Abreu'
p946
aI257
aI219
aI29
aI53
aI11
aI1
aI3
aI24
aI6
aI2
aI37
aI56
aI75
asS'daviw001'
p947
(lp948
g947
aS'Wade Davis'
p949
aI2
aI2
aI0
aI1
aI0
aI0
aI0
aI0
aI0
aI0
aI0
aI1
aI1
asS'jimeu001'
p950
(lp951
g950
aS'Ubaldo Jimenez'
p952
aI5
aI5
aI0
aI0
aI0
aI0
aI0
aI0
aI0
aI0
aI0
aI5
aI0
asS'mcphk001'
p953
(lp954
g953
aS'Kyle McPherson'
p955
aI6
aI5
aI0
aI0
aI0
aI0
aI0
aI0
aI0
aI0
aI1
aI3
aI0
asS'tracc001'
p956
(lp957
g956
aS'Chad Tracy'
p958
aI105
aI93
aI7
aI25
aI7
aI0
aI3
aI14
aI0
aI0
aI10
aI15
aI41
asS'kipnj001'
p959
(lp960
g959
aS'Jason Kipnis'
p961
aI672
aI591
aI86
aI152
aI22
aI4
aI14
aI76
aI31
aI7
aI67
aI109
aI224
asS'bogub001'
p962
(lp963
g962
aS'Brian Bogusevic'
p964
aI404
aI355
aI39
aI72
aI9
aI2
aI7
aI28
aI15
aI4
aI41
aI96
aI106
asS'lestj001'
p965
(lp966
g965
aS'Jon Lester'
p967
aI6
aI5
aI0
aI0
aI0
aI0
aI0
aI0
aI0
aI0
aI0
aI3
aI0
asS'boxbb001'
p968
(lp969
g968
aS'Brad Boxberger'
p970
aI2
aI1
aI0
aI0
aI0
aI0
aI0
aI0
aI0
aI0
aI0
aI1
aI0
asS'altuj001'
p971
(lp972
g971
aS'Jose Altuve'
p973
aI630
aI576
aI80
aI167
aI34
aI4
aI7
aI37
aI33
aI11
aI40
aI74
aI230
asS'tekob001'
p974
(lp975
g974
aS'Blake Tekotte'
p976
aI15
aI15
aI0
aI2
aI0
aI0
aI0
aI0
aI1
aI0
aI0
aI4
aI2
asS'pennb002'
p977
(lp978
g977
aS'Brad Penny'
p979
aI1
aI1
aI0
aI0
aI0
aI0
aI0
aI0
aI0
aI0
aI0
aI0
aI0
asS'ethia001'
p980
(lp981
g980
aS'Andre Ethier'
p982
aI618
aI556
aI79
aI158
aI36
aI1
aI20
aI89
aI2
aI2
aI50
aI124
aI256
asS'martm003'
p983
(lp984
g983
aS'Michael Martinez'
p985
aI122
aI115
aI10
aI20
aI3
aI0
aI2
aI7
aI0
aI0
aI5
aI21
aI29
asS'hernr002'
p986
(lp987
g986
aS'Ramon Hernandez'
p988
aI196
aI184
aI16
aI40
aI10
aI0
aI5
aI28
aI0
aI1
aI6
aI32
aI65
asS'sancg001'
p989
(lp990
g989
aS'Gaby Sanchez'
p991
aI326
aI299
aI30
aI65
aI16
aI0
aI7
aI30
aI1
aI0
aI25
aI56
aI102
asS'garzm001'
p992
(lp993
g992
aS'Matt Garza'
p994
aI34
aI30
aI0
aI2
aI1
aI0
aI0
aI0
aI0
aI0
aI0
aI23
aI3
asS'hanst001'
p995
(lp996
g995
aS'Tommy Hanson'
p997
aI61
aI49
aI0
aI1
aI0
aI0
aI0
aI0
aI0
aI0
aI2
aI30
aI1
asS'lewif001'
p998
(lp999
g998
aS'Fred Lewis'
p1000
aI25
aI20
aI2
aI3
aI0
aI0
aI0
aI0
aI0
aI0
aI4
aI5
aI3
asS'carrb001'
p1001
(lp1002
g1001
aS'Brett Carroll'
p1003
aI2
aI2
aI2
aI0
aI0
aI0
aI0
aI0
aI0
aI0
aI0
aI0
aI0
asS'johnj009'
p1004
(lp1005
g1004
aS'Josh Johnson'
p1006
aI60
aI53
aI2
aI5
aI0
aI0
aI0
aI2
aI0
aI0
aI2
aI34
aI5
asS'escoe001'
p1007
(lp1008
g1007
aS'Eduardo Escobar'
p1009
aI146
aI131
aI18
aI28
aI4
aI1
aI0
aI9
aI3
aI0
aI11
aI31
aI34
asS'dudal001'
p1010
(lp1011
g1010
aS'Lucas Duda'
p1012
aI459
aI401
aI43
aI96
aI15
aI0
aI15
aI57
aI1
aI0
aI51
aI120
aI156
asS'andel002'
p1013
(lp1014
g1013
aS'Lars Anderson'
p1015
aI8
aI8
aI1
aI1
aI0
aI0
aI0
aI0
aI0
aI0
aI0
aI3
aI1
asS'braur002'
p1016
(lp1017
g1016
aS'Ryan Braun'
p1018
aI677
aI598
aI108
aI191
aI36
aI3
aI41
aI112
aI30
aI7
aI63
aI128
aI356
asS'luebc001'
p1019
(lp1020
g1019
aS'Cory Luebke'
p1021
aI12
aI11
aI0
aI0
aI0
aI0
aI0
aI0
aI0
aI0
aI0
aI6
aI0
asS'piera001'
p1022
(lp1023
g1022
aS'A.J. Pierzynski'
p1024
aI520
aI479
aI68
aI133
aI18
aI4
aI27
aI77
aI0
aI0
aI28
aI78
aI240
asS'granc001'
p1025
(lp1026
g1025
aS'Curtis Granderson'
p1027
aI684
aI596
aI102
aI138
aI18
aI4
aI43
aI106
aI10
aI3
aI75
aI195
aI293
asS'chatt001'
p1028
(lp1029
g1028
aS'Tyler Chatwood'
p1030
aI23
aI16
aI1
aI4
aI1
aI0
aI0
aI1
aI0
aI0
aI1
aI3
aI5
asS'nelsc001'
p1031
(lp1032
g1031
aS'Chris Nelson'
p1033
aI377
aI345
aI45
aI104
aI21
aI3
aI9
aI53
aI2
aI1
aI27
aI84
aI158
asS'lopej003'
p1034
(lp1035
g1034
aS'Jose Lopez'
p1036
aI248
aI236
aI18
aI58
aI14
aI0
aI4
aI28
aI0
aI1
aI9
aI41
aI84
asS'falui001'
p1037
(lp1038
g1037
aS'Irving Falu'
p1039
aI91
aI85
aI14
aI29
aI6
aI1
aI0
aI7
aI0
aI2
aI4
aI9
aI37
asS'schus001'
p1040
(lp1041
g1040
aS'Skip Schumaker'
p1042
aI304
aI272
aI37
aI75
aI14
aI4
aI1
aI28
aI1
aI1
aI27
aI50
aI100
asS'kubej002'
p1043
(lp1044
g1043
aS'Jason Kubel'
p1045
aI571
aI506
aI75
aI128
aI30
aI4
aI30
aI90
aI1
aI1
aI57
aI151
aI256
asS'johnc003'
p1046
(lp1047
g1046
aS'Chris Johnson'
p1048
aI528
aI488
aI48
aI137
aI28
aI5
aI15
aI76
aI5
aI1
aI31
aI132
aI220
asS'chama002'
p1049
(lp1050
g1049
aS'Adron Chambers'
p1051
aI62
aI54
aI4
aI12
aI0
aI2
aI0
aI4
aI2
aI1
aI5
aI18
aI16
asS'fedet001'
p1052
(lp1053
g1052
aS'Tim Federowicz'
p1054
aI4
aI3
aI0
aI1
aI0
aI0
aI0
aI0
aI0
aI0
aI1
aI2
aI1
asS'blank002'
p1055
(lp1056
g1055
aS'Kyle Blanks'
p1057
aI6
aI5
aI0
aI1
aI0
aI0
aI0
aI0
aI0
aI0
aI1
aI2
aI1
asS'peraw001'
p1058
(lp1059
g1058
aS'Wily Peralta'
p1060
aI11
aI11
aI0
aI1
aI1
aI0
aI0
aI0
aI0
aI0
aI0
aI5
aI2
asS'andir001'
p1061
(lp1062
g1061
aS'Robert Andino'
p1063
aI431
aI384
aI41
aI81
aI13
aI1
aI7
aI28
aI5
aI5
aI37
aI100
aI117
asS'montj003'
p1064
(lp1065
g1064
aS'Jesus Montero'
p1066
aI553
aI515
aI46
aI134
aI20
aI0
aI15
aI62
aI0
aI2
aI29
aI99
aI199
asS'mejij001'
p1067
(lp1068
g1067
aS'Jenrry Mejia'
p1069
aI5
aI3
aI0
aI0
aI0
aI0
aI0
aI1
aI0
aI0
aI0
aI2
aI0
asS'reveb001'
p1070
(lp1071
g1070
aS'Ben Revere'
p1072
aI553
aI511
aI70
aI150
aI13
aI6
aI0
aI32
aI40
aI9
aI29
aI54
aI175
asS'stewc001'
p1073
(lp1074
g1073
aS'Chris Stewart'
p1075
aI157
aI141
aI15
aI34
aI8
aI0
aI1
aI13
aI2
aI0
aI10
aI21
aI45
asS'wilsc004'
p1076
(lp1077
g1076
aS'C.J. Wilson'
p1078
aI6
aI5
aI0
aI0
aI0
aI0
aI0
aI0
aI0
aI0
aI1
aI1
aI0
asS'noesh001'
p1079
(lp1080
g1079
aS'Hector Noesi'
p1081
aI4
aI4
aI0
aI2
aI0
aI0
aI0
aI0
aI0
aI0
aI0
aI2
aI2
asS'hillk002'
p1082
(lp1083
g1082
aS'Koyie Hill'
p1084
aI39
aI39
aI3
aI7
aI1
aI0
aI0
aI1
aI0
aI0
aI0
aI7
aI8
asS'amara001'
p1085
(lp1086
g1085
aS'Alexi Amarista'
p1087
aI300
aI275
aI35
aI66
aI15
aI5
aI5
aI32
aI8
aI4
aI17
aI42
aI106
asS'cuddm001'
p1088
(lp1089
g1088
aS'Michael Cuddyer'
p1090
aI394
aI358
aI53
aI93
aI30
aI2
aI16
aI58
aI8
aI3
aI32
aI78
aI175
asS'hartc001'
p1091
(lp1092
g1091
aS'Corey Hart'
p1093
aI622
aI562
aI91
aI152
aI35
aI4
aI30
aI83
aI5
aI0
aI44
aI151
aI285
asS'gosea001'
p1094
(lp1095
g1094
aS'Anthony Gose'
p1096
aI189
aI166
aI25
aI37
aI7
aI3
aI1
aI11
aI15
aI3
aI17
aI59
aI53
asS'mathj001'
p1097
(lp1098
g1097
aS'Jeff Mathis'
p1099
aI227
aI211
aI25
aI46
aI13
aI0
aI8
aI27
aI1
aI0
aI9
aI68
aI83
asS'mathj002'
p1100
(lp1101
g1100
aS'Joe Mather'
p1102
aI243
aI225
aI18
aI47
aI11
aI0
aI5
aI19
aI5
aI2
aI14
aI46
aI73
asS'martj006'
p1103
(lp1104
g1103
aS'J.D. Martinez'
p1105
aI439
aI395
aI34
aI95
aI14
aI3
aI11
aI55
aI0
aI2
aI40
aI96
aI148
asS'polap001'
p1106
(lp1107
g1106
aS'Placido Polanco'
p1108
aI328
aI303
aI28
aI78
aI15
aI0
aI2
aI19
aI0
aI0
aI18
aI25
aI99
asS'dewib001'
p1109
(lp1110
g1109
aS'Blake DeWitt'
p1111
aI30
aI29
aI1
aI4
aI1
aI0
aI0
aI1
aI0
aI0
aI0
aI2
aI5
asS'wielj001'
p1112
(lp1113
g1112
aS'Joe Wieland'
p1114
aI8
aI8
aI0
aI2
aI1
aI0
aI0
aI2
aI0
aI0
aI0
aI2
aI3
asS'andre001'
p1115
(lp1116
g1115
aS'Elvis Andrus'
p1117
aI711
aI629
aI85
aI180
aI31
aI9
aI3
aI62
aI21
aI10
aI57
aI96
aI238
asS'leons001'
p1118
(lp1119
g1118
aS'Sandy Leon'
p1120
aI36
aI30
aI2
aI8
aI2
aI0
aI0
aI2
aI0
aI0
aI4
aI11
aI10
asS'moors001'
p1121
(lp1122
g1121
aS'Scott Moore'
p1123
aI228
aI201
aI23
aI52
aI11
aI0
aI9
aI26
aI0
aI1
aI16
aI56
aI90
asS'ibanr001'
p1124
(lp1125
g1124
aS'Raul Ibanez'
p1126
aI425
aI384
aI50
aI92
aI19
aI3
aI19
aI62
aI3
aI0
aI35
aI67
aI174
asS'derom001'
p1127
(lp1128
g1127
aS'Mark DeRosa'
p1129
aI101
aI85
aI13
aI16
aI5
aI0
aI0
aI6
aI1
aI0
aI14
aI18
aI21
asS'quirg001'
p1130
(lp1131
g1130
aS'Guillermo Quiroz'
p1132
aI2
aI2
aI0
aI0
aI0
aI0
aI0
aI0
aI0
aI0
aI0
aI1
aI0
asS'ellia001'
p1133
(lp1134
g1133
aS'A.J. Ellis'
p1135
aI505
aI423
aI44
aI114
aI20
aI1
aI13
aI52
aI0
aI0
aI65
aI107
aI175
asS'johne002'
p1136
(lp1137
g1136
aS'Elliot Johnson'
p1138
aI331
aI297
aI32
aI72
aI10
aI2
aI6
aI33
aI18
aI6
aI24
aI84
aI104
asS'gardb001'
p1139
(lp1140
g1139
aS'Brett Gardner'
p1141
aI37
aI31
aI7
aI10
aI2
aI0
aI0
aI3
aI2
aI2
aI5
aI7
aI12
asS'barnb002'
p1142
(lp1143
g1142
aS'Brandon Barnes'
p1144
aI105
aI98
aI8
aI20
aI3
aI0
aI1
aI7
aI1
aI1
aI5
aI29
aI26
asS'matsd001'
p1145
(lp1146
g1145
aS'Daisuke Matsuzaka'
p1147
aI2
aI2
aI0
aI0
aI0
aI0
aI0
aI0
aI0
aI0
aI0
aI1
aI0
asS'lallb001'
p1148
(lp1149
g1148
aS'Blake Lalli'
p1150
aI16
aI15
aI1
aI2
aI0
aI0
aI0
aI2
aI0
aI0
aI1
aI3
aI2
asS'iannc001'
p1151
(lp1152
g1151
aS'Chris Iannetta'
p1153
aI253
aI221
aI27
aI53
aI6
aI1
aI9
aI26
aI1
aI3
aI29
aI60
aI88
asS'freed001'
p1154
(lp1155
g1154
aS'David Freese'
p1156
aI567
aI501
aI70
aI147
aI25
aI1
aI20
aI79
aI3
aI3
aI57
aI122
aI234
asS'farre001'
p1157
(lp1158
g1157
aS'Eric Farris'
p1159
aI9
aI8
aI1
aI1
aI0
aI0
aI0
aI0
aI1
aI0
aI1
aI2
aI1
asS'buted001'
p1160
(lp1161
g1160
aS'Drew Butera'
p1162
aI122
aI111
aI7
aI22
aI6
aI0
aI1
aI5
aI0
aI0
aI9
aI26
aI31
asS'kersc001'
p1163
(lp1164
g1163
aS'Clayton Kershaw'
p1165
aI75
aI58
aI2
aI12
aI1
aI0
aI0
aI2
aI0
aI0
aI2
aI19
aI13
asS'rodrh003'
p1166
(lp1167
g1166
aS'Henry Rodriguez'
p1168
aI16
aI14
aI0
aI3
aI1
aI0
aI0
aI2
aI0
aI0
aI2
aI2
aI4
asS'moora001'
p1169
(lp1170
g1169
aS'Adam Moore'
p1171
aI12
aI11
aI1
aI2
aI1
aI0
aI1
aI2
aI0
aI0
aI1
aI3
aI6
asS'jennd003'
p1172
(lp1173
g1172
aS'Dan Jennings'
p1174
aI1
aI1
aI0
aI0
aI0
aI0
aI0
aI0
aI0
aI0
aI0
aI0
aI0
asS'hermj001'
p1175
(lp1176
g1175
aS'Jeremy Hermida'
p1177
aI27
aI24
aI2
aI6
aI1
aI1
aI0
aI2
aI1
aI0
aI3
aI7
aI9
asS'hayeb001'
p1178
(lp1179
g1178
aS'Brett Hayes'
p1180
aI118
aI114
aI7
aI23
aI6
aI0
aI0
aI3
aI1
aI0
aI4
aI49
aI29
asS'willj004'
p1181
(lp1182
g1181
aS'Josh Willingham'
p1183
aI615
aI519
aI85
aI135
aI30
aI1
aI35
aI110
aI3
aI2
aI76
aI141
aI272
asS'gregd001'
p1184
(lp1185
g1184
aS'Didi Gregorius'
p1186
aI21
aI20
aI1
aI6
aI0
aI0
aI0
aI2
aI0
aI0
aI0
aI5
aI6
asS'cairm001'
p1187
(lp1188
g1187
aS'Miguel Cairo'
p1189
aI156
aI150
aI9
aI28
aI7
aI2
aI1
aI13
aI4
aI0
aI4
aI20
aI42
asS'kellc001'
p1190
(lp1191
g1190
aS'Casey Kelly'
p1192
aI12
aI10
aI0
aI2
aI0
aI0
aI0
aI0
aI0
aI0
aI0
aI4
aI2
asS'santo001'
p1193
(lp1194
g1193
aS'Omir Santos'
p1195
aI10
aI8
aI0
aI1
aI0
aI0
aI0
aI1
aI0
aI0
aI0
aI1
aI1
asS'chenw001'
p1196
(lp1197
g1196
aS'Wei-Yin Chen'
p1198
aI4
aI3
aI0
aI0
aI0
aI0
aI0
aI0
aI0
aI0
aI0
aI2
aI0
asS'nix-j001'
p1199
(lp1200
g1199
aS'Jayson Nix'
p1201
aI202
aI177
aI24
aI43
aI13
aI0
aI4
aI18
aI6
aI3
aI14
aI53
aI68
asS'freef001'
p1202
(lp1203
g1202
aS'Freddie Freeman'
p1204
aI620
aI540
aI91
aI140
aI33
aI2
aI23
aI94
aI2
aI0
aI64
aI129
aI246
asS'diazm003'
p1205
(lp1206
g1205
aS'Matt Diaz'
p1207
aI118
aI108
aI10
aI24
aI6
aI0
aI2
aI13
aI0
aI0
aI9
aI21
aI36
asS'roenj001'
p1208
(lp1209
g1208
aS'Josh Roenicke'
p1210
aI13
aI12
aI1
aI1
aI0
aI0
aI0
aI0
aI0
aI0
aI0
aI6
aI1
asS'rosaw001'
p1211
(lp1212
g1211
aS'Wilin Rosario'
p1213
aI426
aI396
aI67
aI107
aI19
aI0
aI28
aI71
aI4
aI5
aI25
aI99
aI210
asS'gomec002'
p1214
(lp1215
g1214
aS'Carlos Gomez'
p1216
aI452
aI415
aI72
aI108
aI19
aI4
aI19
aI51
aI37
aI6
aI20
aI98
aI192
asS'bloow001'
p1217
(lp1218
g1217
aS'Willie Bloomquist'
p1219
aI338
aI324
aI47
aI98
aI21
aI5
aI0
aI23
aI7
aI10
aI12
aI55
aI129
asS'carpc002'
p1220
(lp1221
g1220
aS'Chris Carpenter'
p1222
aI6
aI6
aI0
aI1
aI0
aI0
aI0
aI0
aI0
aI0
aI0
aI2
aI1
asS'ohler001'
p1223
(lp1224
g1223
aS'Ross Ohlendorf'
p1225
aI17
aI16
aI2
aI1
aI0
aI0
aI0
aI0
aI0
aI0
aI0
aI8
aI1
asS'dickb001'
p1226
(lp1227
g1226
aS'Brandon Dickson'
p1228
aI2
aI2
aI0
aI1
aI0
aI0
aI0
aI0
aI0
aI0
aI0
aI1
aI1
asS'lougd001'
p1229
(lp1230
g1229
aS'David Lough'
p1231
aI65
aI59
aI9
aI14
aI2
aI1
aI0
aI2
aI1
aI0
aI4
aI9
aI18
asS'bassa001'
p1232
(lp1233
g1232
aS'Anthony Bass'
p1234
aI31
aI31
aI3
aI4
aI0
aI1
aI0
aI5
aI1
aI0
aI0
aI13
aI6
asS'raleb001'
p1235
(lp1236
g1235
aS'Brooks Raley'
p1237
aI10
aI10
aI0
aI2
aI0
aI0
aI0
aI0
aI0
aI0
aI0
aI1
aI2
asS'headc001'
p1238
(lp1239
g1238
aS'Chase Headley'
p1240
aI699
aI604
aI95
aI173
aI31
aI2
aI31
aI115
aI17
aI6
aI86
aI157
aI301
asS'bedae001'
p1241
(lp1242
g1241
aS'Erik Bedard'
p1243
aI44
aI37
aI2
aI4
aI1
aI0
aI0
aI0
aI0
aI0
aI1
aI14
aI5
asS'jennd002'
p1244
(lp1245
g1244
aS'Desmond Jennings'
p1246
aI563
aI505
aI85
aI124
aI19
aI7
aI13
aI47
aI31
aI2
aI46
aI120
aI196
asS'reddj001'
p1247
(lp1248
g1247
aS'Josh Reddick'
p1249
aI673
aI611
aI85
aI148
aI29
aI5
aI32
aI85
aI11
aI1
aI55
aI151
aI283
asS'casia001'
p1250
(lp1251
g1250
aS'Alexi Casilla'
p1252
aI326
aI299
aI33
aI72
aI17
aI2
aI1
aI30
aI21
aI1
aI16
aI52
aI96
asS'hampj001'
p1253
(lp1254
g1253
aS'Justin Hampson'
p1255
aI1
aI1
aI0
aI0
aI0
aI0
aI0
aI0
aI0
aI0
aI0
aI0
aI0
asS'saunm001'
p1256
(lp1257
g1256
aS'Michael Saunders'
p1258
aI553
aI507
aI71
aI125
aI31
aI3
aI19
aI57
aI21
aI4
aI43
aI132
aI219
asS'carre001'
p1259
(lp1260
g1259
aS'Ezequiel Carrera'
p1261
aI158
aI147
aI20
aI40
aI6
aI3
aI2
aI11
aI8
aI1
aI8
aI35
aI58
asS'duenb001'
p1262
(lp1263
g1262
aS'Brian Duensing'
p1264
aI1
aI1
aI0
aI0
aI0
aI0
aI0
aI0
aI0
aI0
aI0
aI1
aI0
asS'uggld001'
p1265
(lp1266
g1265
aS'Dan Uggla'
p1267
aI630
aI523
aI86
aI115
aI29
aI0
aI19
aI78
aI4
aI3
aI94
aI168
aI201
asS'gordd002'
p1268
(lp1269
g1268
aS'Dee Gordon'
p1270
aI330
aI303
aI38
aI69
aI9
aI2
aI1
aI17
aI32
aI10
aI20
aI62
aI85
asS'blumg001'
p1271
(lp1272
g1271
aS'Geoff Blum'
p1273
aI31
aI28
aI1
aI4
aI0
aI0
aI0
aI1
aI0
aI0
aI2
aI7
aI4
asS'bartj001'
p1274
(lp1275
g1274
aS'Jason Bartlett'
p1276
aI98
aI83
aI8
aI11
aI5
aI0
aI0
aI4
aI0
aI0
aI12
aI27
aI16
asS'morak001'
p1277
(lp1278
g1277
aS'Kendrys Morales'
p1279
aI522
aI484
aI61
aI132
aI26
aI1
aI22
aI73
aI0
aI1
aI31
aI116
aI226
asS'edles001'
p1280
(lp1281
g1280
aS'Steve Edlefsen'
p1282
aI1
aI1
aI0
aI0
aI0
aI0
aI0
aI0
aI0
aI0
aI0
aI0
aI0
asS'santc002'
p1283
(lp1284
g1283
aS'Carlos Santana'
p1285
aI609
aI507
aI72
aI128
aI27
aI2
aI18
aI76
aI3
aI5
aI91
aI101
aI213
asS'jonea003'
p1286
(lp1287
g1286
aS'Adam Jones'
p1288
aI697
aI648
aI103
aI186
aI39
aI3
aI32
aI82
aI16
aI7
aI34
aI126
aI327
asS'olivm001'
p1289
(lp1290
g1289
aS'Miguel Olivo'
p1291
aI323
aI315
aI27
aI70
aI14
aI0
aI12
aI29
aI3
aI6
aI7
aI85
aI120
asS'lillt001'
p1292
(lp1293
g1292
aS'Ted Lilly'
p1294
aI20
aI15
aI0
aI1
aI0
aI0
aI0
aI0
aI0
aI0
aI1
aI7
aI1
asS'campt001'
p1295
(lp1296
g1295
aS'Tony Campana'
p1297
aI192
aI174
aI26
aI46
aI6
aI0
aI0
aI5
aI30
aI3
aI11
aI43
aI52
asS'hosme001'
p1298
(lp1299
g1298
aS'Eric Hosmer'
p1300
aI598
aI535
aI65
aI124
aI22
aI2
aI14
aI60
aI16
aI1
aI56
aI95
aI192
asS'ziegb001'
p1301
(lp1302
g1301
aS'Brad Ziegler'
p1303
aI4
aI4
aI1
aI1
aI0
aI0
aI0
aI0
aI0
aI0
aI0
aI2
aI1
asS'rodrf004'
p1304
(lp1305
g1304
aS'Fernando Rodriguez'
p1306
aI3
aI3
aI0
aI0
aI0
aI0
aI0
aI0
aI0
aI0
aI0
aI2
aI0
asS'cirip001'
p1307
(lp1308
g1307
aS'Pedro Ciriaco'
p1309
aI272
aI259
aI33
aI76
aI15
aI2
aI2
aI19
aI16
aI3
aI8
aI47
aI101
asS'collt001'
p1310
(lp1311
g1310
aS'Tim Collins'
p1312
aI1
aI1
aI0
aI0
aI0
aI0
aI0
aI0
aI0
aI0
aI0
aI0
aI0
asS'cabre001'
p1313
(lp1314
g1313
aS'Everth Cabrera'
p1315
aI449
aI398
aI49
aI98
aI19
aI3
aI2
aI24
aI44
aI4
aI43
aI110
aI129
asS'joneg002'
p1316
(lp1317
g1316
aS'Garrett Jones'
p1318
aI515
aI475
aI68
aI130
aI28
aI3
aI27
aI86
aI2
aI0
aI33
aI103
aI245
asS'calla001'
p1319
(lp1320
g1319
aS'Alberto Callaspo'
p1321
aI520
aI457
aI55
aI115
aI20
aI0
aI10
aI53
aI4
aI3
aI56
aI59
aI165
asS'buehm001'
p1322
(lp1323
g1322
aS'Mark Buehrle'
p1324
aI71
aI67
aI2
aI3
aI1
aI0
aI0
aI1
aI0
aI0
aI0
aI29
aI4
asS'jacom001'
p1325
(lp1326
g1325
aS'Mike Jacobs'
p1327
aI23
aI19
aI4
aI4
aI1
aI0
aI0
aI2
aI0
aI0
aI4
aI6
aI5
asS'ellim001'
p1328
(lp1329
g1328
aS'Mark Ellis'
p1330
aI464
aI415
aI62
aI107
aI21
aI1
aI7
aI31
aI5
aI0
aI40
aI70
aI151
asS'johnd004'
p1331
(lp1332
g1331
aS'Dan Johnson'
p1333
aI31
aI22
aI8
aI8
aI1
aI0
aI3
aI6
aI0
aI0
aI9
aI3
aI18
asS'buckt001'
p1334
(lp1335
g1334
aS'Travis Buck'
p1336
aI81
aI74
aI7
aI16
aI5
aI1
aI0
aI6
aI0
aI0
aI6
aI18
aI23
asS'valdj002'
p1337
(lp1338
g1337
aS'Jordany Valdespin'
p1339
aI206
aI191
aI28
aI46
aI9
aI1
aI8
aI26
aI10
aI3
aI10
aI44
aI81
asS'mains001'
p1340
(lp1341
g1340
aS'Scott Maine'
p1342
aI2
aI2
aI0
aI0
aI0
aI0
aI0
aI0
aI0
aI0
aI0
aI1
aI0
asS'younc003'
p1343
(lp1344
g1343
aS'Chris Young'
p1345
aI399
aI356
aI36
aI79
aI26
aI0
aI14
aI43
aI8
aI3
aI37
aI90
aI147
asS'polla001'
p1346
(lp1347
g1346
aS'A.J. Pollock'
p1348
aI93
aI81
aI8
aI20
aI4
aI1
aI2
aI8
aI1
aI2
aI9
aI11
aI32
asS'archc001'
p1349
(lp1350
g1349
aS'Chris Archer'
p1351
aI3
aI3
aI1
aI0
aI0
aI0
aI0
aI0
aI0
aI1
aI0
aI1
aI0
asS'hellj001'
p1352
(lp1353
g1352
aS'Jeremy Hellickson'
p1354
aI2
aI1
aI0
aI0
aI0
aI0
aI0
aI0
aI0
aI0
aI0
aI0
aI0
asS'wangc001'
p1355
(lp1356
g1355
aS'Chien-Ming Wang'
p1357
aI7
aI6
aI1
aI1
aI1
aI0
aI0
aI0
aI0
aI0
aI1
aI3
aI2
asS'cabrm002'
p1358
(lp1359
g1358
aS'Melky Cabrera'
p1360
aI501
aI459
aI84
aI159
aI25
aI10
aI11
aI60
aI13
aI5
aI36
aI63
aI237
asS'cabrm001'
p1361
(lp1362
g1361
aS'Miguel Cabrera'
p1363
aI697
aI622
aI109
aI205
aI40
aI0
aI44
aI139
aI4
aI1
aI66
aI98
aI377
asS'schaj002'
p1364
(lp1365
g1364
aS'Jordan Schafer'
p1366
aI360
aI313
aI40
aI66
aI10
aI2
aI4
aI23
aI27
aI9
aI36
aI106
aI92
asS'sappd001'
p1367
(lp1368
g1367
aS'Dave Sappelt'
p1369
aI78
aI69
aI8
aI19
aI6
aI0
aI2
aI8
aI0
aI0
aI7
aI9
aI31
asS'morgn001'
p1370
(lp1371
g1370
aS'Nyjer Morgan'
p1372
aI322
aI289
aI44
aI69
aI5
aI3
aI3
aI16
aI12
aI5
aI20
aI63
aI89
asS'rabur001'
p1373
(lp1374
g1373
aS'Ryan Raburn'
p1375
aI222
aI205
aI14
aI35
aI14
aI0
aI1
aI12
aI1
aI1
aI13
aI53
aI52
asS'wietm001'
p1376
(lp1377
g1376
aS'Matt Wieters'
p1378
aI593
aI526
aI67
aI131
aI27
aI1
aI23
aI83
aI3
aI0
aI60
aI112
aI229
asS'felds001'
p1379
(lp1380
g1379
aS'Scott Feldman'
p1381
aI5
aI4
aI0
aI1
aI0
aI0
aI0
aI1
aI0
aI0
aI0
aI2
aI1
asS'bonie001'
p1382
(lp1383
g1382
aS'Emilio Bonifacio'
p1384
aI274
aI244
aI30
aI63
aI3
aI4
aI1
aI11
aI30
aI3
aI25
aI52
aI77
asS'lowrj001'
p1385
(lp1386
g1385
aS'Jed Lowrie'
p1387
aI387
aI340
aI43
aI83
aI18
aI0
aI16
aI42
aI2
aI0
aI43
aI65
aI149
asS'parmc001'
p1388
(lp1389
g1388
aS'Chris Parmelee'
p1390
aI210
aI192
aI18
aI44
aI10
aI2
aI5
aI19
aI0
aI0
aI13
aI52
aI73
asS'kotsm001'
p1391
(lp1392
g1391
aS'Mark Kotsay'
p1393
aI156
aI143
aI9
aI37
aI8
aI0
aI2
aI14
aI0
aI2
aI11
aI14
aI51
asS'vogts001'
p1394
(lp1395
g1394
aS'Stephen Vogt'
p1396
aI27
aI25
aI0
aI0
aI0
aI0
aI0
aI0
aI0
aI0
aI2
aI2
aI0
asS'hacke001'
p1397
(lp1398
g1397
aS'Eric Hacker'
p1399
aI3
aI3
aI0
aI0
aI0
aI0
aI0
aI0
aI0
aI0
aI0
aI1
aI0
asS'volqe001'
p1400
(lp1401
g1400
aS'Edinson Volquez'
p1402
aI62
aI56
aI2
aI4
aI1
aI0
aI0
aI1
aI0
aI0
aI1
aI29
aI5
asS'porcr001'
p1403
(lp1404
g1403
aS'Rick Porcello'
p1405
aI3
aI2
aI0
aI0
aI0
aI0
aI0
aI0
aI0
aI0
aI0
aI1
aI0
asS'ellsj001'
p1406
(lp1407
g1406
aS'Jacoby Ellsbury'
p1408
aI323
aI303
aI43
aI82
aI18
aI0
aI4
aI26
aI14
aI3
aI19
aI43
aI112
asS'repkj001'
p1409
(lp1410
g1409
aS'Jason Repko'
p1411
aI11
aI11
aI0
aI1
aI0
aI0
aI0
aI0
aI0
aI0
aI0
aI4
aI1
asS'johnn001'
p1412
(lp1413
g1412
aS'Nick Johnson'
p1414
aI102
aI87
aI9
aI18
aI4
aI0
aI4
aI11
aI2
aI0
aI11
aI26
aI34
asS'keppj001'
p1415
(lp1416
g1415
aS'Jeff Keppinger'
p1417
aI418
aI385
aI46
aI125
aI15
aI1
aI9
aI40
aI1
aI0
aI24
aI31
aI169
asS'cruzn002'
p1418
(lp1419
g1418
aS'Nelson Cruz'
p1420
aI642
aI585
aI86
aI152
aI45
aI0
aI24
aI90
aI8
aI4
aI48
aI140
aI269
asS'ortid001'
p1421
(lp1422
g1421
aS'David Ortiz'
p1423
aI383
aI324
aI65
aI103
aI26
aI0
aI23
aI60
aI0
aI1
aI56
aI51
aI198
asS'cainl001'
p1424
(lp1425
g1424
aS'Lorenzo Cain'
p1426
aI244
aI222
aI27
aI59
aI9
aI2
aI7
aI31
aI10
aI0
aI15
aI56
aI93
asS'torry001'
p1427
(lp1428
g1427
aS'Yorvit Torrealba'
p1429
aI218
aI194
aI19
aI44
aI8
aI0
aI4
aI14
aI1
aI1
aI17
aI40
aI64
asS'smyld001'
p1430
(lp1431
g1430
aS'Drew Smyly'
p1432
aI1
aI1
aI0
aI0
aI0
aI0
aI0
aI0
aI0
aI0
aI0
aI0
aI0
asS'gonzg003'
p1433
(lp1434
g1433
aS'Gio Gonzalez'
p1435
aI75
aI64
aI2
aI6
aI1
aI0
aI1
aI4
aI0
aI0
aI1
aI25
aI10
asS'hafnt001'
p1436
(lp1437
g1436
aS'Travis Hafner'
p1438
aI263
aI219
aI23
aI50
aI6
aI2
aI12
aI34
aI0
aI0
aI32
aI47
aI96
asS'richc002'
p1439
(lp1440
g1439
aS'Clayton Richard'
p1441
aI79
aI69
aI5
aI6
aI2
aI0
aI1
aI7
aI0
aI0
aI1
aI40
aI11
asS'robic001'
p1442
(lp1443
g1442
aS'Clint Robinson'
p1444
aI4
aI4
aI0
aI0
aI0
aI0
aI0
aI0
aI0
aI0
aI0
aI2
aI0
asS'wertj001'
p1445
(lp1446
g1445
aS'Jayson Werth'
p1447
aI344
aI300
aI42
aI90
aI21
aI3
aI5
aI31
aI8
aI2
aI42
aI57
aI132
asS'espid001'
p1448
(lp1449
g1448
aS'Danny Espinosa'
p1450
aI658
aI594
aI82
aI147
aI37
aI2
aI17
aI56
aI20
aI6
aI46
aI189
aI239
asS'berrq001'
p1451
(lp1452
g1451
aS'Quintin Berry'
p1453
aI330
aI291
aI44
aI75
aI10
aI6
aI2
aI29
aI21
aI0
aI25
aI80
aI103
asS'buchc001'
p1454
(lp1455
g1454
aS'Clay Buchholz'
p1456
aI3
aI2
aI0
aI0
aI0
aI0
aI0
aI0
aI0
aI0
aI0
aI1
aI0
asS'canor001'
p1457
(lp1458
g1457
aS'Robinson Cano'
p1459
aI697
aI627
aI105
aI196
aI48
aI1
aI33
aI94
aI3
aI2
aI61
aI96
aI345
asS'craia001'
p1460
(lp1461
g1460
aS'Allen Craig'
p1462
aI514
aI469
aI76
aI144
aI35
aI0
aI22
aI92
aI2
aI1
aI37
aI89
aI245
asS'beacb001'
p1463
(lp1464
g1463
aS'Brandon Beachy'
p1465
aI31
aI27
aI3
aI5
aI1
aI0
aI0
aI4
aI0
aI0
aI2
aI17
aI6
asS'balfg001'
p1466
(lp1467
g1466
aS'Grant Balfour'
p1468
aI1
aI1
aI0
aI0
aI0
aI0
aI0
aI0
aI0
aI0
aI0
aI1
aI0
asS'friec001'
p1469
(lp1470
g1469
aS'Christian Friedrich'
p1471
aI29
aI25
aI1
aI2
aI0
aI0
aI0
aI0
aI0
aI0
aI3
aI15
aI2
asS'avill001'
p1472
(lp1473
g1472
aS'Luis Avilan'
p1474
aI3
aI3
aI0
aI1
aI0
aI0
aI0
aI0
aI0
aI0
aI0
aI0
aI1
asS'utlec001'
p1475
(lp1476
g1475
aS'Chase Utley'
p1477
aI362
aI301
aI48
aI77
aI15
aI2
aI11
aI45
aI11
aI1
aI43
aI43
aI129
asS'ramow001'
p1478
(lp1479
g1478
aS'Wilson Ramos'
p1480
aI96
aI83
aI11
aI22
aI2
aI0
aI3
aI10
aI0
aI0
aI12
aI19
aI33
asS'maybc001'
p1481
(lp1482
g1481
aS'Cameron Maybin'
p1483
aI561
aI507
aI67
aI123
aI20
aI5
aI8
aI45
aI26
aI7
aI44
aI110
aI177
asS'hinsa001'
p1484
(lp1485
g1484
aS'Alex Hinshaw'
p1486
aI1
aI1
aI0
aI0
aI0
aI0
aI0
aI0
aI0
aI0
aI0
aI1
aI0
asS'marcs001'
p1487
(lp1488
g1487
aS'Shaun Marcum'
p1489
aI44
aI38
aI1
aI4
aI1
aI0
aI0
aI1
aI0
aI0
aI3
aI14
aI5
asS'valed001'
p1490
(lp1491
g1490
aS'Danny Valencia'
p1492
aI161
aI154
aI14
aI29
aI6
aI1
aI3
aI21
aI0
aI1
aI3
aI38
aI46
asS'venaw001'
p1493
(lp1494
g1493
aS'Will Venable'
p1495
aI470
aI417
aI62
aI110
aI26
aI8
aI9
aI45
aI24
aI6
aI41
aI94
aI179
asS'solaj002'
p1496
(lp1497
g1496
aS'Jhonatan Solano'
p1498
aI37
aI35
aI6
aI11
aI3
aI0
aI2
aI6
aI1
aI0
aI2
aI5
aI20
asS'bardd001'
p1499
(lp1500
g1499
aS'Daniel Bard'
p1501
aI2
aI2
aI0
aI0
aI0
aI0
aI0
aI0
aI0
aI0
aI0
aI1
aI0
asS'orr-p001'
p1502
(lp1503
g1502
aS'Pete Orr'
p1504
aI57
aI54
aI6
aI17
aI5
aI1
aI0
aI7
aI3
aI1
aI1
aI18
aI24
asS'wellk001'
p1505
(lp1506
g1505
aS'Kip Wells'
p1507
aI14
aI12
aI1
aI1
aI0
aI0
aI0
aI0
aI0
aI0
aI0
aI5
aI1
asS'reimn001'
p1508
(lp1509
g1508
aS'Nolan Reimold'
p1510
aI69
aI67
aI10
aI21
aI6
aI0
aI5
aI10
aI1
aI0
aI2
aI14
aI42
asS'komae001'
p1511
(lp1512
g1511
aS'Erik Komatsu'
p1513
aI58
aI51
aI5
aI11
aI0
aI0
aI0
aI1
aI0
aI0
aI6
aI5
aI11
asS'consj001'
p1514
(lp1515
g1514
aS'Jose Constanza'
p1516
aI86
aI76
aI8
aI19
aI2
aI0
aI0
aI4
aI5
aI2
aI8
aI21
aI21
asS'happj001'
p1517
(lp1518
g1517
aS'J.A. Happ'
p1519
aI40
aI32
aI2
aI3
aI0
aI0
aI0
aI1
aI0
aI0
aI3
aI16
aI3
asS'romer002'
p1520
(lp1521
g1520
aS'Ricky Romero'
p1522
aI5
aI5
aI1
aI1
aI0
aI0
aI0
aI0
aI0
aI0
aI0
aI2
aI1
asS'mahoj001'
p1523
(lp1524
g1523
aS'Joe Mahoney'
p1525
aI4
aI4
aI0
aI0
aI0
aI0
aI0
aI0
aI0
aI0
aI0
aI0
aI0
asS'seagk001'
p1526
(lp1527
g1526
aS'Kyle Seager'
p1528
aI651
aI594
aI62
aI154
aI35
aI1
aI20
aI86
aI13
aI5
aI46
aI110
aI251
asS'jacke001'
p1529
(lp1530
g1529
aS'Edwin Jackson'
p1531
aI65
aI57
aI6
aI13
aI0
aI0
aI0
aI0
aI0
aI0
aI3
aI21
aI13
asS'montm001'
p1532
(lp1533
g1532
aS'Miguel Montero'
p1534
aI573
aI486
aI65
aI139
aI25
aI2
aI15
aI88
aI0
aI0
aI73
aI130
aI213
asS'giamj001'
p1535
(lp1536
g1535
aS'Jason Giambi'
p1537
aI113
aI89
aI7
aI20
aI4
aI0
aI1
aI8
aI0
aI0
aI20
aI24
aI27
asS'marsl001'
p1538
(lp1539
g1538
aS'Lou Marson'
p1540
aI235
aI195
aI27
aI44
aI8
aI2
aI0
aI13
aI4
aI2
aI36
aI44
aI56
asS'brucj001'
p1541
(lp1542
g1541
aS'Jay Bruce'
p1543
aI633
aI560
aI89
aI141
aI35
aI5
aI34
aI99
aI9
aI3
aI62
aI155
aI288
asS'mclon001'
p1544
(lp1545
g1544
aS'Nate McLouth'
p1546
aI298
aI266
aI39
aI64
aI14
aI1
aI7
aI20
aI12
aI1
aI27
aI61
aI101
asS'ogana001'
p1547
(lp1548
g1547
aS'Alexi Ogando'
p1549
aI2
aI2
aI0
aI1
aI0
aI0
aI0
aI0
aI0
aI0
aI0
aI1
aI1
asS'bay-j001'
p1550
(lp1551
g1550
aS'Jason Bay'
p1552
aI215
aI194
aI21
aI32
aI2
aI0
aI8
aI20
aI5
aI1
aI19
aI58
aI58
asS'parrm001'
p1553
(lp1554
g1553
aS'Manny Parra'
p1555
aI1
aI1
aI0
aI0
aI0
aI0
aI0
aI0
aI0
aI0
aI0
aI1
aI0
asS'satij001'
p1556
(lp1557
g1556
aS'Josh Satin'
p1558
aI1
aI1
aI0
aI0
aI0
aI0
aI0
aI0
aI0
aI0
aI0
aI1
aI0
asS'fifes001'
p1559
(lp1560
g1559
aS'Stephen Fife'
p1561
aI8
aI7
aI1
aI2
aI1
aI0
aI0
aI0
aI0
aI0
aI0
aI2
aI3
asS'blacc001'
p1562
(lp1563
g1562
aS'Charlie Blackmon'
p1564
aI121
aI113
aI15
aI32
aI8
aI0
aI2
aI9
aI1
aI2
aI4
aI17
aI46
asS'lemad001'
p1565
(lp1566
g1565
aS'DJ LeMahieu'
p1567
aI247
aI229
aI26
aI68
aI12
aI4
aI2
aI22
aI1
aI2
aI13
aI42
aI94
asS'heltt001'
p1568
(lp1569
g1568
aS'Todd Helton'
p1570
aI283
aI240
aI31
aI57
aI16
aI1
aI7
aI37
aI1
aI1
aI39
aI44
aI96
asS'guyeb001'
p1571
(lp1572
g1571
aS'Brandon Guyer'
p1573
aI7
aI7
aI2
aI1
aI0
aI0
aI1
aI1
aI0
aI0
aI0
aI1
aI4
asS'couss001'
p1574
(lp1575
g1574
aS'Scott Cousins'
p1576
aI92
aI86
aI7
aI14
aI4
aI1
aI1
aI3
aI1
aI1
aI4
aI24
aI23
asS'narvc001'
p1577
(lp1578
g1577
aS'Chris Narveson'
p1579
aI3
aI3
aI0
aI0
aI0
aI0
aI0
aI0
aI0
aI0
aI0
aI2
aI0
asS'pelfm001'
p1580
(lp1581
g1580
aS'Mike Pelfrey'
p1582
aI7
aI6
aI1
aI1
aI1
aI0
aI0
aI0
aI0
aI0
aI0
aI0
aI2
asS'pench001'
p1583
(lp1584
g1583
aS'Hunter Pence'
p1585
aI688
aI617
aI87
aI156
aI26
aI4
aI24
aI104
aI5
aI2
aI56
aI145
aI262
asS'gonza005'
p1586
(lp1587
g1586
aS'Alberto Gonzalez'
p1588
aI55
aI54
aI7
aI13
aI2
aI1
aI0
aI4
aI0
aI0
aI0
aI9
aI17
asS'mortc003'
p1589
(lp1590
g1589
aS'Clayton Mortensen'
p1591
aI1
aI1
aI0
aI0
aI0
aI0
aI0
aI0
aI0
aI0
aI0
aI1
aI0
asS'mikom001'
p1592
(lp1593
g1592
aS'Miles Mikolas'
p1594
aI3
aI3
aI0
aI0
aI0
aI0
aI0
aI0
aI0
aI0
aI0
aI1
aI0
asS'thomr005'
p1595
(lp1596
g1595
aS'Rich Thompson'
p1597
aI24
aI22
aI5
aI2
aI0
aI0
aI0
aI1
aI6
aI2
aI0
aI5
aI2
asS'downm001'
p1598
(lp1599
g1598
aS'Matt Downs'
p1600
aI191
aI178
aI15
aI36
aI4
aI1
aI8
aI16
aI2
aI4
aI8
aI38
aI66
asS'gonza003'
p1601
(lp1602
g1601
aS'Adrian Gonzalez'
p1603
aI684
aI629
aI75
aI188
aI47
aI1
aI18
aI108
aI2
aI0
aI42
aI110
aI291
asS'gonza002'
p1604
(lp1605
g1604
aS'Alex Gonzalez'
p1606
aI89
aI81
aI8
aI21
aI4
aI0
aI4
aI15
aI1
aI1
aI6
aI15
aI37
asS'rodre003'
p1607
(lp1608
g1607
aS'Eddy Rodriguez'
p1609
aI7
aI5
aI1
aI1
aI0
aI0
aI1
aI1
aI0
aI0
aI2
aI3
aI4
asS'martc005'
p1610
(lp1611
g1610
aS'Cristhian Martinez'
p1612
aI3
aI3
aI0
aI0
aI0
aI0
aI0
aI0
aI0
aI0
aI0
aI1
aI0
asS'bailh001'
p1613
(lp1614
g1613
aS'Homer Bailey'
p1615
aI76
aI70
aI1
aI8
aI1
aI0
aI0
aI5
aI0
aI0
aI1
aI29
aI9
asS'ramia001'
p1616
(lp1617
g1616
aS'Aramis Ramirez'
p1618
aI630
aI570
aI92
aI171
aI50
aI3
aI27
aI105
aI9
aI2
aI44
aI82
aI308
asS'belim001'
p1619
(lp1620
g1619
aS'Matt Belisle'
p1621
aI3
aI3
aI0
aI0
aI0
aI0
aI0
aI0
aI0
aI0
aI0
aI1
aI0
asS'dozib001'
p1622
(lp1623
g1622
aS'Brian Dozier'
p1624
aI340
aI316
aI33
aI74
aI11
aI1
aI6
aI33
aI9
aI2
aI16
aI58
aI105
asS'wellc001'
p1625
(lp1626
g1625
aS'Casper Wells'
p1627
aI316
aI285
aI42
aI65
aI12
aI3
aI10
aI36
aI3
aI0
aI26
aI80
aI113
asS'kotcc001'
p1628
(lp1629
g1628
aS'Casey Kotchman'
p1630
aI500
aI463
aI46
aI106
aI12
aI0
aI12
aI55
aI3
aI0
aI26
aI49
aI154
asS'kawam001'
p1631
(lp1632
g1631
aS'Munenori Kawasaki'
p1633
aI115
aI104
aI13
aI20
aI1
aI0
aI0
aI7
aI2
aI2
aI8
aI18
aI21
asS'lylej001'
p1634
(lp1635
g1634
aS'Jordan Lyles'
p1636
aI46
aI38
aI3
aI6
aI1
aI0
aI1
aI4
aI0
aI0
aI1
aI18
aI10
asS'canzr001'
p1637
(lp1638
g1637
aS'Russ Canzler'
p1639
aI97
aI93
aI9
aI25
aI3
aI0
aI3
aI11
aI0
aI0
aI4
aI22
aI37
asS'weavj003'
p1640
(lp1641
g1640
aS'Jered Weaver'
p1642
aI3
aI2
aI1
aI1
aI0
aI0
aI0
aI0
aI0
aI0
aI1
aI1
aI1
asS'linda001'
p1643
(lp1644
g1643
aS'Adam Lind'
p1645
aI353
aI321
aI28
aI82
aI14
aI2
aI11
aI45
aI0
aI0
aI29
aI61
aI133
asS'villc001'
p1646
(lp1647
g1646
aS'Carlos Villanueva'
p1648
aI2
aI2
aI1
aI1
aI0
aI0
aI0
aI0
aI0
aI0
aI0
aI0
aI1
asS'konep001'
p1649
(lp1650
g1649
aS'Paul Konerko'
p1651
aI598
aI533
aI66
aI159
aI22
aI0
aI26
aI75
aI0
aI0
aI56
aI83
aI259
asS'petta001'
p1652
(lp1653
g1652
aS'Andy Pettitte'
p1654
aI5
aI4
aI0
aI1
aI0
aI0
aI0
aI0
aI0
aI0
aI0
aI2
aI1
asS'gorzt001'
p1655
(lp1656
g1655
aS'Tom Gorzelanny'
p1657
aI7
aI6
aI0
aI2
aI0
aI0
aI0
aI1
aI0
aI0
aI1
aI1
aI2
asS'eldrb001'
p1658
(lp1659
g1658
aS'Brad Eldred'
p1660
aI17
aI16
aI1
aI3
aI1
aI1
aI0
aI1
aI0
aI0
aI1
aI6
aI6
asS'hudsd001'
p1661
(lp1662
g1661
aS'Daniel Hudson'
p1663
aI16
aI13
aI1
aI2
aI0
aI0
aI0
aI1
aI0
aI0
aI2
aI6
aI2
asS'dunna001'
p1664
(lp1665
g1664
aS'Adam Dunn'
p1666
aI649
aI539
aI87
aI110
aI19
aI0
aI41
aI96
aI2
aI1
aI105
aI222
aI252
asS'vottj001'
p1667
(lp1668
g1667
aS'Joey Votto'
p1669
aI475
aI374
aI59
aI126
aI44
aI0
aI14
aI56
aI5
aI3
aI94
aI85
aI212
asS'nunee002'
p1670
(lp1671
g1670
aS'Eduardo Nunez'
p1672
aI100
aI89
aI14
aI26
aI4
aI1
aI1
aI11
aI11
aI2
aI6
aI12
aI35
asS'philb001'
p1673
(lp1674
g1673
aS'Brandon Phillips'
p1675
aI623
aI580
aI86
aI163
aI30
aI1
aI18
aI77
aI15
aI2
aI28
aI79
aI249
asS'brotr001'
p1676
(lp1677
g1676
aS'Rex Brothers'
p1678
aI3
aI2
aI0
aI0
aI0
aI0
aI0
aI0
aI0
aI0
aI0
aI2
aI0
asS'lavar001'
p1679
(lp1680
g1679
aS'Ryan Lavarnway'
p1681
aI166
aI153
aI11
aI24
aI8
aI0
aI2
aI12
aI0
aI0
aI11
aI41
aI38
asS'felin001'
p1682
(lp1683
g1682
aS'Neftali Feliz'
p1684
aI2
aI2
aI0
aI0
aI0
aI0
aI0
aI0
aI0
aI0
aI0
aI1
aI0
asS'quinj001'
p1685
(lp1686
g1685
aS'Jose Quintana'
p1687
aI5
aI3
aI0
aI0
aI0
aI0
aI0
aI0
aI0
aI0
aI1
aI3
aI0
asS'ceder002'
p1688
(lp1689
g1688
aS'Ronny Cedeno'
p1690
aI186
aI166
aI18
aI43
aI11
aI1
aI4
aI22
aI0
aI1
aI17
aI35
aI68
asS'abadf001'
p1691
(lp1692
g1691
aS'Fernando Abad'
p1693
aI7
aI7
aI0
aI1
aI0
aI0
aI0
aI0
aI0
aI0
aI0
aI3
aI1
asS'padiv001'
p1694
(lp1695
g1694
aS'Vicente Padilla'
p1696
aI1
aI1
aI0
aI0
aI0
aI0
aI0
aI0
aI0
aI0
aI0
aI0
aI0
asS'oterd001'
p1697
(lp1698
g1697
aS'Dan Otero'
p1699
aI1
aI1
aI0
aI0
aI0
aI0
aI0
aI0
aI0
aI0
aI0
aI1
aI0
asS'lirif001'
p1700
(lp1701
g1700
aS'Francisco Liriano'
p1702
aI3
aI3
aI0
aI0
aI0
aI0
aI0
aI0
aI0
aI0
aI0
aI2
aI0
asS'gomej002'
p1703
(lp1704
g1703
aS'Jeanmar Gomez'
p1705
aI4
aI4
aI0
aI1
aI0
aI0
aI0
aI0
aI0
aI0
aI0
aI1
aI1
asS'getzc001'
p1706
(lp1707
g1706
aS'Chris Getz'
p1708
aI210
aI189
aI22
aI52
aI10
aI3
aI0
aI17
aI9
aI3
aI11
aI17
aI68
asS'gonzm002'
p1709
(lp1710
g1709
aS'Marwin Gonzalez'
p1711
aI219
aI205
aI21
aI48
aI13
aI0
aI2
aI12
aI3
aI3
aI13
aI29
aI67
asS'hairj002'
p1712
(lp1713
g1712
aS'Jerry Hairston'
p1714
aI267
aI238
aI19
aI65
aI13
aI1
aI4
aI26
aI1
aI2
aI23
aI27
aI92
asS'murpd004'
p1715
(lp1716
g1715
aS'Donnie Murphy'
p1717
aI129
aI116
aI13
aI25
aI6
aI2
aI3
aI12
aI1
aI1
aI9
aI35
aI44
asS'harrw001'
p1718
(lp1719
g1718
aS'Willie Harris'
p1720
aI48
aI44
aI5
aI5
aI4
aI0
aI0
aI2
aI1
aI1
aI3
aI8
aI9
asS'murpd005'
p1721
(lp1722
g1721
aS'David Murphy'
p1723
aI521
aI457
aI65
aI139
aI29
aI3
aI15
aI61
aI10
aI5
aI54
aI74
aI219
asS'swara001'
p1724
(lp1725
g1724
aS'Anthony Swarzak'
p1726
aI2
aI2
aI0
aI0
aI0
aI0
aI0
aI0
aI0
aI0
aI0
aI1
aI0
asS'presa001'
p1727
(lp1728
g1727
aS'Alex Presley'
p1729
aI370
aI346
aI46
aI82
aI14
aI7
aI10
aI25
aI9
aI7
aI18
aI72
aI140
asS'tehej001'
p1730
(lp1731
g1730
aS'Julio Teheran'
p1732
aI2
aI1
aI0
aI0
aI0
aI0
aI0
aI0
aI0
aI0
aI1
aI0
aI0
asS'murpd006'
p1733
(lp1734
g1733
aS'Daniel Murphy'
p1735
aI612
aI571
aI62
aI166
aI40
aI3
aI6
aI65
aI10
aI2
aI36
aI82
aI230
asS'wellr001'
p1736
(lp1737
g1736
aS'Randy Wells'
p1738
aI4
aI4
aI0
aI1
aI0
aI0
aI0
aI0
aI0
aI0
aI0
aI2
aI1
asS'badeb001'
p1739
(lp1740
g1739
aS'Burke Badenhop'
p1741
aI1
aI1
aI0
aI0
aI0
aI0
aI0
aI0
aI0
aI0
aI0
aI1
aI0
asS'damoj001'
p1742
(lp1743
g1742
aS'Johnny Damon'
p1744
aI224
aI207
aI25
aI46
aI6
aI2
aI4
aI19
aI4
aI0
aI17
aI27
aI68
asS'phelc001'
p1745
(lp1746
g1745
aS'Cord Phelps'
p1747
aI34
aI33
aI2
aI7
aI0
aI0
aI1
aI5
aI0
aI0
aI1
aI10
aI10
asS'moreb001'
p1748
(lp1749
g1748
aS'Brent Morel'
p1750
aI125
aI113
aI14
aI20
aI2
aI0
aI0
aI5
aI4
aI1
aI7
aI39
aI22
asS'salaf001'
p1751
(lp1752
g1751
aS'Fernando Salas'
p1753
aI1
aI1
aI0
aI0
aI0
aI0
aI0
aI0
aI0
aI0
aI0
aI1
aI0
asS'weilk001'
p1754
(lp1755
g1754
aS'Kyle Weiland'
p1756
aI6
aI5
aI1
aI0
aI0
aI0
aI0
aI0
aI0
aI0
aI0
aI1
aI0
asS'kempm001'
p1757
(lp1758
g1757
aS'Matt Kemp'
p1759
aI449
aI403
aI74
aI122
aI22
aI2
aI23
aI69
aI9
aI4
aI40
aI103
aI217
asS'pavac001'
p1760
(lp1761
g1760
aS'Carl Pavano'
p1762
aI2
aI2
aI0
aI0
aI0
aI0
aI0
aI0
aI0
aI0
aI0
aI1
aI0
asS'parra001'
p1763
(lp1764
g1763
aS'Andy Parrino'
p1765
aI138
aI116
aI9
aI24
aI5
aI0
aI1
aI6
aI1
aI0
aI17
aI35
aI32
asS'nadyx001'
p1766
(lp1767
g1766
aS'Xavier Nady'
p1768
aI166
aI152
aI12
aI28
aI6
aI1
aI4
aI13
aI1
aI0
aI13
aI37
aI48
asS'darvy001'
p1769
(lp1770
g1769
aS'Yu Darvish'
p1771
aI3
aI3
aI0
aI1
aI0
aI0
aI0
aI0
aI0
aI0
aI0
aI1
aI1
asS'victs001'
p1772
(lp1773
g1772
aS'Shane Victorino'
p1774
aI666
aI595
aI72
aI152
aI29
aI7
aI11
aI55
aI39
aI6
aI53
aI80
aI228
asS'hefnj001'
p1775
(lp1776
g1775
aS'Jeremy Hefner'
p1777
aI26
aI20
aI1
aI2
aI0
aI0
aI1
aI1
aI0
aI0
aI0
aI11
aI5
asS'napom001'
p1778
(lp1779
g1778
aS'Mike Napoli'
p1780
aI417
aI352
aI53
aI80
aI9
aI2
aI24
aI56
aI1
aI0
aI56
aI125
aI165
asS'overl001'
p1781
(lp1782
g1781
aS'Lyle Overbay'
p1783
aI131
aI116
aI12
aI30
aI10
aI0
aI2
aI10
aI0
aI0
aI13
aI34
aI46
asS'haraa001'
p1784
(lp1785
g1784
aS'Aaron Harang'
p1786
aI63
aI56
aI1
aI4
aI1
aI0
aI0
aI2
aI0
aI0
aI0
aI23
aI5
asS'casts001'
p1787
(lp1788
g1787
aS'Starlin Castro'
p1789
aI691
aI646
aI78
aI183
aI29
aI12
aI14
aI78
aI25
aI13
aI36
aI100
aI278
asS'seguj002'
p1790
(lp1791
g1790
aS'Jean Segura'
p1792
aI166
aI151
aI19
aI39
aI4
aI3
aI0
aI14
aI7
aI1
aI13
aI23
aI49
asS'petiy001'
p1793
(lp1794
g1793
aS'Yusmeiro Petit'
p1795
aI1
aI1
aI0
aI0
aI0
aI0
aI0
aI0
aI0
aI0
aI0
aI1
aI0
asS'pricd001'
p1796
(lp1797
g1796
aS'David Price'
p1798
aI5
aI4
aI0
aI0
aI0
aI0
aI0
aI0
aI0
aI0
aI1
aI2
aI0
asS'rogee002'
p1799
(lp1800
g1799
aS'Esmil Rogers'
p1801
aI3
aI3
aI0
aI1
aI0
aI0
aI0
aI0
aI0
aI0
aI0
aI1
aI1
asS'maybj001'
p1802
(lp1803
g1802
aS'John Mayberry'
p1804
aI479
aI441
aI53
aI108
aI24
aI0
aI14
aI46
aI1
aI0
aI34
aI111
aI174
asS'rusic001'
p1805
(lp1806
g1805
aS'Chris Rusin'
p1807
aI12
aI12
aI0
aI2
aI0
aI1
aI0
aI0
aI0
aI0
aI0
aI5
aI4
asS'fryee001'
p1808
(lp1809
g1808
aS'Eric Fryer'
p1810
aI5
aI4
aI0
aI1
aI0
aI0
aI0
aI0
aI0
aI0
aI1
aI1
aI1
asS'turnj002'
p1811
(lp1812
g1811
aS'Jacob Turner'
p1813
aI16
aI14
aI0
aI0
aI0
aI0
aI0
aI0
aI0
aI0
aI0
aI8
aI0
asS'turnj001'
p1814
(lp1815
g1814
aS'Justin Turner'
p1816
aI185
aI171
aI20
aI46
aI13
aI1
aI2
aI19
aI1
aI1
aI9
aI24
aI67
asS'barmc001'
p1817
(lp1818
g1817
aS'Clint Barmes'
p1819
aI493
aI455
aI34
aI104
aI16
aI1
aI8
aI45
aI0
aI2
aI20
aI106
aI146
asS'hared001'
p1820
(lp1821
g1820
aS'Dan Haren'
p1822
aI7
aI4
aI0
aI0
aI0
aI0
aI0
aI0
aI0
aI0
aI0
aI2
aI0
asS'leroc001'
p1823
(lp1824
g1823
aS'Chris Leroux'
p1825
aI1
aI1
aI0
aI0
aI0
aI0
aI0
aI0
aI0
aI0
aI0
aI0
aI0
asS'scahr001'
p1826
(lp1827
g1826
aS'Rob Scahill'
p1828
aI3
aI1
aI0
aI0
aI0
aI0
aI0
aI0
aI0
aI0
aI1
aI0
aI0
asS'mattr001'
p1829
(lp1830
g1829
aS'Ryan Mattheus'
p1831
aI1
aI1
aI0
aI0
aI0
aI0
aI0
aI0
aI0
aI0
aI0
aI1
aI0
asS'marqj001'
p1832
(lp1833
g1832
aS'Jason Marquis'
p1834
aI36
aI32
aI3
aI9
aI3
aI0
aI0
aI1
aI0
aI0
aI0
aI12
aI12
asS'cruzl001'
p1835
(lp1836
g1835
aS'Luis Cruz'
p1837
aI296
aI283
aI26
aI84
aI20
aI0
aI6
aI40
aI2
aI1
aI9
aI34
aI122
asS'louxs001'
p1838
(lp1839
g1838
aS'Shane Loux'
p1840
aI1
aI1
aI0
aI0
aI0
aI0
aI0
aI0
aI0
aI0
aI0
aI0
aI0
asS'martr004'
p1841
(lp1842
g1841
aS'Russell Martin'
p1843
aI485
aI422
aI50
aI89
aI18
aI0
aI21
aI53
aI6
aI1
aI53
aI95
aI170
asS'kalir001'
p1844
(lp1845
g1844
aS'Ryan Kalish'
p1846
aI103
aI96
aI12
aI22
aI3
aI0
aI0
aI5
aI3
aI2
aI6
aI26
aI25
asS'matsh001'
p1847
(lp1848
g1847
aS'Hideki Matsui'
p1849
aI103
aI95
aI7
aI14
aI1
aI0
aI2
aI7
aI0
aI0
aI8
aI22
aI21
asS'teixm001'
p1850
(lp1851
g1850
aS'Mark Teixeira'
p1852
aI524
aI451
aI66
aI113
aI27
aI1
aI24
aI84
aI2
aI1
aI54
aI83
aI214
asS'iztuc001'
p1853
(lp1854
g1853
aS'Cesar Izturis'
p1855
aI173
aI166
aI13
aI40
aI7
aI2
aI2
aI11
aI1
aI1
aI3
aI13
aI57
asS'white004'
p1856
(lp1857
g1856
aS'Eli Whiteside'
p1858
aI14
aI11
aI3
aI1
aI1
aI0
aI0
aI2
aI0
aI0
aI1
aI4
aI2
asS'robis001'
p1859
(lp1860
g1859
aS'Shane Robinson'
p1861
aI181
aI166
aI20
aI42
aI8
aI0
aI3
aI16
aI1
aI0
aI14
aI32
aI59
asS'skagt001'
p1862
(lp1863
g1862
aS'Tyler Skaggs'
p1864
aI9
aI7
aI0
aI0
aI0
aI0
aI0
aI0
aI0
aI0
aI0
aI4
aI0
asS'wilsb002'
p1865
(lp1866
g1865
aS'Bobby Wilson'
p1867
aI201
aI171
aI19
aI36
aI5
aI0
aI3
aI13
aI0
aI0
aI15
aI33
aI50
asS'martf002'
p1868
(lp1869
g1868
aS'Fernando Martinez'
p1870
aI130
aI118
aI12
aI28
aI7
aI1
aI6
aI14
aI0
aI1
aI6
aI34
aI55
asS'drews001'
p1871
(lp1872
g1871
aS'Stephen Drew'
p1873
aI327
aI287
aI38
aI64
aI13
aI1
aI7
aI28
aI1
aI2
aI37
aI76
aI100
asS'orter001'
p1874
(lp1875
g1874
aS'Rafael Ortega'
p1876
aI6
aI4
aI0
aI2
aI0
aI0
aI0
aI0
aI1
aI0
aI1
aI2
aI2
asS'troum001'
p1877
(lp1878
g1877
aS'Mike Trout'
p1879
aI639
aI559
aI129
aI182
aI27
aI8
aI30
aI83
aI49
aI5
aI67
aI139
aI315
asS'furcr001'
p1880
(lp1881
g1880
aS'Rafael Furcal'
p1882
aI531
aI477
aI69
aI126
aI18
aI3
aI5
aI49
aI12
aI4
aI44
aI57
aI165
asS'abret001'
p1883
(lp1884
g1883
aS'Tony Abreu'
p1885
aI74
aI70
aI5
aI18
aI2
aI1
aI1
aI15
aI0
aI0
aI2
aI13
aI25
asS'gaudc001'
p1886
(lp1887
g1886
aS'Chad Gaudin'
p1888
aI8
aI8
aI0
aI0
aI0
aI0
aI0
aI0
aI0
aI0
aI0
aI4
aI0
asS'doubf001'
p1889
(lp1890
g1889
aS'Felix Doubront'
p1891
aI2
aI1
aI0
aI0
aI0
aI0
aI0
aI0
aI0
aI0
aI0
aI0
aI0
asS'woodt004'
p1892
(lp1893
g1892
aS'Travis Wood'
p1894
aI55
aI53
aI5
aI10
aI3
aI0
aI1
aI4
aI0
aI0
aI0
aI20
aI16
asS'stule002'
p1895
(lp1896
g1895
aS'Eric Stults'
p1897
aI34
aI28
aI3
aI7
aI2
aI0
aI0
aI3
aI0
aI0
aI0
aI10
aI9
asS'lairg001'
p1898
(lp1899
g1898
aS'Gerald Laird'
p1900
aI191
aI174
aI24
aI49
aI8
aI1
aI2
aI11
aI0
aI0
aI14
aI21
aI65
asS'hallr001'
p1901
(lp1902
g1901
aS'Roy Halladay'
p1903
aI57
aI53
aI4
aI9
aI0
aI0
aI0
aI2
aI0
aI0
aI0
aI26
aI9
asS'saltj001'
p1904
(lp1905
g1904
aS'Jarrod Saltalamacchia'
p1906
aI448
aI405
aI55
aI90
aI17
aI1
aI25
aI59
aI0
aI1
aI38
aI139
aI184
asS'jasoj001'
p1907
(lp1908
g1907
aS'John Jaso'
p1909
aI361
aI294
aI41
aI81
aI19
aI2
aI10
aI50
aI5
aI0
aI56
aI51
aI134
asS'sandp001'
p1910
(lp1911
g1910
aS'Pablo Sandoval'
p1912
aI442
aI396
aI59
aI112
aI25
aI2
aI12
aI63
aI1
aI1
aI38
aI59
aI177
asS'franj005'
p1913
(lp1914
g1913
aS'Juan Francisco'
p1915
aI205
aI192
aI17
aI45
aI11
aI0
aI9
aI32
aI1
aI1
aI11
aI70
aI83
asS'franj004'
p1916
(lp1917
g1916
aS'Jeff Francoeur'
p1918
aI603
aI561
aI58
aI132
aI26
aI3
aI16
aI49
aI4
aI7
aI34
aI119
aI212
asS'franj003'
p1919
(lp1920
g1919
aS'Jeff Francis'
p1921
aI39
aI31
aI2
aI2
aI0
aI0
aI0
aI0
aI0
aI0
aI2
aI8
aI2
asS'bianj001'
p1922
(lp1923
g1922
aS'Jeff Bianchi'
p1924
aI76
aI69
aI8
aI13
aI2
aI0
aI3
aI9
aI0
aI0
aI4
aI13
aI24
asS'penab002'
p1925
(lp1926
g1925
aS'Brayan Pena'
p1927
aI226
aI212
aI16
aI50
aI10
aI1
aI2
aI25
aI0
aI1
aI9
aI24
aI68
asS'goldp001'
p1928
(lp1929
g1928
aS'Paul Goldschmidt'
p1930
aI587
aI514
aI82
aI147
aI43
aI1
aI20
aI82
aI18
aI3
aI60
aI130
aI252
asS'gillc001'
p1931
(lp1932
g1931
aS'Conor Gillaspie'
p1933
aI20
aI20
aI2
aI3
aI1
aI0
aI0
aI2
aI0
aI0
aI0
aI2
aI4
asS'volsc001'
p1934
(lp1935
g1934
aS'Chris Volstad'
p1936
aI34
aI28
aI0
aI5
aI0
aI0
aI0
aI0
aI0
aI0
aI0
aI10
aI5
asS'berkl001'
p1937
(lp1938
g1937
aS'Lance Berkman'
p1939
aI97
aI81
aI12
aI21
aI7
aI1
aI2
aI7
aI2
aI0
aI14
aI19
aI36
asS'eatoa002'
p1940
(lp1941
g1940
aS'Adam Eaton'
p1942
aI103
aI85
aI19
aI22
aI3
aI2
aI2
aI5
aI2
aI3
aI14
aI15
aI35
asS'garcj002'
p1943
(lp1944
g1943
aS'Santiago Casilla'
p1945
aI3
aI3
aI0
aI1
aI0
aI0
aI0
aI1
aI0
aI0
aI0
aI1
aI1
asS'shiej002'
p1946
(lp1947
g1946
aS'James Shields'
p1948
aI5
aI5
aI0
aI1
aI0
aI0
aI0
aI1
aI0
aI0
aI0
aI1
aI1
asS'crawb001'
p1949
(lp1950
g1949
aS'Brandon Crawford'
p1951
aI476
aI435
aI44
aI108
aI26
aI3
aI4
aI45
aI1
aI4
aI33
aI95
aI152
asS'reyej001'
p1952
(lp1953
g1952
aS'Jose Reyes'
p1954
aI716
aI642
aI86
aI184
aI37
aI12
aI11
aI57
aI40
aI11
aI63
aI56
aI278
asS'voger001'
p1955
(lp1956
g1955
aS'Ryan Vogelsong'
p1957
aI66
aI54
aI5
aI5
aI1
aI0
aI0
aI0
aI0
aI0
aI3
aI31
aI6
asS'garcj004'
p1958
(lp1959
g1958
aS'Jaime Garcia'
p1960
aI46
aI40
aI7
aI10
aI1
aI1
aI1
aI3
aI0
aI0
aI2
aI15
aI16
asS'branm003'
p1961
(lp1962
g1961
aS'Michael Brantley'
p1963
aI609
aI552
aI63
aI159
aI37
aI4
aI6
aI60
aI12
aI9
aI53
aI56
aI222
asS'coghc001'
p1964
(lp1965
g1964
aS'Chris Coghlan'
p1966
aI105
aI93
aI10
aI13
aI1
aI0
aI1
aI10
aI0
aI2
aI9
aI12
aI17
asS'herre001'
p1967
(lp1968
g1967
aS'Elian Herrera'
p1969
aI214
aI187
aI26
aI47
aI10
aI1
aI1
aI17
aI4
aI2
aI23
aI50
aI62
asS'tulot001'
p1970
(lp1971
g1970
aS'Troy Tulowitzki'
p1972
aI203
aI181
aI33
aI52
aI8
aI2
aI8
aI27
aI2
aI2
aI19
aI19
aI88
asS'pennc001'
p1973
(lp1974
g1973
aS'Cliff Pennington'
p1975
aI462
aI418
aI50
aI90
aI18
aI2
aI6
aI28
aI15
aI6
aI35
aI90
aI130
asS'lannj001'
p1976
(lp1977
g1976
aS'John Lannan'
p1978
aI11
aI9
aI0
aI1
aI0
aI0
aI0
aI0
aI0
aI0
aI1
aI4
aI1
asS'solia001'
p1979
(lp1980
g1979
aS'Ali Solis'
p1981
aI4
aI4
aI0
aI0
aI0
aI0
aI0
aI0
aI0
aI0
aI0
aI2
aI0
asS'roles001'
p1982
(lp1983
g1982
aS'Scott Rolen'
p1984
aI330
aI294
aI26
aI72
aI17
aI2
aI8
aI39
aI2
aI1
aI30
aI62
aI117
asS'cruzr001'
p1985
(lp1986
g1985
aS'Rhiner Cruz'
p1987
aI1
aI1
aI0
aI0
aI0
aI0
aI0
aI0
aI0
aI0
aI0
aI1
aI0
asS'martl002'
p1988
(lp1989
g1988
aS'Luis Martinez'
p1990
aI19
aI18
aI1
aI2
aI0
aI0
aI0
aI0
aI0
aI0
aI0
aI4
aI2
asS'martl003'
p1991
(lp1992
g1991
aS'Luis Marte'
p1993
aI1
aI1
aI0
aI0
aI0
aI0
aI0
aI0
aI0
aI0
aI0
aI0
aI0
asS'martl004'
p1994
(lp1995
g1994
aS'Leonys Martin'
p1996
aI52
aI46
aI6
aI8
aI5
aI2
aI0
aI6
aI3
aI0
aI4
aI12
aI17
asS'keucd001'
p1997
(lp1998
g1997
aS'Dallas Keuchel'
p1999
aI27
aI20
aI1
aI2
aI0
aI0
aI0
aI1
aI0
aI0
aI1
aI10
aI2
asS'infao001'
p2000
(lp2001
g2000
aS'Omar Infante'
p2002
aI588
aI554
aI69
aI152
aI30
aI7
aI12
aI53
aI17
aI3
aI21
aI65
aI232
asS'pereh001'
p2003
(lp2004
g2003
aS'Hernan Perez'
p2005
aI2
aI2
aI1
aI1
aI0
aI0
aI0
aI0
aI0
aI0
aI0
aI0
aI1
asS'pagaa001'
p2006
(lp2007
g2006
aS'Angel Pagan'
p2008
aI659
aI605
aI95
aI174
aI38
aI15
aI8
aI56
aI29
aI7
aI48
aI97
aI266
asS'garcf002'
p2009
(lp2010
g2009
aS'Freddy Garcia'
p2011
aI1
aI1
aI0
aI0
aI0
aI0
aI0
aI0
aI0
aI0
aI0
aI1
aI0
asS'mercj002'
p2012
(lp2013
g2012
aS'Jordy Mercer'
p2014
aI68
aI62
aI7
aI13
aI5
aI1
aI1
aI5
aI0
aI1
aI4
aI14
aI23
asS'cingt001'
p2015
(lp2016
g2015
aS'Tony Cingrani'
p2017
aI1
aI1
aI0
aI0
aI0
aI0
aI0
aI0
aI0
aI0
aI0
aI1
aI0
asS'hamec001'
p2018
(lp2019
g2018
aS'Cole Hamels'
p2020
aI82
aI69
aI5
aI15
aI2
aI0
aI1
aI5
aI0
aI1
aI4
aI27
aI20
asS'ishit001'
p2021
(lp2022
g2021
aS'Travis Ishikawa'
p2023
aI174
aI152
aI19
aI39
aI12
aI1
aI4
aI30
aI0
aI0
aI13
aI42
aI65
asS'bourm001'
p2024
(lp2025
g2024
aS'Michael Bourn'
p2026
aI703
aI624
aI96
aI171
aI26
aI10
aI9
aI57
aI42
aI13
aI70
aI155
aI244
asS'jacka001'
p2027
(lp2028
g2027
aS'Austin Jackson'
p2029
aI617
aI543
aI103
aI163
aI29
aI10
aI16
aI66
aI12
aI9
aI67
aI134
aI260
asS'holld003'
p2030
(lp2031
g2030
aS'Derek Holland'
p2032
aI2
aI2
aI0
aI0
aI0
aI0
aI0
aI0
aI0
aI0
aI0
aI1
aI0
asS'chisl001'
p2033
(lp2034
g2033
aS'Lonnie Chisenhall'
p2035
aI151
aI142
aI16
aI38
aI6
aI1
aI5
aI16
aI2
aI1
aI8
aI27
aI61
asS'cunna001'
p2036
(lp2037
g2036
aS'Aaron Cunningham'
p2038
aI109
aI97
aI5
aI17
aI4
aI0
aI1
aI7
aI0
aI3
aI9
aI25
aI24
asS'rutlj001'
p2039
(lp2040
g2039
aS'Josh Rutledge'
p2041
aI291
aI277
aI37
aI76
aI20
aI5
aI8
aI37
aI7
aI0
aI9
aI54
aI130
asS'blacn001'
p2042
(lp2043
g2042
aS'Nick Blackburn'
p2044
aI2
aI2
aI0
aI0
aI0
aI0
aI0
aI0
aI0
aI0
aI0
aI1
aI0
asS'ruggj001'
p2045
(lp2046
g2045
aS'Justin Ruggiano'
p2047
aI320
aI288
aI38
aI90
aI23
aI1
aI13
aI36
aI14
aI8
aI29
aI84
aI154
asS'chavj001'
p2048
(lp2049
g2048
aS'Jesse Chavez'
p2050
aI3
aI2
aI0
aI0
aI0
aI0
aI0
aI0
aI0
aI0
aI0
aI2
aI0
asS'adcon001'
p2051
(lp2052
g2051
aS'Nathan Adcock'
p2053
aI1
aI1
aI0
aI0
aI0
aI0
aI0
aI0
aI0
aI0
aI0
aI1
aI0
asS'olt-m001'
p2054
(lp2055
g2054
aS'Mike Olt'
p2056
aI40
aI33
aI2
aI5
aI1
aI0
aI0
aI5
aI1
aI1
aI5
aI13
aI6
asS'paulx001'
p2057
(lp2058
g2057
aS'Xavier Paul'
p2059
aI96
aI86
aI8
aI27
aI5
aI1
aI2
aI7
aI4
aI2
aI9
aI18
aI40
asS'norrd001'
p2060
(lp2061
g2060
aS'Derek Norris'
p2062
aI232
aI209
aI19
aI42
aI8
aI1
aI7
aI34
aI5
aI1
aI21
aI66
aI73
asS'lowed001'
p2063
(lp2064
g2063
aS'Derek Lowe'
p2065
aI4
aI4
aI0
aI2
aI0
aI0
aI0
aI0
aI0
aI0
aI0
aI0
aI2
asS'weekr001'
p2066
(lp2067
g2066
aS'Rickie Weeks'
p2068
aI677
aI588
aI85
aI135
aI29
aI4
aI21
aI63
aI16
aI3
aI74
aI169
aI235
asS'savej001'
p2069
(lp2070
g2069
aS'Joe Savery'
p2071
aI2
aI2
aI0
aI0
aI0
aI0
aI0
aI0
aI0
aI0
aI0
aI1
aI0
asS'lunah001'
p2072
(lp2073
g2072
aS'Hector Luna'
p2074
aI66
aI62
aI5
aI14
aI2
aI0
aI2
aI10
aI0
aI0
aI4
aI14
aI22
asS'janip001'
p2075
(lp2076
g2075
aS'Paul Janish'
p2077
aI186
aI167
aI18
aI31
aI6
aI1
aI0
aI9
aI1
aI0
aI17
aI30
aI39
asS'mattk001'
p2078
(lp2079
g2078
aS'Kevin Mattison'
p2080
aI5
aI5
aI0
aI0
aI0
aI0
aI0
aI0
aI0
aI0
aI0
aI2
aI0
asS'fukuk001'
p2081
(lp2082
g2081
aS'Kosuke Fukudome'
p2083
aI51
aI41
aI2
aI7
aI1
aI0
aI0
aI4
aI0
aI1
aI8
aI9
aI8
asS'mccua001'
p2084
(lp2085
g2084
aS'Andrew McCutchen'
p2086
aI673
aI593
aI107
aI194
aI29
aI6
aI31
aI96
aI20
aI12
aI70
aI132
aI328
asS'longe001'
p2087
(lp2088
g2087
aS'Evan Longoria'
p2089
aI312
aI273
aI39
aI79
aI14
aI0
aI17
aI55
aI2
aI3
aI33
aI61
aI144
asS'mcclk001'
p2090
(lp2091
g2090
aS'Kyle McClellan'
p2092
aI1
aI1
aI0
aI0
aI0
aI0
aI0
aI0
aI0
aI0
aI0
aI1
aI0
asS'castw002'
p2093
(lp2094
g2093
aS'Welington Castillo'
p2095
aI190
aI170
aI16
aI45
aI11
aI0
aI5
aI22
aI0
aI0
aI17
aI51
aI71
asS'peavj001'
p2096
(lp2097
g2096
aS'Jake Peavy'
p2098
aI5
aI5
aI1
aI0
aI0
aI0
aI0
aI1
aI0
aI0
aI0
aI3
aI0
asS'escoy001'
p2099
(lp2100
g2099
aS'Yunel Escobar'
p2101
aI608
aI558
aI58
aI141
aI22
aI1
aI9
aI51
aI5
aI1
aI35
aI70
aI192
asS'diazj003'
p2102
(lp2103
g2102
aS'Juan Diaz'
p2104
aI17
aI15
aI4
aI4
aI0
aI0
aI0
aI0
aI0
aI0
aI1
aI5
aI4
asS'gomej001'
p2105
(lp2106
g2105
aS'Jonny Gomes'
p2107
aI333
aI279
aI46
aI73
aI10
aI0
aI18
aI47
aI3
aI1
aI44
aI104
aI137
asS'jay-j001'
p2108
(lp2109
g2108
aS'Jon Jay'
p2110
aI502
aI443
aI70
aI135
aI22
aI4
aI4
aI40
aI19
aI7
aI34
aI71
aI177
asS'millk004'
p2111
(lp2112
g2111
aS'Kevin Millwood'
p2113
aI5
aI5
aI0
aI0
aI0
aI0
aI0
aI0
aI0
aI0
aI0
aI4
aI0
asS'gimeh001'
p2114
(lp2115
g2114
aS'Hector Gimenez'
p2116
aI11
aI11
aI1
aI5
aI0
aI0
aI0
aI1
aI0
aI0
aI0
aI3
aI5
asS'gorda001'
p2117
(lp2118
g2117
aS'Alex Gordon'
p2119
aI721
aI642
aI93
aI189
aI51
aI5
aI14
aI72
aI10
aI5
aI73
aI140
aI292
asS'greet005'
p2120
(lp2121
g2120
aS'Taylor Green'
p2122
aI117
aI103
aI8
aI19
aI7
aI0
aI3
aI14
aI0
aI0
aI10
aI24
aI35
asS'greet004'
p2123
(lp2124
g2123
aS'Tyler Greene'
p2125
aI330
aI305
aI34
aI70
aI15
aI2
aI11
aI30
aI12
aI4
aI19
aI95
aI122
asS'ryanb002'
p2126
(lp2127
g2126
aS'Brendan Ryan'
p2128
aI470
aI407
aI42
aI79
aI19
aI3
aI3
aI31
aI11
aI5
aI44
aI98
aI113
asS'uptoj001'
p2129
(lp2130
g2129
aS'Justin Upton'
p2131
aI628
aI554
aI107
aI155
aI24
aI4
aI17
aI67
aI18
aI8
aI63
aI121
aI238
asS'encae001'
p2132
(lp2133
g2132
aS'Edwin Encarnacion'
p2134
aI644
aI542
aI93
aI152
aI24
aI0
aI42
aI110
aI13
aI3
aI84
aI94
aI302
asS'burna001'
p2135
(lp2136
g2135
aS'A.J. Burnett'
p2137
aI71
aI63
aI1
aI4
aI0
aI0
aI0
aI2
aI0
aI0
aI3
aI36
aI4
asS'wortd001'
p2138
(lp2139
g2138
aS'Danny Worth'
p2140
aI90
aI74
aI9
aI16
aI3
aI0
aI0
aI3
aI0
aI0
aI13
aI23
aI19
asS'rodrs002'
p2141
(lp2142
g2141
aS'Sean Rodriguez'
p2143
aI342
aI301
aI36
aI64
aI14
aI1
aI6
aI32
aI5
aI0
aI27
aI75
aI98
asS'lockj001'
p2144
(lp2145
g2144
aS'Jeff Locke'
p2146
aI11
aI11
aI0
aI1
aI0
aI0
aI0
aI0
aI0
aI0
aI0
aI7
aI1
asS'gomem001'
p2147
(lp2148
g2147
aS'Mauro Gomez'
p2149
aI111
aI102
aI14
aI28
aI5
aI2
aI2
aI17
aI0
aI0
aI8
aI26
aI43
asS'grany001'
p2150
(lp2151
g2150
aS'Yasmani Grandal'
p2152
aI226
aI192
aI28
aI57
aI7
aI1
aI8
aI36
aI0
aI0
aI31
aI39
aI90
asS'congh001'
p2153
(lp2154
g2153
aS'Hank Conger'
p2155
aI22
aI18
aI0
aI3
aI0
aI0
aI0
aI1
aI0
aI0
aI1
aI0
aI3
asS'suttd002'
p2156
(lp2157
g2156
aS'Drew Sutton'
p2158
aI130
aI122
aI12
aI31
aI12
aI1
aI1
aI13
aI0
aI1
aI6
aI42
aI48
asS'cabre002'
p2159
(lp2160
g2159
aS'Edwar Cabrera'
p2161
aI1
aI1
aI0
aI0
aI0
aI0
aI0
aI0
aI0
aI0
aI0
aI1
aI0
asS'cozaz001'
p2162
(lp2163
g2162
aS'Zack Cozart'
p2164
aI600
aI561
aI72
aI138
aI33
aI4
aI15
aI35
aI4
aI0
aI31
aI113
aI224
asS'gomey001'
p2165
(lp2166
g2165
aS'Yan Gomes'
p2167
aI111
aI98
aI9
aI20
aI4
aI0
aI4
aI13
aI0
aI0
aI6
aI32
aI36
asS'hanir001'
p2168
(lp2169
g2168
aS'Ryan Hanigan'
p2170
aI371
aI317
aI25
aI87
aI14
aI0
aI2
aI24
aI0
aI0
aI44
aI37
aI107
asS'nickm001'
p2171
(lp2172
g2171
aS'Mike Nickeas'
p2173
aI122
aI109
aI8
aI19
aI3
aI0
aI1
aI13
aI0
aI0
aI8
aI27
aI25
asS'loupa001'
p2174
(lp2175
g2174
aS'Aaron Loup'
p2176
aI1
aI1
aI0
aI0
aI0
aI0
aI0
aI0
aI0
aI0
aI0
aI0
aI0
asS'rhymw001'
p2177
(lp2178
g2177
aS'Will Rhymes'
p2179
aI137
aI123
aI11
aI28
aI2
aI1
aI1
aI8
aI1
aI2
aI10
aI17
aI35
asS'ariaj001'
p2180
(lp2181
g2180
aS'Joaquin Arias'
p2182
aI344
aI319
aI30
aI86
aI13
aI5
aI5
aI34
aI5
aI1
aI13
aI44
aI124
asS'mesod001'
p2183
(lp2184
g2183
aS'Devin Mesoraco'
p2185
aI184
aI165
aI17
aI35
aI8
aI0
aI5
aI14
aI1
aI1
aI17
aI33
aI58
asS'scutm001'
p2186
(lp2187
g2186
aS'Marco Scutaro'
p2188
aI683
aI620
aI87
aI190
aI32
aI4
aI7
aI74
aI9
aI4
aI40
aI49
aI251
asS'conrb001'
p2189
(lp2190
g2189
aS'Brooks Conrad'
p2191
aI105
aI98
aI6
aI13
aI5
aI0
aI4
aI15
aI0
aI0
aI6
aI43
aI30
asS'hallb001'
p2192
(lp2193
g2192
aS'Bill Hall'
p2194
aI14
aI9
aI2
aI2
aI0
aI0
aI1
aI1
aI0
aI0
aI5
aI7
aI5
asS'schnb001'
p2195
(lp2196
g2195
aS'Brian Schneider'
p2197
aI98
aI89
aI9
aI20
aI5
aI0
aI2
aI7
aI0
aI0
aI5
aI15
aI31
asS'vizqo001'
p2198
(lp2199
g2198
aS'Omar Vizquel'
p2200
aI163
aI153
aI13
aI36
aI5
aI1
aI0
aI7
aI3
aI2
aI7
aI17
aI43
asS'machm001'
p2201
(lp2202
g2201
aS'Manny Machado'
p2203
aI202
aI191
aI24
aI50
aI8
aI3
aI7
aI26
aI2
aI0
aI9
aI38
aI85
asS'kenni001'
p2204
(lp2205
g2204
aS'Ian Kennedy'
p2206
aI73
aI51
aI4
aI4
aI0
aI1
aI0
aI6
aI0
aI0
aI11
aI29
aI6
asS'cletm001'
p2207
(lp2208
g2207
aS'Maikel Cleto'
p2209
aI1
aI1
aI0
aI0
aI0
aI0
aI0
aI0
aI0
aI0
aI0
aI1
aI0
asS'zobrb001'
p2210
(lp2211
g2210
aS'Ben Zobrist'
p2212
aI668
aI560
aI88
aI151
aI39
aI7
aI20
aI74
aI14
aI9
aI97
aI103
aI264
asS'hensc002'
p2213
(lp2214
g2213
aS'Clay Hensley'
p2215
aI1
aI1
aI0
aI0
aI0
aI0
aI0
aI0
aI0
aI0
aI0
aI0
aI0
asS'belod001'
p2216
(lp2217
g2216
aS'Duane Below'
p2218
aI1
aI1
aI0
aI0
aI0
aI0
aI0
aI0
aI0
aI0
aI0
aI0
aI0
asS'penar002'
p2219
(lp2220
g2219
aS'Ramiro Pena'
p2221
aI4
aI4
aI0
aI1
aI0
aI0
aI0
aI0
aI0
aI0
aI0
aI0
aI1
asS'hammj002'
p2222
(lp2223
g2222
aS'Jason Hammel'
p2224
aI7
aI4
aI0
aI0
aI0
aI0
aI0
aI0
aI0
aI0
aI0
aI3
aI0
asS'denoc001'
p2225
(lp2226
g2225
aS'Chris Denorfia'
p2227
aI382
aI348
aI56
aI102
aI19
aI6
aI8
aI36
aI13
aI5
aI27
aI52
aI157
asS'huntt002'
p2228
(lp2229
g2228
aS'Tommy Hunter'
p2230
aI2
aI2
aI0
aI0
aI0
aI0
aI0
aI0
aI0
aI0
aI0
aI1
aI0
asS'huntt001'
p2231
(lp2232
g2231
aS'Torii Hunter'
p2233
aI584
aI534
aI81
aI167
aI24
aI1
aI16
aI92
aI9
aI1
aI38
aI133
aI241
asS'rivej001'
p2234
(lp2235
g2234
aS'Juan Rivera'
p2236
aI339
aI312
aI30
aI76
aI14
aI0
aI9
aI47
aI1
aI3
aI18
aI35
aI117
asS'huffa001'
p2237
(lp2238
g2237
aS'Aubrey Huff'
p2239
aI95
aI78
aI7
aI15
aI4
aI0
aI1
aI7
aI0
aI0
aI16
aI12
aI22
asS'laroa001'
p2240
(lp2241
g2240
aS'Adam LaRoche'
p2242
aI647
aI571
aI76
aI155
aI35
aI1
aI33
aI100
aI1
aI1
aI67
aI138
aI291
asS'lapom001'
p2243
(lp2244
g2243
aS'Matt LaPorta'
p2245
aI60
aI58
aI2
aI14
aI2
aI0
aI1
aI5
aI0
aI0
aI1
aI17
aI19
asS'schem001'
p2246
(lp2247
g2246
aS'Max Scherzer'
p2248
aI4
aI2
aI0
aI0
aI0
aI0
aI0
aI0
aI0
aI0
aI0
aI1
aI0
asS'verlj001'
p2249
(lp2250
g2249
aS'Justin Verlander'
p2251
aI8
aI4
aI0
aI0
aI0
aI0
aI0
aI0
aI0
aI0
aI0
aI1
aI0
asS'mcclm001'
p2252
(lp2253
g2252
aS'Mike McClendon'
p2254
aI2
aI2
aI0
aI0
aI0
aI0
aI0
aI0
aI0
aI0
aI0
aI1
aI0
asS'kozmp001'
p2255
(lp2256
g2255
aS'Pete Kozma'
p2257
aI82
aI72
aI11
aI24
aI5
aI3
aI2
aI14
aI2
aI0
aI7
aI19
aI41
asS'axfoj001'
p2258
(lp2259
g2258
aS'John Axford'
p2260
aI1
aI1
aI0
aI0
aI0
aI0
aI0
aI0
aI0
aI0
aI0
aI1
aI0
asS'mauej001'
p2261
(lp2262
g2261
aS'Joe Mauer'
p2263
aI641
aI545
aI81
aI174
aI31
aI4
aI10
aI85
aI8
aI4
aI90
aI88
aI243
asS'ramoc001'
p2264
(lp2265
g2264
aS'Cesar Ramos'
p2266
aI1
aI1
aI0
aI0
aI0
aI0
aI0
aI0
aI0
aI0
aI0
aI1
aI0
asS'sancb001'
p2267
(lp2268
g2267
aS'Brian Sanches'
p2269
aI1
aI1
aI0
aI0
aI0
aI0
aI0
aI0
aI0
aI0
aI0
aI1
aI0
asS'medlk001'
p2270
(lp2271
g2270
aS'Kris Medlen'
p2272
aI39
aI33
aI3
aI4
aI1
aI0
aI0
aI2
aI0
aI0
aI4
aI15
aI5
asS'plout001'
p2273
(lp2274
g2273
aS'Trevor Plouffe'
p2275
aI465
aI422
aI56
aI99
aI19
aI1
aI24
aI55
aI1
aI3
aI37
aI92
aI192
asS'youne003'
p2276
(lp2277
g2276
aS'Eric Young'
p2278
aI196
aI174
aI36
aI55
aI7
aI2
aI4
aI15
aI14
aI2
aI13
aI31
aI78
asS'moliy001'
p2279
(lp2280
g2279
aS'Yadier Molina'
p2281
aI563
aI505
aI65
aI159
aI28
aI0
aI22
aI76
aI12
aI3
aI45
aI55
aI253
asS'dickr001'
p2282
(lp2283
g2282
aS'R.A. Dickey'
p2284
aI83
aI72
aI3
aI11
aI0
aI0
aI0
aI3
aI0
aI0
aI0
aI14
aI11
asS'whita001'
p2285
(lp2286
g2285
aS'Alex White'
p2287
aI33
aI28
aI2
aI5
aI1
aI0
aI2
aI5
aI0
aI0
aI0
aI12
aI12
asS'jackr005'
p2288
(lp2289
g2288
aS'Ryan Jackson'
p2290
aI18
aI17
aI2
aI2
aI0
aI0
aI0
aI0
aI0
aI0
aI1
aI3
aI2
asS'mornj001'
p2291
(lp2292
g2291
aS'Justin Morneau'
p2293
aI570
aI505
aI63
aI135
aI26
aI2
aI19
aI77
aI1
aI0
aI49
aI102
aI222
asS'poseb001'
p2294
(lp2295
g2294
aS'Buster Posey'
p2296
aI610
aI530
aI78
aI178
aI39
aI1
aI24
aI103
aI1
aI1
aI69
aI96
aI291
asS'hannj001'
p2297
(lp2298
g2297
aS'Jack Hannahan'
p2299
aI318
aI287
aI23
aI70
aI16
aI0
aI4
aI29
aI0
aI2
aI27
aI63
aI98
asS'bumgm001'
p2300
(lp2301
g2300
aS'Madison Bumgarner'
p2302
aI75
aI68
aI4
aI11
aI1
aI0
aI2
aI6
aI0
aI0
aI1
aI25
aI18
asS'dukez001'
p2303
(lp2304
g2303
aS'Zach Duke'
p2305
aI1
aI1
aI0
aI0
aI0
aI0
aI0
aI0
aI0
aI0
aI0
aI0
aI0
asS'blanh001'
p2306
(lp2307
g2306
aS'Henry Blanco'
p2308
aI67
aI64
aI6
aI12
aI3
aI0
aI1
aI7
aI1
aI0
aI3
aI18
aI18
asS'burns001'
p2309
(lp2310
g2309
aS'Sean Burnett'
p2311
aI1
aI0
aI0
aI0
aI0
aI0
aI0
aI0
aI0
aI0
aI1
aI0
aI0
asS'beltb001'
p2312
(lp2313
g2312
aS'Brandon Belt'
p2314
aI472
aI411
aI47
aI113
aI27
aI6
aI7
aI56
aI12
aI2
aI54
aI106
aI173
asS'sandj002'
p2315
(lp2316
g2315
aS'Jerry Sands'
p2317
aI24
aI23
aI2
aI4
aI2
aI0
aI0
aI1
aI0
aI0
aI1
aI9
aI6
asS'maxwj002'
p2318
(lp2319
g2318
aS'Justin Maxwell'
p2320
aI352
aI315
aI46
aI72
aI13
aI3
aI18
aI53
aI9
aI4
aI32
aI114
aI145
asS'zimmj003'
p2321
(lp2322
g2321
aS'Jordan Zimmermann'
p2323
aI66
aI57
aI5
aI11
aI2
aI0
aI1
aI4
aI0
aI0
aI4
aI13
aI16
asS'butlb003'
p2324
(lp2325
g2324
aS'Billy Butler'
p2326
aI679
aI614
aI72
aI192
aI32
aI1
aI29
aI107
aI2
aI1
aI54
aI111
aI313
asS'parkj001'
p2327
(lp2328
g2327
aS'Jarrod Parker'
p2329
aI7
aI6
aI0
aI0
aI0
aI0
aI0
aI0
aI0
aI0
aI0
aI4
aI0
asS'ankir001'
p2330
(lp2331
g2330
aS'Rick Ankiel'
p2332
aI171
aI158
aI15
aI36
aI10
aI2
aI5
aI15
aI1
aI3
aI12
aI59
aI65
asS'dejei002'
p2333
(lp2334
g2333
aS'Ivan De Jesus'
p2335
aI45
aI41
aI5
aI9
aI3
aI0
aI0
aI4
aI1
aI1
aI3
aI13
aI12
asS'ludwr001'
p2336
(lp2337
g2336
aS'Ryan Ludwick'
p2338
aI472
aI422
aI53
aI116
aI28
aI1
aI26
aI80
aI0
aI1
aI42
aI97
aI224
asS'darnc001'
p2339
(lp2340
g2339
aS"Chase d'Arnaud"
p2341
aI6
aI6
aI2
aI0
aI0
aI0
aI0
aI1
aI1
aI0
aI0
aI2
aI0
asS'wallb001'
p2342
(lp2343
g2342
aS'Brett Wallace'
p2344
aI254
aI229
aI24
aI58
aI10
aI1
aI9
aI24
aI0
aI0
aI18
aI73
aI97
asS'cloyt001'
p2345
(lp2346
g2345
aS'Tyler Cloyd'
p2347
aI14
aI11
aI2
aI1
aI0
aI0
aI0
aI0
aI0
aI0
aI3
aI3
aI1
asS'figgc001'
p2348
(lp2349
g2348
aS'Chone Figgins'
p2350
aI194
aI166
aI18
aI30
aI5
aI2
aI2
aI11
aI4
aI1
aI19
aI48
aI45
asS'lobaj001'
p2351
(lp2352
g2351
aS'Jose Lobaton'
p2353
aI197
aI167
aI16
aI37
aI10
aI0
aI2
aI20
aI0
aI1
aI24
aI46
aI53
asS'bixlb001'
p2354
(lp2355
g2354
aS'Brian Bixler'
p2356
aI96
aI88
aI11
aI17
aI6
aI0
aI2
aI7
aI3
aI0
aI7
aI36
aI29
asS'podss001'
p2357
(lp2358
g2357
aS'Scott Podsednik'
p2359
aI216
aI199
aI19
aI60
aI7
aI0
aI1
aI12
aI8
aI2
aI6
aI35
aI70
asS'outmj001'
p2360
(lp2361
g2360
aS'Josh Outman'
p2362
aI13
aI12
aI0
aI1
aI0
aI0
aI0
aI1
aI0
aI0
aI1
aI8
aI1
asS'browd004'
p2363
(lp2364
g2363
aS'Domonic Brown'
p2365
aI212
aI187
aI21
aI44
aI11
aI2
aI5
aI26
aI0
aI0
aI21
aI34
aI74
asS'jeted001'
p2366
(lp2367
g2366
aS'Derek Jeter'
p2368
aI740
aI683
aI99
aI216
aI32
aI0
aI15
aI58
aI9
aI4
aI45
aI90
aI293
asS'affej001'
p2369
(lp2370
g2369
aS'Jeremy Affeldt'
p2371
aI1
aI1
aI0
aI0
aI0
aI0
aI0
aI0
aI0
aI0
aI0
aI0
aI0
asS'moorm003'
p2372
(lp2373
g2372
aS'Matt Moore'
p2374
aI5
aI4
aI0
aI0
aI0
aI0
aI0
aI1
aI0
aI0
aI0
aI2
aI0
asS'schal001'
p2375
(lp2376
g2375
aS'Logan Schafer'
p2377
aI25
aI23
aI3
aI7
aI1
aI2
aI0
aI5
aI0
aI1
aI1
aI3
aI12
asS'yound003'
p2378
(lp2379
g2378
aS'Delmon Young'
p2380
aI608
aI574
aI54
aI153
aI27
aI1
aI18
aI74
aI0
aI2
aI20
aI112
aI236
asS'blang001'
p2381
(lp2382
g2381
aS'Gregor Blanco'
p2383
aI453
aI393
aI56
aI96
aI14
aI5
aI5
aI34
aI26
aI6
aI51
aI104
aI135
asS'berkj001'
p2384
(lp2385
g2384
aS'Jason Berken'
p2386
aI5
aI5
aI0
aI0
aI0
aI0
aI0
aI0
aI0
aI0
aI0
aI1
aI0
asS'schwc001'
p2387
(lp2388
g2387
aS'Chris Schwinden'
p2389
aI4
aI4
aI0
aI1
aI0
aI0
aI0
aI1
aI0
aI0
aI0
aI1
aI1
asS'drabk001'
p2390
(lp2391
g2390
aS'Kyle Drabek'
p2392
aI2
aI2
aI0
aI0
aI0
aI0
aI0
aI0
aI0
aI0
aI0
aI1
aI0
asS'hamij003'
p2393
(lp2394
g2393
aS'Josh Hamilton'
p2395
aI636
aI562
aI103
aI160
aI31
aI2
aI43
aI128
aI7
aI4
aI60
aI162
aI324
asS'peree003'
p2396
(lp2397
g2396
aS'Eury Perez'
p2398
aI5
aI5
aI3
aI1
aI0
aI0
aI0
aI0
aI3
aI0
aI0
aI0
aI1
asS'chenb001'
p2399
(lp2400
g2399
aS'Bruce Chen'
p2401
aI5
aI5
aI0
aI1
aI0
aI0
aI0
aI0
aI0
aI0
aI0
aI3
aI1
asS'pridj001'
p2402
(lp2403
g2402
aS'Jason Pridie'
p2404
aI10
aI10
aI1
aI3
aI1
aI0
aI1
aI3
aI0
aI0
aI0
aI0
aI7
asS'hochl001'
p2405
(lp2406
g2405
aS'Luke Hochevar'
p2407
aI5
aI5
aI0
aI1
aI0
aI0
aI0
aI0
aI0
aI0
aI0
aI1
aI1
asS'coopd002'
p2408
(lp2409
g2408
aS'David Cooper'
p2410
aI145
aI140
aI16
aI42
aI11
aI0
aI4
aI11
aI0
aI1
aI4
aI22
aI65
asS'hagum001'
p2411
(lp2412
g2411
aS'Matt Hague'
p2413
aI74
aI70
aI5
aI16
aI2
aI0
aI0
aI7
aI1
aI0
aI3
aI14
aI18
asS'duncs001'
p2414
(lp2415
g2414
aS'Shelley Duncan'
p2416
aI264
aI232
aI29
aI47
aI10
aI0
aI11
aI31
aI1
aI2
aI28
aI59
aI90
asS'sanch002'
p2417
(lp2418
g2417
aS'Hector Sanchez'
p2419
aI227
aI218
aI22
aI61
aI15
aI0
aI3
aI34
aI0
aI0
aI5
aI52
aI85
asS'sierm001'
p2420
(lp2421
g2420
aS'Moises Sierra'
p2422
aI157
aI147
aI14
aI33
aI4
aI0
aI6
aI15
aI1
aI0
aI8
aI44
aI55
asS'gomeb001'
p2423
(lp2424
g2423
aS'Brandon Gomes'
p2425
aI2
aI1
aI0
aI0
aI0
aI0
aI0
aI1
aI0
aI0
aI1
aI1
aI0
asS'vincn001'
p2426
(lp2427
g2426
aS'Nick Vincent'
p2428
aI1
aI1
aI0
aI0
aI0
aI0
aI0
aI0
aI0
aI0
aI0
aI1
aI0
asS'alony001'
p2429
(lp2430
g2429
aS'Yonder Alonso'
p2431
aI619
aI549
aI47
aI150
aI39
aI0
aI9
aI62
aI3
aI0
aI62
aI101
aI216
asS'dobbg001'
p2432
(lp2433
g2432
aS'Greg Dobbs'
p2434
aI342
aI319
aI26
aI91
aI13
aI2
aI5
aI39
aI4
aI2
aI14
aI53
aI123
asS'dempr002'
p2435
(lp2436
g2435
aS'Ryan Dempster'
p2437
aI33
aI32
aI1
aI3
aI0
aI1
aI0
aI1
aI0
aI0
aI0
aI9
aI5
asS'harrl002'
p2438
(lp2439
g2438
aS'Lucas Harrell'
p2440
aI63
aI59
aI5
aI9
aI0
aI0
aI0
aI1
aI0
aI0
aI1
aI32
aI9
asS'walkn001'
p2441
(lp2442
g2441
aS'Neil Walker'
p2443
aI530
aI472
aI62
aI132
aI27
aI0
aI14
aI69
aI7
aI5
aI47
aI104
aI201
asS'thame001'
p2444
(lp2445
g2444
aS'Eric Thames'
p2446
aI290
aI271
aI27
aI63
aI12
aI3
aI9
aI25
aI1
aI1
aI15
aI87
aI108
asS'torra001'
p2447
(lp2448
g2447
aS'Andres Torres'
p2449
aI434
aI374
aI47
aI86
aI17
aI7
aI3
aI35
aI13
aI5
aI52
aI90
aI126
asS'sheeb001'
p2450
(lp2451
g2450
aS'Ben Sheets'
p2452
aI17
aI13
aI0
aI0
aI0
aI0
aI0
aI0
aI0
aI0
aI1
aI6
aI0
asS'zimmr001'
p2453
(lp2454
g2453
aS'Ryan Zimmerman'
p2455
aI641
aI578
aI93
aI163
aI36
aI1
aI25
aI95
aI5
aI2
aI57
aI116
aI276
asS'branr002'
p2456
(lp2457
g2456
aS'Rob Brantly'
p2458
aI113
aI100
aI14
aI29
aI8
aI0
aI3
aI8
aI1
aI1
aI13
aI16
aI46
asS'hatcc002'
p2459
(lp2460
g2459
aS'Chris Hatcher'
p2461
aI1
aI1
aI0
aI0
aI0
aI0
aI0
aI0
aI0
aI0
aI0
aI1
aI0
asS'vargj001'
p2462
(lp2463
g2462
aS'Jason Vargas'
p2464
aI6
aI5
aI2
aI2
aI0
aI0
aI0
aI1
aI0
aI0
aI1
aI2
aI2
asS'lonej001'
p2465
(lp2466
g2465
aS'James Loney'
p2467
aI465
aI434
aI37
aI108
aI20
aI0
aI6
aI41
aI0
aI3
aI28
aI51
aI146
asS'beavb001'
p2468
(lp2469
g2468
aS'Blake Beavan'
p2470
aI3
aI2
aI0
aI0
aI0
aI0
aI0
aI0
aI0
aI0
aI0
aI1
aI0
asS'staut001'
p2471
(lp2472
g2471
aS'Tim Stauffer'
p2473
aI2
aI1
aI0
aI0
aI0
aI0
aI0
aI1
aI0
aI0
aI0
aI0
aI0
asS'dickc001'
p2474
(lp2475
g2474
aS'Chris Dickerson'
p2476
aI17
aI14
aI5
aI4
aI0
aI0
aI2
aI5
aI3
aI0
aI3
aI5
aI10
asS'baxtm001'
p2477
(lp2478
g2477
aS'Mike Baxter'
p2479
aI211
aI179
aI26
aI47
aI14
aI2
aI3
aI17
aI5
aI3
aI25
aI45
aI74
asS'ruizc001'
p2480
(lp2481
g2480
aS'Carlos Ruiz'
p2482
aI421
aI372
aI56
aI121
aI32
aI0
aI16
aI68
aI4
aI0
aI29
aI50
aI201
asS'moort002'
p2483
(lp2484
g2483
aS'Tyler Moore'
p2485
aI171
aI156
aI20
aI41
aI9
aI0
aI10
aI29
aI3
aI0
aI14
aI46
aI80
asS'romia001'
p2486
(lp2487
g2486
aS'Andrew Romine'
p2488
aI21
aI17
aI2
aI7
aI0
aI0
aI0
aI1
aI1
aI0
aI3
aI3
aI7
asS'scotl001'
p2489
(lp2490
g2489
aS'Luke Scott'
p2491
aI344
aI314
aI35
aI72
aI22
aI1
aI14
aI55
aI5
aI0
aI21
aI80
aI138
asS'kaaik001'
p2492
(lp2493
g2492
aS"Kila Ka'aihue"
p2494
aI139
aI128
aI13
aI30
aI9
aI0
aI4
aI14
aI1
aI0
aI10
aI28
aI51
asS'ramie005'
p2495
(lp2496
g2495
aS'Elvin Ramirez'
p2497
aI1
aI1
aI0
aI0
aI0
aI0
aI0
aI0
aI0
aI0
aI0
aI1
aI0
asS'greea002'
p2498
(lp2499
g2498
aS'Adam Greenberg'
p2500
aI1
aI1
aI0
aI0
aI0
aI0
aI0
aI0
aI0
aI0
aI0
aI1
aI0
asS'matub001'
p2501
(lp2502
g2501
aS'Brian Matusz'
p2503
aI4
aI4
aI0
aI1
aI0
aI0
aI0
aI0
aI0
aI0
aI0
aI2
aI1
asS'mazzv001'
p2504
(lp2505
g2504
aS'Vin Mazzaro'
p2506
aI5
aI4
aI0
aI2
aI0
aI0
aI0
aI1
aI0
aI0
aI0
aI2
aI2
asS'corpc001'
p2507
(lp2508
g2507
aS'Carlos Corporan'
p2509
aI85
aI78
aI5
aI21
aI2
aI0
aI4
aI13
aI0
aI1
aI4
aI19
aI35
asS'estrm001'
p2510
(lp2511
g2510
aS'Marco Estrada'
p2512
aI45
aI40
aI1
aI4
aI2
aI0
aI0
aI3
aI0
aI0
aI2
aI21
aI6
asS'collj001'
p2513
(lp2514
g2513
aS'Josh Collmenter'
p2515
aI23
aI16
aI1
aI1
aI0
aI0
aI0
aI2
aI0
aI0
aI1
aI5
aI1
asS'dankj002'
p2516
(lp2517
g2516
aS'Jordan Danks'
p2518
aI75
aI67
aI12
aI15
aI1
aI0
aI1
aI4
aI3
aI1
aI6
aI16
aI19
asS'dankj001'
p2519
(lp2520
g2519
aS'John Danks'
p2521
aI3
aI3
aI0
aI0
aI0
aI0
aI0
aI0
aI0
aI0
aI0
aI0
aI0
asS'gentc001'
p2522
(lp2523
g2522
aS'Craig Gentry'
p2524
aI269
aI240
aI31
aI73
aI12
aI3
aI1
aI26
aI13
aI7
aI14
aI41
aI94
asS'cecib001'
p2525
(lp2526
g2525
aS'Brett Cecil'
p2527
aI2
aI2
aI0
aI0
aI0
aI0
aI0
aI0
aI0
aI0
aI0
aI2
aI0
asS'tholj001'
p2528
(lp2529
g2528
aS'Josh Thole'
p2530
aI354
aI321
aI24
aI75
aI15
aI0
aI1
aI21
aI0
aI0
aI27
aI50
aI93
asS'molij001'
p2531
(lp2532
g2531
aS'Jose Molina'
p2533
aI274
aI251
aI27
aI56
aI9
aI0
aI8
aI32
aI3
aI1
aI20
aI60
aI89
asS'mccom001'
p2534
(lp2535
g2534
aS'Mike McCoy'
p2536
aI56
aI52
aI10
aI9
aI1
aI0
aI1
aI7
aI2
aI1
aI4
aI6
aI13
asS'solad001'
p2537
(lp2538
g2537
aS'Donovan Solano'
p2539
aI316
aI285
aI29
aI84
aI11
aI3
aI2
aI28
aI7
aI0
aI21
aI58
aI107
asS'bakej001'
p2540
(lp2541
g2540
aS'Jeff Baker'
p2542
aI201
aI188
aI18
aI45
aI12
aI1
aI4
aI25
aI4
aI1
aI11
aI48
aI71
asS'marts002'
p2543
(lp2544
g2543
aS'Starling Marte'
p2545
aI182
aI167
aI18
aI43
aI3
aI6
aI5
aI17
aI12
aI5
aI8
aI50
aI73
asS'hecha001'
p2546
(lp2547
g2546
aS'Adeiny Hechavarria'
p2548
aI137
aI126
aI10
aI32
aI8
aI0
aI2
aI15
aI0
aI0
aI4
aI32
aI46
asS'bakej002'
p2549
(lp2550
g2549
aS'John Baker'
p2551
aI214
aI193
aI17
aI46
aI8
aI0
aI0
aI14
aI2
aI1
aI20
aI41
aI54
asS'velag002'
p2552
(lp2553
g2552
aS'Gil Velazquez'
p2554
aI57
aI56
aI2
aI13
aI1
aI0
aI0
aI2
aI0
aI0
aI1
aI11
aI14
asS'doumr001'
p2555
(lp2556
g2555
aS'Ryan Doumit'
p2557
aI528
aI484
aI56
aI133
aI34
aI1
aI18
aI75
aI0
aI0
aI29
aI98
aI223
asS'snydc002'
p2558
(lp2559
g2558
aS'Chris Snyder'
p2560
aI258
aI221
aI23
aI39
aI8
aI0
aI7
aI24
aI0
aI0
aI33
aI70
aI68
asS'nisht001'
p2561
(lp2562
g2561
aS'Tsuyoshi Nishioka'
p2563
aI14
aI12
aI0
aI0
aI0
aI0
aI0
aI1
aI0
aI0
aI1
aI1
aI0
asS'harpb003'
p2564
(lp2565
g2564
aS'Bryce Harper'
p2566
aI597
aI533
aI98
aI144
aI26
aI9
aI22
aI59
aI18
aI6
aI56
aI120
aI254
asS'lawrb002'
p2567
(lp2568
g2567
aS'Brett Lawrie'
p2569
aI536
aI494
aI73
aI135
aI26
aI3
aI11
aI48
aI13
aI8
aI33
aI86
aI200
asS'hughl001'
p2570
(lp2571
g2570
aS'Luke Hughes'
p2572
aI24
aI23
aI0
aI3
aI0
aI0
aI0
aI2
aI1
aI0
aI0
aI10
aI3
asS'betay001'
p2573
(lp2574
g2573
aS'Yuniesky Betancourt'
p2575
aI228
aI215
aI21
aI49
aI14
aI1
aI7
aI36
aI0
aI1
aI9
aI25
aI86
asS'ramih003'
p2576
(lp2577
g2576
aS'Hanley Ramirez'
p2578
aI667
aI604
aI79
aI155
aI29
aI4
aI24
aI92
aI21
aI7
aI54
aI132
aI264
asS'reynm001'
p2579
(lp2580
g2579
aS'Mark Reynolds'
p2581
aI538
aI457
aI65
aI101
aI26
aI0
aI23
aI69
aI1
aI3
aI73
aI159
aI196
asS'wrigd002'
p2582
(lp2583
g2582
aS'David Wright'
p2584
aI670
aI581
aI91
aI178
aI41
aI2
aI21
aI93
aI15
aI10
aI81
aI112
aI286
asS'kendk001'
p2585
(lp2586
g2585
aS'Kyle Kendrick'
p2587
aI45
aI36
aI2
aI5
aI2
aI0
aI0
aI0
aI0
aI0
aI3
aI19
aI7
asS'reynm002'
p2588
(lp2589
g2588
aS'Matt Reynolds'
p2590
aI4
aI3
aI0
aI0
aI0
aI0
aI0
aI0
aI0
aI0
aI0
aI2
aI0
asS'lynnl001'
p2591
(lp2592
g2591
aS'Lance Lynn'
p2593
aI63
aI50
aI4
aI3
aI0
aI0
aI0
aI1
aI0
aI0
aI2
aI36
aI3
asS'alleb001'
p2594
(lp2595
g2594
aS'Brandon Allen'
p2596
aI22
aI20
aI3
aI2
aI0
aI0
aI1
aI3
aI0
aI0
aI2
aI9
aI5
asS'nix-l001'
p2597
(lp2598
g2597
aS'Laynce Nix'
p2599
aI127
aI114
aI13
aI28
aI10
aI0
aI3
aI16
aI0
aI0
aI12
aI42
aI47
asS'quinh001'
p2600
(lp2601
g2600
aS'Humberto Quintero'
p2602
aI144
aI138
aI7
aI32
aI12
aI0
aI1
aI19
aI0
aI1
aI4
aI28
aI47
asS'moscg001'
p2603
(lp2604
g2603
aS'Guillermo Moscoso'
p2605
aI12
aI11
aI0
aI2
aI1
aI0
aI0
aI1
aI0
aI0
aI0
aI5
aI3
asS'browa003'
p2606
(lp2607
g2606
aS'Andrew Brown'
p2608
aI126
aI112
aI14
aI26
aI7
aI0
aI5
aI11
aI2
aI2
aI12
aI34
aI48
asS'nicaj001'
p2609
(lp2610
g2609
aS'Juan Nicasio'
p2611
aI21
aI18
aI0
aI2
aI0
aI0
aI0
aI1
aI0
aI0
aI2
aI13
aI2
asS'iztum001'
p2612
(lp2613
g2612
aS'Maicer Izturis'
p2614
aI319
aI289
aI35
aI74
aI11
aI0
aI2
aI20
aI17
aI2
aI25
aI38
aI91
asS'kenna001'
p2615
(lp2616
g2615
aS'Adam Kennedy'
p2617
aI201
aI168
aI22
aI44
aI8
aI1
aI2
aI16
aI1
aI1
aI23
aI33
aI60
asS'peteb001'
p2618
(lp2619
g2618
aS'Bryan Petersen'
p2620
aI273
aI241
aI29
aI47
aI9
aI3
aI0
aI17
aI8
aI2
aI25
aI58
aI62
asS'tabaj002'
p2621
(lp2622
g2621
aS'Jose Tabata'
p2623
aI374
aI333
aI43
aI81
aI20
aI3
aI3
aI16
aI8
aI12
aI29
aI58
aI116
asS'leakm001'
p2624
(lp2625
g2624
aS'Mike Leake'
p2626
aI69
aI61
aI8
aI18
aI3
aI0
aI2
aI3
aI0
aI0
aI1
aI20
aI27
asS'bourj001'
p2627
(lp2628
g2627
aS'Jason Bourgeois'
p2629
aI66
aI62
aI10
aI16
aI2
aI1
aI0
aI5
aI5
aI4
aI4
aI4
aI20
asS'avila001'
p2630
(lp2631
g2630
aS'Alex Avila'
p2632
aI434
aI367
aI42
aI89
aI21
aI2
aI9
aI48
aI2
aI0
aI61
aI104
aI141
asS'suppj001'
p2633
(lp2634
g2633
aS'Jeff Suppan'
p2635
aI14
aI10
aI0
aI1
aI0
aI0
aI0
aI0
aI0
aI0
aI1
aI1
aI1
asS'kuroh001'
p2636
(lp2637
g2636
aS'Hiroki Kuroda'
p2638
aI2
aI2
aI0
aI0
aI0
aI0
aI0
aI0
aI0
aI0
aI0
aI1
aI0
asS'galaa002'
p2639
(lp2640
g2639
aS'Armando Galarraga'
p2641
aI8
aI8
aI0
aI0
aI0
aI0
aI0
aI0
aI0
aI0
aI0
aI3
aI0
asS'frank001'
p2642
(lp2643
g2642
aS'Kevin Frandsen'
p2644
aI210
aI195
aI24
aI66
aI10
aI3
aI2
aI14
aI0
aI1
aI9
aI18
aI88
asS'uribj002'
p2645
(lp2646
g2645
aS'Juan Uribe'
p2647
aI179
aI162
aI15
aI31
aI9
aI0
aI2
aI17
aI0
aI1
aI13
aI37
aI46
asS'casha001'
p2648
(lp2649
g2648
aS'Andrew Cashner'
p2650
aI8
aI7
aI0
aI1
aI0
aI0
aI0
aI0
aI0
aI0
aI1
aI2
aI1
asS'shopk001'
p2651
(lp2652
g2651
aS'Kelly Shoppach'
p2653
aI245
aI219
aI23
aI51
aI14
aI2
aI8
aI27
aI1
aI0
aI16
aI89
aI93
asS'beckj002'
p2654
(lp2655
g2654
aS'Josh Beckett'
p2656
aI22
aI21
aI0
aI1
aI0
aI0
aI0
aI0
aI0
aI0
aI0
aI12
aI1
asS'ransc001'
p2657
(lp2658
g2657
aS'Cody Ransom'
p2659
aI283
aI246
aI29
aI54
aI14
aI0
aI11
aI42
aI0
aI1
aI30
aI109
aI101
asS'mendl001'
p2660
(lp2661
g2660
aS'Luis Mendoza'
p2662
aI2
aI2
aI0
aI0
aI0
aI0
aI0
aI0
aI0
aI0
aI0
aI2
aI0
asS'taylm002'
p2663
(lp2664
g2663
aS'Michael Taylor'
p2665
aI21
aI21
aI2
aI3
aI1
aI0
aI0
aI0
aI0
aI0
aI0
aI10
aI4
asS'capuc001'
p2666
(lp2667
g2666
aS'Chris Capuano'
p2668
aI69
aI54
aI3
aI5
aI2
aI0
aI0
aI3
aI0
aI0
aI1
aI27
aI7
asS'stras001'
p2669
(lp2670
g2669
aS'Stephen Strasburg'
p2671
aI53
aI47
aI4
aI13
aI4
aI0
aI1
aI7
aI0
aI0
aI3
aI13
aI20
asS'lillb001'
p2672
(lp2673
g2672
aS'Brent Lillibridge'
p2674
aI209
aI190
aI25
aI37
aI6
aI0
aI3
aI10
aI13
aI2
aI11
aI71
aI52
asS'koeht001'
p2675
(lp2676
g2675
aS'Tom Koehler'
p2677
aI1
aI1
aI0
aI0
aI0
aI0
aI0
aI0
aI0
aI0
aI0
aI1
aI0
asS'rollj001'
p2678
(lp2679
g2678
aS'Jimmy Rollins'
p2680
aI699
aI632
aI102
aI158
aI33
aI5
aI23
aI68
aI30
aI5
aI62
aI96
aI270
asS'simma001'
p2681
(lp2682
g2681
aS'Andrelton Simmons'
p2683
aI182
aI166
aI17
aI48
aI8
aI2
aI3
aI19
aI1
aI0
aI12
aI21
aI69
asS'cervf001'
p2684
(lp2685
g2684
aS'Francisco Cervelli'
p2686
aI2
aI1
aI1
aI0
aI0
aI0
aI0
aI0
aI0
aI0
aI1
aI0
aI0
asS'castj006'
p2687
(lp2688
g2687
aS'Jason Castro'
p2689
aI295
aI257
aI29
aI66
aI15
aI2
aI6
aI29
aI0
aI0
aI31
aI61
aI103
asS'mills001'
p2690
(lp2691
g2690
aS'Shelby Miller'
p2692
aI3
aI3
aI0
aI2
aI1
aI0
aI0
aI0
aI0
aI0
aI0
aI0
aI3
asS'jonec004'
p2693
(lp2694
g2693
aS'Chipper Jones'
p2695
aI448
aI387
aI58
aI111
aI23
aI0
aI14
aI62
aI1
aI0
aI57
aI51
aI176
asS'dirka001'
p2696
(lp2697
g2696
aS'Andy Dirks'
p2698
aI344
aI314
aI56
aI101
aI18
aI5
aI8
aI35
aI1
aI1
aI23
aI53
aI153
asS'holtb002'
p2699
(lp2700
g2699
aS'Brock Holt'
p2701
aI72
aI65
aI6
aI19
aI2
aI1
aI0
aI3
aI0
aI0
aI4
aI14
aI23
asS'greiz001'
p2702
(lp2703
g2702
aS'Zack Greinke'
p2704
aI38
aI33
aI3
aI7
aI3
aI0
aI1
aI2
aI0
aI0
aI0
aI8
aI13
asS'florp001'
p2705
(lp2706
g2705
aS'Pedro Florimon'
p2707
aI150
aI137
aI16
aI30
aI5
aI2
aI1
aI10
aI3
aI1
aI10
aI30
aI42
asS'perej001'
p2708
(lp2709
g2708
aS'Juan Perez'
p2710
aI1
aI1
aI0
aI0
aI0
aI0
aI0
aI0
aI0
aI0
aI0
aI1
aI0
asS'franb001'
p2711
(lp2712
g2711
aS'Ben Francisco'
p2713
aI207
aI192
aI14
aI46
aI14
aI1
aI4
aI15
aI0
aI1
aI13
aI49
aI74
asS'carpm002'
p2714
(lp2715
g2714
aS'Matt Carpenter'
p2716
aI340
aI296
aI44
aI87
aI22
aI5
aI6
aI46
aI1
aI1
aI34
aI63
aI137
asS'cowgc001'
p2717
(lp2718
g2717
aS'Collin Cowgill'
p2719
aI116
aI104
aI10
aI28
aI2
aI0
aI1
aI9
aI3
aI4
aI11
aI27
aI33
asS'stinj001'
p2720
(lp2721
g2720
aS'Josh Stinson'
p2722
aI1
aI1
aI0
aI0
aI0
aI0
aI0
aI0
aI0
aI0
aI0
aI1
aI0
asS'rogem001'
p2723
(lp2724
g2723
aS'Mark Rogers'
p2725
aI16
aI14
aI1
aI3
aI2
aI0
aI0
aI0
aI0
aI0
aI0
aI5
aI5
asS'browc003'
p2726
(lp2727
g2726
aS'Corey Brown'
p2728
aI27
aI25
aI4
aI5
aI2
aI0
aI1
aI3
aI0
aI0
aI1
aI9
aI10
asS'spean001'
p2729
(lp2730
g2729
aS'Nate Spears'
p2731
aI4
aI4
aI0
aI0
aI0
aI0
aI0
aI0
aI0
aI0
aI0
aI3
aI0
asS'gimec001'
p2732
(lp2733
g2732
aS'Chris Gimenez'
p2734
aI109
aI100
aI10
aI26
aI4
aI0
aI1
aI9
aI0
aI0
aI8
aI24
aI33
asS'leblw001'
p2735
(lp2736
g2735
aS'Wade LeBlanc'
p2737
aI16
aI12
aI0
aI1
aI1
aI0
aI0
aI0
aI0
aI0
aI0
aI1
aI2
asS'peraj001'
p2738
(lp2739
g2738
aS'Jhonny Peralta'
p2740
aI585
aI531
aI58
aI127
aI32
aI3
aI13
aI63
aI1
aI2
aI49
aI105
aI204
asS'maiem001'
p2741
(lp2742
g2741
aS'Mitch Maier'
p2743
aI74
aI64
aI8
aI11
aI1
aI1
aI2
aI7
aI2
aI0
aI8
aI24
aI20
asS'wiggt001'
p2744
(lp2745
g2744
aS'Ty Wigginton'
p2746
aI360
aI315
aI40
aI74
aI11
aI0
aI11
aI43
aI1
aI0
aI37
aI81
aI118
asS'spand001'
p2747
(lp2748
g2747
aS'Denard Span'
p2749
aI568
aI516
aI71
aI146
aI38
aI4
aI4
aI41
aI17
aI6
aI47
aI62
aI204
asS'tolls001'
p2750
(lp2751
g2750
aS'Steven Tolleson'
p2752
aI76
aI71
aI4
aI13
aI3
aI0
aI2
aI6
aI1
aI0
aI4
aI17
aI22
asS'sante001'
p2753
(lp2754
g2753
aS'Ervin Santana'
p2755
aI5
aI4
aI0
aI0
aI0
aI0
aI0
aI0
aI0
aI0
aI0
aI4
aI0
asS'bergb002'
p2756
(lp2757
g2756
aS'Brad Bergesen'
p2758
aI2
aI1
aI0
aI0
aI0
aI0
aI0
aI0
aI0
aI0
aI0
aI0
aI0
asS'dejed001'
p2759
(lp2760
g2759
aS'David DeJesus'
p2761
aI582
aI506
aI76
aI133
aI28
aI8
aI9
aI50
aI7
aI8
aI61
aI89
aI204
asS'hernf002'
p2762
(lp2763
g2762
aS'Felix Hernandez'
p2764
aI3
aI3
aI0
aI1
aI1
aI0
aI0
aI2
aI0
aI0
aI0
aI1
aI2
asS'crisc001'
p2765
(lp2766
g2765
aS'Coco Crisp'
p2767
aI508
aI455
aI68
aI118
aI25
aI7
aI11
aI46
aI39
aI4
aI45
aI64
aI190
asS'woodk002'
p2768
(lp2769
g2768
aS'Kerry Wood'
p2770
aI1
aI1
aI0
aI0
aI0
aI0
aI0
aI0
aI0
aI0
aI0
aI1
aI0
asS'costm001'
p2771
(lp2772
g2771
aS'Mike Costanzo'
p2773
aI21
aI18
aI0
aI1
aI0
aI0
aI0
aI2
aI0
aI0
aI1
aI10
aI1
asS'pujoa001'
p2774
(lp2775
g2774
aS'Albert Pujols'
p2776
aI670
aI607
aI85
aI173
aI50
aI0
aI30
aI105
aI8
aI1
aI52
aI76
aI313
asS'desmi001'
p2777
(lp2778
g2777
aS'Ian Desmond'
p2779
aI547
aI513
aI72
aI150
aI33
aI2
aI25
aI73
aI21
aI6
aI30
aI113
aI262
asS'profj001'
p2780
(lp2781
g2780
aS'Jurickson Profar'
p2782
aI17
aI17
aI2
aI3
aI2
aI0
aI1
aI2
aI0
aI0
aI0
aI4
aI8
asS'pedrd001'
p2783
(lp2784
g2783
aS'Dustin Pedroia'
p2785
aI623
aI563
aI81
aI163
aI39
aI3
aI15
aI65
aI20
aI6
aI48
aI60
aI253
asS'lin-c001'
p2786
(lp2787
g2786
aS'Che-Hsuan Lin'
p2788
aI12
aI12
aI1
aI3
aI0
aI0
aI0
aI0
aI0
aI0
aI0
aI5
aI3
asS'smoaj001'
p2789
(lp2790
g2789
aS'Justin Smoak'
p2791
aI535
aI483
aI49
aI105
aI14
aI0
aI19
aI51
aI1
aI0
aI49
aI111
aI176
asS'clevs001'
p2792
(lp2793
g2792
aS'Steve Clevenger'
p2794
aI215
aI199
aI16
aI40
aI12
aI0
aI1
aI16
aI0
aI1
aI16
aI39
aI55
asS'alvah001'
p2795
(lp2796
g2795
aS'Henderson Alvarez'
p2797
aI1
aI1
aI0
aI0
aI0
aI0
aI0
aI0
aI0
aI0
aI0
aI1
aI0
asS'keara001'
p2798
(lp2799
g2798
aS'Austin Kearns'
p2800
aI175
aI147
aI21
aI36
aI6
aI0
aI4
aI16
aI2
aI1
aI22
aI44
aI54
asS'ramie004'
p2801
(lp2802
g2801
aS'Erasmo Ramirez'
p2803
aI3
aI3
aI0
aI0
aI0
aI0
aI0
aI0
aI0
aI0
aI0
aI1
aI0
asS'lidda001'
p2804
(lp2805
g2804
aS'Alex Liddi'
p2806
aI126
aI116
aI8
aI26
aI4
aI1
aI3
aI10
aI2
aI1
aI9
aI49
aI41
asS'bernr001'
p2807
(lp2808
g2807
aS'Roger Bernadina'
p2809
aI261
aI227
aI25
aI66
aI11
aI0
aI5
aI25
aI15
aI3
aI28
aI53
aI92
asS'owinm001'
p2810
(lp2811
g2810
aS'Micah Owings'
p2812
aI2
aI2
aI0
aI0
aI0
aI0
aI0
aI0
aI0
aI0
aI0
aI2
aI0
asS'vittj001'
p2813
(lp2814
g2813
aS'Josh Vitters'
p2815
aI109
aI99
aI7
aI12
aI2
aI0
aI2
aI5
aI2
aI0
aI7
aI33
aI20
asS'webbr001'
p2816
(lp2817
g2816
aS'Ryan Webb'
p2818
aI1
aI1
aI0
aI0
aI0
aI0
aI0
aI0
aI0
aI0
aI0
aI1
aI0
asS'karsj001'
p2819
(lp2820
g2819
aS'Jeff Karstens'
p2821
aI29
aI28
aI3
aI3
aI0
aI0
aI0
aI2
aI0
aI0
aI0
aI15
aI3
asS'colob001'
p2822
(lp2823
g2822
aS'Bartolo Colon'
p2824
aI4
aI4
aI0
aI0
aI0
aI0
aI0
aI0
aI0
aI0
aI0
aI3
aI0
asS'hutcd001'
p2825
(lp2826
g2825
aS'Drew Hutchison'
p2827
aI2
aI2
aI0
aI0
aI0
aI0
aI0
aI0
aI0
aI0
aI0
aI0
aI0
asS'blanj001'
p2828
(lp2829
g2828
aS'Joe Blanton'
p2830
aI66
aI55
aI0
aI4
aI0
aI0
aI0
aI1
aI0
aI0
aI3
aI26
aI4
asS'mahop002'
p2831
(lp2832
g2831
aS'Paul Maholm'
p2833
aI68
aI63
aI2
aI4
aI0
aI0
aI1
aI3
aI0
aI0
aI2
aI38
aI7
asS'wolfr001'
p2834
(lp2835
g2834
aS'Randy Wolf'
p2836
aI46
aI40
aI3
aI6
aI0
aI0
aI0
aI4
aI0
aI1
aI0
aI11
aI6
asS'chacj001'
p2837
(lp2838
g2837
aS'Jhoulys Chacin'
p2839
aI26
aI24
aI4
aI7
aI2
aI0
aI0
aI3
aI0
aI0
aI1
aI3
aI9
asS'minom001'
p2840
(lp2841
g2840
aS'Mike Minor'
p2842
aI61
aI55
aI5
aI4
aI1
aI0
aI0
aI0
aI0
aI0
aI2
aI26
aI5
asa(dp2843
g2
(lp2844
g2
ag4
aS'  1.0'
p2845
aI2
aI3
aI3
aI1
aI2
aI0
aI0
asg2399
(lp2846
g2399
ag2401
aS'191.2'
p2847
aI215
aI114
aI108
aI33
aI47
aI3
aI140
asS'boggm001'
p2848
(lp2849
g2848
aS'Mitchell Boggs'
p2850
aS' 73.1'
p2851
aI56
aI20
aI18
aI5
aI21
aI3
aI58
asg11
(lp2852
g11
ag13
aS' 53.0'
p2853
aI49
aI31
aI31
aI2
aI26
aI1
aI42
asS'ramoa001'
p2854
(lp2855
g2854
aS'A.J. Ramos'
p2856
aS'  9.1'
p2857
aI8
aI4
aI4
aI2
aI4
aI0
aI13
asS'perel001'
p2858
(lp2859
g2858
aS'Luis Perez'
p2860
aS' 42.0'
p2861
aI38
aI16
aI16
aI3
aI16
aI0
aI39
asS'basta001'
p2862
(lp2863
g2862
aS'Antonio Bastardo'
p2864
aS' 52.0'
p2865
aI40
aI26
aI25
aI7
aI26
aI3
aI81
asg41
(lp2866
g41
ag43
aS'202.0'
p2867
aI209
aI86
aI84
aI26
aI35
aI1
aI129
asg50
(lp2868
g50
ag52
aS'107.0'
p2869
aI112
aI50
aI42
aI10
aI36
aI2
aI75
asS'kimbc001'
p2870
(lp2871
g2870
aS'Craig Kimbrel'
p2872
aS' 62.2'
p2873
aI27
aI7
aI7
aI3
aI14
aI0
aI116
asS'teafe001'
p2874
(lp2875
g2874
aS'Everett Teaford'
p2876
aS' 61.1'
p2877
aI68
aI34
aI34
aI11
aI21
aI0
aI35
asg62
(lp2878
g62
ag64
aS'219.1'
p2879
aI177
aI73
aI68
aI21
aI51
aI1
aI193
asg65
(lp2880
g65
ag67
aS' 67.2'
p2881
aI72
aI35
aI28
aI2
aI30
aI7
aI54
asg68
(lp2882
g68
ag70
aS'137.2'
p2883
aI139
aI73
aI70
aI17
aI35
aI1
aI98
asS'tayla002'
p2884
(lp2885
g2884
aS'Andrew Taylor'
p2886
aS'  2.1'
p2887
aI3
aI3
aI3
aI0
aI4
aI0
aI0
asg71
(lp2888
g71
ag73
aS'190.1'
p2889
aI174
aI77
aI72
aI22
aI49
aI2
aI155
asg83
(lp2890
g83
ag85
aS' 48.1'
p2891
aI72
aI40
aI37
aI8
aI18
aI0
aI19
asS'perkg001'
p2892
(lp2893
g2892
aS'Glen Perkins'
p2894
aS' 70.1'
p2895
aI57
aI25
aI20
aI8
aI16
aI3
aI78
asg467
(lp2896
g467
ag469
aS' 88.1'
p2897
aI70
aI27
aI23
aI7
aI36
aI4
aI87
asS'dolir001'
p2898
(lp2899
g2898
aS'Rafael Dolis'
p2900
aS' 38.0'
p2901
aI40
aI29
aI27
aI5
aI23
aI1
aI24
asg101
(lp2902
g101
ag103
aS'195.2'
p2903
aI200
aI95
aI84
aI20
aI48
aI3
aI167
asS'scrie001'
p2904
(lp2905
g2904
aS'Evan Scribner'
p2906
aS' 35.1'
p2907
aI30
aI11
aI10
aI2
aI12
aI0
aI30
asg104
(lp2908
g104
ag106
aS' 57.1'
p2909
aI46
aI22
aI20
aI3
aI23
aI2
aI61
asg107
(lp2910
g107
ag109
aS'204.0'
p2911
aI185
aI86
aI83
aI26
aI81
aI3
aI204
asS'guerm001'
p2912
(lp2913
g2912
aS'Matt Guerrier'
p2914
aS' 14.0'
p2915
aI8
aI6
aI6
aI3
aI7
aI1
aI9
asg128
(lp2916
g128
ag130
aS'  6.0'
p2917
aI2
aI2
aI2
aI2
aI2
aI0
aI6
asS'crosc001'
p2918
(lp2919
g2918
aS'Casey Crosby'
p2920
aS' 12.1'
p2921
aI15
aI13
aI13
aI2
aI11
aI0
aI9
asS'wilsj004'
p2922
(lp2923
g2922
aS'Justin Wilson'
p2924
aS'  4.2'
p2925
aI10
aI1
aI1
aI0
aI3
aI0
aI7
asS'oswar001'
p2926
(lp2927
g2926
aS'Roy Oswalt'
p2928
aS' 59.0'
p2929
aI79
aI41
aI38
aI11
aI11
aI0
aI59
asS'putnz001'
p2930
(lp2931
g2930
aS'Zach Putnam'
p2932
aS'  2.0'
p2933
aI3
aI0
aI0
aI0
aI1
aI0
aI0
asS'rapac001'
p2934
(lp2935
g2934
aS'Clay Rapada'
p2936
aS' 38.1'
p2937
aI29
aI14
aI12
aI2
aI17
aI1
aI38
asS'valdr002'
p2938
(lp2939
g2938
aS'Raul Valdes'
p2940
aS' 31.0'
p2941
aI18
aI10
aI10
aI3
aI5
aI1
aI35
asg149
(lp2942
g149
ag151
aS'168.1'
p2943
aI165
aI90
aI87
aI23
aI66
aI2
aI165
asS'meeke001'
p2944
(lp2945
g2944
aS'Evan Meek'
p2946
aS' 12.0'
p2947
aI14
aI9
aI9
aI1
aI6
aI0
aI8
asS'crawe001'
p2948
(lp2949
g2948
aS'Evan Crawford'
p2950
aS'  8.0'
p2951
aI10
aI6
aI6
aI3
aI4
aI1
aI5
asg155
(lp2952
g155
ag157
aS'105.0'
p2953
aI99
aI48
aI40
aI16
aI14
aI0
aI93
asS'lopew001'
p2954
(lp2955
g2954
aS'Wilton Lopez'
p2956
aS' 66.1'
p2957
aI61
aI18
aI16
aI4
aI8
aI2
aI54
asg950
(lp2958
g950
ag952
aS'176.2'
p2959
aI190
aI116
aI106
aI25
aI95
aI3
aI143
asS'huffd001'
p2960
(lp2961
g2960
aS'David Huff'
p2962
aS' 26.2'
p2963
aI30
aI14
aI10
aI5
aI5
aI0
aI19
asS'johnj010'
p2964
(lp2965
g2964
aS'Jim Johnson'
p2966
aS' 68.2'
p2967
aI55
aI21
aI19
aI3
aI15
aI1
aI41
asS'adamm001'
p2968
(lp2969
g2968
aS'Mike Adams'
p2970
aS' 52.1'
p2971
aI56
aI21
aI19
aI4
aI17
aI1
aI45
asg167
(lp2972
g167
ag169
aS'205.2'
p2973
aI205
aI99
aI86
aI21
aI56
aI4
aI139
asS'romos001'
p2974
(lp2975
g2974
aS'Sergio Romo'
p2976
aS' 55.1'
p2977
aI37
aI11
aI11
aI5
aI10
aI1
aI63
asS'hills003'
p2978
(lp2979
g2978
aS'Shawn Hill'
p2980
aS'  3.0'
p2981
aI0
aI0
aI0
aI0
aI2
aI0
aI0
asS'pryos001'
p2982
(lp2983
g2982
aS'Stephen Pryor'
p2984
aS' 23.0'
p2985
aI22
aI13
aI10
aI5
aI13
aI2
aI27
asg188
(lp2986
g188
ag190
aS'  5.0'
p2987
aI5
aI5
aI5
aI1
aI2
aI0
aI4
asg191
(lp2988
g191
ag193
aS' 85.1'
p2989
aI106
aI61
aI53
aI17
aI26
aI3
aI50
asg194
(lp2990
g194
ag196
aS' 18.0'
p2991
aI26
aI11
aI11
aI1
aI10
aI1
aI18
asg197
(lp2992
g197
ag199
aS'119.1'
p2993
aI133
aI59
aI57
aI10
aI47
aI3
aI78
asg1166
(lp2994
g1166
ag1168
aS' 29.1'
p2995
aI19
aI20
aI19
aI4
aI22
aI0
aI31
asS'saitt001'
p2996
(lp2997
g2996
aS'Takashi Saito'
p2998
aS' 12.0'
p2999
aI17
aI14
aI9
aI4
aI5
aI1
aI11
asS'strad003'
p3000
(lp3001
g3000
aS'Dan Straily'
p3002
aS' 39.1'
p3003
aI36
aI19
aI17
aI11
aI16
aI1
aI32
asS'schet001'
p3004
(lp3005
g3004
aS'Tanner Scheppers'
p3006
aS' 32.1'
p3007
aI47
aI18
aI16
aI6
aI9
aI3
aI30
asS'smitj002'
p3008
(lp3009
g3008
aS'Joe Smith'
p3010
aS' 67.0'
p3011
aI53
aI27
aI22
aI4
aI25
aI4
aI53
asg1934
(lp3012
g1934
ag1936
aS'111.1'
p3013
aI137
aI81
aI78
aI16
aI43
aI4
aI61
asS'webet001'
p3014
(lp3015
g3014
aS'Thad Weber'
p3016
aS'  4.0'
p3017
aI10
aI4
aI4
aI0
aI2
aI0
aI1
asg215
(lp3018
g215
ag217
aS'211.0'
p3019
aI192
aI74
aI67
aI19
aI38
aI1
aI143
asg224
(lp3020
g224
ag226
aS'161.2'
p3021
aI156
aI73
aI62
aI15
aI37
aI1
aI137
asg236
(lp3022
g236
ag238
aS' 92.2'
p3023
aI89
aI48
aI45
aI8
aI42
aI4
aI76
asg239
(lp3024
g239
ag241
aS' 39.2'
p3025
aI32
aI13
aI13
aI5
aI17
aI1
aI32
asg242
(lp3026
g242
ag244
aS' 53.2'
p3027
aI75
aI40
aI34
aI11
aI18
aI2
aI36
asg245
(lp3028
g245
ag247
aS' 73.2'
p3029
aI81
aI35
aI32
aI6
aI24
aI6
aI46
asS'waltp001'
p3030
(lp3031
g3030
aS'P.J. Walters'
p3032
aS' 61.2'
p3033
aI71
aI41
aI39
aI12
aI22
aI1
aI42
asg2438
(lp3034
g2438
ag2440
aS'193.2'
p3035
aI185
aI90
aI81
aI13
aI78
aI5
aI140
asg1946
(lp3036
g1946
ag1948
aS'227.2'
p3037
aI208
aI103
aI89
aI25
aI58
aI2
aI223
asg257
(lp3038
g257
ag259
aS' 63.2'
p3039
aI54
aI26
aI19
aI3
aI29
aI6
aI68
asS'qualc001'
p3040
(lp3041
g3040
aS'Chad Qualls'
p3042
aS' 52.1'
p3043
aI63
aI34
aI31
aI7
aI14
aI4
aI27
asS'uehak001'
p3044
(lp3045
g3044
aS'Koji Uehara'
p3046
aS' 36.0'
p3047
aI20
aI7
aI7
aI4
aI3
aI0
aI43
asg266
(lp3048
g266
ag268
aS' 22.0'
p3049
aI22
aI15
aI15
aI7
aI14
aI0
aI16
asS'sants001'
p3050
(lp3051
g3050
aS'Sergio Santos'
p3052
aS'  5.0'
p3053
aI6
aI5
aI5
aI1
aI4
aI0
aI4
asg1640
(lp3054
g1640
ag1642
aS'188.2'
p3055
aI147
aI63
aI59
aI20
aI45
aI0
aI142
asS'maron001'
p3056
(lp3057
g3056
aS'Nick Maronde'
p3058
aS'  6.0'
p3059
aI6
aI1
aI1
aI0
aI3
aI0
aI7
asS'gonzm004'
p3060
(lp3061
g3060
aS'Miguel Gonzalez'
p3062
aS'105.1'
p3063
aI92
aI38
aI38
aI13
aI35
aI2
aI77
asS'igarr001'
p3064
(lp3065
g3064
aS'Ryota Igarashi'
p3066
aS'  4.0'
p3067
aI9
aI8
aI8
aI0
aI5
aI0
aI5
asg302
(lp3068
g302
ag304
aS'211.0'
p3069
aI207
aI79
aI74
aI26
aI28
aI0
aI207
asg317
(lp3070
g317
ag319
aS' 52.2'
p3071
aI58
aI30
aI27
aI6
aI33
aI1
aI36
asg2633
(lp3072
g2633
ag2635
aS' 30.2'
p3073
aI34
aI19
aI18
aI4
aI13
aI3
aI7
asS'ramir003'
p3074
(lp3075
g3074
aS'Ramon Ramirez'
p3076
aS' 63.2'
p3077
aI58
aI33
aI30
aI4
aI35
aI4
aI52
asg329
(lp3078
g329
ag331
aS' 21.1'
p3079
aI27
aI21
aI18
aI5
aI8
aI2
aI17
asg332
(lp3080
g332
ag334
aS'107.2'
p3081
aI98
aI53
aI49
aI10
aI32
aI1
aI71
asg347
(lp3082
g347
ag349
aS'  3.2'
p3083
aI6
aI7
aI7
aI1
aI6
aI1
aI3
asS'loper001'
p3084
(lp3085
g3084
aS'Rodrigo Lopez'
p3086
aS'  6.1'
p3087
aI8
aI6
aI4
aI0
aI5
aI0
aI2
asg350
(lp3088
g350
ag352
aS' 40.1'
p3089
aI45
aI26
aI25
aI5
aI14
aI1
aI35
asg1997
(lp3090
g1997
ag1999
aS' 85.1'
p3091
aI93
aI56
aI50
aI14
aI39
aI1
aI38
asg356
(lp3092
g356
ag358
aS' 63.1'
p3093
aI52
aI22
aI19
aI5
aI22
aI2
aI61
asS'fuenb001'
p3094
(lp3095
g3094
aS'Brian Fuentes'
p3096
aS' 30.0'
p3097
aI36
aI24
aI24
aI6
aI15
aI0
aI24
asS'herrf001'
p3098
(lp3099
g3098
aS'Frank Herrmann'
p3100
aS' 19.1'
p3101
aI12
aI5
aI5
aI1
aI4
aI0
aI14
asg368
(lp3102
g368
ag370
aS' 88.0'
p3103
aI80
aI37
aI36
aI14
aI24
aI2
aI88
asg374
(lp3104
g374
ag376
aS'173.0'
p3105
aI184
aI76
aI68
aI17
aI31
aI2
aI90
asS'mccud001'
p3106
(lp3107
g3106
aS'Daniel McCutchen'
p3108
aV  0.0
p3109
aI0
aI0
aI0
aI0
aI0
aI0
aI0
asS'kirkm001'
p3110
(lp3111
g3110
aS'Michael Kirkman'
p3112
aS' 35.1'
p3113
aI24
aI16
aI15
aI5
aI17
aI1
aI38
asg386
(lp3114
g386
ag388
aS' 96.2'
p3115
aI97
aI57
aI53
aI14
aI46
aI2
aI83
asS'craij001'
p3116
(lp3117
g3116
aS'Jesse Crain'
p3118
aS' 48.0'
p3119
aI29
aI14
aI13
aI5
aI23
aI1
aI60
asS'albaj001'
p3120
(lp3121
g3120
aS'Jonathan Albaladejo'
p3122
aS'  3.0'
p3123
aI5
aI3
aI3
aI1
aI0
aI0
aI2
asg401
(lp3124
g401
ag403
aS' 61.0'
p3125
aI65
aI22
aI18
aI2
aI22
aI1
aI52
asg1736
(lp3126
g1736
ag1738
aS' 28.2'
p3127
aI35
aI18
aI17
aI1
aI24
aI1
aI14
asS'downs001'
p3128
(lp3129
g3128
aS'Scott Downs'
p3130
aS' 45.2'
p3131
aI43
aI17
aI16
aI3
aI17
aI2
aI32
asS'veald001'
p3132
(lp3133
g3132
aS'Donnie Veal'
p3134
aS' 13.0'
p3135
aI5
aI2
aI2
aI0
aI4
aI0
aI19
asS'kells001'
p3136
(lp3137
g3136
aS'Shawn Kelley'
p3138
aS' 44.1'
p3139
aI43
aI20
aI16
aI5
aI15
aI6
aI45
asg2459
(lp3140
g2459
ag2461
aS' 14.2'
p3141
aI17
aI9
aI7
aI3
aI6
aI0
aI10
asg428
(lp3142
g428
ag430
aS'200.0'
p3143
aI184
aI93
aI84
aI16
aI74
aI0
aI156
asg431
(lp3144
g431
ag433
aS' 68.2'
p3145
aI65
aI24
aI19
aI4
aI20
aI2
aI61
asg437
(lp3146
g437
ag439
aS' 16.1'
p3147
aI14
aI13
aI11
aI2
aI13
aI0
aI17
asS'rosas001'
p3148
(lp3149
g3148
aS'Sandy Rosario'
p3150
aS'  3.0'
p3151
aI8
aI6
aI6
aI0
aI0
aI0
aI2
asS'perer002'
p3152
(lp3153
g3152
aS'Rafael Perez'
p3154
aS'  7.2'
p3155
aI5
aI3
aI3
aI1
aI4
aI1
aI4
asg446
(lp3156
g446
ag448
aS' 71.0'
p3157
aI77
aI46
aI37
aI7
aI34
aI1
aI47
asg1838
(lp3158
g1838
ag1840
aS' 25.1'
p3159
aI32
aI15
aI14
aI3
aI9
aI1
aI9
asg455
(lp3160
g455
ag457
aS' 65.0'
p3161
aI55
aI21
aI16
aI3
aI23
aI3
aI47
asg2624
(lp3162
g2624
ag2626
aS'179.0'
p3163
aI201
aI97
aI91
aI26
aI41
aI3
aI116
asS'gearc001'
p3164
(lp3165
g3164
aS'Cory Gearrin'
p3166
aS' 20.0'
p3167
aI17
aI4
aI4
aI1
aI5
aI0
aI20
asS'crowa001'
p3168
(lp3169
g3168
aS'Aaron Crow'
p3170
aS' 64.2'
p3171
aI54
aI27
aI25
aI4
aI22
aI2
aI65
asS'waldj001'
p3172
(lp3173
g3172
aS'Jordan Walden'
p3174
aS' 39.0'
p3175
aI35
aI15
aI15
aI3
aI18
aI1
aI48
asg1991
(lp3176
g1991
ag1993
aS' 22.1'
p3177
aI19
aI7
aI7
aI4
aI9
aI0
aI19
asg491
(lp3178
g491
ag493
aS'  1.0'
p3179
aI0
aI0
aI0
aI0
aI0
aI0
aI1
asg497
(lp3180
g497
ag499
aS'174.2'
p3181
aI191
aI85
aI77
aI12
aI52
aI0
aI106
asg2735
(lp3182
g2735
ag2737
aS' 68.2'
p3183
aI71
aI30
aI28
aI7
aI19
aI1
aI43
asS'coelr001'
p3184
(lp3185
g3184
aS'Robert Coello'
p3186
aS'  6.1'
p3187
aI10
aI9
aI9
aI2
aI4
aI0
aI11
asS'pestv001'
p3188
(lp3189
g3188
aS'Vinnie Pestano'
p3190
aS' 70.0'
p3191
aI53
aI20
aI20
aI7
aI24
aI1
aI76
asg521
(lp3192
g521
ag523
aS' 75.2'
p3193
aI65
aI30
aI24
aI7
aI22
aI4
aI50
asS'machj002'
p3194
(lp3195
g3194
aS'Jean Machi'
p3196
aS'  6.2'
p3197
aI7
aI5
aI5
aI2
aI1
aI0
aI4
asS'godfg001'
p3198
(lp3199
g3198
aS'Graham Godfrey'
p3200
aS' 21.0'
p3201
aI26
aI18
aI15
aI4
aI10
aI0
aI10
asS'chulv001'
p3202
(lp3203
g3202
aS'Vinnie Chulk'
p3204
aS'  9.0'
p3205
aI17
aI10
aI10
aI0
aI4
aI1
aI10
asS'martj004'
p3206
(lp3207
g3206
aS'Joe Martinez'
p3208
aS'  1.0'
p3209
aI2
aI1
aI1
aI0
aI0
aI0
aI1
asg539
(lp3210
g539
ag541
aS'198.2'
p3211
aI196
aI96
aI87
aI15
aI52
aI3
aI184
asg545
(lp3212
g545
ag547
aS' 31.0'
p3213
aI30
aI15
aI13
aI3
aI14
aI1
aI36
asg548
(lp3214
g548
ag550
aS' 50.1'
p3215
aI62
aI30
aI26
aI5
aI11
aI1
aI25
asg1241
(lp3216
g1241
ag1243
aS'125.2'
p3217
aI129
aI76
aI70
aI14
aI56
aI2
aI118
asS'macdm001'
p3218
(lp3219
g3218
aS'Mike MacDougal'
p3220
aS'  5.2'
p3221
aI9
aI5
aI5
aI0
aI6
aI0
aI4
asg563
(lp3222
g563
ag565
aS'  3.1'
p3223
aI7
aI4
aI4
aI1
aI5
aI0
aI2
asg263
(lp3224
g263
ag265
aS'  1.2'
p3225
aI1
aI0
aI0
aI0
aI1
aI0
aI0
asg1079
(lp3226
g1079
ag1081
aS'106.2'
p3227
aI107
aI71
aI69
aI21
aI39
aI1
aI68
asg575
(lp3228
g575
ag577
aS' 56.1'
p3229
aI50
aI18
aI16
aI3
aI21
aI3
aI57
asg578
(lp3230
g578
ag580
aS'206.1'
p3231
aI212
aI122
aI113
aI18
aI88
aI1
aI159
asg584
(lp3232
g584
ag586
aS' 25.0'
p3233
aI23
aI14
aI14
aI3
aI8
aI0
aI18
asg590
(lp3234
g590
ag592
aS' 52.1'
p3235
aI45
aI20
aI19
aI4
aI17
aI0
aI54
asg2801
(lp3236
g2801
ag2803
aS' 59.0'
p3237
aI47
aI26
aI22
aI6
aI12
aI1
aI48
asS'morrb002'
p3238
(lp3239
g3238
aS'Bryan Morris'
p3240
aS'  5.0'
p3241
aI2
aI2
aI1
aI0
aI2
aI0
aI6
asg599
(lp3242
g599
ag601
aS' 64.2'
p3243
aI82
aI60
aI58
aI11
aI53
aI2
aI45
asS'morrb001'
p3244
(lp3245
g3244
aS'Brandon Morrow'
p3246
aS'124.2'
p3247
aI98
aI45
aI41
aI12
aI41
aI0
aI108
asS'elbes001'
p3248
(lp3249
g3248
aS'Scott Elbert'
p3250
aS' 32.2'
p3251
aI27
aI8
aI8
aI3
aI13
aI1
aI29
asS'andeb004'
p3252
(lp3253
g3252
aS'Brett Anderson'
p3254
aS' 35.0'
p3255
aI29
aI11
aI10
aI1
aI7
aI1
aI25
asS'camps002'
p3256
(lp3257
g3256
aS'Shawn Camp'
p3258
aS' 77.2'
p3259
aI79
aI32
aI31
aI7
aI21
aI4
aI54
asg2018
(lp3260
g2018
ag2020
aS'215.1'
p3261
aI190
aI80
aI73
aI24
aI52
aI3
aI216
asg617
(lp3262
g617
ag619
aS' 19.1'
p3263
aI18
aI11
aI11
aI2
aI7
aI0
aI11
asg620
(lp3264
g620
ag622
aS'  7.2'
p3265
aI10
aI4
aI4
aI1
aI1
aI0
aI8
asS'santh001'
p3266
(lp3267
g3266
aS'Hector Santiago'
p3268
aS' 70.1'
p3269
aI54
aI26
aI26
aI10
aI40
aI1
aI79
asS'seddc001'
p3270
(lp3271
g3270
aS'Chris Seddon'
p3272
aS' 34.1'
p3273
aI35
aI15
aI14
aI2
aI13
aI1
aI18
asg629
(lp3274
g629
ag631
aS' 71.2'
p3275
aI57
aI19
aI19
aI7
aI21
aI3
aI72
asg110
(lp3276
g110
ag112
aS' 68.1'
p3277
aI48
aI21
aI19
aI4
aI22
aI1
aI98
asg635
(lp3278
g635
ag637
aS' 67.1'
p3279
aI84
aI48
aI48
aI15
aI16
aI4
aI48
asg605
(lp3280
g605
ag607
aS'132.1'
p3281
aI123
aI75
aI66
aI9
aI75
aI1
aI95
asS'villb002'
p3282
(lp3283
g3282
aS'Brayan Villarreal'
p3284
aS' 54.2'
p3285
aI38
aI20
aI16
aI3
aI28
aI3
aI66
asS'sherg001'
p3286
(lp3287
g3286
aS'George Sherrill'
p3288
aS'  1.1'
p3289
aI6
aI4
aI4
aI2
aI1
aI0
aI0
asS'mccab001'
p3290
(lp3291
g3290
aS'Brandon McCarthy'
p3292
aS'111.0'
p3293
aI115
aI44
aI40
aI10
aI24
aI2
aI73
asg896
(lp3294
g896
ag898
aS'194.2'
p3295
aI193
aI79
aI72
aI14
aI37
aI0
aI144
asS'brumt001'
p3296
(lp3297
g3296
aS'Tyson Brummett'
p3298
aS'  0.2'
p3299
aI2
aI0
aI0
aI0
aI0
aI0
aI2
asg668
(lp3300
g668
ag670
aS'171.0'
p3301
aI147
aI85
aI80
aI21
aI69
aI6
aI151
asS'cabra003'
p3302
(lp3303
g3302
aS'Alberto Cabrera'
p3304
aS' 21.2'
p3305
aI16
aI15
aI13
aI1
aI18
aI1
aI27
asg614
(lp3306
g614
ag616
aS'149.2'
p3307
aI148
aI66
aI59
aI11
aI45
aI2
aI128
asS'dillt001'
p3308
(lp3309
g3308
aS'Tim Dillard'
p3310
aS' 37.0'
p3311
aI45
aI21
aI18
aI3
aI14
aI2
aI29
asg1547
(lp3312
g1547
ag1549
aS' 66.0'
p3313
aI49
aI26
aI24
aI9
aI17
aI1
aI66
asS'isrij001'
p3314
(lp3315
g3314
aS'Jason Isringhausen'
p3316
aS' 45.2'
p3317
aI44
aI22
aI21
aI7
aI19
aI3
aI31
asg719
(lp3318
g719
ag721
aS'168.0'
p3319
aI166
aI84
aI80
aI22
aI63
aI2
aI144
asg728
(lp3320
g728
ag730
aS'102.0'
p3321
aI113
aI74
aI73
aI23
aI44
aI1
aI85
asS'aceva001'
p3322
(lp3323
g3322
aS'Alfredo Aceves'
p3324
aS' 84.0'
p3325
aI80
aI51
aI50
aI11
aI31
aI2
aI75
asS'ondrl001'
p3326
(lp3327
g3326
aS'Logan Ondrusek'
p3328
aS' 54.2'
p3329
aI51
aI23
aI21
aI8
aI31
aI4
aI39
asg734
(lp3330
g734
ag736
aS' 25.0'
p3331
aI18
aI17
aI17
aI4
aI14
aI0
aI24
asS'mujie001'
p3332
(lp3333
g3332
aS'Edward Mujica'
p3334
aS' 65.1'
p3335
aI56
aI24
aI22
aI7
aI12
aI3
aI47
asS'lyonb003'
p3336
(lp3337
g3336
aS'Brandon Lyon'
p3338
aS' 61.0'
p3339
aI56
aI21
aI21
aI5
aI20
aI3
aI63
asg746
(lp3340
g746
ag748
aS'  2.0'
p3341
aI2
aI0
aI0
aI0
aI1
aI0
aI2
asg749
(lp3342
g749
ag751
aS'114.2'
p3343
aI122
aI82
aI79
aI16
aI35
aI3
aI109
asS'rodrp001'
p3344
(lp3345
g3344
aS'Paco Rodriguez'
p3346
aS'  6.2'
p3347
aI3
aI1
aI1
aI0
aI4
aI1
aI6
asg2462
(lp3348
g2462
ag2464
aS'217.1'
p3349
aI201
aI94
aI93
aI35
aI55
aI1
aI141
asS'thatj001'
p3350
(lp3351
g3350
aS'Joe Thatcher'
p3352
aS' 31.2'
p3353
aI30
aI13
aI12
aI2
aI14
aI3
aI39
asS'tillc001'
p3354
(lp3355
g3354
aS'Chris Tillman'
p3356
aS' 86.0'
p3357
aI66
aI38
aI28
aI12
aI24
aI0
aI66
asS'cobba001'
p3358
(lp3359
g3358
aS'Alex Cobb'
p3360
aS'136.1'
p3361
aI130
aI67
aI61
aI11
aI40
aI2
aI106
asS'odorj001'
p3362
(lp3363
g3362
aS'Jake Odorizzi'
p3364
aS'  7.1'
p3365
aI8
aI4
aI4
aI1
aI4
aI0
aI4
asS'cookr001'
p3366
(lp3367
g3366
aS'Ryan Cook'
p3368
aS' 73.1'
p3369
aI42
aI18
aI17
aI4
aI27
aI4
aI80
asS'perdl001'
p3370
(lp3371
g3370
aS'Luis Perdomo'
p3372
aS' 17.0'
p3373
aI15
aI8
aI6
aI0
aI12
aI1
aI8
asg782
(lp3374
g782
ag784
aS'109.2'
p3375
aI108
aI56
aI50
aI12
aI29
aI0
aI97
asg1730
(lp3376
g1730
ag1732
aS'  6.1'
p3377
aI5
aI4
aI4
aI0
aI1
aI0
aI5
asS'bundd001'
p3378
(lp3379
g3378
aS'Dylan Bundy'
p3380
aS'  1.2'
p3381
aI1
aI0
aI0
aI0
aI1
aI0
aI0
asg791
(lp3382
g791
ag793
aS'  8.0'
p3383
aI12
aI6
aI6
aI0
aI3
aI0
aI3
asg797
(lp3384
g797
ag799
aS' 69.1'
p3385
aI67
aI28
aI25
aI5
aI23
aI7
aI55
asS'palmm001'
p3386
(lp3387
g3386
aS'Matt Palmer'
p3388
aS'  2.0'
p3389
aI2
aI2
aI2
aI1
aI2
aI0
aI2
asg2069
(lp3390
g2069
ag2071
aS' 25.0'
p3391
aI26
aI17
aI15
aI4
aI8
aI1
aI16
asS'neshp001'
p3392
(lp3393
g3392
aS'Pat Neshek'
p3394
aS' 19.2'
p3395
aI10
aI3
aI3
aI3
aI6
aI1
aI16
asS'baila001'
p3396
(lp3397
g3396
aS'Andrew Bailey'
p3398
aS' 15.1'
p3399
aI21
aI12
aI12
aI2
aI8
aI2
aI14
asg806
(lp3400
g806
ag808
aS' 76.1'
p3401
aI64
aI38
aI32
aI11
aI30
aI3
aI76
asg809
(lp3402
g809
ag811
aS' 68.1'
p3403
aI78
aI41
aI35
aI9
aI20
aI3
aI55
asS'shawb001'
p3404
(lp3405
g3404
aS'Bryan Shaw'
p3406
aS' 59.1'
p3407
aI60
aI29
aI23
aI4
aI24
aI3
aI41
asg812
(lp3408
g812
ag814
aS' 72.0'
p3409
aI93
aI52
aI50
aI11
aI33
aI4
aI59
asS'jeffj001'
p3410
(lp3411
g3410
aS'Jeremy Jeffress'
p3412
aS' 13.1'
p3413
aI19
aI14
aI10
aI0
aI13
aI0
aI13
asS'dools001'
p3414
(lp3415
g3414
aS'Sean Doolittle'
p3416
aS' 47.1'
p3417
aI40
aI18
aI16
aI3
aI11
aI1
aI60
asS'fienc001'
p3418
(lp3419
g3418
aS'Casey Fien'
p3420
aS' 35.0'
p3421
aI25
aI9
aI8
aI3
aI9
aI4
aI32
asS'millb001'
p3422
(lp3423
g3422
aS'Brad Mills'
p3424
aS'  5.0'
p3425
aI3
aI0
aI0
aI0
aI0
aI0
aI6
asg827
(lp3426
g827
ag829
aS'200.0'
p3427
aI184
aI89
aI75
aI22
aI44
aI2
aI197
asS'aardd001'
p3428
(lp3429
g3428
aS'David Aardsma'
p3430
aS'  1.0'
p3431
aI1
aI1
aI1
aI1
aI1
aI0
aI1
asg842
(lp3432
g842
ag844
aS' 73.1'
p3433
aI96
aI56
aI53
aI7
aI37
aI3
aI46
asg2285
(lp3434
g2285
ag2287
aS' 98.0'
p3435
aI114
aI66
aI60
aI13
aI51
aI9
aI64
asg851
(lp3436
g851
ag853
aS'191.1'
p3437
aI196
aI101
aI89
aI35
aI46
aI0
aI165
asS'streh001'
p3438
(lp3439
g3438
aS'Huston Street'
p3440
aS' 39.0'
p3441
aI17
aI8
aI8
aI2
aI11
aI1
aI47
asS'axeld001'
p3442
(lp3443
g3442
aS'Dylan Axelrod'
p3444
aS' 51.0'
p3445
aI56
aI32
aI31
aI8
aI21
aI0
aI40
asS'cokep001'
p3446
(lp3447
g3446
aS'Phil Coke'
p3448
aS' 54.0'
p3449
aI71
aI28
aI24
aI5
aI18
aI4
aI51
asg866
(lp3450
g866
ag868
aS'181.2'
p3451
aI206
aI109
aI96
aI30
aI50
aI2
aI101
asS'rodnf001'
p3452
(lp3453
g3452
aS'Fernando Rodney'
p3454
aS' 74.2'
p3455
aI43
aI9
aI5
aI2
aI15
aI1
aI76
asS'niemj001'
p3456
(lp3457
g3456
aS'Jeff Niemann'
p3458
aS' 38.0'
p3459
aI30
aI17
aI13
aI2
aI12
aI0
aI34
asg884
(lp3460
g884
ag886
aS' 24.1'
p3461
aI37
aI20
aI20
aI5
aI12
aI0
aI16
asS'contj002'
p3462
(lp3463
g3462
aS'Jose Contreras'
p3464
aS' 13.2'
p3465
aI13
aI10
aI8
aI1
aI3
aI0
aI15
asg890
(lp3466
g890
ag892
aS'171.0'
p3467
aI176
aI89
aI80
aI20
aI46
aI2
aI89
asS'odayd001'
p3468
(lp3469
g3468
aS"Darren O'Day"
p3470
aS' 67.0'
p3471
aI49
aI17
aI17
aI6
aI14
aI2
aI69
asS'rzepm001'
p3472
(lp3473
g3472
aS'Marc Rzepczynski'
p3474
aS' 46.2'
p3475
aI46
aI22
aI22
aI7
aI17
aI2
aI33
asg917
(lp3476
g917
ag919
aS'103.1'
p3477
aI126
aI74
aI73
aI18
aI25
aI3
aI56
asS'paulf001'
p3478
(lp3479
g3478
aS'Felipe Paulino'
p3480
aS' 37.2'
p3481
aI31
aI8
aI7
aI3
aI15
aI0
aI39
asg932
(lp3482
g932
ag934
aS' 69.2'
p3483
aI86
aI52
aI48
aI7
aI21
aI2
aI52
asS'marij001'
p3484
(lp3485
g3484
aS'Jhan Marinez'
p3486
aS'  2.2'
p3487
aI2
aI0
aI0
aI0
aI2
aI1
aI1
asg2096
(lp3488
g2096
ag2098
aS'219.0'
p3489
aI191
aI88
aI82
aI27
aI49
aI1
aI194
asg947
(lp3490
g947
ag949
aS' 70.1'
p3491
aI48
aI20
aI19
aI5
aI29
aI2
aI87
asg953
(lp3492
g953
ag955
aS' 26.1'
p3493
aI24
aI8
aI8
aI3
aI7
aI0
aI21
asS'jenkc001'
p3494
(lp3495
g3494
aS'Chad Jenkins'
p3496
aS' 32.0'
p3497
aI32
aI16
aI16
aI5
aI11
aI1
aI16
asg968
(lp3498
g968
ag970
aS' 27.2'
p3499
aI22
aI12
aI8
aI3
aI18
aI1
aI33
asg380
(lp3500
g380
ag382
aS'192.0'
p3501
aI167
aI66
aI65
aI19
aI51
aI5
aI192
asg977
(lp3502
g977
ag979
aS' 28.0'
p3503
aI42
aI22
aI19
aI4
aI9
aI2
aI10
asg32
(lp3504
g32
ag34
aS' 12.1'
p3505
aI10
aI8
aI8
aI0
aI9
aI0
aI10
asg164
(lp3506
g164
ag166
aS'117.0'
p3507
aI117
aI65
aI63
aI17
aI39
aI1
aI111
asg992
(lp3508
g992
ag994
aS'103.2'
p3509
aI90
aI48
aI45
aI15
aI32
aI0
aI96
asS'raucj001'
p3510
(lp3511
g3510
aS'Jon Rauch'
p3512
aS' 57.2'
p3513
aI45
aI28
aI23
aI7
aI12
aI2
aI42
asg995
(lp3514
g995
ag997
aS'174.2'
p3515
aI183
aI95
aI87
aI27
aI71
aI5
aI161
asg1004
(lp3516
g1004
ag1006
aS'191.1'
p3517
aI180
aI84
aI81
aI14
aI65
aI7
aI165
asS'clipt001'
p3518
(lp3519
g3518
aS'Tyler Clippard'
p3520
aS' 72.2'
p3521
aI55
aI32
aI30
aI7
aI29
aI2
aI84
asS'thayd001'
p3522
(lp3523
g3522
aS'Dale Thayer'
p3524
aS' 57.2'
p3525
aI53
aI24
aI22
aI4
aI12
aI4
aI47
asg1019
(lp3526
g1019
ag1021
aS' 31.0'
p3527
aI28
aI10
aI9
aI1
aI8
aI0
aI23
asg1028
(lp3528
g1028
ag1030
aS' 64.2'
p3529
aI74
aI43
aI39
aI9
aI33
aI2
aI41
asS'villp001'
p3530
(lp3531
g3530
aS'Pedro Villarreal'
p3532
aS'  1.0'
p3533
aI0
aI0
aI0
aI0
aI0
aI0
aI1
asS'tatey001'
p3534
(lp3535
g3534
aS'Yoshinori Tateyama'
p3536
aS' 17.0'
p3537
aI18
aI19
aI17
aI4
aI6
aI1
aI18
asg404
(lp3538
g404
ag406
aS'191.0'
p3539
aI214
aI100
aI95
aI18
aI47
aI9
aI125
asg449
(lp3540
g449
ag451
aS'217.0'
p3541
aI205
aI73
aI67
aI15
aI49
aI5
aI170
asg1058
(lp3542
g1058
ag1060
aS' 29.0'
p3543
aI24
aI8
aI8
aI0
aI11
aI0
aI23
asS'cappc001'
p3544
(lp3545
g3544
aS'Carter Capps'
p3546
aS' 25.0'
p3547
aI25
aI11
aI11
aI0
aI11
aI0
aI28
asg1067
(lp3548
g1067
ag1069
aS' 16.0'
p3549
aI20
aI10
aI10
aI2
aI9
aI0
aI8
asS'valdl001'
p3550
(lp3551
g3550
aS'Jairo Asencio'
p3552
aS' 40.1'
p3553
aI39
aI23
aI22
aI5
aI19
aI1
aI29
asg1076
(lp3554
g1076
ag1078
aS'202.1'
p3555
aI181
aI102
aI86
aI19
aI91
aI2
aI173
asS'mitcd001'
p3556
(lp3557
g3556
aS'D.J. Mitchell'
p3558
aS'  4.2'
p3559
aI7
aI2
aI2
aI1
aI3
aI0
aI2
asS'reeda001'
p3560
(lp3561
g3560
aS'Addison Reed'
p3562
aS' 55.0'
p3563
aI57
aI30
aI29
aI6
aI18
aI3
aI54
asS'grilj001'
p3564
(lp3565
g3564
aS'Jason Grilli'
p3566
aS' 58.2'
p3567
aI45
aI20
aI19
aI7
aI22
aI4
aI90
asS'carpa001'
p3568
(lp3569
g3568
aS'Drew Carpenter'
p3570
aS'  9.0'
p3571
aI7
aI5
aI5
aI4
aI6
aI0
aI9
asS'oflae001'
p3572
(lp3573
g3572
aS"Eric O'Flaherty"
p3574
aS' 57.1'
p3575
aI47
aI14
aI11
aI3
aI19
aI2
aI46
asg1097
(lp3576
g1097
ag1099
aS'  2.0'
p3577
aI4
aI2
aI2
aI0
aI1
aI0
aI0
asg1100
(lp3578
g1100
ag1102
aS'  0.1'
p3579
aI1
aI0
aI0
aI0
aI0
aI0
aI0
asS'fontw001'
p3580
(lp3581
g3580
aS'Wilmer Font'
p3582
aS'  2.0'
p3583
aI0
aI2
aI2
aI0
aI4
aI0
aI1
asS'motag001'
p3584
(lp3585
g3584
aS'Guillermo Mota'
p3586
aS' 20.2'
p3587
aI24
aI13
aI12
aI3
aI8
aI0
aI24
asg1112
(lp3588
g1112
ag1114
aS' 27.2'
p3589
aI26
aI16
aI14
aI5
aI9
aI2
aI24
asS'betar001'
p3590
(lp3591
g3590
aS'Rafael Betancourt'
p3592
aS' 57.2'
p3593
aI53
aI19
aI18
aI6
aI12
aI4
aI57
asS'omogb001'
p3594
(lp3595
g3594
aS'Brian Omogrosso'
p3596
aS' 21.0'
p3597
aI20
aI6
aI6
aI3
aI9
aI0
aI18
asS'gregk001'
p3598
(lp3599
g3598
aS'Kevin Gregg'
p3600
aS' 43.2'
p3601
aI50
aI26
aI24
aI6
aI24
aI2
aI37
asg965
(lp3602
g965
ag967
aS'205.1'
p3603
aI216
aI117
aI110
aI25
aI68
aI2
aI166
asS'pheld001'
p3604
(lp3605
g3604
aS'David Phelps'
p3606
aS' 99.2'
p3607
aI81
aI38
aI37
aI14
aI38
aI2
aI96
asS'lopej002'
p3608
(lp3609
g3608
aS'Javier Lopez'
p3610
aS' 36.0'
p3611
aI37
aI13
aI10
aI1
aI14
aI3
aI28
asg1145
(lp3612
g1145
ag1147
aS' 45.2'
p3613
aI58
aI43
aI42
aI11
aI20
aI0
aI41
asS'smitw002'
p3614
(lp3615
g3614
aS'Will Smith'
p3616
aS' 89.2'
p3617
aI111
aI54
aI53
aI12
aI33
aI1
aI59
asS'melam001'
p3618
(lp3619
g3618
aS'Mark Melancon'
p3620
aS' 45.0'
p3621
aI45
aI31
aI31
aI8
aI12
aI1
aI41
asS'stewz001'
p3622
(lp3623
g3622
aS'Zach Stewart'
p3624
aS' 35.2'
p3625
aI58
aI40
aI34
aI14
aI4
aI0
aI19
asg1160
(lp3626
g1160
ag1162
aS'  1.0'
p3627
aI0
aI0
aI0
aI0
aI1
aI0
aI1
asg1163
(lp3628
g1163
ag1165
aS'227.2'
p3629
aI170
aI70
aI64
aI16
aI63
aI5
aI229
asS'blevj001'
p3630
(lp3631
g3630
aS'Jerry Blevins'
p3632
aS' 65.1'
p3633
aI45
aI20
aI18
aI7
aI25
aI5
aI54
asS'broxj001'
p3634
(lp3635
g3634
aS'Jonathan Broxton'
p3636
aS' 58.0'
p3637
aI56
aI18
aI16
aI2
aI17
aI0
aI45
asS'leagb001'
p3638
(lp3639
g3638
aS'Brandon League'
p3640
aS' 72.0'
p3641
aI65
aI27
aI25
aI1
aI33
aI7
aI54
asg1190
(lp3642
g1190
ag1192
aS' 29.0'
p3643
aI39
aI23
aI20
aI5
aI10
aI1
aI26
asS'perrr001'
p3644
(lp3645
g3644
aS'Ryan Perry'
p3646
aS'  8.0'
p3647
aI12
aI9
aI9
aI2
aI2
aI0
aI3
asg1196
(lp3648
g1196
ag1198
aS'192.2'
p3649
aI186
aI97
aI86
aI29
aI57
aI0
aI154
asS'schwm002'
p3650
(lp3651
g3650
aS'Michael Schwimer'
p3652
aS' 34.1'
p3653
aI30
aI18
aI17
aI3
aI16
aI2
aI36
asS'vasqe001'
p3654
(lp3655
g3654
aS'Esmerling Vasquez'
p3656
aS' 31.2'
p3657
aI32
aI20
aI20
aI2
aI19
aI0
aI14
asS'perem004'
p3658
(lp3659
g3658
aS'Martin Perez'
p3660
aS' 38.0'
p3661
aI47
aI26
aI23
aI3
aI15
aI1
aI25
asS'demes001'
p3662
(lp3663
g3662
aS'Sam Demel'
p3664
aS'  1.0'
p3665
aI2
aI1
aI1
aI0
aI1
aI1
aI0
asS'carmf001'
p3666
(lp3667
g3666
aS'Roberto Hernandez'
p3668
aS' 14.1'
p3669
aI17
aI15
aI12
aI4
aI3
aI0
aI2
asS'tazaj001'
p3670
(lp3671
g3670
aS'Junichi Tazawa'
p3672
aS' 44.0'
p3673
aI37
aI7
aI7
aI1
aI5
aI0
aI45
asg1220
(lp3674
g1220
ag1222
aS' 23.0'
p3675
aI23
aI13
aI13
aI3
aI13
aI2
aI14
asg1223
(lp3676
g1223
ag1225
aS' 48.2'
p3677
aI62
aI44
aI42
aI7
aI24
aI0
aI39
asg1226
(lp3678
g1226
ag1228
aS'  6.1'
p3679
aI10
aI7
aI5
aI2
aI2
aI0
aI6
asS'carsr001'
p3680
(lp3681
g3680
aS'Robert Carson'
p3682
aS' 13.1'
p3683
aI13
aI7
aI7
aI2
aI4
aI0
aI5
asg1232
(lp3684
g1232
ag1234
aS' 97.0'
p3685
aI89
aI59
aI51
aI10
aI39
aI3
aI80
asg1235
(lp3686
g1235
ag1237
aS' 24.1'
p3687
aI33
aI23
aI22
aI7
aI11
aI0
aI16
asS'hawkl001'
p3688
(lp3689
g3688
aS'LaTroy Hawkins'
p3690
aS' 42.0'
p3691
aI45
aI20
aI17
aI5
aI13
aI1
aI23
asS'schld001'
p3692
(lp3693
g3692
aS'Daniel Schlereth'
p3694
aS'  7.0'
p3695
aI14
aI10
aI8
aI3
aI5
aI2
aI6
asg1172
(lp3696
g1172
ag1174
aS' 19.0'
p3697
aI18
aI5
aI4
aI2
aI11
aI1
aI8
asS'choar001'
p3698
(lp3699
g3698
aS'Randy Choate'
p3700
aS' 38.2'
p3701
aI29
aI18
aI13
aI1
aI18
aI3
aI38
asS'warra001'
p3702
(lp3703
g3702
aS'Adam Warren'
p3704
aS'  2.1'
p3705
aI8
aI6
aI6
aI2
aI2
aI0
aI1
asg1253
(lp3706
g1253
ag1255
aS' 10.0'
p3707
aI6
aI4
aI2
aI0
aI5
aI0
aI4
asS'mcalz001'
p3708
(lp3709
g3708
aS'Zach McAllister'
p3710
aS'125.1'
p3711
aI133
aI78
aI59
aI19
aI38
aI0
aI110
asg1262
(lp3712
g1262
ag1264
aS'109.0'
p3713
aI126
aI71
aI62
aI10
aI27
aI3
aI69
asS'parkb001'
p3714
(lp3715
g3714
aS'Blake Parker'
p3716
aS'  6.0'
p3717
aI10
aI7
aI4
aI3
aI5
aI1
aI6
asS'ayall001'
p3718
(lp3719
g3718
aS'Luis Ayala'
p3720
aS' 75.0'
p3721
aI81
aI27
aI22
aI7
aI14
aI3
aI51
asg1280
(lp3722
g1280
ag1282
aS' 15.1'
p3723
aI20
aI8
aI8
aI1
aI6
aI0
aI9
asS'wilka001'
p3724
(lp3725
g3724
aS'Adam Wilk'
p3726
aS' 11.0'
p3727
aI21
aI11
aI10
aI4
aI3
aI0
aI7
asg1292
(lp3728
g1292
ag1294
aS' 48.2'
p3729
aI36
aI23
aI17
aI3
aI19
aI1
aI31
asS'rodrf003'
p3730
(lp3731
g3730
aS'Francisco Rodriguez'
p3732
aS' 72.0'
p3733
aI65
aI37
aI35
aI8
aI31
aI1
aI72
asg1301
(lp3734
g1301
ag1303
aS' 68.2'
p3735
aI54
aI21
aI19
aI2
aI21
aI2
aI42
asg1304
(lp3736
g1304
ag1306
aS' 70.1'
p3737
aI68
aI45
aI42
aI10
aI34
aI7
aI78
asg2144
(lp3738
g2144
ag2146
aS' 34.1'
p3739
aI36
aI21
aI21
aI6
aI11
aI0
aI34
asS'mottj001'
p3740
(lp3741
g3740
aS'Jason Motte'
p3742
aS' 72.0'
p3743
aI49
aI23
aI22
aI9
aI17
aI1
aI86
asg1310
(lp3744
g1310
ag1312
aS' 69.2'
p3745
aI55
aI29
aI26
aI8
aI34
aI8
aI93
asS'beckc001'
p3746
(lp3747
g3746
aS'Chad Beck'
p3748
aS' 15.2'
p3749
aI21
aI12
aI11
aI2
aI5
aI0
aI9
asS'hollg001'
p3750
(lp3751
g3750
aS'Greg Holland'
p3752
aS' 67.0'
p3753
aI58
aI22
aI22
aI2
aI34
aI7
aI91
asg887
(lp3754
g887
ag889
aS'209.1'
p3755
aI179
aI87
aI81
aI25
aI64
aI9
aI185
asg2267
(lp3756
g2267
ag2269
aS'  6.1'
p3757
aI12
aI7
aI7
aI4
aI3
aI1
aI5
asg1322
(lp3758
g1322
ag1324
aS'202.1'
p3759
aI197
aI88
aI84
aI26
aI40
aI3
aI125
asg2321
(lp3760
g2321
ag2323
aS'195.2'
p3761
aI186
aI69
aI64
aI18
aI43
aI2
aI153
asg1343
(lp3762
g1343
ag1345
aS'115.0'
p3763
aI119
aI58
aI53
aI16
aI36
aI5
aI80
asg1340
(lp3764
g1340
ag1342
aS' 26.2'
p3765
aI30
aI18
aI18
aI3
aI15
aI0
aI32
asS'lindm001'
p3766
(lp3767
g3766
aS'Matt Lindstrom'
p3768
aS' 47.0'
p3769
aI45
aI17
aI14
aI2
aI14
aI2
aI40
asS'devrc001'
p3770
(lp3771
g3770
aS'Cole De Vries'
p3772
aS' 87.2'
p3773
aI88
aI48
aI40
aI16
aI18
aI0
aI58
asS'putkl001'
p3774
(lp3775
g3774
aS'Luke Putkonen'
p3776
aS' 16.0'
p3777
aI19
aI7
aI7
aI0
aI8
aI1
aI10
asg1349
(lp3778
g1349
ag1351
aS' 29.1'
p3779
aI23
aI17
aI15
aI3
aI13
aI0
aI36
asS'allec002'
p3780
(lp3781
g3780
aS'Cody Allen'
p3782
aS' 29.0'
p3783
aI29
aI12
aI12
aI2
aI15
aI0
aI27
asS'takah001'
p3784
(lp3785
g3784
aS'Hisanori Takahashi'
p3786
aS' 50.1'
p3787
aI49
aI32
aI31
aI8
aI14
aI1
aI52
asS'marmc001'
p3788
(lp3789
g3788
aS'Carlos Marmol'
p3790
aS' 55.1'
p3791
aI40
aI24
aI21
aI4
aI45
aI0
aI72
asg1352
(lp3792
g1352
ag1354
aS'177.0'
p3793
aI163
aI68
aI61
aI25
aI59
aI3
aI124
asS'hernp001'
p3794
(lp3795
g3794
aS'Pedro Hernandez'
p3796
aS'  4.0'
p3797
aI12
aI8
aI8
aI3
aI1
aI0
aI2
asS'howej003'
p3798
(lp3799
g3798
aS'J.P. Howell'
p3800
aS' 50.1'
p3801
aI39
aI17
aI17
aI7
aI22
aI2
aI42
asg1379
(lp3802
g1379
ag1381
aS'123.2'
p3803
aI139
aI79
aI70
aI14
aI32
aI2
aI96
asg2636
(lp3804
g2636
ag2638
aS'219.2'
p3805
aI205
aI86
aI81
aI25
aI51
aI2
aI167
asg2669
(lp3806
g2669
ag2671
aS'159.1'
p3807
aI136
aI62
aI56
aI15
aI48
aI1
aI197
asg1397
(lp3808
g1397
ag1399
aS'  9.2'
p3809
aI14
aI6
aI6
aI2
aI2
aI1
aI8
asg1400
(lp3810
g1400
ag1402
aS'182.2'
p3811
aI160
aI88
aI84
aI14
aI105
aI6
aI174
asg1403
(lp3812
g1403
ag1405
aS'176.1'
p3813
aI226
aI101
aI90
aI16
aI44
aI3
aI107
asg2753
(lp3814
g2753
ag2755
aS'178.0'
p3815
aI165
aI109
aI102
aI39
aI61
aI2
aI133
asS'iwakh001'
p3816
(lp3817
g3816
aS'Hisashi Iwakuma'
p3818
aS'125.1'
p3819
aI117
aI49
aI44
aI17
aI43
aI3
aI101
asg2264
(lp3820
g2264
ag2266
aS' 30.0'
p3821
aI19
aI7
aI7
aI2
aI10
aI0
aI29
asS'klubc001'
p3822
(lp3823
g3822
aS'Corey Kluber'
p3824
aS' 63.0'
p3825
aI76
aI44
aI36
aI9
aI18
aI0
aI54
asg2819
(lp3826
g2819
ag2821
aS' 90.2'
p3827
aI89
aI41
aI40
aI8
aI15
aI0
aI66
asS'hagan001'
p3828
(lp3829
g3828
aS'Nick Hagadone'
p3830
aS' 25.1'
p3831
aI26
aI18
aI18
aI4
aI15
aI0
aI26
asS'olsog003'
p3832
(lp3833
g3832
aS'Garrett Olson'
p3834
aS'  0.1'
p3835
aI3
aI4
aI4
aI0
aI1
aI0
aI0
asg1430
(lp3836
g1430
ag1432
aS' 99.1'
p3837
aI93
aI49
aI44
aI12
aI33
aI1
aI94
asg1433
(lp3838
g1433
ag1435
aS'199.1'
p3839
aI149
aI69
aI64
aI9
aI76
aI3
aI207
asS'aumop001'
p3840
(lp3841
g3840
aS'Phillippe Aumont'
p3842
aS' 14.2'
p3843
aI10
aI6
aI6
aI0
aI9
aI1
aI14
asg1439
(lp3844
g1439
ag1441
aS'218.2'
p3845
aI228
aI110
aI97
aI31
aI42
aI4
aI107
asS'belij001'
p3846
(lp3847
g3846
aS'Jeff Beliveau'
p3848
aS' 17.2'
p3849
aI21
aI9
aI9
aI5
aI12
aI1
aI17
asg1454
(lp3850
g1454
ag1456
aS'189.1'
p3851
aI187
aI104
aI96
aI25
aI64
aI2
aI129
asS'brunb001'
p3852
(lp3853
g3852
aS'Brian Bruney'
p3854
aS'  1.0'
p3855
aI0
aI0
aI0
aI0
aI2
aI0
aI2
asg1463
(lp3856
g1463
ag1465
aS' 81.0'
p3857
aI49
aI24
aI18
aI6
aI29
aI1
aI68
asg1466
(lp3858
g1466
ag1468
aS' 74.2'
p3859
aI41
aI21
aI21
aI4
aI28
aI2
aI72
asg1469
(lp3860
g1469
ag1471
aS' 84.2'
p3861
aI102
aI61
aI58
aI14
aI30
aI0
aI74
asg1472
(lp3862
g1472
ag1474
aS' 36.0'
p3863
aI27
aI9
aI8
aI1
aI10
aI1
aI33
asS'grimj002'
p3864
(lp3865
g3864
aS'Justin Grimm'
p3866
aS' 14.0'
p3867
aI22
aI14
aI14
aI1
aI3
aI0
aI13
asg1208
(lp3868
g1208
ag1210
aS' 88.2'
p3869
aI85
aI40
aI32
aI9
aI43
aI3
aI54
asg1484
(lp3870
g1484
ag1486
aS' 28.1'
p3871
aI27
aI19
aI19
aI8
aI21
aI2
aI36
asg1487
(lp3872
g1487
ag1489
aS'124.0'
p3873
aI116
aI57
aI51
aI16
aI41
aI2
aI109
asS'zagum001'
p3874
(lp3875
g3874
aS'Mike Zagurski'
p3876
aS' 37.1'
p3877
aI37
aI24
aI23
aI5
aI19
aI0
aI34
asS'pauld001'
p3878
(lp3879
g3878
aS'David Pauley'
p3880
aS' 16.2'
p3881
aI27
aI13
aI12
aI2
aI5
aI1
aI6
asg1499
(lp3882
g1499
ag1501
aS' 59.1'
p3883
aI60
aI42
aI41
aI9
aI43
aI1
aI38
asS'septl001'
p3884
(lp3885
g3884
aS'Leyson Septimo'
p3886
aS' 14.1'
p3887
aI8
aI8
aI8
aI3
aI6
aI1
aI14
asg1505
(lp3888
g1505
ag1507
aS' 37.1'
p3889
aI41
aI23
aI19
aI6
aI20
aI1
aI19
asS'malom001'
p3890
(lp3891
g3890
aS'Matt Maloney'
p3892
aS' 11.0'
p3893
aI17
aI10
aI10
aI2
aI1
aI0
aI5
asS'jepsk001'
p3894
(lp3895
g3894
aS'Kevin Jepsen'
p3896
aS' 44.2'
p3897
aI39
aI17
aI15
aI3
aI12
aI1
aI38
asS'hottt001'
p3898
(lp3899
g3898
aS'Tommy Hottovy'
p3900
aS'  9.1'
p3901
aI11
aI3
aI3
aI2
aI5
aI0
aI6
asg662
(lp3902
g662
ag664
aS'100.2'
p3903
aI100
aI56
aI51
aI17
aI37
aI1
aI48
asS'robed002'
p3904
(lp3905
g3904
aS'David Robertson'
p3906
aS' 60.2'
p3907
aI52
aI19
aI18
aI5
aI19
aI0
aI81
asS'lindj004'
p3908
(lp3909
g3908
aS'Josh Lindblom'
p3910
aS' 71.0'
p3911
aI61
aI31
aI28
aI13
aI35
aI2
aI70
asg1553
(lp3912
g1553
ag1555
aS' 58.2'
p3913
aI62
aI39
aI33
aI3
aI35
aI2
aI61
asg1559
(lp3914
g1559
ag1561
aS' 26.2'
p3915
aI25
aI8
aI8
aI2
aI12
aI0
aI20
asS'kintb001'
p3916
(lp3917
g3916
aS'Brandon Kintzler'
p3918
aS' 16.2'
p3919
aI18
aI7
aI7
aI1
aI7
aI1
aI14
asS'sorir001'
p3920
(lp3921
g3920
aS'Rafael Soriano'
p3922
aS' 67.2'
p3923
aI55
aI17
aI17
aI6
aI24
aI4
aI69
asS'mcgej001'
p3924
(lp3925
g3924
aS'Jake McGee'
p3926
aS' 55.1'
p3927
aI33
aI13
aI12
aI3
aI11
aI4
aI73
asS'lidgb001'
p3928
(lp3929
g3928
aS'Brad Lidge'
p3930
aS'  9.1'
p3931
aI12
aI10
aI10
aI1
aI11
aI5
aI10
asg1577
(lp3932
g1577
ag1579
aS'  9.0'
p3933
aI10
aI8
aI7
aI2
aI4
aI0
aI5
asS'hendj001'
p3934
(lp3935
g3934
aS'Jim Henderson'
p3936
aS' 30.2'
p3937
aI26
aI12
aI12
aI1
aI13
aI0
aI45
asg1589
(lp3938
g1589
ag1591
aS' 42.0'
p3939
aI32
aI15
aI15
aI7
aI19
aI2
aI41
asg1592
(lp3940
g1592
ag1594
aS' 32.1'
p3941
aI32
aI15
aI13
aI4
aI15
aI0
aI23
asS'spenj001'
p3942
(lp3943
g3942
aS'Josh Spence'
p3944
aS' 10.1'
p3945
aI13
aI5
aI5
aI1
aI5
aI1
aI10
asS'stutm001'
p3946
(lp3947
g3946
aS'Michael Stutes'
p3948
aS'  5.2'
p3949
aI7
aI6
aI4
aI0
aI4
aI0
aI5
asS'pereo002'
p3950
(lp3951
g3950
aS'Oliver Perez'
p3952
aS' 29.2'
p3953
aI27
aI7
aI7
aI1
aI10
aI2
aI24
asg1610
(lp3954
g1610
ag1612
aS' 73.2'
p3955
aI80
aI33
aI32
aI6
aI19
aI4
aI65
asg1613
(lp3956
g1613
ag1615
aS'208.0'
p3957
aI206
aI97
aI85
aI26
aI52
aI3
aI168
asg1619
(lp3958
g1619
ag1621
aS' 80.0'
p3959
aI91
aI36
aI33
aI5
aI18
aI6
aI69
asS'wallj002'
p3960
(lp3961
g3960
aS'Josh Wall'
p3962
aS'  5.2'
p3963
aI3
aI3
aI3
aI1
aI1
aI0
aI4
asS'chapj001'
p3964
(lp3965
g3964
aS'Jaye Chapman'
p3966
aS' 12.0'
p3967
aI8
aI5
aI5
aI0
aI10
aI2
aI12
asS'slatd001'
p3968
(lp3969
g3968
aS'Doug Slaten'
p3970
aS' 13.0'
p3971
aI9
aI4
aI4
aI1
aI8
aI0
aI6
asg1634
(lp3972
g1634
ag1636
aS'141.1'
p3973
aI159
aI97
aI80
aI20
aI42
aI4
aI99
asS'barns002'
p3974
(lp3975
g3974
aS'Scott Barnes'
p3976
aS' 19.0'
p3977
aI17
aI9
aI9
aI1
aI7
aI0
aI16
asS'albua001'
p3978
(lp3979
g3978
aS'Al Alburquerque'
p3980
aS' 13.1'
p3981
aI6
aI1
aI1
aI0
aI8
aI0
aI18
asS'ambrh001'
p3982
(lp3983
g3982
aS'Hector Ambriz'
p3984
aS' 19.1'
p3985
aI14
aI9
aI9
aI0
aI11
aI2
aI22
asS'byrdt001'
p3986
(lp3987
g3986
aS'Tim Byrdak'
p3988
aS' 30.2'
p3989
aI18
aI16
aI15
aI2
aI18
aI5
aI34
asS'herrk001'
p3990
(lp3991
g3990
aS'Kelvin Herrera'
p3992
aS' 84.1'
p3993
aI79
aI24
aI22
aI4
aI21
aI6
aI77
asS'albem001'
p3994
(lp3995
g3994
aS'Matt Albers'
p3996
aS' 60.1'
p3997
aI46
aI21
aI16
aI9
aI22
aI3
aI44
asg1646
(lp3998
g1646
ag1648
aS'125.1'
p3999
aI113
aI59
aI58
aI23
aI46
aI4
aI122
asS'roset001'
p4000
(lp4001
g4000
aS'Trevor Rosenthal'
p4002
aS' 22.2'
p4003
aI14
aI7
aI7
aI2
aI7
aI0
aI25
asg1655
(lp4004
g1655
ag1657
aS' 72.0'
p4005
aI65
aI27
aI23
aI7
aI30
aI1
aI62
asg1661
(lp4006
g1661
ag1663
aS' 45.1'
p4007
aI62
aI37
aI37
aI9
aI12
aI0
aI37
asS'storm001'
p4008
(lp4009
g4008
aS'Mickey Storey'
p4010
aS' 30.1'
p4011
aI27
aI14
aI13
aI2
aI10
aI0
aI34
asS'heatd001'
p4012
(lp4013
g4012
aS'Deunte Heath'
p4014
aS'  2.0'
p4015
aI1
aI1
aI1
aI1
aI1
aI0
aI1
asS'olivl001'
p4016
(lp4017
g4016
aS'Lester Oliveros'
p4018
aS'  1.2'
p4019
aI1
aI1
aI1
aI0
aI1
aI0
aI1
asg776
(lp4020
g776
ag778
aS'213.1'
p4021
aI210
aI82
aI78
aI22
aI59
aI0
aI133
asg1676
(lp4022
g1676
ag1678
aS' 67.2'
p4023
aI63
aI33
aI29
aI5
aI37
aI7
aI83
asg1682
(lp4024
g1682
ag1684
aS' 42.2'
p4025
aI28
aI15
aI15
aI5
aI23
aI0
aI37
asg1595
(lp4026
g1595
ag1597
aS'  3.0'
p4027
aI6
aI4
aI4
aI1
aI1
aI0
aI3
asg1685
(lp4028
g1685
ag1687
aS'136.1'
p4029
aI142
aI62
aI57
aI14
aI42
aI4
aI81
asS'gelts001'
p4030
(lp4031
g4030
aS'Steve Geltz'
p4032
aS'  2.0'
p4033
aI2
aI1
aI1
aI0
aI3
aI0
aI1
asg1691
(lp4034
g1691
ag1693
aS' 46.0'
p4035
aI57
aI27
aI26
aI6
aI19
aI1
aI38
asS'delas001'
p4036
(lp4037
g4036
aS'Steve Delabar'
p4038
aS' 66.0'
p4039
aI46
aI29
aI28
aI12
aI26
aI1
aI92
asg1697
(lp4040
g1697
ag1699
aS' 12.1'
p4041
aI19
aI11
aI8
aI0
aI2
aI1
aI8
asg1700
(lp4042
g1700
ag1702
aS'156.2'
p4043
aI143
aI97
aI93
aI19
aI87
aI5
aI167
asg1703
(lp4044
g1703
ag1705
aS' 90.2'
p4045
aI95
aI66
aI60
aI15
aI34
aI5
aI47
asS'franf001'
p4046
(lp4047
g4046
aS'Frank Francisco'
p4048
aS' 42.1'
p4049
aI47
aI27
aI26
aI5
aI21
aI1
aI47
asS'johns001'
p4050
(lp4051
g4050
aS'Steve Johnson'
p4052
aS' 38.1'
p4053
aI23
aI9
aI9
aI4
aI18
aI1
aI46
asS'cruzj005'
p4054
(lp4055
g4054
aS'Juan Cruz'
p4056
aS' 35.2'
p4057
aI39
aI12
aI11
aI3
aI19
aI0
aI33
asS'runzd001'
p4058
(lp4059
g4058
aS'Dan Runzler'
p4060
aS'  3.2'
p4061
aI1
aI0
aI0
aI0
aI3
aI1
aI5
asS'harrw002'
p4062
(lp4063
g4062
aS'Will Harris'
p4064
aS' 17.2'
p4065
aI27
aI18
aI16
aI3
aI6
aI1
aI19
asg296
(lp4066
g296
ag298
aS'186.0'
p4067
aI183
aI111
aI107
aI23
aI90
aI3
aI190
asg1724
(lp4068
g1724
ag1726
aS' 96.2'
p4069
aI106
aI57
aI54
aI15
aI31
aI8
aI62
asS'norbj001'
p4070
(lp4071
g4070
aS'Jordan Norberto'
p4072
aS' 52.0'
p4073
aI37
aI17
aI16
aI5
aI22
aI2
aI46
asg1739
(lp4074
g1739
ag1741
aS' 62.1'
p4075
aI63
aI24
aI21
aI6
aI12
aI5
aI42
asg1832
(lp4076
g1832
ag1834
aS'127.2'
p4077
aI146
aI86
aI74
aI23
aI42
aI3
aI91
asS'castl002'
p4078
(lp4079
g4078
aS'Lendy Castillo'
p4080
aS' 16.0'
p4081
aI24
aI16
aI14
aI2
aI12
aI0
aI13
asS'varva001'
p4082
(lp4083
g4082
aS'Anthony Varvaro'
p4084
aS' 16.2'
p4085
aI16
aI11
aI10
aI2
aI9
aI1
aI21
asg1751
(lp4086
g1751
ag1753
aS' 58.2'
p4087
aI56
aI28
aI28
aI5
aI27
aI5
aI60
asg1754
(lp4088
g1754
ag1756
aS' 17.2'
p4089
aI24
aI13
aI13
aI5
aI7
aI0
aI13
asS'delof001'
p4090
(lp4091
g4090
aS'Fautino De Los Santos'
p4092
aS'  3.0'
p4093
aI7
aI2
aI1
aI0
aI3
aI0
aI3
asg1760
(lp4094
g1760
ag1762
aS' 63.0'
p4095
aI80
aI46
aI42
aI9
aI8
aI2
aI33
asg1769
(lp4096
g1769
ag1771
aS'191.1'
p4097
aI156
aI89
aI83
aI14
aI89
aI1
aI221
asS'sance001'
p4098
(lp4099
g4098
aS'Eduardo Sanchez'
p4100
aS' 15.0'
p4101
aI11
aI11
aI11
aI2
aI13
aI4
aI13
asg1775
(lp4102
g1775
ag1777
aS' 93.2'
p4103
aI110
aI55
aI53
aI9
aI18
aI1
aI62
asg1784
(lp4104
g1784
ag1786
aS'179.2'
p4105
aI167
aI85
aI72
aI14
aI85
aI10
aI131
asS'thorm001'
p4106
(lp4107
g4106
aS'Matt Thornton'
p4108
aS' 65.0'
p4109
aI63
aI27
aI25
aI4
aI17
aI4
aI53
asg1793
(lp4110
g1793
ag1795
aS'  4.2'
p4111
aI7
aI2
aI2
aI0
aI4
aI0
aI1
asg1796
(lp4112
g1796
ag1798
aS'211.0'
p4113
aI173
aI63
aI60
aI16
aI59
aI2
aI205
asg1805
(lp4114
g1805
ag1807
aS' 29.2'
p4115
aI38
aI22
aI21
aI4
aI11
aI0
aI21
asS'cooka002'
p4116
(lp4117
g4116
aS'Aaron Cook'
p4118
aS' 94.0'
p4119
aI117
aI68
aI59
aI15
aI21
aI1
aI20
asS'olivd001'
p4120
(lp4121
g4120
aS'Darren Oliver'
p4122
aS' 56.2'
p4123
aI43
aI13
aI13
aI3
aI15
aI0
aI52
asS'jonen001'
p4124
(lp4125
g4124
aS'Nate Jones'
p4126
aS' 71.2'
p4127
aI67
aI19
aI19
aI4
aI32
aI3
aI65
asg1820
(lp4128
g1820
ag1822
aS'176.2'
p4129
aI190
aI95
aI85
aI28
aI38
aI3
aI142
asg1823
(lp4130
g1823
ag1825
aS' 11.1'
p4131
aI11
aI9
aI7
aI1
aI2
aI0
aI12
asg1826
(lp4132
g1826
ag1828
aS'  8.2'
p4133
aI7
aI1
aI1
aI0
aI3
aI0
aI4
asg1829
(lp4134
g1829
ag1831
aS' 66.1'
p4135
aI57
aI22
aI21
aI8
aI19
aI5
aI41
asg1580
(lp4136
g1580
ag1582
aS' 19.2'
p4137
aI24
aI5
aI5
aI0
aI4
aI0
aI13
asS'hillr001'
p4138
(lp4139
g4138
aS'Rich Hill'
p4140
aS' 19.2'
p4141
aI17
aI4
aI4
aI0
aI11
aI1
aI21
asS'duffd001'
p4142
(lp4143
g4142
aS'Danny Duffy'
p4144
aS' 27.2'
p4145
aI26
aI13
aI12
aI2
aI18
aI1
aI28
asS'colel001'
p4146
(lp4147
g4146
aS'Louis Coleman'
p4148
aS' 51.0'
p4149
aI41
aI23
aI21
aI10
aI26
aI3
aI65
asS'cordf002'
p4150
(lp4151
g4150
aS'Francisco Cordero'
p4152
aS' 39.1'
p4153
aI61
aI35
aI33
aI9
aI18
aI4
aI31
asS'richs001'
p4154
(lp4155
g4154
aS'Scott Richmond'
p4156
aS'  3.0'
p4157
aI5
aI2
aI2
aI1
aI0
aI0
aI2
asg479
(lp4158
g479
ag481
aS'170.1'
p4159
aI194
aI100
aI95
aI28
aI56
aI3
aI153
asS'logab001'
p4160
(lp4161
g4160
aS'Boone Logan'
p4162
aS' 55.1'
p4163
aI48
aI23
aI23
aI6
aI28
aI6
aI68
asS'socom001'
p4164
(lp4165
g4164
aS'Miguel Socolovich'
p4166
aS' 16.1'
p4167
aI15
aI11
aI11
aI3
aI9
aI0
aI12
asg1886
(lp4168
g1886
ag1888
aS' 69.1'
p4169
aI72
aI39
aI35
aI6
aI26
aI5
aI57
asg1889
(lp4170
g1889
ag1891
aS'161.0'
p4171
aI162
aI95
aI87
aI24
aI71
aI0
aI167
asg1892
(lp4172
g1892
ag1894
aS'156.0'
p4173
aI133
aI80
aI74
aI25
aI54
aI3
aI119
asg1895
(lp4174
g1895
ag1897
aS' 99.0'
p4175
aI92
aI38
aI32
aI7
aI27
aI0
aI55
asg1901
(lp4176
g1901
ag1903
aS'156.1'
p4177
aI155
aI78
aI78
aI18
aI36
aI0
aI132
asS'grayj002'
p4178
(lp4179
g4178
aS'Jeff Gray'
p4180
aS' 52.0'
p4181
aI58
aI34
aI33
aI9
aI22
aI0
aI26
asg2372
(lp4182
g2372
ag2374
aS'177.1'
p4183
aI158
aI85
aI75
aI18
aI81
aI5
aI175
asg1919
(lp4184
g1919
ag1921
aS'113.0'
p4185
aI145
aI71
aI70
aI15
aI22
aI5
aI76
asS'patej001'
p4186
(lp4187
g4186
aS'Joe Paterson'
p4188
aS'  2.2'
p4189
aI15
aI11
aI11
aI2
aI3
aI0
aI0
asg203
(lp4190
g203
ag205
aS' 43.2'
p4191
aI34
aI15
aI12
aI3
aI12
aI0
aI44
asS'burtj001'
p4192
(lp4193
g4192
aS'Jared Burton'
p4194
aS' 62.0'
p4195
aI41
aI21
aI15
aI5
aI16
aI1
aI55
asg1943
(lp4196
g1943
ag1945
aS' 63.1'
p4197
aI55
aI24
aI20
aI8
aI22
aI4
aI55
asS'chamj002'
p4198
(lp4199
g4198
aS'Joba Chamberlain'
p4200
aS' 20.2'
p4201
aI26
aI11
aI10
aI3
aI6
aI2
aI22
asg1955
(lp4202
g1955
ag1957
aS'189.2'
p4203
aI171
aI76
aI71
aI17
aI62
aI7
aI158
asg1958
(lp4204
g1958
ag1960
aS'121.2'
p4205
aI136
aI58
aI53
aI7
aI30
aI1
aI98
asS'farnk001'
p4206
(lp4207
g4206
aS'Kyle Farnsworth'
p4208
aS' 27.0'
p4209
aI22
aI13
aI12
aI1
aI14
aI2
aI25
asS'ventj001'
p4210
(lp4211
g4210
aS'Jonny Venters'
p4212
aS' 58.2'
p4213
aI61
aI23
aI21
aI6
aI28
aI3
aI69
asS'marss002'
p4214
(lp4215
g4214
aS'Sean Marshall'
p4216
aS' 61.0'
p4217
aI55
aI18
aI17
aI3
aI16
aI2
aI74
asS'edgij001'
p4218
(lp4219
g4218
aS'Josh Edgin'
p4220
aS' 25.2'
p4221
aI19
aI14
aI13
aI5
aI10
aI0
aI30
asS'horsj001'
p4222
(lp4223
g4222
aS'Jeremy Horst'
p4224
aS' 31.1'
p4225
aI21
aI8
aI4
aI1
aI14
aI1
aI40
asS'beatp001'
p4226
(lp4227
g4226
aS'Pedro Beato'
p4228
aS' 12.0'
p4229
aI11
aI9
aI9
aI1
aI5
aI0
aI12
asg1976
(lp4230
g1976
ag1978
aS' 32.2'
p4231
aI33
aI15
aI15
aI0
aI14
aI1
aI17
asg1985
(lp4232
g1985
ag1987
aS' 55.0'
p4233
aI65
aI38
aI37
aI8
aI29
aI0
aI46
asS'eveld001'
p4234
(lp4235
g4234
aS'Dana Eveland'
p4236
aS' 32.1'
p4237
aI32
aI18
aI17
aI3
aI13
aI3
aI18
asg353
(lp4238
g353
ag355
aS'164.1'
p4239
aI149
aI75
aI62
aI15
aI52
aI0
aI105
asg2009
(lp4240
g2009
ag2011
aS'107.1'
p4241
aI112
aI64
aI62
aI18
aI35
aI2
aI89
asg2015
(lp4242
g2015
ag2017
aS'  5.0'
p4243
aI4
aI1
aI1
aI1
aI2
aI0
aI9
asS'furbc001'
p4244
(lp4245
g4244
aS'Charlie Furbush'
p4246
aS' 46.1'
p4247
aI28
aI15
aI14
aI3
aI16
aI4
aI53
asS'mansj001'
p4248
(lp4249
g4248
aS'Jeff Manship'
p4250
aS' 21.2'
p4251
aI29
aI19
aI19
aI4
aI7
aI1
aI12
asS'koreb001'
p4252
(lp4253
g4252
aS'Bobby Korecky'
p4254
aS'  1.0'
p4255
aI1
aI2
aI2
aI1
aI1
aI0
aI0
asS'peraj002'
p4256
(lp4257
g4256
aS'Joel Peralta'
p4258
aS' 67.0'
p4259
aI49
aI28
aI27
aI9
aI17
aI2
aI84
asg2030
(lp4260
g2030
ag2032
aS'175.1'
p4261
aI162
aI100
aI91
aI32
aI52
aI0
aI145
asg2603
(lp4262
g2603
ag2605
aS' 50.0'
p4263
aI67
aI34
aI34
aI8
aI19
aI0
aI47
asg2042
(lp4264
g2042
ag2044
aS' 98.2'
p4265
aI143
aI81
aI81
aI23
aI26
aI0
aI42
asg2048
(lp4266
g2048
ag2050
aS' 24.2'
p4267
aI34
aI29
aI27
aI7
aI11
aI1
aI30
asg2051
(lp4268
g2051
ag2053
aS' 34.2'
p4269
aI37
aI13
aI9
aI4
aI13
aI2
aI22
asS'myerb001'
p4270
(lp4271
g4270
aS'Brett Myers'
p4272
aS' 65.1'
p4273
aI65
aI30
aI24
aI8
aI15
aI2
aI41
asg2063
(lp4274
g2063
ag2065
aS'142.2'
p4275
aI180
aI88
aI81
aI10
aI51
aI5
aI55
asS'acosm001'
p4276
(lp4277
g4276
aS'Manny Acosta'
p4278
aS' 47.1'
p4279
aI48
aI38
aI34
aI7
aI25
aI1
aI46
asg857
(lp4280
g857
ag859
aS'184.1'
p4281
aI186
aI91
aI85
aI20
aI70
aI6
aI114
asg821
(lp4282
g821
ag823
aS' 22.1'
p4283
aI23
aI16
aI15
aI5
aI7
aI1
aI21
asg2090
(lp4284
g2090
ag2092
aS' 18.2'
p4285
aI16
aI11
aI11
aI2
aI9
aI0
aI11
asg923
(lp4286
g923
ag925
aS'174.2'
p4287
aI195
aI88
aI79
aI21
aI39
aI2
aI112
asS'papej001'
p4288
(lp4289
g4288
aS'Jonathan Papelbon'
p4290
aS' 70.0'
p4291
aI56
aI22
aI19
aI8
aI18
aI1
aI92
asS'chapa001'
p4292
(lp4293
g4292
aS'Aroldis Chapman'
p4294
aS' 71.2'
p4295
aI35
aI13
aI12
aI4
aI23
aI0
aI122
asg2111
(lp4296
g2111
ag2113
aS'161.0'
p4297
aI168
aI86
aI76
aI13
aI56
aI3
aI107
asg2204
(lp4298
g2204
ag2206
aS'208.1'
p4299
aI216
aI101
aI93
aI28
aI55
aI4
aI187
asS'guerj002'
p4300
(lp4301
g4300
aS'Javy Guerra'
p4302
aS' 45.0'
p4303
aI44
aI13
aI13
aI1
aI23
aI5
aI37
asS'atchs001'
p4304
(lp4305
g4304
aS'Scott Atchison'
p4306
aS' 51.1'
p4307
aI42
aI10
aI9
aI2
aI9
aI3
aI36
asg2135
(lp4308
g2135
ag2137
aS'202.1'
p4309
aI189
aI86
aI79
aI18
aI62
aI1
aI180
asS'burna002'
p4310
(lp4311
g4310
aS'Alex Burnett'
p4312
aS' 71.2'
p4313
aI71
aI33
aI28
aI4
aI26
aI5
aI36
asS'rivem002'
p4314
(lp4315
g4314
aS'Mariano Rivera'
p4316
aS'  8.1'
p4317
aI6
aI2
aI2
aI0
aI2
aI2
aI8
asS'egbej001'
p4318
(lp4319
g4318
aS'Jack Egbert'
p4320
aS'  0.2'
p4321
aI0
aI0
aI0
aI0
aI0
aI0
aI0
asg2159
(lp4322
g2159
ag2161
aS'  5.2'
p4323
aI9
aI9
aI7
aI3
aI7
aI1
aI5
asS'valdj001'
p4324
(lp4325
g4324
aS'Jose Valdez'
p4326
aS' 12.0'
p4327
aI12
aI4
aI3
aI1
aI8
aI1
aI10
asg1355
(lp4328
g1355
ag1357
aS' 32.1'
p4329
aI50
aI24
aI24
aI5
aI15
aI0
aI15
asg2174
(lp4330
g2174
ag2176
aS' 30.2'
p4331
aI26
aI10
aI9
aI0
aI2
aI0
aI21
asS'wilht001'
p4332
(lp4333
g4332
aS'Tom Wilhelmsen'
p4334
aS' 79.1'
p4335
aI59
aI24
aI22
aI5
aI29
aI3
aI87
asS'stord001'
p4336
(lp4337
g4336
aS'Drew Storen'
p4338
aS' 30.1'
p4339
aI22
aI8
aI8
aI0
aI8
aI0
aI24
asg137
(lp4340
g137
ag139
aS'174.2'
p4341
aI157
aI79
aI74
aI20
aI56
aI2
aI180
asg1517
(lp4342
g1517
ag1519
aS'144.2'
p4343
aI147
aI79
aI77
aI19
aI56
aI1
aI144
asg2213
(lp4344
g2213
ag2215
aS' 50.2'
p4345
aI50
aI30
aI26
aI5
aI30
aI2
aI42
asS'pattt001'
p4346
(lp4347
g4346
aS'Troy Patton'
p4348
aS' 55.2'
p4349
aI45
aI15
aI15
aI5
aI12
aI2
aI49
asg2216
(lp4350
g2216
ag2218
aS' 46.1'
p4351
aI49
aI25
aI20
aI6
aI8
aI0
aI29
asS'hanrj001'
p4352
(lp4353
g4352
aS'Joel Hanrahan'
p4354
aS' 59.2'
p4355
aI40
aI18
aI18
aI8
aI36
aI0
aI67
asg2222
(lp4356
g2222
ag2224
aS'118.0'
p4357
aI104
aI48
aI45
aI9
aI42
aI2
aI113
asg1799
(lp4358
g1799
ag1801
aS' 78.2'
p4359
aI83
aI42
aI41
aI7
aI30
aI4
aI83
asg2228
(lp4360
g2228
ag2230
aS'133.2'
p4361
aI161
aI85
aI81
aI32
aI27
aI2
aI77
asg1694
(lp4362
g1694
ag1696
aS' 50.0'
p4363
aI59
aI26
aI25
aI7
aI15
aI3
aI51
asg2246
(lp4364
g2246
ag2248
aS'187.2'
p4365
aI179
aI82
aI78
aI23
aI60
aI2
aI231
asg2249
(lp4366
g2249
ag2251
aS'238.1'
p4367
aI192
aI81
aI70
aI19
aI60
aI2
aI239
asg2252
(lp4368
g2252
ag2254
aS' 14.0'
p4369
aI20
aI11
aI10
aI1
aI5
aI0
aI4
asg2258
(lp4370
g2258
ag2260
aS' 69.1'
p4371
aI61
aI42
aI36
aI10
aI39
aI2
aI93
asg2741
(lp4372
g2741
ag2743
aS'  1.0'
p4373
aI1
aI0
aI0
aI0
aI0
aI0
aI0
asg2270
(lp4374
g2270
ag2272
aS'138.0'
p4375
aI103
aI26
aI24
aI6
aI23
aI0
aI120
asS'arrej001'
p4376
(lp4377
g4376
aS'Jose Arredondo'
p4378
aS' 61.0'
p4379
aI50
aI26
aI20
aI7
aI34
aI2
aI62
asg1529
(lp4380
g1529
ag1531
aS'189.2'
p4381
aI173
aI90
aI85
aI23
aI58
aI5
aI168
asS'bracb001'
p4382
(lp4383
g4382
aS'Brad Brach'
p4384
aS' 66.2'
p4385
aI50
aI28
aI28
aI11
aI33
aI7
aI75
asg2720
(lp4386
g2720
ag2722
aS'  9.1'
p4387
aI7
aI1
aI1
aI1
aI5
aI0
aI3
asg2282
(lp4388
g2282
ag2284
aS'233.2'
p4389
aI192
aI78
aI71
aI24
aI54
aI2
aI230
asS'verdr001'
p4390
(lp4391
g4390
aS'Ryan Verdugo'
p4392
aS'  1.2'
p4393
aI8
aI6
aI6
aI1
aI2
aI0
aI2
asS'veraj001'
p4394
(lp4395
g4394
aS'Jose Veras'
p4396
aS' 67.0'
p4397
aI61
aI29
aI27
aI5
aI40
aI1
aI79
asS'nathj001'
p4398
(lp4399
g4398
aS'Joe Nathan'
p4400
aS' 64.1'
p4401
aI55
aI23
aI20
aI7
aI13
aI1
aI78
asg2300
(lp4402
g2300
ag2302
aS'208.1'
p4403
aI183
aI87
aI78
aI23
aI49
aI6
aI191
asg2303
(lp4404
g2303
ag2305
aS' 13.2'
p4405
aI11
aI2
aI2
aI0
aI4
aI0
aI10
asg1811
(lp4406
g1811
ag1813
aS' 55.0'
p4407
aI50
aI32
aI27
aI9
aI16
aI3
aI36
asg2309
(lp4408
g2309
ag2311
aS' 56.2'
p4409
aI58
aI16
aI15
aI4
aI12
aI3
aI57
asS'caria001'
p4410
(lp4411
g4410
aS'Andrew Carignan'
p4412
aS'  9.2'
p4413
aI8
aI5
aI5
aI0
aI10
aI0
aI8
asg2207
(lp4414
g2207
ag2209
aS'  9.0'
p4415
aI13
aI7
aI7
aI4
aI2
aI0
aI15
asS'buenf001'
p4416
(lp4417
g4416
aS'Francisley Bueno'
p4418
aS' 17.1'
p4419
aI16
aI4
aI3
aI0
aI2
aI1
aI7
asg29
(lp4420
g29
ag31
aS'133.0'
p4421
aI154
aI69
aI62
aI12
aI47
aI4
aI107
asS'frasj002'
p4422
(lp4423
g4422
aS'Jason Frasor'
p4424
aS' 43.2'
p4425
aI42
aI20
aI20
aI6
aI22
aI1
aI53
asS'wheed001'
p4426
(lp4427
g4426
aS'Dan Wheeler'
p4428
aS' 12.1'
p4429
aI17
aI12
aI12
aI3
aI7
aI0
aI2
asS'balec001'
p4430
(lp4431
g4430
aS'Collin Balester'
p4432
aS' 18.0'
p4433
aI14
aI14
aI13
aI5
aI11
aI1
aI12
asg860
(lp4434
g860
ag862
aS'179.0'
p4435
aI168
aI77
aI72
aI12
aI48
aI2
aI102
asS'diekj001'
p4436
(lp4437
g4436
aS'Jake Diekman'
p4438
aS' 27.1'
p4439
aI25
aI17
aI12
aI1
aI20
aI3
aI35
asS'martv002'
p4440
(lp4441
g4440
aS'Victor Marte'
p4442
aS' 40.1'
p4443
aI51
aI22
aI22
aI6
aI14
aI2
aI36
asg2426
(lp4444
g2426
ag2428
aS' 26.1'
p4445
aI19
aI5
aI5
aI2
aI7
aI0
aI28
asS'philz001'
p4446
(lp4447
g4446
aS'Zach Phillips'
p4448
aS'  6.0'
p4449
aI7
aI4
aI4
aI2
aI3
aI1
aI5
asg2345
(lp4450
g2345
ag2347
aS' 33.0'
p4451
aI33
aI18
aI18
aI8
aI7
aI0
aI30
asS'brayb001'
p4452
(lp4453
g4452
aS'Bill Bray'
p4454
aS'  8.2'
p4455
aI6
aI5
aI5
aI2
aI14
aI0
aI7
asg2360
(lp4456
g2360
ag2362
aS' 40.2'
p4457
aI47
aI37
aI37
aI7
aI20
aI0
aI40
asS'robet001'
p4458
(lp4459
g4458
aS'Tyler Robertson'
p4460
aS' 25.0'
p4461
aI21
aI16
aI15
aI4
aI14
aI3
aI26
asg2369
(lp4462
g2369
ag2371
aS' 63.1'
p4463
aI57
aI23
aI19
aI1
aI23
aI1
aI57
asS'putzj001'
p4464
(lp4465
g4464
aS'J.J. Putz'
p4466
aS' 54.1'
p4467
aI45
aI18
aI17
aI4
aI11
aI1
aI65
asg2327
(lp4468
g2327
ag2329
aS'181.1'
p4469
aI166
aI71
aI70
aI11
aI63
aI3
aI140
asg2384
(lp4470
g2384
ag2386
aS' 19.2'
p4471
aI29
aI21
aI12
aI5
aI7
aI0
aI11
asg2387
(lp4472
g2387
ag2389
aS'  8.2'
p4473
aI15
aI13
aI12
aI4
aI3
aI0
aI1
asg2390
(lp4474
g2390
ag2392
aS' 71.1'
p4475
aI67
aI41
aI37
aI10
aI47
aI0
aI47
asS'valvj001'
p4476
(lp4477
g4476
aS'Jose Valverde'
p4478
aS' 69.0'
p4479
aI59
aI34
aI29
aI3
aI27
aI5
aI48
asS'luetl001'
p4480
(lp4481
g4480
aS'Lucas Luetge'
p4482
aS' 40.2'
p4483
aI37
aI20
aI18
aI3
aI24
aI6
aI38
asS'cofft001'
p4484
(lp4485
g4484
aS'Todd Coffey'
p4486
aS' 19.1'
p4487
aI17
aI11
aI10
aI1
aI9
aI1
aI18
asS'ortej001'
p4488
(lp4489
g4488
aS'Jose Ortega'
p4490
aS'  2.2'
p4491
aI3
aI1
aI1
aI1
aI1
aI0
aI4
asg5
(lp4492
g5
ag7
aS'107.0'
p4493
aI117
aI56
aI54
aI14
aI25
aI2
aI86
asS'jansk001'
p4494
(lp4495
g4494
aS'Kenley Jansen'
p4496
aS' 65.0'
p4497
aI33
aI18
aI17
aI6
aI22
aI1
aI99
asg2405
(lp4498
g2405
ag2407
aS'185.1'
p4499
aI202
aI127
aI118
aI27
aI61
aI3
aI144
asg1652
(lp4500
g1652
ag1654
aS' 75.1'
p4501
aI65
aI26
aI24
aI8
aI21
aI0
aI69
asS'grifa002'
p4502
(lp4503
g4502
aS'A.J. Griffin'
p4504
aS' 82.1'
p4505
aI74
aI29
aI28
aI10
aI19
aI0
aI64
asS'belir001'
p4506
(lp4507
g4506
aS'Ronald Belisario'
p4508
aS' 71.0'
p4509
aI47
aI22
aI20
aI3
aI29
aI4
aI69
asS'doteo001'
p4510
(lp4511
g4510
aS'Octavio Dotel'
p4512
aS' 58.0'
p4513
aI50
aI23
aI23
aI3
aI12
aI4
aI62
asg2423
(lp4514
g2423
ag2425
aS' 17.2'
p4515
aI16
aI12
aI10
aI2
aI12
aI3
aI15
asS'hoovj002'
p4516
(lp4517
g4516
aS'J.J. Hoover'
p4518
aS' 30.2'
p4519
aI17
aI7
aI7
aI2
aI13
aI1
aI31
asS'accaj001'
p4520
(lp4521
g4520
aS'Jeremy Accardo'
p4522
aS' 37.1'
p4523
aI42
aI21
aI20
aI3
aI16
aI1
aI29
asS'britz001'
p4524
(lp4525
g4524
aS'Zach Britton'
p4526
aS' 60.1'
p4527
aI61
aI37
aI34
aI6
aI32
aI3
aI53
asS'waldk001'
p4528
(lp4529
g4528
aS'Kyle Waldrop'
p4530
aS' 21.1'
p4531
aI27
aI6
aI6
aI2
aI6
aI1
aI7
asg2435
(lp4532
g2435
ag2437
aS'173.0'
p4533
aI155
aI71
aI65
aI19
aI52
aI0
aI153
asg248
(lp4534
g248
ag250
aS' 59.1'
p4535
aI42
aI19
aI18
aI5
aI26
aI0
aI70
asS'millj005'
p4536
(lp4537
g4536
aS'Jim Miller'
p4538
aS' 48.2'
p4539
aI39
aI15
aI14
aI6
aI27
aI2
aI44
asS'garcc002'
p4540
(lp4541
g4540
aS'Christian Garcia'
p4542
aS' 12.2'
p4543
aI8
aI3
aI3
aI2
aI2
aI0
aI15
asg2450
(lp4544
g2450
ag2452
aS' 49.1'
p4545
aI52
aI21
aI19
aI6
aI13
aI1
aI35
asS'cappm001'
p4546
(lp4547
g4546
aS'Matt Capps'
p4548
aS' 29.1'
p4549
aI28
aI13
aI12
aI5
aI4
aI1
aI18
asS'carrd001'
p4550
(lp4551
g4550
aS'D.J. Carrasco'
p4552
aS'  3.2'
p4553
aI6
aI3
aI3
aI2
aI0
aI0
aI3
asS'dysos001'
p4554
(lp4555
g4554
aS'Sam Dyson'
p4556
aS'  0.2'
p4557
aI4
aI3
aI3
aI0
aI2
aI0
aI1
asg2468
(lp4558
g2468
ag2470
aS'152.1'
p4559
aI168
aI76
aI75
aI23
aI24
aI0
aI67
asg2471
(lp4560
g2471
ag2473
aS'  5.0'
p4561
aI7
aI4
aI3
aI1
aI3
aI0
aI5
asg593
(lp4562
g593
ag595
aS' 79.0'
p4563
aI76
aI42
aI40
aI9
aI34
aI7
aI81
asg2495
(lp4564
g2495
ag2497
aS' 21.1'
p4565
aI24
aI13
aI13
aI1
aI20
aI1
aI22
asS'downd001'
p4566
(lp4567
g4566
aS'Darin Downs'
p4568
aS' 20.2'
p4569
aI18
aI8
aI8
aI1
aI9
aI2
aI20
asg2501
(lp4570
g2501
ag2503
aS' 98.0'
p4571
aI112
aI61
aI53
aI15
aI41
aI4
aI81
asg2504
(lp4572
g2504
ag2506
aS' 44.0'
p4573
aI55
aI29
aI28
aI3
aI19
aI2
aI26
asS'strop001'
p4574
(lp4575
g4574
aS'Pedro Strop'
p4576
aS' 66.1'
p4577
aI52
aI18
aI18
aI2
aI37
aI2
aI58
asg2510
(lp4578
g2510
ag2512
aS'138.1'
p4579
aI129
aI62
aI56
aI18
aI29
aI0
aI143
asg2513
(lp4580
g2513
ag2515
aS' 90.1'
p4581
aI92
aI39
aI37
aI13
aI22
aI2
aI80
asg2519
(lp4582
g2519
ag2521
aS' 53.2'
p4583
aI57
aI35
aI34
aI7
aI23
aI0
aI30
asg2522
(lp4584
g2522
ag2524
aS'  1.0'
p4585
aI3
aI2
aI2
aI0
aI1
aI0
aI0
asg2525
(lp4586
g2525
ag2527
aS' 61.1'
p4587
aI70
aI40
aI39
aI11
aI23
aI0
aI51
asS'lowem002'
p4588
(lp4589
g4588
aS'Mark Lowe'
p4590
aS' 39.1'
p4591
aI35
aI15
aI15
aI5
aI13
aI0
aI28
asS'cassb001'
p4592
(lp4593
g4592
aS'Bobby Cassevah'
p4594
aS'  5.0'
p4595
aI5
aI4
aI4
aI2
aI6
aI1
aI2
asg2585
(lp4596
g2585
ag2587
aS'159.1'
p4597
aI154
aI76
aI69
aI20
aI49
aI4
aI116
asg2588
(lp4598
g2588
ag2590
aS' 57.1'
p4599
aI65
aI31
aI28
aI11
aI17
aI4
aI51
asg2591
(lp4600
g2591
ag2593
aS'176.0'
p4601
aI168
aI76
aI74
aI16
aI64
aI3
aI180
asS'perec002'
p4602
(lp4603
g4602
aS'Chris Perez'
p4604
aS' 57.2'
p4605
aI49
aI25
aI23
aI6
aI16
aI1
aI59
asg2609
(lp4606
g2609
ag2611
aS' 58.0'
p4607
aI72
aI37
aI34
aI7
aI22
aI1
aI54
asS'frees001'
p4608
(lp4609
g4608
aS'Sam Freeman'
p4610
aS' 20.0'
p4611
aI17
aI13
aI12
aI2
aI10
aI0
aI18
asS'durbc001'
p4612
(lp4613
g4612
aS'Chad Durbin'
p4614
aS' 61.0'
p4615
aI52
aI25
aI21
aI9
aI28
aI3
aI49
asS'kinnj001'
p4616
(lp4617
g4616
aS'Josh Kinney'
p4618
aS' 32.0'
p4619
aI24
aI14
aI14
aI3
aI15
aI3
aI36
asS'benoj001'
p4620
(lp4621
g4620
aS'Joaquin Benoit'
p4622
aS' 71.0'
p4623
aI59
aI31
aI29
aI14
aI22
aI2
aI84
asS'moylp001'
p4624
(lp4625
g4624
aS'Peter Moylan'
p4626
aS'  5.0'
p4627
aI3
aI3
aI1
aI1
aI2
aI0
aI2
asg2639
(lp4628
g2639
ag2641
aS' 24.0'
p4629
aI28
aI20
aI18
aI6
aI18
aI1
aI17
asg2648
(lp4630
g2648
ag2650
aS' 46.1'
p4631
aI42
aI23
aI22
aI5
aI19
aI1
aI52
asS'ekstm001'
p4632
(lp4633
g4632
aS'Mike Ekstrom'
p4634
aS' 15.2'
p4635
aI21
aI11
aI11
aI1
aI2
aI0
aI9
asg2654
(lp4636
g2654
ag2656
aS'170.1'
p4637
aI174
aI91
aI88
aI21
aI52
aI6
aI132
asg2660
(lp4638
g2660
ag2662
aS'166.0'
p4639
aI176
aI84
aI78
aI15
aI59
aI3
aI104
asg2666
(lp4640
g2666
ag2668
aS'198.1'
p4641
aI188
aI91
aI82
aI25
aI54
aI4
aI162
asS'jansc001'
p4642
(lp4643
g4642
aS'Casey Janssen'
p4644
aS' 63.2'
p4645
aI44
aI18
aI18
aI7
aI11
aI1
aI67
asg1862
(lp4646
g1862
ag1864
aS' 29.1'
p4647
aI30
aI20
aI19
aI6
aI13
aI0
aI21
asg281
(lp4648
g281
ag283
aS' 53.1'
p4649
aI37
aI21
aI20
aI5
aI23
aI1
aI53
asg2675
(lp4650
g2675
ag2677
aS' 13.1'
p4651
aI15
aI8
aI8
aI4
aI2
aI1
aI13
asS'wilsb001'
p4652
(lp4653
g4652
aS'Brian Wilson'
p4654
aS'  2.0'
p4655
aI4
aI2
aI2
aI0
aI2
aI0
aI2
asg2690
(lp4656
g2690
ag2692
aS' 13.2'
p4657
aI9
aI2
aI2
aI0
aI4
aI0
aI16
asS'romej001'
p4658
(lp4659
g4658
aS'J.C. Romero'
p4660
aS' 12.0'
p4661
aI21
aI13
aI12
aI4
aI3
aI0
aI6
asg710
(lp4662
g710
ag712
aS' 22.0'
p4663
aI24
aI11
aI11
aI8
aI7
aI0
aI20
asS'ohmaw001'
p4664
(lp4665
g4664
aS'Will Ohman'
p4666
aS' 26.2'
p4667
aI23
aI19
aI19
aI6
aI5
aI0
aI13
asg2702
(lp4668
g2702
ag2704
aS'212.1'
p4669
aI200
aI84
aI82
aI18
aI54
aI0
aI200
asg2708
(lp4670
g2708
ag2710
aS'  7.0'
p4671
aI6
aI4
aI4
aI2
aI8
aI1
aI10
asS'bellh001'
p4672
(lp4673
g4672
aS'Heath Bell'
p4674
aS' 63.2'
p4675
aI70
aI38
aI36
aI5
aI29
aI3
aI59
asg2723
(lp4676
g2723
ag2725
aS' 39.0'
p4677
aI36
aI17
aI17
aI5
aI14
aI0
aI41
asS'thomj006'
p4678
(lp4679
g4678
aS'Justin Thomas'
p4680
aS'  7.2'
p4681
aI12
aI7
aI7
aI1
aI3
aI0
aI7
asS'luekj001'
p4682
(lp4683
g4682
aS'Josh Lueke'
p4684
aS'  3.1'
p4685
aI9
aI7
aI7
aI0
aI3
aI0
aI2
asS'tolls002'
p4686
(lp4687
g4686
aS'Shawn Tolleson'
p4688
aS' 37.2'
p4689
aI30
aI19
aI18
aI4
aI20
aI1
aI39
asg1520
(lp4690
g1520
ag1522
aS'181.0'
p4691
aI198
aI122
aI116
aI21
aI105
aI1
aI124
asg2756
(lp4692
g2756
ag2758
aS' 29.2'
p4693
aI29
aI14
aI12
aI2
aI7
aI0
aI18
asg2762
(lp4694
g2762
ag2764
aS'232.0'
p4695
aI209
aI84
aI79
aI14
aI56
aI0
aI223
asS'defrj001'
p4696
(lp4697
g4696
aS'Justin De Fratus'
p4698
aS' 10.2'
p4699
aI7
aI5
aI4
aI0
aI5
aI1
aI8
asg2768
(lp4700
g2768
ag2770
aS'  8.2'
p4701
aI8
aI8
aI8
aI1
aI11
aI0
aI6
asg2822
(lp4702
g2822
ag2824
aS'152.1'
p4703
aI161
aI62
aI58
aI17
aI23
aI3
aI91
asg962
(lp4704
g962
ag964
aS'  1.0'
p4705
aI3
aI2
aI2
aI1
aI0
aI0
aI0
asS'figup001'
p4706
(lp4707
g4706
aS'Pedro Figueroa'
p4708
aS' 21.2'
p4709
aI16
aI9
aI8
aI2
aI15
aI1
aI14
asg2795
(lp4710
g2795
ag2797
aS'187.1'
p4711
aI216
aI110
aI101
aI29
aI54
aI2
aI79
asS'enrib001'
p4712
(lp4713
g4712
aS'Barry Enright'
p4714
aS'  3.2'
p4715
aI7
aI6
aI6
aI1
aI1
aI0
aI0
asS'milla002'
p4716
(lp4717
g4716
aS'Andrew Miller'
p4718
aS' 40.1'
p4719
aI28
aI15
aI15
aI3
aI20
aI1
aI51
asS'wadec001'
p4720
(lp4721
g4720
aS'Cory Wade'
p4722
aS' 39.0'
p4723
aI46
aI29
aI28
aI8
aI8
aI1
aI38
asg2810
(lp4724
g2810
ag2812
aS'  9.2'
p4725
aI8
aI4
aI3
aI1
aI5
aI0
aI7
asS'epplc001'
p4726
(lp4727
g4726
aS'Cody Eppley'
p4728
aS' 46.0'
p4729
aI46
aI19
aI17
aI3
aI17
aI2
aI32
asg2816
(lp4730
g2816
ag2818
aS' 60.1'
p4731
aI72
aI30
aI27
aI2
aI20
aI8
aI44
asS'sippt001'
p4732
(lp4733
g4732
aS'Tony Sipp'
p4734
aS' 55.0'
p4735
aI47
aI29
aI27
aI9
aI23
aI1
aI51
asS'ely-j001'
p4736
(lp4737
g4736
aS'John Ely'
p4738
aS'  2.2'
p4739
aI6
aI6
aI6
aI0
aI4
aI2
aI3
asg2825
(lp4740
g2825
ag2827
aS' 58.2'
p4741
aI59
aI31
aI30
aI8
aI20
aI0
aI49
asg2828
(lp4742
g2828
ag2830
aS'191.0'
p4743
aI207
aI106
aI100
aI29
aI34
aI5
aI166
asS'delre001'
p4744
(lp4745
g4744
aS'Enerio Del Rosario'
p4746
aS' 19.0'
p4747
aI34
aI21
aI19
aI1
aI7
aI0
aI11
asg2831
(lp4748
g2831
ag2833
aS'189.0'
p4749
aI178
aI80
aI77
aI20
aI53
aI3
aI140
asS'friee001'
p4750
(lp4751
g4750
aS'Ernesto Frieri'
p4752
aS' 66.0'
p4753
aI35
aI20
aI17
aI9
aI30
aI0
aI98
asg2834
(lp4754
g2834
ag2836
aS'157.2'
p4755
aI196
aI103
aI99
aI23
aI52
aI1
aI104
asg2837
(lp4756
g2837
ag2839
aS' 69.0'
p4757
aI80
aI35
aI34
aI10
aI32
aI0
aI45
asg2840
(lp4758
g2840
ag2842
aS'179.1'
p4759
aI151
aI88
aI82
aI26
aI56
aI7
aI145
asa.