(lp0
(dp1
S'broxk001'
p2
(lp3
g2
aS'Keon Broxton'
p4
aI2
aI2
aI3
aI0
aI0
aI0
aI0
aI0
aI1
aI1
aI0
aI1
aI0
asS'garca004'
p5
(lp6
g5
aS'Adonis Garcia'
p7
aI198
aI191
aI20
aI53
aI12
aI0
aI10
aI26
aI0
aI0
aI5
aI35
aI95
asS'lylej001'
p8
(lp9
g8
aS'Jordan Lyles'
p10
aI19
aI19
aI0
aI0
aI0
aI0
aI0
aI0
aI0
aI0
aI0
aI11
aI0
asS'garca003'
p11
(lp12
g11
aS'Avisail Garcia'
p13
aI601
aI553
aI66
aI142
aI17
aI2
aI13
aI59
aI7
aI7
aI36
aI141
aI202
asS'torrc001'
p14
(lp15
g14
aS'Carlos Torres'
p16
aI1
aI1
aI1
aI1
aI0
aI0
aI0
aI0
aI0
aI0
aI0
aI0
aI1
asS'belta001'
p17
(lp18
g17
aS'Adrian Beltre'
p19
aI619
aI567
aI83
aI163
aI32
aI4
aI18
aI83
aI1
aI0
aI41
aI65
aI257
asS'corde001'
p20
(lp21
g20
aS'Erik Cordier'
p22
aI1
aI0
aI0
aI0
aI0
aI0
aI0
aI0
aI0
aI0
aI0
aI0
aI0
asS'sampk001'
p23
(lp24
g23
aS'Keyvius Sampson'
p25
aI17
aI16
aI1
aI0
aI0
aI0
aI0
aI0
aI0
aI0
aI0
aI11
aI0
asS'florr003'
p26
(lp27
g26
aS'Ramon Flores'
p28
aI33
aI32
aI3
aI7
aI1
aI0
aI0
aI0
aI0
aI0
aI0
aI4
aI8
asS'gonzc001'
p29
(lp30
g29
aS'Carlos Gonzalez'
p31
aI608
aI554
aI87
aI150
aI25
aI2
aI40
aI97
aI2
aI0
aI46
aI133
aI299
asS'pagaa001'
p32
(lp33
g32
aS'Angel Pagan'
p34
aI551
aI512
aI55
aI134
aI21
aI3
aI3
aI37
aI12
aI4
aI32
aI93
aI170
asS'aybae001'
p35
(lp36
g35
aS'Erick Aybar'
p37
aI638
aI597
aI74
aI161
aI30
aI1
aI3
aI44
aI15
aI6
aI25
aI73
aI202
asS'basta001'
p38
(lp39
g38
aS'Antonio Bastardo'
p40
aI2
aI2
aI0
aI0
aI0
aI0
aI0
aI0
aI0
aI0
aI0
aI2
aI0
asS'telit001'
p41
(lp42
g41
aS'Tomas Telis'
p43
aI41
aI38
aI2
aI6
aI0
aI0
aI0
aI2
aI0
aI0
aI1
aI4
aI6
asS'ashea001'
p44
(lp45
g44
aS'Alec Asher'
p46
aI6
aI6
aI0
aI2
aI1
aI0
aI0
aI0
aI0
aI0
aI0
aI3
aI3
asS'tejar001'
p47
(lp48
g47
aS'Ruben Tejada'
p49
aI407
aI360
aI36
aI94
aI23
aI0
aI3
aI28
aI2
aI1
aI38
aI70
aI126
asS'cuthc001'
p50
(lp51
g50
aS'Cheslor Cuthbert'
p52
aI50
aI46
aI6
aI10
aI2
aI1
aI1
aI8
aI0
aI0
aI4
aI9
aI17
asS'maris001'
p53
(lp54
g53
aS'Sugar Ray Marimon'
p55
aI7
aI6
aI0
aI2
aI0
aI0
aI0
aI0
aI0
aI0
aI1
aI3
aI2
asS'kellj001'
p56
(lp57
g56
aS'Joe Kelly'
p58
aI5
aI5
aI0
aI1
aI0
aI0
aI0
aI1
aI0
aI0
aI0
aI2
aI1
asS'darnt001'
p59
(lp60
g59
aS"Travis d'Arnaud"
p61
aI268
aI239
aI31
aI64
aI14
aI1
aI12
aI41
aI0
aI0
aI23
aI49
aI116
asS'herrc001'
p62
(lp63
g62
aS'Chris Herrmann'
p64
aI113
aI103
aI13
aI15
aI5
aI1
aI2
aI10
aI0
aI0
aI7
aI37
aI28
asS'cainm001'
p65
(lp66
g65
aS'Matt Cain'
p67
aI20
aI16
aI0
aI0
aI0
aI0
aI0
aI1
aI0
aI0
aI0
aI9
aI0
asS'willj003'
p68
(lp69
g68
aS'Jerome Williams'
p70
aI36
aI31
aI0
aI2
aI1
aI0
aI0
aI1
aI0
aI0
aI1
aI14
aI3
asS'sogae001'
p71
(lp72
g71
aS'Eric Sogard'
p73
aI401
aI372
aI40
aI92
aI12
aI3
aI1
aI37
aI6
aI1
aI23
aI50
aI113
asS'burre001'
p74
(lp75
g74
aS'Emmanuel Burriss'
p76
aI5
aI3
aI2
aI2
aI0
aI0
aI0
aI0
aI0
aI0
aI2
aI0
aI2
asS'hoesl001'
p77
(lp78
g77
aS'L.J. Hoes'
p79
aI16
aI15
aI1
aI4
aI0
aI0
aI0
aI1
aI0
aI0
aI1
aI3
aI4
asS'willj005'
p80
(lp81
g80
aS'Jackson Williams'
p82
aI14
aI10
aI1
aI2
aI1
aI0
aI0
aI1
aI1
aI0
aI4
aI1
aI3
asS'gallj002'
p83
(lp84
g83
aS'Joey Gallo'
p85
aI123
aI108
aI16
aI22
aI3
aI1
aI6
aI14
aI3
aI0
aI15
aI57
aI45
asS'nieuk001'
p86
(lp87
g86
aS'Kirk Nieuwenhuis'
p88
aI141
aI128
aI21
aI25
aI11
aI0
aI4
aI14
aI2
aI2
aI10
aI49
aI48
asS'bethc001'
p89
(lp90
g89
aS'Christian Bethancourt'
p91
aI160
aI155
aI16
aI31
aI8
aI0
aI2
aI12
aI1
aI1
aI5
aI33
aI45
asS'maldm001'
p92
(lp93
g92
aS'Martin Maldonado'
p94
aI256
aI229
aI19
aI48
aI7
aI0
aI4
aI22
aI0
aI1
aI23
aI65
aI67
asS'heywj001'
p95
(lp96
g95
aS'Jason Heyward'
p97
aI610
aI547
aI79
aI160
aI33
aI4
aI13
aI60
aI23
aI3
aI56
aI90
aI240
asS'sanca004'
p98
(lp99
g98
aS'Anibal Sanchez'
p100
aI4
aI4
aI0
aI0
aI0
aI0
aI0
aI0
aI0
aI0
aI0
aI4
aI0
asS'hughj001'
p101
(lp102
g101
aS'Jared Hughes'
p103
aI1
aI0
aI0
aI0
aI0
aI0
aI0
aI0
aI0
aI0
aI0
aI0
aI0
asS'lecus001'
p104
(lp105
g104
aS'Sam LeCure'
p106
aI1
aI1
aI0
aI0
aI0
aI0
aI0
aI0
aI0
aI0
aI0
aI0
aI0
asS'mcgod001'
p107
(lp108
g107
aS'Dustin McGowan'
p109
aI3
aI3
aI0
aI0
aI0
aI0
aI0
aI0
aI0
aI0
aI0
aI3
aI0
asS'nerih001'
p110
(lp111
g110
aS'Hector Neris'
p112
aI1
aI1
aI0
aI0
aI0
aI0
aI0
aI0
aI0
aI0
aI0
aI1
aI0
asS'gally001'
p113
(lp114
g113
aS'Yovani Gallardo'
p115
aI4
aI4
aI0
aI2
aI1
aI0
aI0
aI0
aI0
aI0
aI0
aI1
aI3
asS'crawc002'
p116
(lp117
g116
aS'Carl Crawford'
p118
aI193
aI181
aI19
aI48
aI9
aI2
aI4
aI16
aI10
aI2
aI10
aI41
aI73
asS'voger001'
p119
(lp120
g119
aS'Ryan Vogelsong'
p121
aI45
aI36
aI3
aI5
aI1
aI0
aI1
aI2
aI0
aI0
aI1
aI13
aI9
asS'rodra001'
p122
(lp123
g122
aS'Alex Rodriguez'
p124
aI620
aI523
aI83
aI131
aI22
aI1
aI33
aI86
aI4
aI0
aI84
aI145
aI254
asS'davir003'
p125
(lp126
g125
aS'Rajai Davis'
p127
aI370
aI341
aI55
aI88
aI16
aI11
aI8
aI30
aI18
aI8
aI22
aI76
aI150
asS'paulb001'
p128
(lp129
g128
aS'Ben Paulsen'
p130
aI354
aI325
aI42
aI90
aI19
aI4
aI11
aI49
aI1
aI2
aI23
aI92
aI150
asS'wilsj003'
p131
(lp132
g131
aS'Josh Wilson'
p133
aI41
aI38
aI4
aI12
aI3
aI0
aI0
aI5
aI0
aI0
aI0
aI15
aI15
asS'fulds001'
p134
(lp135
g134
aS'Sam Fuld'
p136
aI325
aI290
aI34
aI57
aI16
aI3
aI2
aI22
aI9
aI3
aI30
aI55
aI85
asS'osicj001'
p137
(lp138
g137
aS'Josh Osich'
p139
aI3
aI1
aI0
aI0
aI0
aI0
aI0
aI0
aI0
aI0
aI0
aI1
aI0
asS'dornd001'
p140
(lp141
g140
aS'Danny Dorn'
p142
aI32
aI30
aI0
aI5
aI1
aI0
aI0
aI3
aI0
aI0
aI2
aI10
aI6
asS'cespy001'
p143
(lp144
g143
aS'Yoenis Cespedes'
p145
aI676
aI633
aI101
aI184
aI42
aI6
aI35
aI105
aI7
aI5
aI33
aI141
aI343
asS'flowt001'
p146
(lp147
g146
aS'Tyler Flowers'
p148
aI361
aI331
aI21
aI79
aI12
aI0
aI9
aI39
aI0
aI1
aI21
aI104
aI118
asS'josec002'
p149
(lp150
g149
aS'Caleb Joseph'
p151
aI355
aI320
aI38
aI75
aI16
aI1
aI11
aI49
aI0
aI0
aI27
aI72
aI126
asS'galvf001'
p152
(lp153
g152
aS'Freddy Galvis'
p154
aI603
aI559
aI63
aI147
aI14
aI5
aI7
aI50
aI10
aI1
aI30
aI103
aI192
asS'norrb001'
p155
(lp156
g155
aS'Bud Norris'
p157
aI4
aI4
aI0
aI0
aI0
aI0
aI0
aI0
aI0
aI0
aI0
aI1
aI0
asS'joycm001'
p158
(lp159
g158
aS'Matthew Joyce'
p160
aI284
aI247
aI17
aI43
aI12
aI1
aI5
aI21
aI0
aI3
aI30
aI67
aI72
asS'lewic001'
p161
(lp162
g161
aS'Colby Lewis'
p163
aI2
aI2
aI0
aI0
aI0
aI0
aI0
aI0
aI0
aI0
aI0
aI2
aI0
asS'moyas001'
p164
(lp165
g164
aS'Steven Moya'
p166
aI25
aI22
aI1
aI4
aI0
aI1
aI0
aI0
aI0
aI0
aI3
aI10
aI6
asS'jimeu001'
p167
(lp168
g167
aS'Ubaldo Jimenez'
p169
aI8
aI8
aI0
aI2
aI0
aI0
aI0
aI2
aI0
aI0
aI0
aI4
aI2
asS'adamm002'
p170
(lp171
g170
aS'Matt Adams'
p172
aI186
aI175
aI14
aI42
aI9
aI0
aI5
aI24
aI1
aI0
aI10
aI41
aI66
asS'rogej002'
p173
(lp174
g173
aS'Jason Rogers'
p175
aI169
aI152
aI22
aI45
aI6
aI2
aI4
aI16
aI0
aI0
aI15
aI34
aI67
asS'rodrw002'
p176
(lp177
g176
aS'Wandy Rodriguez'
p178
aI2
aI2
aI1
aI1
aI0
aI0
aI0
aI0
aI0
aI0
aI0
aI0
aI1
asS'kierk001'
p179
(lp180
g179
aS'Kevin Kiermaier'
p181
aI535
aI505
aI62
aI133
aI25
aI12
aI10
aI40
aI18
aI5
aI24
aI95
aI212
asS'mcbrm002'
p182
(lp183
g182
aS'Matt McBride'
p184
aI43
aI42
aI5
aI7
aI0
aI0
aI0
aI0
aI0
aI0
aI0
aI4
aI7
asS'scrux001'
p185
(lp186
g185
aS'Xavier Scruggs'
p187
aI43
aI42
aI5
aI11
aI2
aI0
aI0
aI7
aI1
aI0
aI0
aI10
aI13
asS'hendl001'
p188
(lp189
g188
aS'Liam Hendriks'
p190
aI1
aI0
aI0
aI0
aI0
aI0
aI0
aI0
aI0
aI0
aI1
aI0
aI0
asS'tomay001'
p191
(lp192
g191
aS'Yasmany Tomas'
p193
aI426
aI406
aI40
aI111
aI19
aI3
aI9
aI48
aI5
aI2
aI17
aI110
aI163
asS'eovan001'
p194
(lp195
g194
aS'Nathan Eovaldi'
p196
aI5
aI5
aI1
aI0
aI0
aI0
aI0
aI0
aI0
aI0
aI0
aI2
aI0
asS'friac001'
p197
(lp198
g197
aS'Carlos Frias'
p199
aI24
aI21
aI1
aI1
aI0
aI0
aI0
aI0
aI0
aI0
aI1
aI12
aI1
asS'morrl001'
p200
(lp201
g200
aS'Logan Morrison'
p202
aI511
aI457
aI47
aI103
aI15
aI3
aI17
aI54
aI8
aI4
aI47
aI81
aI175
asS'kontg001'
p203
(lp204
g203
aS'George Kontos'
p205
aI3
aI2
aI0
aI0
aI0
aI0
aI0
aI0
aI0
aI0
aI0
aI2
aI0
asS'conla001'
p206
(lp207
g206
aS'Adam Conley'
p208
aI22
aI18
aI0
aI4
aI0
aI0
aI0
aI1
aI0
aI0
aI0
aI8
aI4
asS'morga001'
p209
(lp210
g209
aS'Adam Morgan'
p211
aI27
aI26
aI2
aI2
aI1
aI0
aI0
aI1
aI0
aI0
aI0
aI12
aI3
asS'santd002'
p212
(lp213
g212
aS'Domingo Santana'
p214
aI187
aI160
aI20
aI38
aI7
aI0
aI8
aI26
aI4
aI1
aI20
aI63
aI69
asS'barnd001'
p215
(lp216
g215
aS'Darwin Barney'
p217
aI30
aI27
aI4
aI7
aI1
aI0
aI2
aI4
aI0
aI0
aI1
aI2
aI14
asS'waltz001'
p218
(lp219
g218
aS'Zach Walters'
p220
aI30
aI30
aI0
aI4
aI0
aI0
aI0
aI3
aI0
aI0
aI0
aI15
aI4
asS'smitj004'
p221
(lp222
g221
aS'Josh Smith'
p223
aI10
aI9
aI1
aI2
aI0
aI1
aI0
aI0
aI0
aI0
aI0
aI4
aI4
asS'lohsk001'
p224
(lp225
g224
aS'Kyle Lohse'
p226
aI42
aI39
aI3
aI9
aI1
aI0
aI0
aI1
aI0
aI0
aI0
aI10
aI10
asS'fistd001'
p227
(lp228
g227
aS'Doug Fister'
p229
aI39
aI31
aI2
aI7
aI1
aI0
aI0
aI0
aI0
aI0
aI2
aI15
aI8
asS'riosa002'
p230
(lp231
g230
aS'Alex Rios'
p232
aI411
aI385
aI40
aI98
aI22
aI2
aI4
aI32
aI9
aI0
aI15
aI67
aI136
asS'dysoj001'
p233
(lp234
g233
aS'Jarrod Dyson'
p235
aI225
aI200
aI31
aI50
aI8
aI6
aI2
aI18
aI26
aI3
aI14
aI37
aI76
asS'smoaj001'
p236
(lp237
g236
aS'Justin Smoak'
p238
aI328
aI296
aI44
aI67
aI16
aI1
aI18
aI59
aI0
aI0
aI29
aI86
aI139
asS'jimel002'
p239
(lp240
g239
aS'Luis Jimenez'
p241
aI17
aI16
aI1
aI1
aI0
aI0
aI0
aI0
aI0
aI0
aI1
aI6
aI1
asS'delgr001'
p242
(lp243
g242
aS'Randall Delgado'
p244
aI2
aI1
aI0
aI0
aI0
aI0
aI0
aI0
aI0
aI0
aI0
aI1
aI0
asS'kraum001'
p245
(lp246
g245
aS'Marc Krauss'
p247
aI81
aI78
aI3
aI11
aI3
aI0
aI2
aI8
aI0
aI0
aI3
aI31
aI20
asS'montr004'
p248
(lp249
g248
aS'Rafael Montero'
p250
aI2
aI2
aI0
aI0
aI0
aI0
aI0
aI0
aI0
aI0
aI0
aI1
aI0
asS'dendm001'
p251
(lp252
g251
aS'Matt den Dekker'
p253
aI110
aI99
aI12
aI25
aI6
aI1
aI5
aI12
aI0
aI1
aI9
aI20
aI48
asS'odorr001'
p254
(lp255
g254
aS'Rougned Odor'
p256
aI470
aI426
aI54
aI111
aI21
aI9
aI16
aI61
aI6
aI7
aI23
aI79
aI198
asS'utlec001'
p257
(lp258
g257
aS'Chase Utley'
p259
aI423
aI373
aI37
aI79
aI21
aI2
aI8
aI39
aI4
aI0
aI32
aI64
aI128
asS'schoj001'
p260
(lp261
g260
aS'Jonathan Schoop'
p262
aI321
aI305
aI34
aI85
aI17
aI0
aI15
aI39
aI2
aI0
aI9
aI79
aI147
asS'hundn001'
p263
(lp264
g263
aS'Nick Hundley'
p265
aI389
aI366
aI45
aI110
aI21
aI5
aI10
aI43
aI5
aI6
aI21
aI76
aI171
asS'bassc001'
p266
(lp267
g266
aS'Chris Bassitt'
p268
aI2
aI2
aI0
aI0
aI0
aI0
aI0
aI0
aI0
aI0
aI0
aI1
aI0
asS'frazt001'
p269
(lp270
g269
aS'Todd Frazier'
p271
aI678
aI619
aI82
aI158
aI43
aI1
aI35
aI89
aI13
aI8
aI44
aI137
aI308
asS'navad001'
p272
(lp273
g272
aS'Dioner Navarro'
p274
aI192
aI171
aI17
aI42
aI7
aI0
aI5
aI20
aI0
aI0
aI17
aI29
aI64
asS'navad002'
p275
(lp276
g275
aS'Daniel Nava'
p277
aI166
aI139
aI13
aI27
aI4
aI0
aI1
aI10
aI1
aI0
aI20
aI36
aI34
asS'pedej001'
p278
(lp279
g278
aS'Joc Pederson'
p280
aI585
aI480
aI67
aI101
aI19
aI1
aI26
aI54
aI4
aI7
aI92
aI170
aI200
asS'avilm001'
p281
(lp282
g281
aS'Mike Aviles'
p283
aI317
aI290
aI37
aI67
aI10
aI0
aI5
aI17
aI3
aI1
aI20
aI38
aI92
asS'trumm001'
p284
(lp285
g284
aS'Mark Trumbo'
p286
aI545
aI508
aI62
aI133
aI23
aI3
aI22
aI64
aI0
aI0
aI36
aI132
aI228
asS'teagt001'
p287
(lp288
g287
aS'Taylor Teagarden'
p289
aI15
aI15
aI0
aI3
aI0
aI0
aI0
aI2
aI0
aI0
aI0
aI4
aI3
asS'calio001'
p290
(lp291
g290
aS'Orlando Calixte'
p292
aI3
aI3
aI1
aI0
aI0
aI0
aI0
aI0
aI0
aI0
aI0
aI0
aI0
asS'gonzm002'
p293
(lp294
g293
aS'Marwin Gonzalez'
p295
aI370
aI344
aI44
aI96
aI18
aI1
aI12
aI34
aI4
aI5
aI16
aI74
aI152
asS'linct001'
p296
(lp297
g296
aS'Tim Lincecum'
p298
aI25
aI21
aI0
aI3
aI1
aI0
aI0
aI0
aI0
aI0
aI2
aI10
aI4
asS'colea002'
p299
(lp300
g299
aS'A.J. Cole'
p301
aI2
aI2
aI0
aI0
aI0
aI0
aI0
aI0
aI0
aI0
aI0
aI0
aI0
asS'gonzm006'
p302
(lp303
g302
aS'Miguel Gonzalez'
p304
aI1
aI1
aI0
aI0
aI0
aI0
aI0
aI0
aI0
aI0
aI0
aI0
aI0
asS'garcl004'
p305
(lp306
g305
aS'Leury Garcia'
p307
aI15
aI14
aI0
aI3
aI0
aI0
aI0
aI1
aI1
aI0
aI1
aI7
aI3
asS'parej002'
p308
(lp309
g308
aS'Jimmy Paredes'
p310
aI384
aI363
aI46
aI100
aI17
aI2
aI10
aI42
aI4
aI4
aI19
aI111
aI151
asS'stasm001'
p311
(lp312
g311
aS'Max Stassi'
p313
aI17
aI15
aI4
aI6
aI0
aI0
aI1
aI2
aI0
aI0
aI1
aI5
aI9
asS'hamib001'
p314
(lp315
g314
aS'Billy Hamilton'
p316
aI454
aI412
aI56
aI93
aI8
aI3
aI4
aI28
aI57
aI8
aI28
aI75
aI119
asS'gutif001'
p317
(lp318
g317
aS'Franklin Gutierrez'
p319
aI189
aI171
aI27
aI50
aI11
aI0
aI15
aI35
aI0
aI0
aI14
aI54
aI106
asS'field001'
p320
(lp321
g320
aS'Daniel Fields'
p322
aI3
aI3
aI1
aI1
aI1
aI0
aI0
aI0
aI0
aI0
aI0
aI2
aI2
asS'mchuc001'
p323
(lp324
g323
aS'Collin McHugh'
p325
aI8
aI8
aI1
aI1
aI0
aI0
aI0
aI0
aI0
aI0
aI0
aI4
aI1
asS'nelsj004'
p326
(lp327
g326
aS'Jimmy Nelson'
p328
aI59
aI55
aI1
aI6
aI1
aI0
aI0
aI2
aI0
aI0
aI1
aI34
aI7
asS'willm008'
p329
(lp330
g329
aS'Mac Williamson'
p331
aI34
aI32
aI2
aI7
aI0
aI1
aI0
aI1
aI0
aI0
aI0
aI8
aI9
asS'lairg001'
p332
(lp333
g332
aS'Gerald Laird'
p334
aI2
aI2
aI0
aI0
aI0
aI0
aI0
aI0
aI0
aI0
aI0
aI0
aI0
asS'iglej001'
p335
(lp336
g335
aS'Jose Iglesias'
p337
aI454
aI416
aI44
aI125
aI17
aI3
aI2
aI23
aI11
aI8
aI25
aI44
aI154
asS'carpm002'
p338
(lp339
g338
aS'Matt Carpenter'
p340
aI665
aI574
aI101
aI156
aI44
aI3
aI28
aI84
aI4
aI3
aI81
aI151
aI290
asS'handb001'
p341
(lp342
g341
aS'Brad Hand'
p343
aI23
aI17
aI1
aI2
aI0
aI0
aI0
aI2
aI0
aI0
aI0
aI5
aI2
asS'detwr001'
p344
(lp345
g344
aS'Ross Detwiler'
p346
aI1
aI1
aI0
aI0
aI0
aI0
aI0
aI0
aI0
aI0
aI0
aI1
aI0
asS'bandj001'
p347
(lp348
g347
aS'Jett Bandy'
p349
aI2
aI2
aI1
aI1
aI0
aI0
aI1
aI1
aI0
aI0
aI0
aI0
aI4
asS'morem001'
p350
(lp351
g350
aS'Mitch Moreland'
p352
aI515
aI471
aI51
aI131
aI27
aI0
aI23
aI85
aI1
aI0
aI32
aI112
aI227
asS'chisl001'
p353
(lp354
g353
aS'Lonnie Chisenhall'
p355
aI362
aI333
aI38
aI82
aI19
aI1
aI7
aI44
aI4
aI1
aI23
aI69
aI124
asS'refsr001'
p356
(lp357
g356
aS'Rob Refsnyder'
p358
aI47
aI43
aI3
aI13
aI3
aI0
aI2
aI5
aI2
aI0
aI3
aI7
aI22
asS'surke001'
p359
(lp360
g359
aS'Eric Surkamp'
p361
aI1
aI0
aI0
aI0
aI0
aI0
aI0
aI0
aI0
aI0
aI0
aI0
aI0
asS'howar001'
p362
(lp363
g362
aS'Ryan Howard'
p364
aI503
aI467
aI53
aI107
aI29
aI1
aI23
aI77
aI0
aI0
aI27
aI138
aI207
asS'fielp001'
p365
(lp366
g365
aS'Prince Fielder'
p367
aI693
aI613
aI78
aI187
aI28
aI0
aI23
aI98
aI0
aI0
aI64
aI88
aI284
asS'smits002'
p368
(lp369
g368
aS'Seth Smith'
p370
aI452
aI395
aI54
aI98
aI31
aI5
aI12
aI42
aI0
aI0
aI47
aI99
aI175
asS'realj001'
p371
(lp372
g371
aS'J.T. Realmuto'
p373
aI467
aI441
aI49
aI114
aI21
aI7
aI10
aI47
aI8
aI4
aI19
aI70
aI179
asS'hilla001'
p374
(lp375
g374
aS'Aaron Hill'
p376
aI353
aI313
aI32
aI72
aI18
aI0
aI6
aI39
aI7
aI2
aI31
aI54
aI108
asS'confm001'
p377
(lp378
g377
aS'Michael Conforto'
p379
aI194
aI174
aI30
aI47
aI14
aI0
aI9
aI26
aI0
aI1
aI17
aI39
aI88
asS'castr004'
p380
(lp381
g380
aS'Rusney Castillo'
p382
aI289
aI273
aI35
aI69
aI10
aI2
aI5
aI29
aI4
aI5
aI13
aI54
aI98
asS'brigr001'
p383
(lp384
g383
aS'Reid Brignac'
p385
aI17
aI13
aI2
aI1
aI0
aI0
aI0
aI0
aI0
aI0
aI3
aI5
aI1
asS'loewa001'
p386
(lp387
g386
aS'Adam Loewen'
p388
aI3
aI3
aI0
aI1
aI0
aI0
aI0
aI0
aI0
aI0
aI0
aI0
aI1
asS'simoa001'
p389
(lp390
g389
aS'Alfredo Simon'
p391
aI5
aI5
aI0
aI0
aI0
aI0
aI0
aI0
aI0
aI0
aI0
aI2
aI0
asS'nolar001'
p392
(lp393
g392
aS'Ricky Nolasco'
p394
aI3
aI3
aI0
aI0
aI0
aI0
aI0
aI0
aI0
aI0
aI0
aI3
aI0
asS'garcg002'
p395
(lp396
g395
aS'Greg Garcia'
p397
aI87
aI75
aI7
aI18
aI5
aI0
aI2
aI4
aI0
aI0
aI10
aI12
aI29
asS'pachj001'
p398
(lp399
g398
aS'Jordan Pacheco'
p400
aI78
aI66
aI8
aI16
aI0
aI0
aI2
aI8
aI1
aI0
aI9
aI14
aI22
asS'wilst004'
p401
(lp402
g401
aS'Tyler Wilson'
p403
aI3
aI2
aI0
aI0
aI0
aI0
aI0
aI0
aI0
aI0
aI0
aI0
aI0
asS'maxwj002'
p404
(lp405
g404
aS'Justin Maxwell'
p406
aI274
aI249
aI26
aI52
aI8
aI2
aI7
aI26
aI2
aI1
aI20
aI76
aI85
asS'websa001'
p407
(lp408
g407
aS'Allen Webster'
p409
aI11
aI11
aI1
aI0
aI0
aI0
aI0
aI0
aI0
aI0
aI0
aI6
aI0
asS'herrj002'
p410
(lp411
g410
aS'Jonathan Herrera'
p412
aI132
aI126
aI14
aI29
aI5
aI1
aI2
aI14
aI3
aI0
aI2
aI23
aI42
asS'mckem001'
p413
(lp414
g413
aS'Michael McKenry'
p415
aI152
aI127
aI20
aI26
aI7
aI3
aI4
aI17
aI2
aI2
aI22
aI41
aI51
asS'lollr001'
p416
(lp417
g416
aS'Ryan Lollis'
p418
aI13
aI12
aI0
aI2
aI0
aI0
aI0
aI0
aI1
aI0
aI1
aI1
aI2
asS'fowld001'
p419
(lp420
g419
aS'Dexter Fowler'
p421
aI690
aI596
aI102
aI149
aI29
aI8
aI17
aI46
aI20
aI7
aI84
aI154
aI245
asS'cahit001'
p422
(lp423
g422
aS'Trevor Cahill'
p424
aI8
aI7
aI0
aI1
aI0
aI0
aI0
aI0
aI0
aI0
aI1
aI2
aI1
asS'solad001'
p425
(lp426
g425
aS'Donovan Solano'
p427
aI94
aI90
aI6
aI17
aI3
aI1
aI0
aI7
aI0
aI0
aI1
aI18
aI22
asS'pennc001'
p428
(lp429
g428
aS'Cliff Pennington'
p430
aI249
aI210
aI24
aI44
aI6
aI0
aI3
aI21
aI3
aI0
aI27
aI49
aI59
asS'bauet001'
p431
(lp432
g431
aS'Trevor Bauer'
p433
aI7
aI6
aI0
aI1
aI0
aI0
aI0
aI0
aI0
aI0
aI1
aI1
aI1
asS'arenj001'
p434
(lp435
g434
aS'J.P. Arencibia'
p436
aI73
aI71
aI9
aI22
aI3
aI0
aI6
aI17
aI0
aI0
aI1
aI22
aI43
asS'goret001'
p437
(lp438
g437
aS'Terrance Gore'
p439
aI4
aI3
aI1
aI0
aI0
aI0
aI0
aI0
aI3
aI0
aI0
aI1
aI0
asS'blank002'
p440
(lp441
g440
aS'Kyle Blanks'
p442
aI71
aI67
aI10
aI21
aI5
aI0
aI3
aI6
aI1
aI0
aI4
aI20
aI35
asS'ynoar001'
p443
(lp444
g443
aS'Rafael Ynoa'
p445
aI131
aI127
aI14
aI33
aI8
aI1
aI0
aI9
aI1
aI0
aI3
aI28
aI43
asS'pradm001'
p446
(lp447
g446
aS'Martin Prado'
p448
aI551
aI500
aI52
aI144
aI22
aI2
aI9
aI63
aI1
aI0
aI37
aI68
aI197
asS'peraw001'
p449
(lp450
g449
aS'Wily Peralta'
p451
aI37
aI30
aI1
aI1
aI0
aI0
aI0
aI1
aI0
aI0
aI3
aI15
aI1
asS'leakm001'
p452
(lp453
g452
aS'Mike Leake'
p454
aI73
aI69
aI4
aI8
aI3
aI0
aI2
aI8
aI0
aI0
aI0
aI36
aI17
asS'petej002'
p455
(lp456
g455
aS'Jace Peterson'
p457
aI597
aI528
aI55
aI126
aI23
aI5
aI6
aI52
aI12
aI10
aI56
aI120
aI177
asS'rossc001'
p458
(lp459
g458
aS'Cody Ross'
p460
aI25
aI22
aI3
aI2
aI0
aI0
aI0
aI3
aI0
aI0
aI3
aI6
aI2
asS'rodoc001'
p461
(lp462
g461
aS'Carlos Rodon'
p463
aI3
aI1
aI0
aI0
aI0
aI0
aI0
aI0
aI0
aI0
aI0
aI1
aI0
asS'lombs002'
p464
(lp465
g464
aS'Steve Lombardozzi'
p466
aI11
aI10
aI1
aI0
aI0
aI0
aI0
aI0
aI0
aI0
aI1
aI4
aI0
asS'sanct001'
p467
(lp468
g467
aS'Tony Sanchez'
p469
aI9
aI8
aI2
aI3
aI0
aI0
aI0
aI0
aI0
aI0
aI1
aI3
aI3
asS'johnr008'
p470
(lp471
g470
aS'Reed Johnson'
p472
aI24
aI22
aI0
aI5
aI1
aI0
aI0
aI3
aI0
aI0
aI0
aI6
aI6
asS'copes001'
p473
(lp474
g473
aS'Scott Copeland'
p475
aI1
aI1
aI0
aI0
aI0
aI0
aI0
aI0
aI0
aI0
aI0
aI1
aI0
asS'walkc002'
p476
(lp477
g476
aS'Christian Walker'
p478
aI12
aI9
aI0
aI1
aI0
aI0
aI0
aI0
aI0
aI0
aI3
aI4
aI1
asS'donaj001'
p479
(lp480
g479
aS'Josh Donaldson'
p481
aI711
aI620
aI122
aI184
aI41
aI2
aI41
aI123
aI6
aI0
aI73
aI133
aI352
asS'manes001'
p482
(lp483
g482
aS'Seth Maness'
p484
aI3
aI3
aI0
aI0
aI0
aI0
aI0
aI0
aI0
aI0
aI0
aI2
aI0
asS'pillk001'
p485
(lp486
g485
aS'Kevin Pillar'
p487
aI628
aI586
aI76
aI163
aI31
aI2
aI12
aI56
aI25
aI4
aI28
aI85
aI234
asS'weekj001'
p488
(lp489
g488
aS'Jemile Weeks'
p490
aI9
aI9
aI1
aI3
aI0
aI0
aI0
aI1
aI0
aI0
aI0
aI2
aI3
asS'brits001'
p491
(lp492
g491
aS'Socrates Brito'
p493
aI34
aI33
aI5
aI10
aI3
aI1
aI0
aI1
aI1
aI0
aI1
aI7
aI15
asS'torrr001'
p494
(lp495
g494
aS'Ronald Torreyes'
p496
aI8
aI6
aI1
aI2
aI1
aI0
aI0
aI1
aI0
aI0
aI1
aI1
aI3
asS'chafa001'
p497
(lp498
g497
aS'Andrew Chafin'
p499
aI3
aI3
aI0
aI0
aI0
aI0
aI0
aI0
aI0
aI0
aI0
aI1
aI0
asS'machj002'
p500
(lp501
g500
aS'Jean Machi'
p502
aI3
aI3
aI0
aI0
aI0
aI0
aI0
aI0
aI0
aI0
aI0
aI2
aI0
asS'hardj003'
p503
(lp504
g503
aS'J.J. Hardy'
p505
aI437
aI411
aI45
aI90
aI14
aI0
aI8
aI37
aI0
aI0
aI20
aI88
aI128
asS'stubd001'
p506
(lp507
g506
aS'Drew Stubbs'
p508
aI140
aI123
aI20
aI24
aI4
aI2
aI5
aI10
aI5
aI1
aI14
aI60
aI47
asS'cruzt002'
p509
(lp510
g509
aS'Tony Cruz'
p511
aI151
aI142
aI6
aI29
aI7
aI1
aI2
aI11
aI0
aI0
aI6
aI32
aI44
asS'markn001'
p512
(lp513
g512
aS'Nick Markakis'
p514
aI686
aI612
aI73
aI181
aI38
aI1
aI3
aI53
aI2
aI1
aI70
aI83
aI230
asS'martj007'
p515
(lp516
g515
aS'Jefry Marte'
p517
aI90
aI80
aI9
aI17
aI4
aI0
aI4
aI11
aI0
aI0
aI8
aI22
aI33
asS'waina001'
p518
(lp519
g518
aS'Adam Wainwright'
p520
aI10
aI10
aI0
aI0
aI0
aI0
aI0
aI0
aI0
aI0
aI0
aI2
aI0
asS'harpb003'
p521
(lp522
g521
aS'Bryce Harper'
p523
aI654
aI521
aI118
aI172
aI38
aI1
aI42
aI99
aI6
aI4
aI124
aI131
aI338
asS'beckg001'
p524
(lp525
g524
aS'Gordon Beckham'
p526
aI237
aI211
aI24
aI44
aI8
aI0
aI6
aI20
aI0
aI1
aI19
aI43
aI70
asS'willm007'
p527
(lp528
g527
aS'Mason Williams'
p529
aI22
aI21
aI3
aI6
aI3
aI0
aI1
aI3
aI0
aI0
aI1
aI3
aI12
asS'mortc002'
p530
(lp531
g530
aS'Charlie Morton'
p532
aI43
aI36
aI0
aI1
aI0
aI0
aI0
aI1
aI0
aI0
aI1
aI18
aI1
asS'reedm001'
p533
(lp534
g533
aS'Michael Reed'
p535
aI6
aI6
aI2
aI2
aI1
aI0
aI0
aI0
aI0
aI0
aI0
aI3
aI3
asS'sotog001'
p536
(lp537
g536
aS'Geovany Soto'
p538
aI210
aI187
aI20
aI41
aI8
aI0
aI9
aI21
aI0
aI1
aI21
aI63
aI76
asS'suzuk001'
p539
(lp540
g539
aS'Kurt Suzuki'
p541
aI479
aI433
aI36
aI104
aI17
aI0
aI5
aI50
aI0
aI0
aI29
aI59
aI136
asS'hahnj001'
p542
(lp543
g542
aS'Jesse Hahn'
p544
aI3
aI3
aI0
aI0
aI0
aI0
aI0
aI0
aI0
aI0
aI0
aI2
aI0
asS'vottj001'
p545
(lp546
g545
aS'Joey Votto'
p547
aI695
aI545
aI95
aI171
aI33
aI2
aI29
aI80
aI11
aI3
aI143
aI135
aI295
asS'mossb001'
p548
(lp549
g548
aS'Brandon Moss'
p550
aI526
aI469
aI47
aI106
aI24
aI2
aI19
aI58
aI0
aI1
aI49
aI148
aI191
asS'dietd001'
p551
(lp552
g551
aS'Derek Dietrich'
p553
aI289
aI250
aI38
aI64
aI14
aI3
aI10
aI24
aI0
aI2
aI23
aI65
aI114
asS'ackld001'
p554
(lp555
g554
aS'Dustin Ackley'
p556
aI264
aI238
aI28
aI55
aI11
aI3
aI10
aI30
aI2
aI2
aI18
aI45
aI102
asS'phamt001'
p557
(lp558
g557
aS'Tommy Pham'
p559
aI173
aI153
aI28
aI41
aI7
aI5
aI5
aI18
aI2
aI0
aI19
aI41
aI73
asS'mastj001'
p560
(lp561
g560
aS'Justin Masterson'
p562
aI3
aI3
aI0
aI2
aI0
aI0
aI0
aI1
aI0
aI0
aI0
aI1
aI2
asS'oberb001'
p563
(lp564
g563
aS'Brett Oberholtzer'
p565
aI3
aI0
aI0
aI0
aI0
aI0
aI0
aI0
aI0
aI0
aI1
aI0
aI0
asS'pears001'
p566
(lp567
g566
aS'Steve Pearce'
p568
aI325
aI294
aI42
aI64
aI13
aI1
aI15
aI40
aI1
aI1
aI23
aI69
aI124
asS'forsl001'
p569
(lp570
g569
aS'Logan Forsythe'
p571
aI615
aI540
aI69
aI152
aI33
aI2
aI17
aI68
aI9
aI4
aI55
aI111
aI240
asS'sandp001'
p572
(lp573
g572
aS'Pablo Sandoval'
p574
aI505
aI470
aI43
aI115
aI25
aI1
aI10
aI47
aI0
aI0
aI25
aI73
aI172
asS'wrigs001'
p575
(lp576
g575
aS'Steven Wright'
p577
aI2
aI1
aI0
aI0
aI0
aI0
aI0
aI0
aI0
aI0
aI0
aI0
aI0
asS'penaa003'
p578
(lp579
g578
aS'Ariel Pena'
p580
aI7
aI7
aI0
aI0
aI0
aI0
aI0
aI0
aI0
aI0
aI0
aI6
aI0
asS'morrb001'
p581
(lp582
g581
aS'Brandon Morrow'
p583
aI10
aI9
aI0
aI0
aI0
aI0
aI0
aI0
aI0
aI0
aI1
aI8
aI0
asS'andeb004'
p584
(lp585
g584
aS'Brett Anderson'
p586
aI61
aI47
aI1
aI4
aI1
aI0
aI0
aI3
aI0
aI0
aI5
aI32
aI5
asS'andeb005'
p587
(lp588
g587
aS'Bryan Anderson'
p589
aI8
aI5
aI0
aI2
aI0
aI0
aI0
aI1
aI0
aI0
aI1
aI1
aI2
asS'richc002'
p590
(lp591
g590
aS'Clayton Richard'
p592
aI15
aI14
aI1
aI2
aI2
aI0
aI0
aI3
aI0
aI0
aI1
aI6
aI4
asS'billc001'
p593
(lp594
g593
aS'Chad Billingsley'
p595
aI14
aI13
aI2
aI1
aI0
aI0
aI1
aI1
aI0
aI0
aI0
aI5
aI4
asS'lee-z001'
p596
(lp597
g596
aS'Zach Lee'
p598
aI2
aI2
aI0
aI0
aI0
aI0
aI0
aI0
aI0
aI0
aI0
aI0
aI0
asS'peguc001'
p599
(lp600
g599
aS'Carlos Peguero'
p601
aI90
aI75
aI11
aI14
aI4
aI0
aI4
aI9
aI2
aI0
aI13
aI37
aI30
asS'rosaa001'
p602
(lp603
g602
aS'Adam Rosales'
p604
aI125
aI114
aI14
aI26
aI4
aI0
aI3
aI7
aI4
aI4
aI10
aI30
aI39
asS'monej001'
p605
(lp606
g605
aS'Johnny Monell'
p607
aI52
aI48
aI5
aI8
aI2
aI0
aI0
aI4
aI0
aI0
aI4
aI13
aI10
asS'corrc001'
p608
(lp609
g608
aS'Carlos Correa'
p610
aI432
aI387
aI52
aI108
aI22
aI1
aI22
aI68
aI14
aI4
aI40
aI78
aI198
asS'marts002'
p611
(lp612
g611
aS'Starling Marte'
p613
aI633
aI579
aI84
aI166
aI30
aI2
aI19
aI81
aI30
aI10
aI27
aI123
aI257
asS'semim001'
p614
(lp615
g614
aS'Marcus Semien'
p616
aI601
aI556
aI65
aI143
aI23
aI7
aI15
aI45
aI11
aI5
aI42
aI132
aI225
asS'elmoj001'
p617
(lp618
g617
aS'Jake Elmore'
p619
aI158
aI141
aI10
aI29
aI5
aI0
aI2
aI16
aI1
aI1
aI12
aI25
aI40
asS'mccab002'
p620
(lp621
g620
aS'Brian McCann'
p622
aI535
aI465
aI68
aI108
aI15
aI1
aI26
aI94
aI0
aI0
aI52
aI97
aI203
asS'kelld001'
p623
(lp624
g623
aS'Don Kelly'
p625
aI1
aI1
aI0
aI0
aI0
aI0
aI0
aI0
aI0
aI0
aI0
aI0
aI0
asS'farmb001'
p626
(lp627
g626
aS'Buck Farmer'
p628
aI4
aI4
aI0
aI1
aI0
aI0
aI0
aI0
aI0
aI0
aI0
aI3
aI1
asS'davik003'
p629
(lp630
g629
aS'Khris Davis'
p631
aI440
aI392
aI54
aI97
aI16
aI2
aI27
aI66
aI6
aI2
aI44
aI122
aI198
asS'rizza001'
p632
(lp633
g632
aS'Anthony Rizzo'
p634
aI701
aI586
aI94
aI163
aI38
aI3
aI31
aI101
aI17
aI6
aI78
aI105
aI300
asS'barnt001'
p635
(lp636
g635
aS'Tucker Barnhart'
p637
aI274
aI242
aI23
aI61
aI9
aI0
aI3
aI18
aI0
aI1
aI25
aI45
aI79
asS'beltc001'
p638
(lp639
g638
aS'Carlos Beltran'
p640
aI531
aI478
aI57
aI132
aI34
aI1
aI19
aI67
aI0
aI0
aI45
aI85
aI225
asS'maill001'
p641
(lp642
g641
aS'Luke Maile'
p643
aI35
aI35
aI2
aI6
aI3
aI0
aI0
aI2
aI0
aI0
aI0
aI8
aI9
asS'szczm001'
p644
(lp645
g644
aS'Matt Szczur'
p646
aI80
aI72
aI5
aI16
aI5
aI0
aI1
aI8
aI2
aI0
aI6
aI15
aI24
asS'laffa001'
p647
(lp648
g647
aS'Aaron Laffey'
p649
aI2
aI2
aI0
aI1
aI0
aI0
aI0
aI0
aI0
aI0
aI0
aI1
aI1
asS'terdj001'
p650
(lp651
g650
aS'Joey Terdoslavich'
p652
aI59
aI56
aI5
aI12
aI4
aI1
aI1
aI4
aI0
aI0
aI3
aI14
aI21
asS'parrg001'
p653
(lp654
g653
aS'Gerardo Parra'
p655
aI589
aI547
aI83
aI159
aI36
aI5
aI14
aI51
aI14
aI4
aI28
aI92
aI247
asS'santd001'
p656
(lp657
g656
aS'Danny Santana'
p658
aI277
aI261
aI30
aI56
aI10
aI5
aI0
aI21
aI8
aI4
aI6
aI68
aI76
asS'erlir001'
p659
(lp660
g659
aS'Robbie Erlin'
p661
aI6
aI5
aI0
aI0
aI0
aI0
aI0
aI0
aI0
aI0
aI0
aI1
aI0
asS'goinr001'
p662
(lp663
g662
aS'Ryan Goins'
p664
aI428
aI376
aI52
aI94
aI16
aI4
aI5
aI45
aI2
aI1
aI39
aI83
aI133
asS'bettc001'
p665
(lp666
g665
aS'Chad Bettis'
p667
aI33
aI29
aI2
aI2
aI0
aI0
aI0
aI1
aI0
aI0
aI4
aI13
aI2
asS'cabra002'
p668
(lp669
g668
aS'Asdrubal Cabrera'
p670
aI551
aI505
aI66
aI134
aI28
aI5
aI15
aI58
aI6
aI3
aI36
aI107
aI217
asS'moreb001'
p671
(lp672
g671
aS'Brent Morel'
p673
aI7
aI7
aI1
aI2
aI1
aI0
aI0
aI1
aI0
aI0
aI0
aI3
aI3
asS'mousm001'
p674
(lp675
g674
aS'Mike Moustakas'
p676
aI614
aI549
aI73
aI156
aI34
aI1
aI22
aI82
aI1
aI2
aI43
aI76
aI258
asS'pirej001'
p677
(lp678
g677
aS'Jose Pirela'
p679
aI78
aI74
aI7
aI17
aI3
aI0
aI1
aI5
aI1
aI0
aI2
aI16
aI23
asS'yelic001'
p680
(lp681
g680
aS'Christian Yelich'
p682
aI525
aI476
aI63
aI143
aI30
aI2
aI7
aI44
aI16
aI5
aI47
aI101
aI198
asS'brucj001'
p683
(lp684
g683
aS'Jay Bruce'
p685
aI649
aI580
aI72
aI131
aI35
aI4
aI26
aI87
aI9
aI5
aI58
aI145
aI252
asS'sevel001'
p686
(lp687
g686
aS'Luis Severino'
p688
aI2
aI2
aI0
aI0
aI0
aI0
aI0
aI0
aI0
aI0
aI0
aI0
aI0
asS'cronc002'
p689
(lp690
g689
aS'C.J. Cron'
p691
aI404
aI378
aI37
aI99
aI17
aI1
aI16
aI51
aI3
aI1
aI17
aI82
aI166
asS'harrj002'
p692
(lp693
g692
aS'Josh Harrison'
p694
aI449
aI418
aI57
aI120
aI29
aI1
aI4
aI28
aI10
aI8
aI19
aI71
aI163
asS'gatte001'
p695
(lp696
g695
aS'Evan Gattis'
p697
aI604
aI566
aI66
aI139
aI20
aI11
aI27
aI88
aI0
aI1
aI30
aI119
aI262
asS'ruggj001'
p698
(lp699
g698
aS'Justin Ruggiano'
p700
aI141
aI125
aI20
aI31
aI8
aI1
aI6
aI15
aI5
aI2
aI14
aI41
aI59
asS'sanom001'
p701
(lp702
g701
aS'Miguel Sano'
p703
aI335
aI279
aI46
aI75
aI17
aI1
aI18
aI52
aI1
aI1
aI53
aI119
aI148
asS'araue001'
p704
(lp705
g704
aS'Elvis Araujo'
p706
aI1
aI1
aI0
aI0
aI0
aI0
aI0
aI0
aI0
aI0
aI0
aI1
aI0
asS'hicka001'
p707
(lp708
g707
aS'Aaron Hicks'
p709
aI390
aI352
aI48
aI90
aI11
aI3
aI11
aI33
aI13
aI3
aI34
aI66
aI140
asS'krate001'
p710
(lp711
g710
aS'Erik Kratz'
p712
aI28
aI26
aI3
aI5
aI2
aI0
aI0
aI3
aI0
aI0
aI1
aI5
aI7
asS'riena001'
p713
(lp714
g713
aS'Andre Rienzo'
p715
aI2
aI2
aI0
aI0
aI0
aI0
aI0
aI0
aI0
aI0
aI0
aI0
aI0
asS'holtt001'
p716
(lp717
g716
aS'Tyler Holt'
p718
aI34
aI31
aI4
aI3
aI0
aI0
aI0
aI0
aI1
aI0
aI3
aI11
aI3
asS'urenj001'
p719
(lp720
g719
aS'Jose Urena'
p721
aI13
aI13
aI0
aI1
aI0
aI0
aI0
aI0
aI0
aI0
aI0
aI9
aI1
asS'sucrj001'
p722
(lp723
g722
aS'Jesus Sucre'
p724
aI142
aI127
aI9
aI20
aI6
aI0
aI1
aI7
aI0
aI0
aI6
aI21
aI29
asS'holab001'
p725
(lp726
g725
aS'Bryan Holaday'
p727
aI65
aI64
aI3
aI18
aI5
aI0
aI2
aI13
aI0
aI0
aI1
aI13
aI29
asS'escoa003'
p728
(lp729
g728
aS'Alcides Escobar'
p730
aI662
aI612
aI76
aI157
aI20
aI5
aI3
aI47
aI17
aI5
aI26
aI75
aI196
asS'suare001'
p731
(lp732
g731
aS'Eugenio Suarez'
p733
aI398
aI372
aI42
aI104
aI19
aI2
aI13
aI48
aI4
aI1
aI17
aI94
aI166
asS'hedga001'
p734
(lp735
g734
aS'Austin Hedges'
p736
aI152
aI137
aI13
aI23
aI2
aI0
aI3
aI11
aI0
aI0
aI8
aI38
aI34
asS'davic003'
p737
(lp738
g737
aS'Chris Davis'
p739
aI670
aI573
aI100
aI150
aI31
aI0
aI47
aI117
aI2
aI3
aI84
aI208
aI322
asS'arrij001'
p740
(lp741
g740
aS'Jake Arrieta'
p742
aI83
aI79
aI5
aI12
aI1
aI1
aI2
aI2
aI0
aI0
aI1
aI45
aI21
asS'rua-r001'
p743
(lp744
g743
aS'Ryan Rua'
p745
aI86
aI83
aI10
aI16
aI5
aI0
aI4
aI7
aI0
aI0
aI3
aI32
aI33
asS'hollm001'
p746
(lp747
g746
aS'Matt Holliday'
p748
aI277
aI229
aI24
aI64
aI16
aI1
aI4
aI35
aI2
aI1
aI39
aI49
aI94
asS'bautj002'
p749
(lp750
g749
aS'Jose Bautista'
p751
aI666
aI543
aI108
aI136
aI29
aI3
aI40
aI114
aI8
aI2
aI110
aI106
aI291
asS'tillc001'
p752
(lp753
g752
aS'Chris Tillman'
p754
aI2
aI2
aI0
aI0
aI0
aI0
aI0
aI0
aI0
aI0
aI0
aI2
aI0
asS'polaj001'
p755
(lp756
g755
aS'Jorge Polanco'
p757
aI12
aI10
aI1
aI3
aI0
aI0
aI0
aI1
aI1
aI0
aI2
aI1
aI3
asS'degrj001'
p758
(lp759
g758
aS'Jacob deGrom'
p760
aI66
aI59
aI3
aI11
aI1
aI0
aI0
aI4
aI0
aI0
aI3
aI16
aI12
asS'giavj001'
p761
(lp762
g761
aS'Johnny Giavotella'
p763
aI502
aI453
aI51
aI123
aI25
aI5
aI4
aI49
aI2
aI1
aI32
aI59
aI170
asS'calhk001'
p764
(lp765
g764
aS'Kole Calhoun'
p766
aI686
aI630
aI78
aI161
aI23
aI2
aI26
aI83
aI4
aI1
aI45
aI164
aI266
asS'cartc002'
p767
(lp768
g767
aS'Chris Carter'
p769
aI460
aI391
aI50
aI78
aI17
aI0
aI24
aI64
aI1
aI2
aI57
aI151
aI167
asS'odorj001'
p770
(lp771
g770
aS'Jake Odorizzi'
p772
aI4
aI4
aI0
aI0
aI0
aI0
aI0
aI0
aI0
aI0
aI0
aI2
aI0
asS'harrm002'
p773
(lp774
g773
aS'Mitch Harris'
p775
aI1
aI1
aI0
aI0
aI0
aI0
aI0
aI0
aI0
aI0
aI0
aI1
aI0
asS'harrm001'
p776
(lp777
g776
aS'Matt Harrison'
p778
aI3
aI2
aI0
aI0
aI0
aI0
aI0
aI0
aI0
aI0
aI0
aI1
aI0
asS'flahr001'
p779
(lp780
g779
aS'Ryan Flaherty'
p781
aI301
aI267
aI34
aI54
aI8
aI3
aI9
aI31
aI0
aI0
aI26
aI81
aI95
asS'handd001'
p782
(lp783
g782
aS'Donovan Hand'
p784
aI1
aI1
aI0
aI0
aI0
aI0
aI0
aI0
aI0
aI0
aI0
aI0
aI0
asS'gee-d001'
p785
(lp786
g785
aS'Dillon Gee'
p787
aI12
aI10
aI0
aI1
aI0
aI0
aI0
aI0
aI0
aI0
aI0
aI5
aI1
asS'panij002'
p788
(lp789
g788
aS'Joe Panik'
p790
aI432
aI382
aI59
aI119
aI27
aI2
aI8
aI37
aI3
aI2
aI38
aI42
aI174
asS'valbl001'
p791
(lp792
g791
aS'Luis Valbuena'
p793
aI493
aI434
aI62
aI97
aI18
aI0
aI25
aI56
aI1
aI0
aI50
aI106
aI190
asS'vanss001'
p794
(lp795
g794
aS'Scott Van Slyke'
p796
aI253
aI222
aI19
aI53
aI14
aI0
aI6
aI30
aI3
aI1
aI23
aI62
aI85
asS'recka001'
p797
(lp798
g797
aS'Anthony Recker'
p799
aI92
aI80
aI6
aI10
aI1
aI0
aI2
aI5
aI1
aI0
aI11
aI35
aI17
asS'nunov001'
p800
(lp801
g800
aS'Vidal Nuno'
p802
aI7
aI7
aI0
aI1
aI0
aI0
aI0
aI1
aI0
aI0
aI0
aI0
aI1
asS'bolsm001'
p803
(lp804
g803
aS'Mike Bolsinger'
p805
aI40
aI38
aI1
aI1
aI1
aI0
aI0
aI0
aI0
aI0
aI0
aI23
aI2
asS'muncm001'
p806
(lp807
g806
aS'Max Muncy'
p808
aI112
aI102
aI14
aI21
aI8
aI1
aI3
aI9
aI0
aI0
aI9
aI31
aI40
asS'weekr001'
p809
(lp810
g809
aS'Rickie Weeks'
p811
aI95
aI84
aI7
aI14
aI1
aI0
aI2
aI9
aI0
aI0
aI9
aI25
aI21
asS'russj003'
p812
(lp813
g812
aS'James Russell'
p814
aI1
aI1
aI0
aI0
aI0
aI0
aI0
aI0
aI0
aI0
aI0
aI1
aI0
asS'schwk001'
p815
(lp816
g815
aS'Kyle Schwarber'
p817
aI273
aI232
aI52
aI57
aI6
aI1
aI16
aI43
aI3
aI3
aI36
aI77
aI113
asS'phegj001'
p818
(lp819
g818
aS'Josh Phegley'
p820
aI243
aI225
aI27
aI56
aI16
aI1
aI9
aI34
aI0
aI0
aI14
aI51
aI101
asS'diaze005'
p821
(lp822
g821
aS'Elias Diaz'
p823
aI2
aI2
aI0
aI0
aI0
aI0
aI0
aI0
aI0
aI0
aI0
aI1
aI0
asS'choos001'
p824
(lp825
g824
aS'Shin-Soo Choo'
p826
aI653
aI555
aI94
aI153
aI32
aI3
aI22
aI82
aI4
aI2
aI76
aI147
aI257
asS'travd001'
p827
(lp828
g827
aS'Devon Travis'
p829
aI239
aI217
aI38
aI66
aI18
aI0
aI8
aI35
aI3
aI1
aI18
aI43
aI108
asS'pereh001'
p830
(lp831
g830
aS'Hernan Perez'
p832
aI272
aI263
aI14
aI64
aI15
aI2
aI1
aI21
aI5
aI1
aI5
aI59
aI86
asS'davii001'
p833
(lp834
g833
aS'Ike Davis'
p835
aI239
aI214
aI19
aI49
aI17
aI0
aI3
aI20
aI0
aI0
aI23
aI44
aI75
asS'pindb001'
p836
(lp837
g836
aS'Branden Pinder'
p838
aI1
aI1
aI0
aI1
aI1
aI0
aI0
aI1
aI0
aI0
aI0
aI0
aI2
asS'ramia001'
p839
(lp840
g839
aS'Aramis Ramirez'
p841
aI516
aI475
aI43
aI117
aI31
aI1
aI17
aI75
aI1
aI0
aI31
aI68
aI201
asS'paxtj001'
p842
(lp843
g842
aS'James Paxton'
p844
aI2
aI2
aI0
aI0
aI0
aI0
aI0
aI0
aI0
aI0
aI0
aI2
aI0
asS'ashln001'
p845
(lp846
g845
aS'Nevin Ashley'
p847
aI21
aI20
aI2
aI2
aI1
aI0
aI0
aI1
aI0
aI0
aI0
aI8
aI3
asS'herro001'
p848
(lp849
g848
aS'Odubel Herrera'
p850
aI537
aI495
aI64
aI147
aI30
aI3
aI8
aI41
aI16
aI8
aI28
aI129
aI207
asS'millb002'
p851
(lp852
g851
aS'Brad Miller'
p853
aI497
aI438
aI44
aI113
aI22
aI4
aI11
aI46
aI13
aI4
aI47
aI101
aI176
asS'ozunm001'
p854
(lp855
g854
aS'Marcell Ozuna'
p856
aI494
aI459
aI47
aI119
aI27
aI0
aI10
aI44
aI2
aI3
aI30
aI110
aI176
asS'swisn001'
p857
(lp858
g857
aS'Nick Swisher'
p859
aI260
aI219
aI14
aI43
aI9
aI0
aI6
aI25
aI0
aI0
aI35
aI54
aI70
asS'boesb001'
p860
(lp861
g860
aS'Brennan Boesch'
p862
aI94
aI89
aI4
aI13
aI2
aI0
aI1
aI5
aI1
aI0
aI4
aI30
aI18
asS'aardd001'
p863
(lp864
g863
aS'David Aardsma'
p865
aI1
aI1
aI0
aI0
aI0
aI0
aI0
aI0
aI0
aI0
aI0
aI1
aI0
asS'rosst001'
p866
(lp867
g866
aS'Tyson Ross'
p868
aI68
aI56
aI6
aI14
aI1
aI1
aI1
aI6
aI0
aI0
aI2
aI19
aI20
asS'snidt001'
p869
(lp870
g869
aS'Travis Snider'
p871
aI265
aI237
aI24
aI55
aI12
aI2
aI4
aI28
aI1
aI0
aI26
aI66
aI83
asS'hughp001'
p872
(lp873
g872
aS'Phil Hughes'
p874
aI3
aI3
aI0
aI0
aI0
aI0
aI0
aI0
aI0
aI0
aI0
aI0
aI0
asS'mccab001'
p875
(lp876
g875
aS'Brandon McCarthy'
p877
aI9
aI6
aI0
aI0
aI0
aI0
aI0
aI1
aI0
aI0
aI1
aI5
aI0
asS'axeld001'
p878
(lp879
g878
aS'Dylan Axelrod'
p880
aI3
aI2
aI0
aI0
aI0
aI0
aI0
aI0
aI0
aI0
aI0
aI1
aI0
asS'hudst001'
p881
(lp882
g881
aS'Tim Hudson'
p883
aI42
aI38
aI3
aI7
aI2
aI0
aI1
aI1
aI0
aI0
aI1
aI11
aI12
asS'sizeg001'
p884
(lp885
g884
aS'Grady Sizemore'
p886
aI296
aI273
aI24
aI69
aI17
aI0
aI6
aI33
aI3
aI3
aI20
aI60
aI104
asS'darnc001'
p887
(lp888
g887
aS"Chase d'Arnaud"
p889
aI18
aI17
aI2
aI3
aI0
aI1
aI0
aI0
aI0
aI1
aI1
aI7
aI5
asS'guthj001'
p890
(lp891
g890
aS'Jeremy Guthrie'
p892
aI5
aI4
aI0
aI1
aI0
aI0
aI0
aI0
aI0
aI0
aI0
aI0
aI1
asS'mcgec001'
p893
(lp894
g893
aS'Casey McGehee'
p895
aI258
aI237
aI14
aI47
aI12
aI0
aI2
aI20
aI1
aI1
aI21
aI50
aI65
asS'bourp001'
p896
(lp897
g896
aS'Peter Bourjos'
p898
aI225
aI195
aI32
aI39
aI8
aI3
aI4
aI13
aI5
aI8
aI19
aI59
aI65
asS'pridj001'
p899
(lp900
g899
aS'Jason Pridie'
p901
aI10
aI9
aI0
aI0
aI0
aI0
aI0
aI0
aI0
aI0
aI1
aI4
aI0
asS'latom001'
p902
(lp903
g902
aS'Mat Latos'
p904
aI34
aI24
aI1
aI7
aI0
aI0
aI0
aI1
aI0
aI0
aI0
aI7
aI7
asS'syndn001'
p905
(lp906
g905
aS'Noah Syndergaard'
p907
aI50
aI43
aI2
aI9
aI1
aI0
aI1
aI4
aI0
aI0
aI1
aI26
aI13
asS'corrk001'
p908
(lp909
g908
aS'Kevin Correia'
p910
aI7
aI6
aI0
aI1
aI0
aI0
aI0
aI0
aI0
aI0
aI0
aI1
aI1
asS'arenn001'
p911
(lp912
g911
aS'Nolan Arenado'
p913
aI665
aI616
aI97
aI177
aI43
aI4
aI42
aI130
aI2
aI5
aI34
aI110
aI354
asS'alvap001'
p914
(lp915
g914
aS'Pedro Alvarez'
p916
aI491
aI437
aI60
aI106
aI18
aI0
aI27
aI77
aI2
aI0
aI48
aI131
aI205
asS'marrd001'
p917
(lp918
g917
aS'Deven Marrero'
p919
aI56
aI53
aI8
aI12
aI0
aI0
aI1
aI3
aI2
aI1
aI3
aI19
aI15
asS'ruf-d001'
p920
(lp921
g920
aS'Darin Ruf'
p922
aI297
aI268
aI30
aI63
aI12
aI0
aI12
aI39
aI1
aI0
aI21
aI69
aI111
asS'jonea003'
p923
(lp924
g923
aS'Adam Jones'
p925
aI581
aI546
aI74
aI147
aI25
aI3
aI27
aI82
aI3
aI1
aI24
aI102
aI259
asS'deshd002'
p926
(lp927
g926
aS'Delino DeShields'
p928
aI492
aI425
aI83
aI111
aI22
aI10
aI2
aI37
aI25
aI8
aI53
aI101
aI159
asS'valed001'
p929
(lp930
g929
aS'Danny Valencia'
p931
aI378
aI345
aI59
aI100
aI23
aI1
aI18
aI66
aI2
aI2
aI29
aI80
aI179
asS'mitcb001'
p932
(lp933
g932
aS'Bryan Mitchell'
p934
aI1
aI1
aI0
aI0
aI0
aI0
aI0
aI0
aI0
aI0
aI0
aI1
aI0
asS'castw002'
p935
(lp936
g935
aS'Welington Castillo'
p937
aI378
aI342
aI42
aI81
aI15
aI1
aI19
aI57
aI0
aI0
aI25
aI92
aI155
asS'eickj001'
p938
(lp939
g938
aS'Jerad Eickhoff'
p940
aI16
aI14
aI1
aI2
aI0
aI0
aI0
aI2
aI0
aI0
aI0
aI7
aI2
asS'heisc001'
p941
(lp942
g941
aS'Chris Heisey'
p943
aI72
aI55
aI8
aI10
aI2
aI0
aI2
aI9
aI0
aI1
aI15
aI17
aI18
asS'mathj001'
p944
(lp945
g944
aS'Jeff Mathis'
p946
aI103
aI93
aI9
aI15
aI4
aI1
aI2
aI12
aI0
aI0
aI7
aI24
aI27
asS'herng001'
p947
(lp948
g947
aS'Gorkys Hernandez'
p949
aI5
aI5
aI0
aI0
aI0
aI0
aI0
aI0
aI1
aI0
aI0
aI0
aI0
asS'middw001'
p950
(lp951
g950
aS'Will Middlebrooks'
p952
aI270
aI255
aI23
aI54
aI7
aI2
aI9
aI29
aI2
aI1
aI11
aI60
aI92
asS'strih001'
p953
(lp954
g953
aS'Hunter Strickland'
p955
aI1
aI1
aI0
aI0
aI0
aI0
aI0
aI0
aI0
aI0
aI0
aI1
aI0
asS'plawk001'
p956
(lp957
g956
aS'Kevin Plawecki'
p958
aI258
aI233
aI18
aI51
aI9
aI0
aI3
aI21
aI0
aI0
aI17
aI60
aI69
asS'socom001'
p959
(lp960
g959
aS'Miguel Socolovich'
p961
aI1
aI1
aI0
aI0
aI0
aI0
aI0
aI0
aI0
aI0
aI0
aI0
aI0
asS'renda001'
p962
(lp963
g962
aS'Anthony Rendon'
p964
aI355
aI311
aI43
aI82
aI16
aI0
aI5
aI25
aI1
aI2
aI36
aI70
aI113
asS'castd001'
p965
(lp966
g965
aS'Daniel Castro'
p967
aI100
aI96
aI14
aI23
aI2
aI1
aI2
aI5
aI0
aI0
aI3
aI15
aI33
asS'huffd001'
p968
(lp969
g968
aS'David Huff'
p970
aI1
aI1
aI0
aI0
aI0
aI0
aI0
aI0
aI0
aI0
aI0
aI0
aI0
asS'bogub001'
p971
(lp972
g971
aS'Brian Bogusevic'
p973
aI61
aI58
aI9
aI15
aI3
aI0
aI2
aI5
aI2
aI0
aI3
aI21
aI24
asS'sanch002'
p974
(lp975
g974
aS'Hector Sanchez'
p976
aI59
aI56
aI5
aI10
aI4
aI0
aI1
aI5
aI0
aI0
aI2
aI14
aI17
asS'mahtm001'
p977
(lp978
g977
aS'Mikie Mahtook'
p979
aI115
aI105
aI22
aI31
aI5
aI1
aI9
aI19
aI4
aI3
aI6
aI31
aI65
asS'altuj001'
p980
(lp981
g980
aS'Jose Altuve'
p982
aI689
aI638
aI86
aI200
aI40
aI4
aI15
aI66
aI38
aI13
aI33
aI67
aI293
asS'walkt004'
p983
(lp984
g983
aS'Taijuan Walker'
p985
aI10
aI9
aI0
aI1
aI1
aI0
aI0
aI1
aI0
aI0
aI0
aI5
aI2
asS'peres002'
p986
(lp987
g986
aS'Salvador Perez'
p988
aI553
aI531
aI52
aI138
aI25
aI0
aI21
aI70
aI1
aI0
aI13
aI82
aI226
asS'foltm001'
p989
(lp990
g989
aS'Mike Foltynewicz'
p991
aI30
aI28
aI0
aI2
aI1
aI0
aI0
aI3
aI0
aI0
aI0
aI19
aI3
asS'martm003'
p992
(lp993
g992
aS'Michael Martinez'
p994
aI32
aI30
aI7
aI8
aI2
aI0
aI0
aI2
aI0
aI1
aI1
aI12
aI10
asS'russa002'
p995
(lp996
g995
aS'Addison Russell'
p997
aI523
aI475
aI60
aI115
aI29
aI1
aI13
aI54
aI4
aI3
aI42
aI149
aI185
asS'butlj002'
p998
(lp999
g998
aS'Joey Butler'
p1000
aI276
aI257
aI30
aI71
aI12
aI0
aI8
aI30
aI5
aI2
aI16
aI82
aI107
asS'garzm001'
p1001
(lp1002
g1001
aS'Matt Garza'
p1003
aI47
aI39
aI0
aI3
aI0
aI0
aI0
aI0
aI0
aI1
aI1
aI21
aI3
asS'jungt001'
p1004
(lp1005
g1004
aS'Taylor Jungmann'
p1006
aI44
aI37
aI2
aI10
aI2
aI0
aI0
aI0
aI0
aI0
aI1
aI12
aI12
asS'villp001'
p1007
(lp1008
g1007
aS'Pedro Villarreal'
p1009
aI6
aI6
aI0
aI1
aI1
aI0
aI0
aI2
aI0
aI0
aI0
aI3
aI2
asS'samaj001'
p1010
(lp1011
g1010
aS'Jeff Samardzija'
p1012
aI2
aI2
aI0
aI1
aI0
aI0
aI0
aI0
aI0
aI0
aI0
aI1
aI1
asS'lyont001'
p1013
(lp1014
g1013
aS'Tyler Lyons'
p1015
aI20
aI16
aI3
aI3
aI0
aI0
aI0
aI1
aI0
aI0
aI2
aI4
aI3
asS'aguij001'
p1016
(lp1017
g1016
aS'Jesus Aguilar'
p1018
aI20
aI19
aI0
aI6
aI1
aI0
aI0
aI2
aI0
aI0
aI0
aI7
aI7
asS'clipt001'
p1019
(lp1020
g1019
aS'Tyler Clippard'
p1021
aI1
aI1
aI0
aI0
aI0
aI0
aI0
aI0
aI0
aI0
aI0
aI0
aI0
asS'dudal001'
p1022
(lp1023
g1022
aS'Lucas Duda'
p1024
aI554
aI471
aI67
aI115
aI33
aI0
aI27
aI73
aI0
aI2
aI66
aI138
aI229
asS'nievw001'
p1025
(lp1026
g1025
aS'Wil Nieves'
p1027
aI14
aI13
aI1
aI1
aI0
aI0
aI1
aI4
aI0
aI0
aI1
aI4
aI4
asS'chirr001'
p1028
(lp1029
g1028
aS'Robinson Chirinos'
p1030
aI273
aI233
aI33
aI54
aI16
aI1
aI10
aI34
aI0
aI0
aI28
aI62
aI102
asS'braur002'
p1031
(lp1032
g1031
aS'Ryan Braun'
p1033
aI568
aI506
aI87
aI144
aI27
aI3
aI25
aI84
aI24
aI4
aI54
aI115
aI252
asS'solis001'
p1034
(lp1035
g1034
aS'Sammy Solis'
p1036
aI2
aI2
aI0
aI1
aI0
aI0
aI0
aI0
aI0
aI0
aI0
aI0
aI1
asS'piera001'
p1037
(lp1038
g1037
aS'A.J. Pierzynski'
p1039
aI436
aI407
aI38
aI122
aI24
aI1
aI9
aI49
aI0
aI2
aI19
aI37
aI175
asS'granc001'
p1040
(lp1041
g1040
aS'Curtis Granderson'
p1042
aI682
aI580
aI98
aI150
aI33
aI2
aI26
aI70
aI11
aI6
aI91
aI151
aI265
asS'marta005'
p1043
(lp1044
g1043
aS'Alfredo Marte'
p1045
aI8
aI6
aI0
aI2
aI0
aI0
aI0
aI0
aI0
aI0
aI1
aI1
aI2
asS'flany001'
p1046
(lp1047
g1046
aS'Yohan Flande'
p1048
aI22
aI21
aI1
aI3
aI0
aI0
aI0
aI1
aI0
aI0
aI0
aI10
aI3
asS'edwac001'
p1049
(lp1050
g1049
aS'Carl Edwards'
p1051
aI1
aI1
aI0
aI0
aI0
aI0
aI0
aI0
aI0
aI0
aI0
aI1
aI0
asS'bradj001'
p1052
(lp1053
g1052
aS'Jackie Bradley'
p1054
aI255
aI221
aI43
aI55
aI17
aI4
aI10
aI43
aI3
aI0
aI27
aI69
aI110
asS'cuetj001'
p1055
(lp1056
g1055
aS'Johnny Cueto'
p1057
aI43
aI37
aI1
aI6
aI0
aI0
aI0
aI0
aI0
aI0
aI1
aI10
aI6
asS'heana001'
p1058
(lp1059
g1058
aS'Andrew Heaney'
p1060
aI6
aI5
aI0
aI0
aI0
aI0
aI0
aI0
aI0
aI0
aI0
aI3
aI0
asS'cappc001'
p1061
(lp1062
g1061
aS'Carter Capps'
p1063
aI2
aI2
aI0
aI1
aI0
aI0
aI0
aI0
aI0
aI0
aI0
aI1
aI1
asS'montj003'
p1064
(lp1065
g1064
aS'Jesus Montero'
p1066
aI116
aI112
aI11
aI25
aI6
aI0
aI5
aI19
aI0
aI0
aI4
aI32
aI46
asS'sancg002'
p1067
(lp1068
g1067
aS'Gary Sanchez'
p1069
aI2
aI2
aI0
aI0
aI0
aI0
aI0
aI0
aI0
aI0
aI0
aI1
aI0
asS'reveb001'
p1070
(lp1071
g1070
aS'Ben Revere'
p1072
aI634
aI592
aI84
aI181
aI22
aI7
aI2
aI45
aI31
aI7
aI32
aI64
aI223
asS'casac001'
p1073
(lp1074
g1073
aS'Curt Casali'
p1075
aI113
aI101
aI13
aI24
aI6
aI0
aI10
aI18
aI0
aI0
aI8
aI34
aI60
asS'stewc001'
p1076
(lp1077
g1076
aS'Chris Stewart'
p1078
aI172
aI159
aI9
aI46
aI8
aI0
aI0
aI15
aI0
aI0
aI6
aI29
aI54
asS'wilsc004'
p1079
(lp1080
g1079
aS'C.J. Wilson'
p1081
aI6
aI6
aI0
aI2
aI0
aI0
aI0
aI0
aI0
aI0
aI0
aI1
aI2
asS'simma001'
p1082
(lp1083
g1082
aS'Andrelton Simmons'
p1084
aI583
aI535
aI60
aI142
aI23
aI2
aI4
aI44
aI5
aI3
aI39
aI48
aI181
asS'kenni001'
p1085
(lp1086
g1085
aS'Ian Kennedy'
p1087
aI48
aI42
aI3
aI4
aI3
aI0
aI0
aI0
aI0
aI0
aI0
aI23
aI7
asS'amara001'
p1088
(lp1089
g1088
aS'Alexi Amarista'
p1090
aI357
aI324
aI28
aI66
aI10
aI4
aI3
aI30
aI5
aI1
aI24
aI55
aI93
asS'cuddm001'
p1091
(lp1092
g1091
aS'Michael Cuddyer'
p1093
aI408
aI379
aI44
aI98
aI18
aI1
aI10
aI41
aI2
aI0
aI24
aI88
aI148
asS'hartc001'
p1094
(lp1095
g1094
aS'Corey Hart'
p1096
aI57
aI54
aI3
aI12
aI1
aI0
aI2
aI9
aI0
aI0
aI1
aI19
aI19
asS'gosea001'
p1097
(lp1098
g1097
aS'Anthony Gose'
p1099
aI535
aI485
aI73
aI123
aI24
aI8
aI5
aI26
aI23
aI11
aI45
aI145
aI178
asS'butle001'
p1100
(lp1101
g1100
aS'Eddie Butler'
p1102
aI24
aI23
aI0
aI1
aI0
aI0
aI0
aI0
aI0
aI0
aI0
aI13
aI1
asS'choim001'
p1103
(lp1104
g1103
aS'Michael Choice'
p1105
aI1
aI1
aI0
aI0
aI0
aI0
aI0
aI0
aI0
aI0
aI0
aI1
aI0
asS'grees005'
p1106
(lp1107
g1106
aS'Shane Greene'
p1108
aI5
aI5
aI0
aI0
aI0
aI0
aI0
aI0
aI0
aI0
aI0
aI5
aI0
asS'domic001'
p1109
(lp1110
g1109
aS'Chris Dominguez'
p1111
aI23
aI23
aI2
aI6
aI1
aI1
aI1
aI3
aI0
aI0
aI0
aI12
aI12
asS'rea-c001'
p1112
(lp1113
g1112
aS'Colin Rea'
p1114
aI12
aI9
aI2
aI2
aI1
aI0
aI0
aI0
aI0
aI0
aI1
aI4
aI3
asS'thomt002'
p1115
(lp1116
g1115
aS'Trayce Thompson'
p1117
aI135
aI122
aI17
aI36
aI8
aI3
aI5
aI16
aI1
aI0
aI13
aI26
aI65
asS'wielj001'
p1118
(lp1119
g1118
aS'Joe Wieland'
p1120
aI2
aI1
aI0
aI0
aI0
aI0
aI0
aI0
aI0
aI0
aI0
aI1
aI0
asS'andre001'
p1121
(lp1122
g1121
aS'Elvis Andrus'
p1123
aI661
aI596
aI69
aI154
aI34
aI2
aI7
aI62
aI25
aI9
aI46
aI78
aI213
asS'leons001'
p1124
(lp1125
g1124
aS'Sandy Leon'
p1126
aI128
aI114
aI8
aI21
aI2
aI0
aI0
aI3
aI0
aI1
aI7
aI28
aI23
asS'jordt001'
p1127
(lp1128
g1127
aS'Taylor Jordan'
p1129
aI6
aI6
aI0
aI2
aI0
aI0
aI0
aI0
aI0
aI0
aI0
aI2
aI2
asS'reeda001'
p1130
(lp1131
g1130
aS'Addison Reed'
p1132
aI2
aI2
aI0
aI0
aI0
aI0
aI0
aI0
aI0
aI0
aI0
aI0
aI0
asS'brada001'
p1133
(lp1134
g1133
aS'Archie Bradley'
p1135
aI14
aI14
aI0
aI2
aI0
aI0
aI0
aI0
aI0
aI1
aI0
aI7
aI2
asS'greeg002'
p1136
(lp1137
g1136
aS'Grant Green'
p1138
aI44
aI42
aI6
aI8
aI0
aI0
aI1
aI3
aI0
aI1
aI2
aI14
aI11
asS'worlv001'
p1139
(lp1140
g1139
aS'Vance Worley'
p1141
aI18
aI17
aI1
aI3
aI1
aI0
aI0
aI0
aI0
aI0
aI0
aI6
aI4
asS'ellia001'
p1142
(lp1143
g1142
aS'A.J. Ellis'
p1144
aI217
aI181
aI24
aI43
aI9
aI0
aI7
aI21
aI0
aI0
aI32
aI38
aI73
asS'coled002'
p1145
(lp1146
g1145
aS'Dusty Coleman'
p1147
aI5
aI5
aI0
aI0
aI0
aI0
aI0
aI0
aI0
aI0
aI0
aI3
aI0
asS'tomlk001'
p1148
(lp1149
g1148
aS'Kelby Tomlinson'
p1150
aI193
aI178
aI23
aI54
aI6
aI3
aI2
aI20
aI5
aI4
aI14
aI40
aI72
asS'lestj001'
p1151
(lp1152
g1151
aS'Jon Lester'
p1153
aI71
aI62
aI6
aI4
aI0
aI0
aI0
aI0
aI0
aI0
aI3
aI30
aI4
asS'pheld001'
p1154
(lp1155
g1154
aS'David Phelps'
p1156
aI40
aI34
aI0
aI4
aI0
aI0
aI0
aI0
aI0
aI0
aI0
aI16
aI4
asS'petes002'
p1157
(lp1158
g1157
aS'Shane Peterson'
p1159
aI226
aI201
aI22
aI52
aI7
aI3
aI2
aI16
aI0
aI1
aI20
aI55
aI71
asS'wallb001'
p1160
(lp1161
g1160
aS'Brett Wallace'
p1162
aI107
aI96
aI14
aI29
aI6
aI0
aI5
aI16
aI0
aI0
aI10
aI31
aI50
asS'gardb001'
p1163
(lp1164
g1163
aS'Brett Gardner'
p1165
aI656
aI571
aI94
aI148
aI26
aI3
aI16
aI66
aI20
aI5
aI68
aI135
aI228
asS'lopej002'
p1166
(lp1167
g1166
aS'Javier Lopez'
p1168
aI1
aI0
aI0
aI0
aI0
aI0
aI0
aI0
aI0
aI0
aI0
aI0
aI0
asS'barnb002'
p1169
(lp1170
g1169
aS'Brandon Barnes'
p1171
aI281
aI255
aI30
aI64
aI13
aI2
aI2
aI17
aI4
aI2
aI21
aI67
aI87
asS'lopej004'
p1172
(lp1173
g1172
aS'Jorge Lopez'
p1174
aI3
aI2
aI0
aI0
aI0
aI0
aI0
aI0
aI0
aI0
aI0
aI2
aI0
asS'kersc001'
p1175
(lp1176
g1175
aS'Clayton Kershaw'
p1177
aI79
aI71
aI2
aI9
aI2
aI0
aI0
aI2
aI0
aI0
aI2
aI23
aI11
asS'spanc001'
p1178
(lp1179
g1178
aS'Cory Spangenberg'
p1180
aI345
aI303
aI38
aI82
aI17
aI5
aI4
aI21
aI9
aI4
aI28
aI75
aI121
asS'murpd006'
p1181
(lp1182
g1181
aS'Daniel Murphy'
p1183
aI538
aI499
aI56
aI140
aI38
aI2
aI14
aI73
aI2
aI2
aI31
aI38
aI224
asS'frann001'
p1184
(lp1185
g1184
aS'Nick Franklin'
p1186
aI109
aI101
aI11
aI16
aI4
aI1
aI3
aI7
aI1
aI0
aI7
aI37
aI31
asS'buted001'
p1187
(lp1188
g1187
aS'Drew Butera'
p1189
aI120
aI107
aI9
aI21
aI3
aI0
aI1
aI5
aI0
aI1
aI6
aI26
aI27
asS'difow001'
p1190
(lp1191
g1190
aS'Wilmer Difo'
p1192
aI11
aI11
aI1
aI2
aI0
aI0
aI0
aI0
aI0
aI0
aI0
aI2
aI2
asS'blana001'
p1193
(lp1194
g1193
aS'Andres Blanco'
p1195
aI261
aI233
aI32
aI68
aI22
aI3
aI7
aI25
aI1
aI1
aI21
aI44
aI117
asS'adrie001'
p1196
(lp1197
g1196
aS'Ehire Adrianza'
p1198
aI134
aI113
aI11
aI21
aI7
aI1
aI0
aI11
aI3
aI2
aI15
aI20
aI30
asS'moora001'
p1199
(lp1200
g1199
aS'Adam Moore'
p1201
aI4
aI4
aI0
aI1
aI0
aI0
aI0
aI1
aI0
aI0
aI0
aI2
aI1
asS'sevep001'
p1202
(lp1203
g1202
aS'Pedro Severino'
p1204
aI4
aI4
aI1
aI1
aI1
aI0
aI0
aI0
aI0
aI0
aI0
aI1
aI2
asS'orlap001'
p1205
(lp1206
g1205
aS'Paulo Orlando'
p1207
aI251
aI241
aI31
aI60
aI14
aI6
aI7
aI27
aI3
aI3
aI5
aI53
aI107
asS'rasmc002'
p1208
(lp1209
g1208
aS'Cory Rasmus'
p1210
aI1
aI1
aI0
aI0
aI0
aI0
aI0
aI0
aI0
aI0
aI0
aI0
aI0
asS'hayeb001'
p1211
(lp1212
g1211
aS'Brett Hayes'
p1213
aI36
aI32
aI4
aI5
aI0
aI0
aI3
aI6
aI0
aI0
aI3
aI7
aI14
asS'gregd001'
p1214
(lp1215
g1214
aS'Didi Gregorius'
p1216
aI578
aI525
aI57
aI139
aI24
aI2
aI9
aI56
aI5
aI3
aI33
aI85
aI194
asS'kellc001'
p1217
(lp1218
g1217
aS'Casey Kelly'
p1219
aI3
aI2
aI0
aI0
aI0
aI0
aI0
aI0
aI0
aI0
aI0
aI0
aI0
asS'strar001'
p1220
(lp1221
g1220
aS'Ryan Strausborger'
p1222
aI51
aI45
aI9
aI9
aI0
aI0
aI1
aI3
aI2
aI1
aI3
aI11
aI12
asS'shawt001'
p1223
(lp1224
g1223
aS'Travis Shaw'
p1225
aI248
aI226
aI31
aI61
aI10
aI0
aI13
aI36
aI0
aI1
aI18
aI57
aI110
asS'smolj002'
p1226
(lp1227
g1226
aS'Jake Smolinski'
p1228
aI192
aI166
aI24
aI32
aI7
aI2
aI6
aI26
aI1
aI1
aI19
aI39
aI61
asS'wachm001'
p1229
(lp1230
g1229
aS'Michael Wacha'
p1231
aI62
aI52
aI5
aI8
aI1
aI0
aI0
aI4
aI1
aI0
aI4
aI20
aI9
asS'freef001'
p1232
(lp1233
g1232
aS'Freddie Freeman'
p1234
aI481
aI416
aI62
aI115
aI27
aI0
aI18
aI66
aI3
aI1
aI56
aI98
aI196
asS'perem004'
p1235
(lp1236
g1235
aS'Martin Perez'
p1237
aI2
aI2
aI0
aI0
aI0
aI0
aI0
aI0
aI0
aI0
aI0
aI2
aI0
asS'goede001'
p1238
(lp1239
g1238
aS'Erik Goeddel'
p1240
aI1
aI1
aI0
aI0
aI0
aI0
aI0
aI0
aI0
aI0
aI0
aI0
aI0
asS'puigy001'
p1241
(lp1242
g1241
aS'Yasiel Puig'
p1243
aI311
aI282
aI30
aI72
aI12
aI3
aI11
aI38
aI3
aI3
aI26
aI66
aI123
asS'carmf001'
p1244
(lp1245
g1244
aS'Roberto Hernandez'
p1246
aI3
aI2
aI1
aI0
aI0
aI0
aI0
aI0
aI0
aI0
aI1
aI2
aI0
asS'owenh002'
p1247
(lp1248
g1247
aS'Henry Owens'
p1249
aI2
aI2
aI0
aI0
aI0
aI0
aI0
aI0
aI0
aI0
aI0
aI2
aI0
asS'gomec002'
p1250
(lp1251
g1250
aS'Carlos Gomez'
p1252
aI477
aI435
aI61
aI111
aI29
aI1
aI12
aI56
aI17
aI9
aI31
aI101
aI178
asS'bloow001'
p1253
(lp1254
g1253
aS'Willie Bloomquist'
p1255
aI72
aI69
aI2
aI11
aI1
aI0
aI0
aI4
aI1
aI1
aI2
aI13
aI12
asS'libea001'
p1256
(lp1257
g1256
aS'Adam Liberatore'
p1258
aI2
aI2
aI0
aI0
aI0
aI0
aI0
aI0
aI0
aI0
aI0
aI2
aI0
asS'weavj003'
p1259
(lp1260
g1259
aS'Jered Weaver'
p1261
aI2
aI2
aI0
aI0
aI0
aI0
aI0
aI0
aI0
aI0
aI0
aI1
aI0
asS'sweed001'
p1262
(lp1263
g1262
aS'Darnell Sweeney'
p1264
aI98
aI85
aI9
aI15
aI4
aI1
aI3
aI11
aI0
aI2
aI13
aI27
aI30
asS'coloc002'
p1265
(lp1266
g1265
aS'Christian Colon'
p1267
aI119
aI107
aI8
aI31
aI5
aI0
aI0
aI6
aI3
aI2
aI11
aI17
aI36
asS'hawkl001'
p1268
(lp1269
g1268
aS'LaTroy Hawkins'
p1270
aI1
aI1
aI0
aI0
aI0
aI0
aI0
aI0
aI0
aI0
aI0
aI1
aI0
asS'jennd002'
p1271
(lp1272
g1271
aS'Desmond Jennings'
p1273
aI108
aI97
aI9
aI26
aI2
aI1
aI1
aI7
aI5
aI3
aI8
aI17
aI33
asS'choar001'
p1274
(lp1275
g1274
aS'Randy Choate'
p1276
aI1
aI0
aI0
aI0
aI0
aI0
aI0
aI0
aI0
aI0
aI1
aI0
aI0
asS'reddj001'
p1277
(lp1278
g1277
aS'Josh Reddick'
p1279
aI582
aI526
aI67
aI143
aI25
aI4
aI20
aI77
aI10
aI2
aI49
aI65
aI236
asS'shucj001'
p1280
(lp1281
g1280
aS'J.B. Shuck'
p1282
aI165
aI143
aI15
aI38
aI8
aI2
aI0
aI15
aI7
aI5
aI16
aI16
aI50
asS'almoa001'
p1283
(lp1284
g1283
aS'Abraham Almonte'
p1285
aI258
aI232
aI36
aI58
aI12
aI5
aI5
aI24
aI7
aI1
aI21
aI52
aI95
asS'carre001'
p1286
(lp1287
g1286
aS'Ezequiel Carrera'
p1288
aI192
aI172
aI27
aI47
aI8
aI0
aI3
aI26
aI2
aI1
aI11
aI45
aI64
asS'duenb001'
p1289
(lp1290
g1289
aS'Brian Duensing'
p1291
aI1
aI1
aI0
aI0
aI0
aI0
aI0
aI0
aI0
aI0
aI0
aI0
aI0
asS'uggld001'
p1292
(lp1293
g1292
aS'Dan Uggla'
p1294
aI141
aI120
aI12
aI22
aI4
aI2
aI2
aI16
aI0
aI1
aI19
aI40
aI36
asS'baezj001'
p1295
(lp1296
g1295
aS'Javier Baez'
p1297
aI80
aI76
aI4
aI22
aI6
aI0
aI1
aI4
aI1
aI2
aI4
aI24
aI31
asS'gordd002'
p1298
(lp1299
g1298
aS'Dee Gordon'
p1300
aI653
aI615
aI88
aI205
aI24
aI8
aI4
aI46
aI58
aI20
aI25
aI91
aI257
asS'albeh001'
p1301
(lp1302
g1301
aS'Hanser Alberto'
p1303
aI104
aI99
aI12
aI22
aI2
aI1
aI0
aI4
aI1
aI0
aI2
aI17
aI26
asS'vargk001'
p1304
(lp1305
g1304
aS'Kennys Vargas'
p1306
aI184
aI175
aI18
aI42
aI4
aI0
aI5
aI17
aI0
aI0
aI9
aI54
aI61
asS'morak001'
p1307
(lp1308
g1307
aS'Kendrys Morales'
p1309
aI639
aI569
aI81
aI165
aI41
aI2
aI22
aI106
aI0
aI0
aI58
aI103
aI276
asS'bretr001'
p1310
(lp1311
g1310
aS'Ryan Brett'
p1312
aI4
aI3
aI0
aI2
aI1
aI0
aI0
aI0
aI0
aI0
aI1
aI0
aI3
asS'santc002'
p1313
(lp1314
g1313
aS'Carlos Santana'
p1315
aI666
aI550
aI72
aI127
aI29
aI2
aI19
aI85
aI11
aI3
aI108
aI122
aI217
asS'lakej001'
p1316
(lp1317
g1316
aS'Junior Lake'
p1318
aI84
aI80
aI4
aI16
aI7
aI0
aI1
aI5
aI4
aI0
aI4
aI29
aI26
asS'shoem001'
p1319
(lp1320
g1319
aS'Matt Shoemaker'
p1321
aI2
aI1
aI0
aI0
aI0
aI0
aI0
aI0
aI0
aI0
aI1
aI0
aI0
asS'herne001'
p1322
(lp1323
g1322
aS'Enrique Hernandez'
p1324
aI218
aI202
aI24
aI62
aI12
aI2
aI7
aI22
aI0
aI2
aI11
aI46
aI99
asS'hosme001'
p1325
(lp1326
g1325
aS'Eric Hosmer'
p1327
aI667
aI599
aI98
aI178
aI33
aI5
aI18
aI93
aI7
aI3
aI61
aI108
aI275
asS'galer002'
p1328
(lp1329
g1328
aS'Rocky Gale'
p1330
aI10
aI10
aI0
aI1
aI0
aI0
aI0
aI0
aI0
aI0
aI0
aI1
aI1
asS'cirip001'
p1331
(lp1332
g1331
aS'Pedro Ciriaco'
p1333
aI151
aI142
aI14
aI37
aI8
aI1
aI1
aI15
aI4
aI2
aI2
aI38
aI50
asS'collt002'
p1334
(lp1335
g1334
aS'Tyler Collins'
p1336
aI207
aI192
aI18
aI51
aI11
aI3
aI4
aI25
aI2
aI1
aI13
aI43
aI80
asS'could001'
p1337
(lp1338
g1337
aS'Daniel Coulombe'
p1339
aI1
aI1
aI0
aI0
aI0
aI0
aI0
aI0
aI0
aI0
aI0
aI1
aI0
asS'cabre001'
p1340
(lp1341
g1340
aS'Everth Cabrera'
p1342
aI105
aI96
aI7
aI20
aI2
aI0
aI0
aI4
aI2
aI0
aI5
aI22
aI22
asS'joneg002'
p1343
(lp1344
g1343
aS'Garrett Jones'
p1345
aI152
aI144
aI12
aI31
aI4
aI1
aI5
aI17
aI0
aI0
aI8
aI37
aI52
asS'calla001'
p1346
(lp1347
g1346
aS'Alberto Callaspo'
p1348
aI261
aI230
aI20
aI54
aI7
aI0
aI1
aI15
aI0
aI0
aI28
aI34
aI64
asS'wagnt001'
p1349
(lp1350
g1349
aS'Tyler Wagner'
p1351
aI3
aI3
aI0
aI0
aI0
aI0
aI0
aI0
aI0
aI0
aI0
aI2
aI0
asS'buehm001'
p1352
(lp1353
g1352
aS'Mark Buehrle'
p1354
aI9
aI7
aI0
aI1
aI0
aI0
aI0
aI0
aI0
aI0
aI1
aI3
aI1
asS'parra001'
p1355
(lp1356
g1355
aS'Andy Parrino'
p1357
aI8
aI6
aI1
aI0
aI0
aI0
aI0
aI0
aI0
aI0
aI2
aI5
aI0
asS'zimmj003'
p1358
(lp1359
g1358
aS'Jordan Zimmermann'
p1360
aI69
aI63
aI4
aI10
aI1
aI0
aI0
aI3
aI0
aI0
aI0
aI18
aI11
asS'johnd004'
p1361
(lp1362
g1361
aS'Dan Johnson'
p1363
aI21
aI19
aI1
aI3
aI0
aI0
aI0
aI2
aI0
aI0
aI2
aI4
aI3
asS'rutlj001'
p1364
(lp1365
g1364
aS'Josh Rutledge'
p1366
aI85
aI74
aI11
aI21
aI1
aI0
aI1
aI10
aI0
aI0
aI5
aI26
aI25
asS'valdj002'
p1367
(lp1368
g1367
aS'Jordany Valdespin'
p1369
aI4
aI4
aI0
aI0
aI0
aI0
aI0
aI0
aI0
aI0
aI0
aI1
aI0
asS'younc003'
p1370
(lp1371
g1370
aS'Chris Young'
p1372
aI360
aI322
aI53
aI82
aI20
aI1
aI14
aI45
aI3
aI1
aI30
aI74
aI146
asS'brooa001'
p1373
(lp1374
g1373
aS'Aaron Brooks'
p1375
aI2
aI2
aI0
aI0
aI0
aI0
aI0
aI0
aI0
aI0
aI0
aI0
aI0
asS'hardb001'
p1376
(lp1377
g1376
aS'Blaine Hardy'
p1378
aI1
aI1
aI0
aI0
aI0
aI0
aI0
aI0
aI0
aI0
aI0
aI0
aI0
asS'romes001'
p1379
(lp1380
g1379
aS'Stefen Romero'
p1381
aI24
aI21
aI6
aI4
aI1
aI0
aI1
aI3
aI0
aI0
aI3
aI6
aI8
asS'polla001'
p1382
(lp1383
g1382
aS'A.J. Pollock'
p1384
aI673
aI609
aI111
aI192
aI39
aI6
aI20
aI76
aI39
aI7
aI53
aI89
aI303
asS'millj006'
p1385
(lp1386
g1385
aS'Justin Miller'
p1387
aI3
aI2
aI0
aI0
aI0
aI0
aI0
aI0
aI0
aI0
aI0
aI2
aI0
asS'archc001'
p1388
(lp1389
g1388
aS'Chris Archer'
p1390
aI5
aI5
aI0
aI0
aI0
aI0
aI0
aI0
aI0
aI0
aI0
aI3
aI0
asS'blazm001'
p1391
(lp1392
g1391
aS'Michael Blazek'
p1393
aI4
aI4
aI0
aI1
aI1
aI0
aI0
aI1
aI0
aI0
aI0
aI2
aI2
asS'rosae001'
p1394
(lp1395
g1394
aS'Eddie Rosario'
p1396
aI474
aI453
aI60
aI121
aI18
aI15
aI13
aI50
aI11
aI6
aI15
aI118
aI208
asS'hellj001'
p1397
(lp1398
g1397
aS'Jeremy Hellickson'
p1399
aI49
aI41
aI3
aI9
aI0
aI0
aI0
aI7
aI0
aI0
aI2
aI14
aI9
asS'annad001'
p1400
(lp1401
g1400
aS'Dean Anna'
p1402
aI1
aI1
aI0
aI0
aI0
aI0
aI0
aI0
aI0
aI0
aI0
aI0
aI0
asS'cabrm002'
p1403
(lp1404
g1403
aS'Melky Cabrera'
p1405
aI683
aI629
aI70
aI172
aI36
aI2
aI12
aI77
aI3
aI0
aI40
aI88
aI248
asS'cabrm001'
p1406
(lp1407
g1406
aS'Miguel Cabrera'
p1408
aI511
aI429
aI64
aI145
aI28
aI1
aI18
aI76
aI1
aI1
aI77
aI82
aI229
asS'schaj002'
p1409
(lp1410
g1409
aS'Jordan Schafer'
p1411
aI74
aI69
aI9
aI15
aI3
aI0
aI0
aI5
aI0
aI3
aI3
aI23
aI18
asS'drurb001'
p1412
(lp1413
g1412
aS'Brandon Drury'
p1414
aI59
aI56
aI3
aI12
aI3
aI0
aI2
aI8
aI0
aI0
aI2
aI8
aI21
asS'murpt002'
p1415
(lp1416
g1415
aS'Tom Murphy'
p1417
aI39
aI35
aI5
aI9
aI1
aI0
aI3
aI9
aI0
aI0
aI4
aI10
aI19
asS'tartt001'
p1418
(lp1419
g1418
aS'Travis Tartamella'
p1420
aI2
aI2
aI0
aI1
aI0
aI0
aI0
aI0
aI0
aI0
aI0
aI0
aI1
asS'rabur001'
p1421
(lp1422
g1421
aS'Ryan Raburn'
p1423
aI201
aI173
aI22
aI52
aI16
aI1
aI8
aI29
aI0
aI0
aI23
aI44
aI94
asS'wietm001'
p1424
(lp1425
g1424
aS'Matt Wieters'
p1426
aI282
aI258
aI24
aI69
aI14
aI1
aI8
aI25
aI0
aI0
aI21
aI67
aI109
asS'myerw001'
p1427
(lp1428
g1427
aS'Wil Myers'
p1429
aI253
aI225
aI40
aI57
aI13
aI1
aI8
aI29
aI5
aI2
aI27
aI55
aI96
asS'felds001'
p1430
(lp1431
g1430
aS'Scott Feldman'
p1432
aI2
aI2
aI0
aI1
aI0
aI0
aI0
aI0
aI0
aI0
aI0
aI1
aI1
asS'bonie001'
p1433
(lp1434
g1433
aS'Emilio Bonifacio'
p1435
aI82
aI78
aI5
aI13
aI2
aI0
aI0
aI4
aI1
aI4
aI2
aI27
aI15
asS'daviz001'
p1436
(lp1437
g1436
aS'Zach Davies'
p1438
aI14
aI13
aI1
aI1
aI0
aI0
aI0
aI0
aI0
aI0
aI0
aI3
aI1
asS'kazms001'
p1439
(lp1440
g1439
aS'Scott Kazmir'
p1441
aI4
aI4
aI1
aI1
aI0
aI0
aI0
aI1
aI0
aI0
aI0
aI2
aI1
asS'parmc001'
p1442
(lp1443
g1442
aS'Chris Parmelee'
p1444
aI102
aI97
aI11
aI21
aI7
aI1
aI4
aI9
aI0
aI1
aI4
aI26
aI42
asS'genns001'
p1445
(lp1446
g1445
aS'Scooter Gennett'
p1447
aI391
aI375
aI42
aI99
aI18
aI4
aI6
aI29
aI1
aI3
aI12
aI68
aI143
asS'volqe001'
p1448
(lp1449
g1448
aS'Edinson Volquez'
p1450
aI6
aI6
aI0
aI0
aI0
aI0
aI0
aI0
aI0
aI0
aI0
aI4
aI0
asS'grays001'
p1451
(lp1452
g1451
aS'Sonny Gray'
p1453
aI6
aI6
aI0
aI1
aI0
aI0
aI0
aI0
aI0
aI0
aI0
aI4
aI1
asS'porcr001'
p1454
(lp1455
g1454
aS'Rick Porcello'
p1456
aI2
aI2
aI0
aI0
aI0
aI0
aI0
aI0
aI0
aI0
aI0
aI2
aI0
asS'ellsj001'
p1457
(lp1458
g1457
aS'Jacoby Ellsbury'
p1459
aI501
aI452
aI66
aI116
aI15
aI2
aI7
aI33
aI21
aI9
aI35
aI86
aI156
asS'iwakh001'
p1460
(lp1461
g1460
aS'Hisashi Iwakuma'
p1462
aI3
aI2
aI0
aI0
aI0
aI0
aI0
aI0
aI0
aI0
aI0
aI2
aI0
asS'nolaa001'
p1463
(lp1464
g1463
aS'Aaron Nola'
p1465
aI26
aI23
aI0
aI2
aI0
aI0
aI0
aI1
aI0
aI0
aI1
aI16
aI2
asS'klubc001'
p1466
(lp1467
g1466
aS'Corey Kluber'
p1468
aI6
aI6
aI0
aI0
aI0
aI0
aI0
aI0
aI0
aI0
aI0
aI3
aI0
asS'cruzn002'
p1469
(lp1470
g1469
aS'Nelson Cruz'
p1471
aI655
aI590
aI90
aI178
aI22
aI1
aI44
aI93
aI3
aI2
aI59
aI164
aI334
asS'ortid001'
p1472
(lp1473
g1472
aS'David Ortiz'
p1474
aI614
aI528
aI73
aI144
aI37
aI0
aI37
aI108
aI0
aI1
aI77
aI95
aI292
asS'cainl001'
p1475
(lp1476
g1475
aS'Lorenzo Cain'
p1477
aI604
aI551
aI101
aI169
aI34
aI6
aI16
aI72
aI28
aI6
aI37
aI98
aI263
asS'gonzg003'
p1478
(lp1479
g1478
aS'Gio Gonzalez'
p1480
aI56
aI43
aI1
aI4
aI1
aI0
aI0
aI2
aI0
aI0
aI1
aI18
aI5
asS'aumop001'
p1481
(lp1482
g1481
aS'Phillippe Aumont'
p1483
aI1
aI0
aI0
aI0
aI0
aI0
aI0
aI0
aI0
aI0
aI1
aI0
aI0
asS'negrk001'
p1484
(lp1485
g1484
aS'Kristopher Negron'
p1486
aI107
aI93
aI5
aI13
aI2
aI0
aI0
aI2
aI2
aI0
aI9
aI23
aI15
asS'featt001'
p1487
(lp1488
g1487
aS'Taylor Featherston'
p1489
aI169
aI154
aI23
aI25
aI5
aI1
aI2
aI9
aI4
aI2
aI7
aI46
aI38
asS'robic001'
p1490
(lp1491
g1490
aS'Clint Robinson'
p1492
aI352
aI309
aI44
aI84
aI15
aI1
aI10
aI34
aI0
aI0
aI37
aI52
aI131
asS'wertj001'
p1493
(lp1494
g1493
aS'Jayson Werth'
p1495
aI378
aI331
aI51
aI73
aI16
aI1
aI12
aI42
aI0
aI1
aI38
aI84
aI127
asS'espid001'
p1496
(lp1497
g1496
aS'Danny Espinosa'
p1498
aI412
aI367
aI59
aI88
aI21
aI1
aI13
aI37
aI5
aI2
aI33
aI106
aI150
asS'berrq001'
p1499
(lp1500
g1499
aS'Quintin Berry'
p1501
aI1
aI1
aI1
aI0
aI0
aI0
aI0
aI0
aI2
aI1
aI0
aI1
aI0
asS'buchc001'
p1502
(lp1503
g1502
aS'Clay Buchholz'
p1504
aI6
aI6
aI0
aI0
aI0
aI0
aI0
aI0
aI0
aI0
aI0
aI2
aI0
asS'yound003'
p1505
(lp1506
g1505
aS'Delmon Young'
p1507
aI180
aI174
aI20
aI47
aI6
aI0
aI2
aI16
aI0
aI0
aI4
aI29
aI59
asS'craia001'
p1508
(lp1509
g1508
aS'Allen Craig'
p1510
aI88
aI79
aI6
aI12
aI1
aI0
aI1
aI3
aI0
aI0
aI7
aI26
aI16
asS'beacb001'
p1511
(lp1512
g1511
aS'Brandon Beachy'
p1513
aI2
aI2
aI0
aI0
aI0
aI0
aI0
aI0
aI0
aI0
aI0
aI1
aI0
asS'ethia001'
p1514
(lp1515
g1514
aS'Andre Ethier'
p1516
aI445
aI395
aI54
aI116
aI20
aI7
aI14
aI53
aI2
aI3
aI43
aI75
aI192
asS'friec001'
p1517
(lp1518
g1517
aS'Christian Friedrich'
p1519
aI3
aI3
aI0
aI0
aI0
aI0
aI0
aI0
aI0
aI0
aI0
aI0
aI0
asS'avill001'
p1520
(lp1521
g1520
aS'Luis Avilan'
p1522
aI1
aI1
aI0
aI0
aI0
aI0
aI0
aI0
aI0
aI0
aI0
aI0
aI0
asS'obrip002'
p1523
(lp1524
g1523
aS"Peter O'Brien"
p1525
aI12
aI10
aI1
aI4
aI1
aI0
aI1
aI3
aI0
aI0
aI2
aI5
aI8
asS'ramow001'
p1526
(lp1527
g1526
aS'Wilson Ramos'
p1528
aI504
aI475
aI41
aI109
aI16
aI0
aI15
aI68
aI0
aI0
aI21
aI101
aI170
asS'grimj002'
p1529
(lp1530
g1529
aS'Justin Grimm'
p1531
aI1
aI1
aI0
aI0
aI0
aI0
aI0
aI0
aI0
aI0
aI0
aI1
aI0
asS'maybc001'
p1532
(lp1533
g1532
aS'Cameron Maybin'
p1534
aI555
aI505
aI65
aI135
aI18
aI2
aI10
aI59
aI23
aI6
aI45
aI102
aI187
asS'buxtb001'
p1535
(lp1536
g1535
aS'Byron Buxton'
p1537
aI138
aI129
aI16
aI27
aI7
aI1
aI2
aI6
aI2
aI2
aI6
aI44
aI42
asS'cunnt001'
p1538
(lp1539
g1538
aS'Todd Cunningham'
p1540
aI93
aI86
aI13
aI19
aI4
aI0
aI0
aI4
aI2
aI1
aI5
aI17
aI23
asS'johnc003'
p1541
(lp1542
g1541
aS'Chris Johnson'
p1543
aI255
aI243
aI18
aI62
aI11
aI0
aI3
aI18
aI2
aI1
aI10
aI74
aI82
asS'godlz001'
p1544
(lp1545
g1544
aS'Zack Godley'
p1546
aI10
aI9
aI0
aI1
aI0
aI0
aI0
aI0
aI0
aI0
aI0
aI6
aI1
asS'solaj002'
p1547
(lp1548
g1547
aS'Jhonatan Solano'
p1549
aI21
aI20
aI1
aI1
aI1
aI0
aI0
aI2
aI0
aI0
aI1
aI1
aI2
asS'kipnj001'
p1550
(lp1551
g1550
aS'Jason Kipnis'
p1552
aI641
aI565
aI86
aI171
aI43
aI7
aI9
aI52
aI12
aI8
aI57
aI107
aI255
asS'rossj002'
p1553
(lp1554
g1553
aS'Joe Ross'
p1555
aI30
aI27
aI2
aI3
aI0
aI0
aI0
aI0
aI0
aI0
aI0
aI11
aI3
asS'wooda002'
p1556
(lp1557
g1556
aS'Alex Wood'
p1558
aI67
aI55
aI2
aI9
aI2
aI0
aI0
aI4
aI0
aI0
aI4
aI34
aI11
asS'seagk001'
p1559
(lp1560
g1559
aS'Kyle Seager'
p1561
aI686
aI623
aI85
aI166
aI37
aI0
aI26
aI74
aI6
aI6
aI54
aI98
aI281
asS'jacke001'
p1562
(lp1563
g1562
aS'Edwin Jackson'
p1564
aI1
aI1
aI0
aI0
aI0
aI0
aI0
aI0
aI0
aI0
aI0
aI0
aI0
asS'montm001'
p1565
(lp1566
g1565
aS'Miguel Montero'
p1567
aI403
aI347
aI36
aI86
aI11
aI0
aI15
aI53
aI1
aI1
aI49
aI103
aI142
asS'gilms001'
p1568
(lp1569
g1568
aS'Sean Gilmartin'
p1570
aI6
aI6
aI1
aI2
aI0
aI0
aI0
aI0
aI0
aI0
aI0
aI3
aI2
asS'goset001'
p1571
(lp1572
g1571
aS'Tuffy Gosewisch'
p1573
aI138
aI128
aI9
aI27
aI6
aI0
aI1
aI13
aI2
aI1
aI8
aI23
aI36
asS'browt002'
p1574
(lp1575
g1574
aS'Trevor Brown'
p1576
aI43
aI39
aI1
aI9
aI3
aI0
aI0
aI5
aI1
aI1
aI3
aI8
aI12
asS'zunim001'
p1577
(lp1578
g1577
aS'Mike Zunino'
p1579
aI386
aI350
aI28
aI61
aI11
aI0
aI11
aI28
aI0
aI1
aI21
aI132
aI105
asS'pinem001'
p1580
(lp1581
g1580
aS'Michael Pineda'
p1582
aI2
aI2
aI0
aI0
aI0
aI0
aI0
aI0
aI0
aI0
aI0
aI1
aI0
asS'reimn001'
p1583
(lp1584
g1583
aS'Nolan Reimold'
p1585
aI195
aI170
aI24
aI42
aI5
aI1
aI6
aI20
aI0
aI0
aI23
aI47
aI67
asS'kintb001'
p1586
(lp1587
g1586
aS'Brandon Kintzler'
p1588
aI1
aI1
aI0
aI0
aI0
aI0
aI0
aI0
aI0
aI0
aI0
aI0
aI0
asS'blacc001'
p1589
(lp1590
g1589
aS'Charlie Blackmon'
p1591
aI682
aI614
aI93
aI176
aI31
aI9
aI17
aI58
aI43
aI13
aI46
aI112
aI276
asS'lemad001'
p1592
(lp1593
g1592
aS'DJ LeMahieu'
p1594
aI620
aI564
aI85
aI170
aI21
aI5
aI6
aI61
aI23
aI3
aI50
aI107
aI219
asS'guyeb001'
p1595
(lp1596
g1595
aS'Brandon Guyer'
p1597
aI385
aI332
aI51
aI88
aI21
aI2
aI8
aI28
aI10
aI4
aI25
aI61
aI137
asS'bergc001'
p1598
(lp1599
g1598
aS'Christian Bergman'
p1600
aI15
aI12
aI1
aI2
aI0
aI0
aI0
aI0
aI0
aI0
aI1
aI4
aI2
asS'narvc001'
p1601
(lp1602
g1601
aS'Chris Narveson'
p1603
aI7
aI6
aI1
aI0
aI0
aI0
aI0
aI1
aI0
aI0
aI0
aI4
aI0
asS'stanc002'
p1604
(lp1605
g1604
aS'Cody Stanley'
p1606
aI10
aI10
aI2
aI4
aI1
aI0
aI0
aI3
aI0
aI0
aI0
aI3
aI5
asS'guera001'
p1607
(lp1608
g1607
aS'Alex Guerrero'
p1609
aI230
aI219
aI25
aI51
aI9
aI1
aI11
aI36
aI1
aI0
aI7
aI57
aI95
asS'andrm001'
p1610
(lp1611
g1610
aS'Matt Andriese'
p1612
aI1
aI1
aI0
aI0
aI0
aI0
aI0
aI0
aI0
aI0
aI0
aI0
aI0
asS'gonza003'
p1613
(lp1614
g1613
aS'Adrian Gonzalez'
p1615
aI643
aI571
aI76
aI157
aI33
aI0
aI28
aI90
aI0
aI1
aI62
aI107
aI274
asS'martc008'
p1616
(lp1617
g1616
aS'Cody Martin'
p1618
aI1
aI0
aI0
aI0
aI0
aI0
aI0
aI0
aI0
aI0
aI0
aI0
aI0
asS'bailh001'
p1619
(lp1620
g1619
aS'Homer Bailey'
p1621
aI4
aI4
aI0
aI0
aI0
aI0
aI0
aI0
aI0
aI0
aI0
aI1
aI0
asS'martc006'
p1622
(lp1623
g1622
aS'Carlos Martinez'
p1624
aI63
aI56
aI2
aI8
aI2
aI0
aI0
aI0
aI0
aI0
aI1
aI23
aI10
asS'cosaj001'
p1625
(lp1626
g1625
aS'Jarred Cosart'
p1627
aI18
aI17
aI0
aI1
aI0
aI0
aI0
aI1
aI0
aI0
aI0
aI8
aI1
asS'dozib001'
p1628
(lp1629
g1628
aS'Brian Dozier'
p1630
aI704
aI628
aI101
aI148
aI39
aI4
aI28
aI77
aI12
aI4
aI61
aI148
aI279
asS'kawam001'
p1631
(lp1632
g1631
aS'Munenori Kawasaki'
p1633
aI34
aI28
aI6
aI6
aI2
aI0
aI0
aI2
aI0
aI1
aI4
aI6
aI8
asS'souzs001'
p1634
(lp1635
g1634
aS'Steven Souza'
p1636
aI426
aI373
aI59
aI84
aI15
aI1
aI16
aI40
aI12
aI6
aI46
aI144
aI149
asS'freed001'
p1637
(lp1638
g1637
aS'David Freese'
p1639
aI470
aI424
aI53
aI109
aI27
aI0
aI14
aI56
aI1
aI1
aI31
aI107
aI178
asS'linda001'
p1640
(lp1641
g1640
aS'Adam Lind'
p1642
aI572
aI502
aI72
aI139
aI32
aI0
aI20
aI87
aI0
aI0
aI66
aI100
aI231
asS'villc001'
p1643
(lp1644
g1643
aS'Carlos Villanueva'
p1645
aI11
aI8
aI0
aI0
aI0
aI0
aI0
aI0
aI0
aI0
aI0
aI5
aI0
asS'thomi001'
p1646
(lp1647
g1646
aS'Ian Thomas'
p1648
aI4
aI3
aI1
aI0
aI0
aI0
aI0
aI0
aI0
aI0
aI1
aI1
aI0
asS'parkk001'
p1649
(lp1650
g1649
aS'Kyle Parker'
p1651
aI112
aI106
aI10
aI19
aI3
aI1
aI3
aI11
aI1
aI0
aI6
aI37
aI33
asS'lougd001'
p1652
(lp1653
g1652
aS'David Lough'
p1654
aI144
aI134
aI14
aI27
aI1
aI1
aI4
aI12
aI2
aI4
aI5
aI36
aI42
asS'hudsd001'
p1655
(lp1656
g1655
aS'Daniel Hudson'
p1657
aI1
aI1
aI0
aI0
aI0
aI0
aI0
aI0
aI0
aI0
aI0
aI1
aI0
asS'alcaa001'
p1658
(lp1659
g1658
aS'Arismendy Alcantara'
p1660
aI32
aI26
aI5
aI2
aI0
aI0
aI0
aI1
aI1
aI0
aI5
aI11
aI2
asS'verrl001'
p1661
(lp1662
g1661
aS'Logan Verrett'
p1663
aI8
aI7
aI0
aI0
aI0
aI0
aI0
aI0
aI0
aI0
aI0
aI2
aI0
asS'kubik001'
p1664
(lp1665
g1664
aS'Kyle Kubitza'
p1666
aI39
aI36
aI6
aI7
aI0
aI0
aI0
aI1
aI0
aI0
aI3
aI15
aI7
asS'herrd002'
p1667
(lp1668
g1667
aS'Dilson Herrera'
p1669
aI103
aI90
aI7
aI19
aI3
aI1
aI3
aI6
aI2
aI0
aI11
aI23
aI33
asS'suzui001'
p1670
(lp1671
g1670
aS'Ichiro Suzuki'
p1672
aI438
aI398
aI45
aI91
aI5
aI6
aI1
aI21
aI11
aI5
aI31
aI51
aI111
asS'santh001'
p1673
(lp1674
g1673
aS'Hector Santiago'
p1675
aI5
aI5
aI0
aI1
aI0
aI0
aI0
aI0
aI0
aI0
aI0
aI3
aI1
asS'kangj001'
p1676
(lp1677
g1676
aS'Jung Ho Kang'
p1678
aI467
aI421
aI60
aI121
aI24
aI2
aI15
aI58
aI5
aI4
aI28
aI99
aI194
asS'philb001'
p1679
(lp1680
g1679
aS'Brandon Phillips'
p1681
aI623
aI588
aI69
aI173
aI19
aI2
aI12
aI70
aI23
aI3
aI27
aI68
aI232
asS'headc001'
p1682
(lp1683
g1682
aS'Chase Headley'
p1684
aI642
aI580
aI74
aI150
aI29
aI1
aI11
aI62
aI0
aI2
aI51
aI135
aI214
asS'canor001'
p1685
(lp1686
g1685
aS'Robinson Cano'
p1687
aI674
aI624
aI82
aI179
aI34
aI1
aI21
aI79
aI2
aI6
aI43
aI107
aI278
asS'gomeh001'
p1688
(lp1689
g1688
aS'Hector Gomez'
p1690
aI134
aI127
aI15
aI23
aI11
aI2
aI1
aI7
aI0
aI0
aI3
aI40
aI41
asS'rojam002'
p1691
(lp1692
g1691
aS'Miguel Rojas'
p1693
aI157
aI142
aI13
aI40
aI7
aI1
aI1
aI17
aI0
aI1
aI11
aI16
aI52
asS'salec001'
p1694
(lp1695
g1694
aS'Chris Sale'
p1696
aI9
aI9
aI1
aI1
aI0
aI0
aI0
aI0
aI0
aI0
aI0
aI4
aI1
asS'sprig001'
p1697
(lp1698
g1697
aS'George Springer'
p1699
aI451
aI388
aI59
aI107
aI19
aI2
aI16
aI41
aI16
aI4
aI50
aI109
aI178
asS'quinj001'
p1700
(lp1701
g1700
aS'Jose Quintana'
p1702
aI9
aI8
aI0
aI0
aI0
aI0
aI0
aI0
aI0
aI0
aI0
aI5
aI0
asS'wrigm001'
p1703
(lp1704
g1703
aS'Mike Wright'
p1705
aI3
aI2
aI0
aI1
aI0
aI0
aI0
aI0
aI0
aI0
aI0
aI1
aI1
asS'schus001'
p1706
(lp1707
g1706
aS'Skip Schumaker'
p1708
aI268
aI244
aI23
aI59
aI20
aI0
aI1
aI21
aI2
aI2
aI23
aI51
aI82
asS'ramia003'
p1709
(lp1710
g1709
aS'Alexei Ramirez'
p1711
aI622
aI583
aI54
aI145
aI33
aI0
aI10
aI62
aI17
aI7
aI31
aI68
aI208
asS'lirif001'
p1712
(lp1713
g1712
aS'Francisco Liriano'
p1714
aI67
aI65
aI4
aI11
aI2
aI0
aI1
aI7
aI0
aI0
aI0
aI28
aI16
asS'gomej002'
p1715
(lp1716
g1715
aS'Jeanmar Gomez'
p1717
aI1
aI1
aI0
aI0
aI0
aI0
aI0
aI0
aI0
aI0
aI0
aI1
aI0
asS'gomej001'
p1718
(lp1719
g1718
aS'Jonny Gomes'
p1720
aI262
aI225
aI29
aI48
aI9
aI0
aI7
aI26
aI1
aI1
aI31
aI81
aI78
asS'osuls001'
p1721
(lp1722
g1721
aS"Sean O'Sullivan"
p1723
aI23
aI20
aI2
aI2
aI1
aI0
aI0
aI0
aI0
aI0
aI1
aI10
aI3
asS'urruh001'
p1724
(lp1725
g1724
aS'Henry Urrutia'
p1726
aI36
aI34
aI3
aI9
aI1
aI0
aI1
aI6
aI0
aI0
aI2
aI3
aI13
asS'harrw002'
p1727
(lp1728
g1727
aS'Will Harris'
p1729
aI1
aI1
aI0
aI0
aI0
aI0
aI0
aI0
aI0
aI0
aI0
aI1
aI0
asS'murpd005'
p1730
(lp1731
g1730
aS'David Murphy'
p1732
aI391
aI361
aI38
aI102
aI18
aI1
aI10
aI50
aI0
aI2
aI20
aI49
aI152
asS'presa001'
p1733
(lp1734
g1733
aS'Alex Presley'
p1735
aI13
aI12
aI1
aI3
aI0
aI0
aI0
aI1
aI0
aI0
aI1
aI5
aI3
asS'tehej001'
p1736
(lp1737
g1736
aS'Julio Teheran'
p1738
aI68
aI52
aI0
aI5
aI0
aI0
aI0
aI2
aI0
aI0
aI2
aI9
aI5
asS'descd001'
p1739
(lp1740
g1739
aS'Daniel Descalso'
p1741
aI209
aI185
aI22
aI38
aI3
aI2
aI5
aI22
aI1
aI2
aI20
aI45
aI60
asS'badeb001'
p1742
(lp1743
g1742
aS'Burke Badenhop'
p1744
aI1
aI1
aI0
aI0
aI0
aI0
aI0
aI0
aI0
aI0
aI0
aI0
aI0
asS'marqj001'
p1745
(lp1746
g1745
aS'Jason Marquis'
p1747
aI17
aI16
aI2
aI3
aI1
aI0
aI0
aI1
aI0
aI0
aI0
aI4
aI4
asS'figuc001'
p1748
(lp1749
g1748
aS'Cole Figueroa'
p1750
aI8
aI8
aI2
aI2
aI2
aI0
aI0
aI0
aI0
aI0
aI0
aI0
aI4
asS'ranaa001'
p1751
(lp1752
g1751
aS'Anthony Ranaudo'
p1753
aI2
aI2
aI0
aI0
aI0
aI0
aI0
aI0
aI0
aI0
aI0
aI2
aI0
asS'bogax001'
p1754
(lp1755
g1754
aS'Xander Bogaerts'
p1756
aI654
aI613
aI84
aI196
aI35
aI3
aI7
aI81
aI10
aI2
aI32
aI101
aI258
asS'kempm001'
p1757
(lp1758
g1757
aS'Matt Kemp'
p1759
aI648
aI596
aI80
aI158
aI31
aI3
aI23
aI100
aI12
aI2
aI39
aI147
aI264
asS'marij002'
p1760
(lp1761
g1760
aS'Jake Marisnick'
p1762
aI372
aI339
aI46
aI80
aI15
aI4
aI9
aI36
aI24
aI9
aI18
aI105
aI130
asS'gibsk002'
p1763
(lp1764
g1763
aS'Kyle Gibson'
p1765
aI5
aI5
aI0
aI1
aI0
aI0
aI0
aI0
aI0
aI0
aI0
aI2
aI1
asS'napom001'
p1766
(lp1767
g1766
aS'Mike Napoli'
p1768
aI469
aI407
aI46
aI91
aI20
aI1
aI18
aI50
aI3
aI3
aI57
aI118
aI167
asS'saunm001'
p1769
(lp1770
g1769
aS'Michael Saunders'
p1771
aI36
aI31
aI2
aI6
aI0
aI0
aI0
aI3
aI0
aI0
aI5
aI10
aI6
asS'haraa001'
p1772
(lp1773
g1772
aS'Aaron Harang'
p1774
aI58
aI48
aI4
aI8
aI1
aI0
aI0
aI0
aI0
aI0
aI1
aI18
aI9
asS'casts001'
p1775
(lp1776
g1775
aS'Starlin Castro'
p1777
aI578
aI547
aI52
aI145
aI23
aI2
aI11
aI69
aI5
aI5
aI21
aI91
aI205
asS'seguj002'
p1778
(lp1779
g1778
aS'Jean Segura'
p1780
aI584
aI560
aI57
aI144
aI16
aI5
aI6
aI50
aI25
aI6
aI13
aI93
aI188
asS'petiy001'
p1781
(lp1782
g1781
aS'Yusmeiro Petit'
p1783
aI10
aI9
aI1
aI0
aI0
aI0
aI0
aI0
aI0
aI0
aI0
aI3
aI0
asS'pricd001'
p1784
(lp1785
g1784
aS'David Price'
p1786
aI9
aI9
aI0
aI0
aI0
aI0
aI0
aI0
aI0
aI0
aI0
aI3
aI0
asS'maybj001'
p1787
(lp1788
g1787
aS'John Mayberry'
p1789
aI119
aI110
aI8
aI18
aI6
aI1
aI3
aI9
aI1
aI0
aI9
aI33
aI35
asS'rusic001'
p1790
(lp1791
g1790
aS'Chris Rusin'
p1792
aI50
aI46
aI5
aI10
aI0
aI0
aI1
aI4
aI0
aI0
aI0
aI7
aI13
asS'fryee001'
p1793
(lp1794
g1793
aS'Eric Fryer'
p1795
aI27
aI22
aI2
aI5
aI2
aI0
aI0
aI2
aI0
aI0
aI5
aI11
aI7
asS'turnj001'
p1796
(lp1797
g1796
aS'Justin Turner'
p1798
aI439
aI385
aI55
aI113
aI26
aI1
aI16
aI60
aI5
aI2
aI36
aI71
aI189
asS'burnb002'
p1799
(lp1800
g1799
aS'Billy Burns'
p1801
aI555
aI520
aI70
aI153
aI18
aI9
aI5
aI42
aI26
aI8
aI26
aI81
aI204
asS'barmc001'
p1802
(lp1803
g1802
aS'Clint Barmes'
p1804
aI224
aI207
aI24
aI48
aI14
aI1
aI3
aI16
aI0
aI1
aI10
aI55
aI73
asS'hared001'
p1805
(lp1806
g1805
aS'Dan Haren'
p1807
aI65
aI49
aI4
aI6
aI1
aI0
aI0
aI5
aI0
aI0
aI5
aI16
aI7
asS'jankt001'
p1808
(lp1809
g1808
aS'Travis Jankowski'
p1810
aI96
aI90
aI9
aI19
aI2
aI2
aI2
aI12
aI2
aI1
aI4
aI24
aI31
asS'warra001'
p1811
(lp1812
g1811
aS'Adam Warren'
p1813
aI3
aI3
aI0
aI0
aI0
aI0
aI0
aI0
aI0
aI0
aI0
aI1
aI0
asS'urshg001'
p1814
(lp1815
g1814
aS'Giovanny Urshela'
p1816
aI288
aI267
aI25
aI60
aI8
aI1
aI6
aI21
aI0
aI1
aI18
aI58
aI88
asS'singj001'
p1817
(lp1818
g1817
aS'Jon Singleton'
p1819
aI58
aI47
aI6
aI9
aI2
aI0
aI1
aI6
aI1
aI0
aI10
aI17
aI14
asS'solej001'
p1820
(lp1821
g1820
aS'Jorge Soler'
p1822
aI404
aI366
aI39
aI96
aI18
aI1
aI10
aI47
aI3
aI1
aI32
aI121
aI146
asS'martr004'
p1823
(lp1824
g1823
aS'Russell Martin'
p1825
aI507
aI441
aI76
aI106
aI23
aI2
aI23
aI77
aI4
aI5
aI53
aI106
aI202
asS'rossd001'
p1826
(lp1827
g1826
aS'David Ross'
p1828
aI182
aI159
aI6
aI28
aI9
aI0
aI1
aI9
aI1
aI0
aI20
aI61
aI40
asS'brigj001'
p1829
(lp1830
g1829
aS'Jake Brigham'
p1831
aI2
aI1
aI0
aI0
aI0
aI0
aI0
aI0
aI0
aI0
aI0
aI1
aI0
asS'teixm001'
p1832
(lp1833
g1832
aS'Mark Teixeira'
p1834
aI462
aI392
aI57
aI100
aI22
aI0
aI31
aI79
aI2
aI0
aI59
aI85
aI215
asS'barna001'
p1835
(lp1836
g1835
aS'Austin Barnes'
p1837
aI37
aI29
aI4
aI6
aI2
aI0
aI0
aI1
aI1
aI0
aI6
aI6
aI8
asS'tanam001'
p1838
(lp1839
g1838
aS'Masahiro Tanaka'
p1840
aI8
aI7
aI0
aI0
aI0
aI0
aI0
aI0
aI0
aI0
aI1
aI2
aI0
asS'robis001'
p1841
(lp1842
g1841
aS'Shane Robinson'
p1843
aI197
aI180
aI28
aI45
aI7
aI3
aI0
aI16
aI6
aI1
aI12
aI29
aI58
asS'romos001'
p1844
(lp1845
g1844
aS'Sergio Romo'
p1846
aI2
aI2
aI0
aI0
aI0
aI0
aI0
aI0
aI0
aI0
aI0
aI1
aI0
asS'garnd001'
p1847
(lp1848
g1847
aS'Dustin Garneau'
p1849
aI76
aI70
aI6
aI11
aI3
aI0
aI2
aI8
aI0
aI0
aI6
aI14
aI20
asS'cowak001'
p1850
(lp1851
g1850
aS'Kaleb Cowart'
p1852
aI52
aI46
aI8
aI8
aI2
aI0
aI1
aI4
aI1
aI1
aI5
aI19
aI13
asS'drews001'
p1853
(lp1854
g1853
aS'Stephen Drew'
p1855
aI428
aI383
aI43
aI77
aI16
aI1
aI17
aI44
aI0
aI2
aI37
aI71
aI146
asS'martn002'
p1856
(lp1857
g1856
aS'Nick Martinez'
p1858
aI4
aI4
aI2
aI0
aI0
aI0
aI0
aI0
aI0
aI0
aI0
aI1
aI0
asS'troum001'
p1859
(lp1860
g1859
aS'Mike Trout'
p1861
aI682
aI575
aI104
aI172
aI32
aI6
aI41
aI90
aI11
aI7
aI92
aI158
aI339
asS'navae001'
p1862
(lp1863
g1862
aS'Efren Navarro'
p1864
aI88
aI83
aI9
aI21
aI4
aI0
aI0
aI5
aI0
aI2
aI5
aI16
aI25
asS'desmi001'
p1865
(lp1866
g1865
aS'Ian Desmond'
p1867
aI641
aI583
aI69
aI136
aI27
aI2
aI19
aI62
aI13
aI5
aI45
aI187
aI224
asS'swihb001'
p1868
(lp1869
g1868
aS'Blake Swihart'
p1870
aI309
aI288
aI47
aI79
aI17
aI1
aI5
aI31
aI4
aI2
aI18
aI77
aI113
asS'turnt001'
p1871
(lp1872
g1871
aS'Trea Turner'
p1873
aI44
aI40
aI5
aI9
aI1
aI0
aI1
aI1
aI2
aI2
aI4
aI12
aI13
asS'gricr001'
p1874
(lp1875
g1874
aS'Randal Grichuk'
p1876
aI350
aI323
aI49
aI89
aI23
aI7
aI17
aI47
aI4
aI2
aI22
aI110
aI177
asS'woodt004'
p1877
(lp1878
g1877
aS'Travis Wood'
p1879
aI32
aI30
aI0
aI3
aI0
aI0
aI0
aI2
aI0
aI0
aI2
aI16
aI3
asS'salat001'
p1880
(lp1881
g1880
aS'Tyler Saladino'
p1882
aI254
aI236
aI33
aI53
aI6
aI4
aI4
aI20
aI8
aI2
aI12
aI51
aI79
asS'saltj001'
p1883
(lp1884
g1883
aS'Jarrod Saltalamacchia'
p1885
aI227
aI200
aI26
aI45
aI15
aI0
aI9
aI24
aI0
aI0
aI23
aI69
aI87
asS'grayj003'
p1886
(lp1887
g1886
aS'Jon Gray'
p1888
aI13
aI11
aI1
aI0
aI0
aI0
aI0
aI0
aI0
aI0
aI2
aI6
aI0
asS'kimbc001'
p1889
(lp1890
g1889
aS'Craig Kimbrel'
p1891
aI1
aI1
aI0
aI0
aI0
aI0
aI0
aI0
aI0
aI0
aI0
aI1
aI0
asS'jasoj001'
p1892
(lp1893
g1892
aS'John Jaso'
p1894
aI216
aI185
aI23
aI53
aI17
aI0
aI5
aI22
aI1
aI2
aI28
aI39
aI85
asS'owinc001'
p1895
(lp1896
g1895
aS'Chris Owings'
p1897
aI552
aI515
aI59
aI117
aI27
aI5
aI4
aI43
aI16
aI4
aI26
aI144
aI166
asS'franj004'
p1898
(lp1899
g1898
aS'Jeff Francoeur'
p1900
aI343
aI326
aI34
aI84
aI16
aI1
aI13
aI45
aI0
aI2
aI13
aI77
aI141
asS'bianj001'
p1901
(lp1902
g1901
aS'Jeff Bianchi'
p1903
aI2
aI2
aI0
aI0
aI0
aI0
aI0
aI0
aI0
aI0
aI0
aI0
aI0
asS'penab002'
p1904
(lp1905
g1904
aS'Brayan Pena'
p1906
aI367
aI333
aI17
aI91
aI17
aI0
aI0
aI18
aI2
aI0
aI29
aI34
aI108
asS'easle001'
p1907
(lp1908
g1907
aS'Ed Easley'
p1909
aI7
aI6
aI0
aI0
aI0
aI0
aI0
aI1
aI0
aI0
aI0
aI1
aI0
asS'goldp001'
p1910
(lp1911
g1910
aS'Paul Goldschmidt'
p1912
aI695
aI567
aI103
aI182
aI38
aI2
aI33
aI110
aI21
aI5
aI118
aI151
aI323
asS'gillc001'
p1913
(lp1914
g1913
aS'Conor Gillaspie'
p1915
aI253
aI237
aI14
aI54
aI15
aI2
aI4
aI24
aI0
aI1
aI13
aI47
aI85
asS'gillc002'
p1916
(lp1917
g1916
aS'Cole Gillespie'
p1918
aI157
aI145
aI17
aI42
aI10
aI2
aI2
aI16
aI4
aI1
aI10
aI27
aI62
asS'eatoa002'
p1919
(lp1920
g1919
aS'Adam Eaton'
p1921
aI689
aI610
aI98
aI175
aI28
aI9
aI14
aI56
aI18
aI8
aI58
aI131
aI263
asS'shiej002'
p1922
(lp1923
g1922
aS'James Shields'
p1924
aI74
aI68
aI7
aI9
aI2
aI0
aI0
aI2
aI0
aI0
aI1
aI28
aI11
asS'crawb001'
p1925
(lp1926
g1925
aS'Brandon Crawford'
p1927
aI561
aI507
aI65
aI130
aI33
aI4
aI21
aI84
aI6
aI4
aI39
aI119
aI234
asS'reyej001'
p1928
(lp1929
g1928
aS'Jose Reyes'
p1930
aI519
aI481
aI57
aI132
aI25
aI2
aI7
aI53
aI24
aI6
aI26
aI62
aI182
asS'garcj005'
p1931
(lp1932
g1931
aS'Jason Garcia'
p1933
aI1
aI0
aI0
aI0
aI0
aI0
aI0
aI0
aI0
aI0
aI1
aI0
aI0
asS'garcj004'
p1934
(lp1935
g1934
aS'Jaime Garcia'
p1936
aI44
aI41
aI1
aI4
aI0
aI0
aI0
aI1
aI0
aI0
aI2
aI15
aI4
asS'branm003'
p1937
(lp1938
g1937
aS'Michael Brantley'
p1939
aI596
aI529
aI68
aI164
aI45
aI0
aI15
aI84
aI15
aI1
aI60
aI51
aI254
asS'coghc001'
p1940
(lp1941
g1940
aS'Chris Coghlan'
p1942
aI503
aI440
aI64
aI110
aI25
aI6
aI16
aI41
aI11
aI2
aI58
aI94
aI195
asS'parkj002'
p1943
(lp1944
g1943
aS'Jarrett Parker'
p1945
aI54
aI49
aI11
aI17
aI2
aI0
aI6
aI14
aI1
aI1
aI5
aI21
aI37
asS'flork002'
p1946
(lp1947
g1946
aS'Kendry Flores'
p1948
aI1
aI1
aI0
aI0
aI0
aI0
aI0
aI0
aI0
aI0
aI0
aI1
aI0
asS'herre001'
p1949
(lp1950
g1949
aS'Elian Herrera'
p1951
aI277
aI256
aI29
aI62
aI18
aI0
aI7
aI33
aI3
aI1
aI18
aI72
aI101
asS'mccul002'
p1952
(lp1953
g1952
aS'Lance McCullers'
p1954
aI2
aI2
aI0
aI0
aI0
aI0
aI0
aI0
aI0
aI0
aI0
aI1
aI0
asS'perer003'
p1955
(lp1956
g1955
aS'Roberto Perez'
p1957
aI226
aI184
aI30
aI42
aI9
aI1
aI7
aI21
aI0
aI0
aI33
aI64
aI74
asS'johnk003'
p1958
(lp1959
g1958
aS'Kelly Johnson'
p1960
aI335
aI310
aI38
aI82
aI11
aI0
aI14
aI47
aI2
aI1
aI23
aI81
aI135
asS'martl004'
p1961
(lp1962
g1961
aS'Leonys Martin'
p1963
aI310
aI288
aI26
aI63
aI12
aI0
aI5
aI25
aI14
aI5
aI16
aI69
aI90
asS'keucd001'
p1964
(lp1965
g1964
aS'Dallas Keuchel'
p1966
aI6
aI5
aI0
aI1
aI0
aI0
aI0
aI0
aI0
aI0
aI0
aI4
aI1
asS'infao001'
p1967
(lp1968
g1967
aS'Omar Infante'
p1969
aI455
aI440
aI39
aI97
aI23
aI7
aI2
aI44
aI2
aI2
aI9
aI69
aI140
asS'gonzs001'
p1970
(lp1971
g1970
aS'Severino Gonzalez'
p1972
aI12
aI10
aI2
aI1
aI0
aI0
aI0
aI1
aI0
aI0
aI1
aI4
aI1
asS'mercj002'
p1973
(lp1974
g1973
aS'Jordy Mercer'
p1975
aI430
aI394
aI34
aI96
aI21
aI0
aI3
aI34
aI3
aI2
aI27
aI73
aI126
asS'cingt001'
p1976
(lp1977
g1976
aS'Tony Cingrani'
p1978
aI2
aI2
aI1
aI0
aI0
aI0
aI0
aI1
aI0
aI0
aI0
aI1
aI0
asS'hamec001'
p1979
(lp1980
g1979
aS'Cole Hamels'
p1981
aI46
aI42
aI2
aI7
aI1
aI0
aI0
aI0
aI0
aI0
aI0
aI17
aI8
asS'ishit001'
p1982
(lp1983
g1982
aS'Travis Ishikawa'
p1984
aI72
aI63
aI6
aI13
aI3
aI0
aI1
aI8
aI0
aI0
aI9
aI20
aI19
asS'matzt001'
p1985
(lp1986
g1985
aS'Tyler Matzek'
p1987
aI9
aI8
aI3
aI3
aI1
aI0
aI0
aI0
aI0
aI0
aI0
aI1
aI4
asS'bourm001'
p1988
(lp1989
g1988
aS'Michael Bourn'
p1990
aI482
aI425
aI39
aI101
aI15
aI2
aI0
aI30
aI17
aI7
aI46
aI107
aI120
asS'jacka001'
p1991
(lp1992
g1991
aS'Austin Jackson'
p1993
aI527
aI491
aI56
aI131
aI25
aI3
aI9
aI48
aI17
aI10
aI29
aI126
aI189
asS'martj006'
p1994
(lp1995
g1994
aS'J.D. Martinez'
p1996
aI657
aI596
aI93
aI168
aI33
aI2
aI38
aI102
aI3
aI2
aI53
aI178
aI319
asS'matzs001'
p1997
(lp1998
g1997
aS'Steven Matz'
p1999
aI14
aI14
aI1
aI4
aI1
aI0
aI0
aI5
aI0
aI0
aI0
aI1
aI5
asS'banum001'
p2000
(lp2001
g2000
aS'Manny Banuelos'
p2002
aI7
aI3
aI0
aI0
aI0
aI0
aI0
aI0
aI0
aI0
aI0
aI1
aI0
asS'uribj002'
p2003
(lp2004
g2003
aS'Juan Uribe'
p2005
aI397
aI360
aI40
aI91
aI17
aI0
aI14
aI43
aI2
aI0
aI34
aI80
aI150
asS'rodre004'
p2006
(lp2007
g2006
aS'Eduardo Rodriguez'
p2008
aI3
aI2
aI0
aI0
aI0
aI0
aI0
aI0
aI0
aI0
aI0
aI2
aI0
asS'alvad002'
p2009
(lp2010
g2009
aS'Dariel Alvarez'
p2011
aI31
aI29
aI3
aI7
aI1
aI0
aI1
aI1
aI0
aI0
aI2
aI8
aI11
asS'chavj001'
p2012
(lp2013
g2012
aS'Jesse Chavez'
p2014
aI5
aI3
aI0
aI1
aI0
aI0
aI0
aI0
aI0
aI0
aI0
aI2
aI1
asS'laroa001'
p2015
(lp2016
g2015
aS'Adam LaRoche'
p2017
aI484
aI429
aI41
aI89
aI21
aI0
aI12
aI44
aI0
aI0
aI49
aI133
aI146
asS'mornj001'
p2018
(lp2019
g2018
aS'Justin Morneau'
p2020
aI182
aI168
aI19
aI52
aI10
aI3
aI3
aI15
aI0
aI0
aI13
aI25
aI77
asS'fernj003'
p2021
(lp2022
g2021
aS'Jose Fernandez'
p2023
aI22
aI18
aI2
aI3
aI1
aI0
aI1
aI2
aI0
aI0
aI0
aI4
aI7
asS'johnm006'
p2024
(lp2025
g2024
aS'Micah Johnson'
p2026
aI114
aI100
aI10
aI23
aI4
aI0
aI0
aI4
aI3
aI2
aI9
aI30
aI27
asS'norrd001'
p2027
(lp2028
g2027
aS'Derek Norris'
p2029
aI557
aI515
aI65
aI129
aI33
aI2
aI14
aI62
aI4
aI1
aI35
aI131
aI208
asS'norrd002'
p2030
(lp2031
g2030
aS'Daniel Norris'
p2032
aI3
aI2
aI1
aI1
aI0
aI0
aI1
aI2
aI0
aI0
aI1
aI1
aI4
asS'milew001'
p2033
(lp2034
g2033
aS'Wade Miley'
p2035
aI2
aI2
aI0
aI0
aI0
aI0
aI0
aI0
aI0
aI0
aI0
aI0
aI0
asS'janip001'
p2036
(lp2037
g2036
aS'Paul Janish'
p2038
aI36
aI35
aI4
aI10
aI3
aI0
aI0
aI3
aI0
aI0
aI0
aI3
aI13
asS'tuckp001'
p2039
(lp2040
g2039
aS'Preston Tucker'
p2041
aI323
aI300
aI35
aI73
aI19
aI0
aI13
aI33
aI0
aI2
aI20
aI68
aI131
asS'dicka001'
p2042
(lp2043
g2042
aS'Alex Dickerson'
p2044
aI8
aI8
aI0
aI2
aI0
aI0
aI0
aI0
aI0
aI0
aI0
aI3
aI2
asS'heats001'
p2045
(lp2046
g2045
aS'Slade Heathcott'
p2047
aI30
aI25
aI6
aI10
aI2
aI0
aI2
aI8
aI0
aI1
aI2
aI5
aI18
asS'longe001'
p2048
(lp2049
g2048
aS'Evan Longoria'
p2050
aI670
aI604
aI74
aI163
aI35
aI1
aI21
aI73
aI3
aI1
aI51
aI132
aI263
asS'hickj001'
p2051
(lp2052
g2051
aS'John Hicks'
p2053
aI34
aI32
aI1
aI2
aI1
aI0
aI0
aI1
aI1
aI1
aI1
aI18
aI3
asS'diazj004'
p2054
(lp2055
g2054
aS'Jonathan Diaz'
p2056
aI16
aI13
aI1
aI2
aI0
aI0
aI0
aI2
aI0
aI0
aI1
aI3
aI2
asS'peavj001'
p2057
(lp2058
g2057
aS'Jake Peavy'
p2059
aI41
aI36
aI5
aI7
aI2
aI0
aI1
aI3
aI0
aI0
aI1
aI17
aI12
asS'escoy001'
p2060
(lp2061
g2060
aS'Yunel Escobar'
p2062
aI591
aI535
aI75
aI168
aI25
aI1
aI9
aI56
aI2
aI2
aI45
aI70
aI222
asS'roset001'
p2063
(lp2064
g2063
aS'Trevor Rosenthal'
p2065
aI1
aI1
aI0
aI0
aI0
aI0
aI0
aI0
aI0
aI0
aI0
aI1
aI0
asS'chapa001'
p2066
(lp2067
g2066
aS'Aroldis Chapman'
p2068
aI1
aI1
aI1
aI0
aI0
aI0
aI0
aI0
aI0
aI0
aI0
aI0
aI0
asS'jay-j001'
p2069
(lp2070
g2069
aS'Jon Jay'
p2071
aI245
aI210
aI25
aI44
aI5
aI1
aI1
aI10
aI0
aI2
aI19
aI36
aI54
asS'gorda001'
p2072
(lp2073
g2072
aS'Alex Gordon'
p2074
aI422
aI354
aI40
aI96
aI18
aI0
aI13
aI48
aI2
aI5
aI49
aI92
aI153
asS'ryanb002'
p2075
(lp2076
g2075
aS'Brendan Ryan'
p2077
aI103
aI96
aI10
aI22
aI6
aI2
aI0
aI8
aI0
aI0
aI5
aI29
aI32
asS'uptoj001'
p2078
(lp2079
g2078
aS'Justin Upton'
p2080
aI620
aI542
aI85
aI136
aI26
aI3
aI26
aI81
aI19
aI5
aI68
aI159
aI246
asS'encae001'
p2081
(lp2082
g2081
aS'Edwin Encarnacion'
p2083
aI624
aI528
aI94
aI146
aI31
aI0
aI39
aI111
aI3
aI2
aI77
aI98
aI294
asS'burna001'
p2084
(lp2085
g2084
aS'A.J. Burnett'
p2086
aI52
aI42
aI1
aI5
aI0
aI0
aI1
aI5
aI0
aI0
aI0
aI20
aI8
asS'altha001'
p2087
(lp2088
g2087
aS'Aaron Altherr'
p2089
aI161
aI137
aI25
aI33
aI11
aI4
aI5
aI22
aI6
aI2
aI16
aI41
aI67
asS'rodrs002'
p2090
(lp2091
g2090
aS'Sean Rodriguez'
p2092
aI240
aI224
aI25
aI55
aI12
aI1
aI4
aI17
aI2
aI2
aI5
aI63
aI81
asS'lockj001'
p2093
(lp2094
g2093
aS'Jeff Locke'
p2095
aI54
aI45
aI1
aI3
aI1
aI0
aI0
aI2
aI0
aI0
aI2
aI18
aI4
asS'ladet001'
p2096
(lp2097
g2096
aS'Tyler Ladendorf'
p2098
aI18
aI17
aI3
aI4
aI0
aI1
aI0
aI2
aI0
aI0
aI1
aI2
aI6
asS'olt-m001'
p2099
(lp2100
g2099
aS'Mike Olt'
p2101
aI102
aI94
aI7
aI18
aI0
aI0
aI4
aI5
aI0
aI1
aI7
aI35
aI30
asS'grany001'
p2102
(lp2103
g2102
aS'Yasmani Grandal'
p2104
aI426
aI355
aI43
aI83
aI12
aI0
aI16
aI47
aI0
aI1
aI65
aI92
aI143
asS'igler001'
p2105
(lp2106
g2105
aS'Raisel Iglesias'
p2107
aI31
aI30
aI0
aI2
aI0
aI1
aI0
aI1
aI0
aI0
aI0
aI13
aI4
asS'villj001'
p2108
(lp2109
g2108
aS'Jonathan Villar'
p2110
aI128
aI116
aI18
aI33
aI7
aI1
aI2
aI11
aI7
aI2
aI10
aI29
aI48
asS'solay001'
p2111
(lp2112
g2111
aS'Yangervis Solarte'
p2113
aI571
aI526
aI63
aI142
aI33
aI4
aI14
aI63
aI1
aI0
aI34
aI56
aI225
asS'cozaz001'
p2114
(lp2115
g2114
aS'Zack Cozart'
p2116
aI214
aI194
aI28
aI50
aI10
aI1
aI9
aI28
aI3
aI3
aI14
aI29
aI89
asS'gomey001'
p2117
(lp2118
g2117
aS'Yan Gomes'
p2119
aI389
aI363
aI38
aI84
aI22
aI0
aI12
aI45
aI0
aI0
aI13
aI104
aI142
asS'hanir001'
p2120
(lp2121
g2120
aS'Ryan Hanigan'
p2122
aI201
aI174
aI28
aI43
aI8
aI0
aI2
aI16
aI0
aI0
aI20
aI39
aI57
asS'ariaj001'
p2123
(lp2124
g2123
aS'Joaquin Arias'
p2125
aI59
aI58
aI5
aI12
aI1
aI0
aI1
aI4
aI1
aI0
aI0
aI12
aI16
asS'mesod001'
p2126
(lp2127
g2126
aS'Devin Mesoraco'
p2128
aI51
aI45
aI2
aI8
aI1
aI1
aI0
aI2
aI1
aI0
aI5
aI9
aI11
asS'adamc001'
p2129
(lp2130
g2129
aS'Cristhian Adames'
p2131
aI58
aI53
aI4
aI13
aI1
aI1
aI0
aI3
aI0
aI1
aI3
aI11
aI16
asS'happj001'
p2132
(lp2133
g2132
aS'J.A. Happ'
p2134
aI27
aI23
aI1
aI2
aI0
aI0
aI0
aI0
aI0
aI0
aI1
aI13
aI2
asS'perad001'
p2135
(lp2136
g2135
aS'David Peralta'
p2137
aI517
aI462
aI61
aI144
aI26
aI10
aI17
aI78
aI9
aI4
aI44
aI107
aI241
asS'machm001'
p2138
(lp2139
g2138
aS'Manny Machado'
p2140
aI713
aI633
aI102
aI181
aI30
aI1
aI35
aI86
aI20
aI8
aI70
aI111
aI318
asS'pench001'
p2141
(lp2142
g2141
aS'Hunter Pence'
p2143
aI223
aI207
aI30
aI57
aI13
aI1
aI9
aI40
aI4
aI1
aI16
aI48
aI99
asS'zobrb001'
p2144
(lp2145
g2144
aS'Ben Zobrist'
p2146
aI535
aI467
aI76
aI129
aI36
aI3
aI13
aI56
aI3
aI4
aI62
aI56
aI210
asS'martk001'
p2147
(lp2148
g2147
aS'Ketel Marte'
p2149
aI247
aI219
aI25
aI62
aI14
aI3
aI2
aI17
aI8
aI4
aI24
aI43
aI88
asS'hammj002'
p2150
(lp2151
g2150
aS'Jason Hammel'
p2152
aI70
aI65
aI6
aI11
aI1
aI0
aI0
aI4
aI0
aI0
aI1
aI18
aI12
asS'denoc001'
p2153
(lp2154
g2153
aS'Chris Denorfia'
p2155
aI231
aI212
aI18
aI57
aI11
aI1
aI3
aI18
aI0
aI1
aI15
aI56
aI79
asS'huntt001'
p2156
(lp2157
g2156
aS'Torii Hunter'
p2158
aI567
aI521
aI67
aI125
aI22
aI0
aI22
aI81
aI2
aI5
aI35
aI105
aI213
asS'petig001'
p2159
(lp2160
g2159
aS'Gregorio Petit'
p2161
aI47
aI42
aI7
aI7
aI3
aI0
aI0
aI5
aI0
aI0
aI3
aI16
aI10
asS'ramij004'
p2162
(lp2163
g2162
aS'Jose Ramirez'
p2164
aI355
aI315
aI50
aI69
aI14
aI3
aI6
aI27
aI10
aI4
aI32
aI39
aI107
asS'bakes002'
p2165
(lp2166
g2165
aS'Scott Baker'
p2167
aI4
aI3
aI0
aI0
aI0
aI0
aI0
aI0
aI0
aI0
aI0
aI1
aI0
asS'schem001'
p2168
(lp2169
g2168
aS'Max Scherzer'
p2170
aI77
aI69
aI4
aI15
aI0
aI0
aI0
aI0
aI0
aI0
aI2
aI23
aI15
asS'venaw001'
p2171
(lp2172
g2171
aS'Will Venable'
p2173
aI390
aI349
aI40
aI85
aI13
aI3
aI6
aI33
aI16
aI1
aI37
aI94
aI122
asS'montm002'
p2174
(lp2175
g2174
aS'Mike Montgomery'
p2176
aI3
aI3
aI0
aI0
aI0
aI0
aI0
aI0
aI0
aI0
aI0
aI2
aI0
asS'mauej001'
p2177
(lp2178
g2177
aS'Joe Mauer'
p2179
aI666
aI592
aI69
aI157
aI34
aI2
aI10
aI66
aI2
aI1
aI67
aI112
aI225
asS'castn001'
p2180
(lp2181
g2180
aS'Nick Castellanos'
p2182
aI595
aI549
aI42
aI140
aI33
aI6
aI15
aI73
aI0
aI3
aI39
aI152
aI230
asS'medlk001'
p2183
(lp2184
g2183
aS'Kris Medlen'
p2185
aI1
aI0
aI1
aI0
aI0
aI0
aI0
aI0
aI0
aI0
aI0
aI0
aI0
asS'lucrj001'
p2186
(lp2187
g2186
aS'Jonathan Lucroy'
p2188
aI415
aI371
aI51
aI98
aI20
aI3
aI7
aI43
aI1
aI0
aI36
aI64
aI145
asS'plout001'
p2189
(lp2190
g2189
aS'Trevor Plouffe'
p2191
aI632
aI573
aI74
aI140
aI35
aI4
aI22
aI86
aI2
aI1
aI50
aI124
aI249
asS'peraj003'
p2192
(lp2193
g2192
aS'Jose Peraza'
p2194
aI25
aI22
aI3
aI4
aI1
aI1
aI0
aI1
aI3
aI0
aI2
aI2
aI7
asS'youne003'
p2195
(lp2196
g2195
aS'Eric Young'
p2197
aI94
aI85
aI16
aI13
aI4
aI2
aI0
aI5
aI6
aI2
aI6
aI18
aI21
asS'penaf001'
p2198
(lp2199
g2198
aS'Francisco Pena'
p2200
aI7
aI7
aI0
aI1
aI0
aI0
aI0
aI0
aI0
aI0
aI0
aI3
aI1
asS'lambj002'
p2201
(lp2202
g2201
aS'John Lamb'
p2203
aI16
aI16
aI0
aI1
aI1
aI0
aI0
aI1
aI0
aI0
aI0
aI8
aI2
asS'lambj001'
p2204
(lp2205
g2204
aS'Jake Lamb'
p2206
aI390
aI350
aI38
aI92
aI15
aI5
aI6
aI34
aI3
aI2
aI36
aI97
aI135
asS'dickr001'
p2207
(lp2208
g2207
aS'R.A. Dickey'
p2209
aI4
aI3
aI0
aI0
aI0
aI0
aI0
aI0
aI0
aI0
aI0
aI1
aI0
asS'moscj001'
p2210
(lp2211
g2210
aS'Jon Moscot'
p2212
aI4
aI4
aI0
aI1
aI0
aI0
aI0
aI0
aI0
aI0
aI0
aI2
aI1
asS'andec001'
p2213
(lp2214
g2213
aS'Chase Anderson'
p2215
aI57
aI48
aI0
aI5
aI0
aI0
aI0
aI3
aI0
aI0
aI1
aI23
aI5
asS'jackr005'
p2216
(lp2217
g2216
aS'Ryan Jackson'
p2218
aI14
aI9
aI0
aI0
aI0
aI0
aI0
aI0
aI0
aI0
aI1
aI5
aI0
asS'andec002'
p2219
(lp2220
g2219
aS'Cody Anderson'
p2221
aI3
aI3
aI0
aI0
aI0
aI0
aI0
aI0
aI0
aI0
aI0
aI3
aI0
asS'poseb001'
p2222
(lp2223
g2222
aS'Buster Posey'
p2224
aI623
aI557
aI74
aI177
aI28
aI0
aI19
aI95
aI2
aI0
aI56
aI52
aI262
asS'mccua001'
p2225
(lp2226
g2225
aS'Andrew McCutchen'
p2227
aI685
aI566
aI91
aI165
aI36
aI3
aI23
aI96
aI11
aI5
aI98
aI133
aI276
asS'tolls001'
p2228
(lp2229
g2228
aS'Steven Tolleson'
p2230
aI45
aI41
aI9
aI11
aI5
aI1
aI0
aI3
aI2
aI0
aI4
aI9
aI18
asS'vendp001'
p2231
(lp2232
g2231
aS'Pat Venditte'
p2233
aI1
aI1
aI0
aI0
aI0
aI0
aI0
aI0
aI0
aI0
aI0
aI1
aI0
asS'bumgm001'
p2234
(lp2235
g2234
aS'Madison Bumgarner'
p2236
aI81
aI77
aI9
aI19
aI2
aI0
aI5
aI9
aI0
aI0
aI3
aI27
aI36
asS'machd001'
p2237
(lp2238
g2237
aS'Dixon Machado'
p2239
aI78
aI68
aI6
aI16
aI3
aI0
aI0
aI5
aI1
aI0
aI7
aI14
aI19
asS'congh001'
p2240
(lp2241
g2240
aS'Hank Conger'
p2242
aI229
aI201
aI25
aI46
aI11
aI0
aI11
aI33
aI0
aI1
aI23
aI63
aI90
asS'sadlc002'
p2243
(lp2244
g2243
aS'Casey Sadler'
p2245
aI2
aI1
aI0
aI0
aI0
aI0
aI0
aI0
aI0
aI0
aI0
aI0
aI0
asS'rivey001'
p2246
(lp2247
g2246
aS'Yadiel Rivera'
p2248
aI15
aI14
aI0
aI1
aI0
aI0
aI0
aI0
aI0
aI0
aI0
aI4
aI1
asS'beltb001'
p2249
(lp2250
g2249
aS'Brandon Belt'
p2251
aI556
aI492
aI73
aI138
aI33
aI5
aI18
aI68
aI9
aI3
aI56
aI147
aI235
asS'sardl001'
p2252
(lp2253
g2252
aS'Luis Sardinas'
p2254
aI105
aI97
aI8
aI19
aI0
aI1
aI0
aI4
aI0
aI0
aI6
aI25
aI21
asS'seagc001'
p2255
(lp2256
g2255
aS'Corey Seager'
p2257
aI113
aI98
aI17
aI33
aI8
aI1
aI4
aI17
aI2
aI0
aI14
aI19
aI55
asS'sandj002'
p2258
(lp2259
g2258
aS'Jerry Sands'
p2260
aI133
aI123
aI11
aI29
aI5
aI1
aI4
aI19
aI0
aI0
aI9
aI36
aI48
asS'hendk001'
p2261
(lp2262
g2261
aS'Kyle Hendricks'
p2263
aI64
aI60
aI2
aI3
aI1
aI0
aI0
aI1
aI0
aI0
aI1
aI24
aI4
asS'may-t001'
p2264
(lp2265
g2264
aS'Trevor May'
p2266
aI3
aI3
aI0
aI0
aI0
aI0
aI0
aI0
aI0
aI0
aI0
aI3
aI0
asS'balec001'
p2267
(lp2268
g2267
aS'Collin Balester'
p2269
aI1
aI1
aI0
aI0
aI0
aI0
aI0
aI0
aI0
aI0
aI0
aI0
aI0
asS'romaj003'
p2270
(lp2271
g2270
aS'Jamie Romak'
p2272
aI16
aI15
aI2
aI5
aI2
aI0
aI0
aI1
aI0
aI0
aI1
aI6
aI7
asS'dejei002'
p2273
(lp2274
g2273
aS'Ivan De Jesus'
p2275
aI222
aI201
aI15
aI49
aI10
aI2
aI4
aI28
aI0
aI2
aI19
aI55
aI75
asS'martv001'
p2276
(lp2277
g2276
aS'Victor Martinez'
p2278
aI485
aI440
aI39
aI108
aI20
aI0
aI11
aI64
aI0
aI0
aI31
aI52
aI161
asS'adama001'
p2279
(lp2280
g2279
aS'Austin Adams'
p2281
aI1
aI1
aI0
aI0
aI0
aI0
aI0
aI0
aI0
aI0
aI0
aI0
aI0
asS'butlb003'
p2282
(lp2283
g2282
aS'Billy Butler'
p2284
aI601
aI538
aI63
aI135
aI28
aI1
aI15
aI65
aI0
aI0
aI52
aI101
aI210
asS'lobaj001'
p2285
(lp2286
g2285
aS'Jose Lobaton'
p2287
aI155
aI136
aI11
aI27
aI4
aI0
aI3
aI20
aI0
aI0
aI15
aI40
aI40
asS'duffm002'
p2288
(lp2289
g2288
aS'Matt Duffy'
p2290
aI621
aI581
aI77
aI172
aI29
aI6
aI12
aI80
aI12
aI0
aI31
aI98
aI249
asS'haled001'
p2291
(lp2292
g2291
aS'David Hale'
p2293
aI27
aI23
aI1
aI2
aI0
aI0
aI0
aI0
aI0
aI0
aI0
aI9
aI2
asS'browd004'
p2294
(lp2295
g2294
aS'Domonic Brown'
p2296
aI204
aI189
aI19
aI43
aI6
aI1
aI5
aI25
aI3
aI1
aI14
aI36
aI66
asS'affej001'
p2297
(lp2298
g2297
aS'Jeremy Affeldt'
p2299
aI2
aI2
aI0
aI0
aI0
aI0
aI0
aI0
aI0
aI0
aI0
aI2
aI0
asS'moorm003'
p2300
(lp2301
g2300
aS'Matt Moore'
p2302
aI2
aI1
aI0
aI0
aI0
aI0
aI0
aI0
aI0
aI0
aI0
aI0
aI0
asS'schal001'
p2303
(lp2304
g2303
aS'Logan Schafer'
p2305
aI143
aI122
aI17
aI27
aI6
aI1
aI1
aI6
aI1
aI0
aI12
aI29
aI38
asS'hestc001'
p2306
(lp2307
g2306
aS'Chris Heston'
p2308
aI58
aI51
aI1
aI10
aI2
aI0
aI0
aI3
aI0
aI0
aI0
aI18
aI12
asS'polag001'
p2309
(lp2310
g2309
aS'Gregory Polanco'
p2311
aI652
aI593
aI83
aI152
aI35
aI6
aI9
aI52
aI27
aI10
aI55
aI121
aI226
asS'blang001'
p2312
(lp2313
g2312
aS'Gregor Blanco'
p2314
aI372
aI327
aI59
aI95
aI19
aI3
aI5
aI26
aI13
aI5
aI40
aI59
aI135
asS'stule002'
p2315
(lp2316
g2315
aS'Eric Stults'
p2317
aI16
aI13
aI0
aI1
aI0
aI0
aI0
aI0
aI0
aI0
aI0
aI7
aI1
asS'holmd002'
p2318
(lp2319
g2318
aS'David Holmberg'
p2320
aI12
aI8
aI2
aI1
aI0
aI0
aI0
aI0
aI0
aI0
aI2
aI5
aI1
asS'wongk001'
p2321
(lp2322
g2321
aS'Kolten Wong'
p2323
aI613
aI557
aI71
aI146
aI28
aI4
aI11
aI61
aI15
aI8
aI36
aI95
aI215
asS'stanm004'
p2324
(lp2325
g2324
aS'Giancarlo Stanton'
p2326
aI318
aI279
aI47
aI74
aI12
aI1
aI27
aI67
aI4
aI2
aI34
aI95
aI169
asS'moliy001'
p2327
(lp2328
g2327
aS'Yadier Molina'
p2329
aI530
aI488
aI34
aI132
aI23
aI2
aI4
aI61
aI3
aI1
aI32
aI59
aI171
asS'hamij003'
p2330
(lp2331
g2330
aS'Josh Hamilton'
p2332
aI182
aI170
aI22
aI43
aI8
aI0
aI8
aI25
aI0
aI0
aI10
aI52
aI75
asS'lamar001'
p2333
(lp2334
g2333
aS'Ryan LaMarre'
p2335
aI26
aI25
aI2
aI2
aI0
aI0
aI0
aI0
aI0
aI0
aI0
aI9
aI2
asS'river003'
p2336
(lp2337
g2336
aS'Rene Rivera'
p2338
aI319
aI298
aI16
aI53
aI14
aI0
aI5
aI26
aI0
aI0
aI11
aI86
aI82
asS'peree003'
p2339
(lp2340
g2339
aS'Eury Perez'
p2341
aI133
aI119
aI10
aI32
aI4
aI0
aI0
aI5
aI3
aI1
aI7
aI23
aI36
asS'corbp001'
p2342
(lp2343
g2342
aS'Patrick Corbin'
p2344
aI29
aI25
aI1
aI3
aI0
aI0
aI0
aI3
aI0
aI0
aI3
aI11
aI3
asS'hagum001'
p2345
(lp2346
g2345
aS'Matt Hague'
p2347
aI15
aI12
aI1
aI3
aI1
aI0
aI0
aI0
aI0
aI0
aI2
aI4
aI4
asS'roart001'
p2348
(lp2349
g2348
aS'Tanner Roark'
p2350
aI29
aI27
aI1
aI5
aI2
aI0
aI0
aI0
aI0
aI0
aI0
aI9
aI7
asS'gyorj001'
p2351
(lp2352
g2351
aS'Jedd Gyorko'
p2353
aI458
aI421
aI34
aI104
aI15
aI0
aI16
aI57
aI0
aI1
aI27
aI107
aI167
asS'belir001'
p2354
(lp2355
g2354
aS'Ronald Belisario'
p2356
aI1
aI1
aI0
aI0
aI0
aI0
aI0
aI0
aI0
aI0
aI0
aI0
aI0
asS'hernc005'
p2357
(lp2358
g2357
aS'Cesar Hernandez'
p2359
aI452
aI405
aI57
aI110
aI20
aI4
aI1
aI35
aI19
aI5
aI40
aI86
aI141
asS'colac001'
p2360
(lp2361
g2360
aS'Chris Colabello'
p2362
aI360
aI333
aI55
aI107
aI19
aI1
aI15
aI54
aI2
aI0
aI22
aI96
aI173
asS'finnb001'
p2363
(lp2364
g2363
aS'Brandon Finnegan'
p2365
aI6
aI4
aI0
aI0
aI0
aI0
aI0
aI0
aI0
aI0
aI0
aI2
aI0
asS'alony001'
p2366
(lp2367
g2366
aS'Yonder Alonso'
p2368
aI402
aI354
aI50
aI100
aI18
aI1
aI5
aI31
aI2
aI5
aI42
aI48
aI135
asS'sches001'
p2369
(lp2370
g2369
aS'Scott Schebler'
p2371
aI40
aI36
aI6
aI9
aI0
aI0
aI3
aI4
aI2
aI1
aI3
aI13
aI18
asS'waldk001'
p2372
(lp2373
g2372
aS'Kyle Waldrop'
p2374
aI1
aI1
aI0
aI0
aI0
aI0
aI0
aI0
aI0
aI0
aI0
aI1
aI0
asS'rosaw001'
p2375
(lp2376
g2375
aS'Wilin Rosario'
p2377
aI242
aI231
aI22
aI62
aI14
aI1
aI6
aI29
aI2
aI1
aI8
aI56
aI96
asS'harvm001'
p2378
(lp2379
g2378
aS'Matt Harvey'
p2380
aI66
aI65
aI1
aI7
aI2
aI0
aI1
aI7
aI0
aI0
aI0
aI31
aI12
asS'duvaa001'
p2381
(lp2382
g2381
aS'Adam Duvall'
p2383
aI72
aI64
aI6
aI14
aI2
aI0
aI5
aI9
aI0
aI0
aI6
aI26
aI31
asS'iannc001'
p2384
(lp2385
g2384
aS'Chris Iannetta'
p2386
aI317
aI272
aI28
aI51
aI10
aI0
aI10
aI34
aI0
aI1
aI41
aI83
aI91
asS'walkn001'
p2387
(lp2388
g2387
aS'Neil Walker'
p2389
aI603
aI543
aI69
aI146
aI32
aI3
aI16
aI71
aI4
aI1
aI44
aI110
aI232
asS'torra002'
p2390
(lp2391
g2390
aS'Alex Torres'
p2392
aI1
aI1
aI0
aI0
aI0
aI0
aI0
aI0
aI0
aI0
aI0
aI0
aI0
asS'arcio001'
p2393
(lp2394
g2393
aS'Oswaldo Arcia'
p2395
aI65
aI58
aI6
aI16
aI0
aI0
aI2
aI8
aI0
aI0
aI4
aI15
aI22
asS'zimmr001'
p2396
(lp2397
g2396
aS'Ryan Zimmerman'
p2398
aI390
aI346
aI43
aI86
aI25
aI1
aI16
aI73
aI1
aI0
aI33
aI79
aI161
asS'branr002'
p2399
(lp2400
g2399
aS'Rob Brantly'
p2401
aI36
aI33
aI3
aI4
aI1
aI0
aI1
aI6
aI0
aI0
aI2
aI8
aI8
asS'guerd001'
p2402
(lp2403
g2402
aS'Deolis Guerra'
p2404
aI1
aI1
aI0
aI0
aI0
aI0
aI0
aI0
aI0
aI0
aI0
aI0
aI0
asS'hatcc002'
p2405
(lp2406
g2405
aS'Chris Hatcher'
p2407
aI1
aI1
aI0
aI0
aI0
aI0
aI0
aI0
aI0
aI0
aI0
aI0
aI0
asS'bernd001'
p2408
(lp2409
g2408
aS'Doug Bernier'
p2410
aI6
aI5
aI1
aI1
aI1
aI0
aI0
aI2
aI0
aI0
aI1
aI3
aI2
asS'cabrr001'
p2411
(lp2412
g2411
aS'Ramon Cabrera'
p2413
aI30
aI30
aI4
aI11
aI1
aI0
aI1
aI3
aI0
aI0
aI0
aI5
aI15
asS'blaic001'
p2414
(lp2415
g2414
aS'Carson Blair'
p2416
aI35
aI31
aI3
aI4
aI0
aI0
aI1
aI3
aI0
aI0
aI4
aI18
aI7
asS'lonej001'
p2417
(lp2418
g2417
aS'James Loney'
p2419
aI388
aI361
aI25
aI101
aI16
aI0
aI4
aI32
aI2
aI4
aI23
aI34
aI129
asS'dickc002'
p2420
(lp2421
g2420
aS'Corey Dickerson'
p2422
aI234
aI224
aI30
aI68
aI18
aI2
aI10
aI31
aI0
aI1
aI10
aI56
aI120
asS'rasmc001'
p2423
(lp2424
g2423
aS'Colby Rasmus'
p2425
aI485
aI432
aI67
aI103
aI23
aI2
aI25
aI61
aI2
aI1
aI47
aI154
aI205
asS'lackj001'
p2426
(lp2427
g2426
aS'John Lackey'
p2428
aI70
aI62
aI0
aI7
aI2
aI0
aI0
aI3
aI0
aI0
aI4
aI24
aI9
asS'baxtm001'
p2429
(lp2430
g2429
aS'Mike Baxter'
p2431
aI66
aI57
aI6
aI14
aI1
aI0
aI0
aI2
aI0
aI0
aI7
aI14
aI15
asS'ruizc001'
p2432
(lp2433
g2432
aS'Carlos Ruiz'
p2434
aI320
aI284
aI23
aI60
aI13
aI1
aI2
aI22
aI1
aI1
aI28
aI43
aI81
asS'moort002'
p2435
(lp2436
g2435
aS'Tyler Moore'
p2437
aI200
aI187
aI14
aI38
aI12
aI0
aI6
aI27
aI0
aI0
aI11
aI45
aI68
asS'romia001'
p2438
(lp2439
g2438
aS'Andrew Romine'
p2440
aI203
aI184
aI25
aI47
aI5
aI0
aI2
aI15
aI10
aI5
aI11
aI46
aI58
asS'romia002'
p2441
(lp2442
g2441
aS'Austin Romine'
p2443
aI2
aI2
aI0
aI0
aI0
aI0
aI0
aI0
aI0
aI0
aI0
aI0
aI0
asS'perew001'
p2444
(lp2445
g2444
aS'Williams Perez'
p2446
aI34
aI28
aI2
aI2
aI0
aI0
aI0
aI0
aI0
aI0
aI2
aI13
aI2
asS'ramie004'
p2447
(lp2448
g2447
aS'Erasmo Ramirez'
p2449
aI2
aI2
aI0
aI0
aI0
aI0
aI0
aI0
aI0
aI0
aI0
aI2
aI0
asS'shafr001'
p2450
(lp2451
g2450
aS'Richie Shaffer'
p2452
aI88
aI74
aI11
aI14
aI3
aI0
aI4
aI6
aI0
aI1
aI10
aI32
aI29
asS'pelfm001'
p2453
(lp2454
g2453
aS'Mike Pelfrey'
p2455
aI3
aI3
aI0
aI2
aI0
aI0
aI0
aI0
aI0
aI0
aI0
aI1
aI2
asS'corpc001'
p2456
(lp2457
g2456
aS'Carlos Corporan'
p2458
aI121
aI107
aI10
aI19
aI4
aI0
aI3
aI15
aI0
aI0
aI6
aI40
aI32
asS'taylc001'
p2459
(lp2460
g2459
aS'Chris Taylor'
p2461
aI102
aI94
aI9
aI16
aI3
aI1
aI0
aI1
aI3
aI2
aI6
aI31
aI21
asS'piscs001'
p2462
(lp2463
g2462
aS'Stephen Piscotty'
p2464
aI256
aI233
aI29
aI71
aI15
aI4
aI7
aI39
aI2
aI1
aI20
aI56
aI115
asS'grosr001'
p2465
(lp2466
g2465
aS'Robbie Grossman'
p2467
aI54
aI49
aI7
aI7
aI2
aI0
aI1
aI5
aI0
aI0
aI5
aI17
aI12
asS'estrm001'
p2468
(lp2469
g2468
aS'Marco Estrada'
p2470
aI6
aI6
aI0
aI2
aI0
aI0
aI0
aI0
aI0
aI0
aI0
aI2
aI2
asS'collj001'
p2471
(lp2472
g2471
aS'Josh Collmenter'
p2473
aI32
aI27
aI2
aI5
aI0
aI0
aI0
aI1
aI0
aI0
aI3
aI9
aI5
asS'lagaj001'
p2474
(lp2475
g2474
aS'Juan Lagares'
p2476
aI465
aI441
aI47
aI114
aI16
aI5
aI6
aI41
aI7
aI3
aI16
aI87
aI158
asS'dankj002'
p2477
(lp2478
g2477
aS'Jordan Danks'
p2479
aI4
aI4
aI0
aI0
aI0
aI0
aI0
aI0
aI0
aI0
aI0
aI2
aI0
asS'susaa001'
p2480
(lp2481
g2480
aS'Andrew Susac'
p2482
aI148
aI133
aI14
aI29
aI7
aI2
aI3
aI14
aI0
aI0
aI14
aI43
aI49
asS'florw001'
p2483
(lp2484
g2483
aS'Wilmer Flores'
p2485
aI510
aI483
aI55
aI127
aI22
aI0
aI16
aI59
aI0
aI1
aI19
aI63
aI197
asS'gentc001'
p2486
(lp2487
g2486
aS'Craig Gentry'
p2488
aI56
aI50
aI6
aI6
aI0
aI2
aI0
aI3
aI1
aI1
aI4
aI15
aI10
asS'tholj001'
p2489
(lp2490
g2489
aS'Josh Thole'
p2491
aI52
aI49
aI5
aI10
aI2
aI0
aI0
aI2
aI0
aI0
aI3
aI9
aI12
asS'ruppc001'
p2492
(lp2493
g2492
aS'Cameron Rupp'
p2494
aI299
aI270
aI24
aI63
aI9
aI1
aI9
aI28
aI0
aI1
aI24
aI71
aI101
asS'bakej001'
p2495
(lp2496
g2495
aS'Jeff Baker'
p2497
aI80
aI72
aI11
aI15
aI3
aI0
aI3
aI8
aI0
aI0
aI8
aI25
aI27
asS'bettm001'
p2498
(lp2499
g2498
aS'Mookie Betts'
p2500
aI654
aI597
aI92
aI174
aI42
aI8
aI18
aI77
aI21
aI6
aI46
aI82
aI286
asS'hecha001'
p2501
(lp2502
g2501
aS'Adeiny Hechavarria'
p2503
aI499
aI470
aI54
aI132
aI17
aI6
aI5
aI48
aI7
aI2
aI23
aI78
aI176
asS'tulot001'
p2504
(lp2505
g2504
aS'Troy Tulowitzki'
p2506
aI534
aI486
aI77
aI136
aI27
aI0
aI17
aI70
aI1
aI0
aI38
aI114
aI214
asS'dyksa001'
p2507
(lp2508
g2507
aS'Allan Dykstra'
p2509
aI38
aI31
aI3
aI4
aI0
aI0
aI1
aI4
aI0
aI0
aI6
aI12
aI7
asS'lawrb002'
p2510
(lp2511
g2510
aS'Brett Lawrie'
p2512
aI602
aI562
aI64
aI146
aI29
aI3
aI16
aI60
aI5
aI2
aI28
aI144
aI229
asS'escoe001'
p2513
(lp2514
g2513
aS'Eduardo Escobar'
p2515
aI446
aI409
aI48
aI107
aI31
aI4
aI12
aI58
aI2
aI3
aI28
aI86
aI182
asS'ramih003'
p2516
(lp2517
g2516
aS'Hanley Ramirez'
p2518
aI430
aI401
aI59
aI100
aI12
aI1
aI19
aI53
aI6
aI3
aI21
aI71
aI171
asS'reynm001'
p2519
(lp2520
g2519
aS'Mark Reynolds'
p2521
aI432
aI382
aI35
aI88
aI21
aI2
aI13
aI48
aI2
aI3
aI44
aI121
aI152
asS'wrigd002'
p2522
(lp2523
g2522
aS'David Wright'
p2524
aI174
aI152
aI24
aI44
aI7
aI0
aI5
aI17
aI2
aI1
aI22
aI36
aI66
asS'kendk001'
p2525
(lp2526
g2525
aS'Kyle Kendrick'
p2527
aI49
aI43
aI6
aI8
aI2
aI0
aI1
aI2
aI0
aI0
aI3
aI16
aI13
asS'olivh001'
p2528
(lp2529
g2528
aS'Hector Olivera'
p2530
aI87
aI79
aI4
aI20
aI4
aI1
aI2
aI11
aI0
aI0
aI5
aI12
aI32
asS'lynnl001'
p2531
(lp2532
g2531
aS'Lance Lynn'
p2533
aI55
aI50
aI3
aI8
aI2
aI0
aI0
aI1
aI0
aI0
aI0
aI26
aI10
asS'cecid001'
p2534
(lp2535
g2534
aS'Darrell Ceciliani'
p2536
aI75
aI68
aI5
aI14
aI2
aI0
aI1
aI3
aI5
aI1
aI4
aI25
aI19
asS'venty001'
p2537
(lp2538
g2537
aS'Yordano Ventura'
p2539
aI6
aI6
aI0
aI0
aI0
aI0
aI0
aI0
aI0
aI0
aI0
aI5
aI0
asS'nicaj001'
p2540
(lp2541
g2540
aS'Juan Nicasio'
p2542
aI1
aI1
aI0
aI0
aI0
aI0
aI0
aI0
aI0
aI0
aI0
aI0
aI0
asS'sancc001'
p2543
(lp2544
g2543
aS'Carlos Sanchez'
p2545
aI420
aI389
aI40
aI87
aI23
aI1
aI5
aI31
aI2
aI2
aI19
aI81
aI127
asS'cravt001'
p2546
(lp2547
g2546
aS'Tyler Cravy'
p2548
aI10
aI8
aI0
aI0
aI0
aI0
aI0
aI0
aI0
aI0
aI0
aI3
aI0
asS'coont001'
p2549
(lp2550
g2549
aS'Tim Cooney'
p2551
aI11
aI10
aI1
aI3
aI1
aI0
aI0
aI0
aI0
aI0
aI0
aI0
aI4
asS'wislm001'
p2552
(lp2553
g2552
aS'Matt Wisler'
p2554
aI36
aI29
aI0
aI4
aI0
aI0
aI0
aI1
aI0
aI0
aI2
aI6
aI4
asS'deckj001'
p2555
(lp2556
g2555
aS'Jaff Decker'
p2557
aI36
aI28
aI8
aI6
aI1
aI1
aI0
aI1
aI0
aI0
aI7
aI9
aI9
asS'jonej005'
p2558
(lp2559
g2558
aS'James Jones'
p2560
aI31
aI29
aI1
aI3
aI1
aI0
aI0
aI0
aI1
aI1
aI2
aI13
aI4
asS'tabaj002'
p2561
(lp2562
g2561
aS'Jose Tabata'
p2563
aI41
aI38
aI2
aI11
aI0
aI0
aI0
aI4
aI0
aI1
aI2
aI7
aI11
asS'buchd001'
p2564
(lp2565
g2564
aS'David Buchanan'
p2566
aI23
aI20
aI2
aI4
aI1
aI0
aI0
aI1
aI0
aI0
aI2
aI8
aI5
asS'bourj002'
p2567
(lp2568
g2567
aS'Justin Bour'
p2569
aI446
aI409
aI42
aI107
aI20
aI0
aI23
aI73
aI0
aI0
aI34
aI101
aI196
asS'liz-r001'
p2570
(lp2571
g2570
aS'Radhames Liz'
p2572
aI1
aI1
aI0
aI0
aI0
aI0
aI0
aI0
aI0
aI0
aI0
aI0
aI0
asS'bourj001'
p2573
(lp2574
g2573
aS'Jason Bourgeois'
p2575
aI212
aI196
aI28
aI47
aI5
aI2
aI3
aI14
aI3
aI1
aI14
aI33
aI65
asS'avila001'
p2576
(lp2577
g2576
aS'Alex Avila'
p2578
aI219
aI178
aI21
aI34
aI5
aI0
aI4
aI13
aI0
aI1
aI40
aI66
aI51
asS'despo001'
p2579
(lp2580
g2579
aS'Odrisamer Despaigne'
p2581
aI34
aI30
aI0
aI2
aI1
aI0
aI0
aI0
aI0
aI0
aI1
aI11
aI3
asS'canhm001'
p2582
(lp2583
g2582
aS'Mark Canha'
p2584
aI485
aI441
aI61
aI112
aI22
aI3
aI16
aI70
aI7
aI2
aI33
aI96
aI188
asS'lavar001'
p2585
(lp2586
g2585
aS'Ryan Lavarnway'
p2587
aI106
aI94
aI6
aI18
aI6
aI0
aI2
aI6
aI0
aI0
aI12
aI28
aI30
asS'nicoj001'
p2588
(lp2589
g2588
aS'Justin Nicolino'
p2590
aI27
aI25
aI0
aI1
aI0
aI0
aI0
aI0
aI0
aI0
aI0
aI8
aI1
asS'germg001'
p2591
(lp2592
g2591
aS'Gonzalez Germen'
p2593
aI1
aI1
aI0
aI0
aI0
aI0
aI0
aI0
aI0
aI0
aI0
aI1
aI0
asS'frank001'
p2594
(lp2595
g2594
aS'Kevin Frandsen'
p2596
aI13
aI11
aI1
aI2
aI0
aI0
aI0
aI0
aI0
aI0
aI1
aI3
aI2
asS'ceccg001'
p2597
(lp2598
g2597
aS'Garin Cecchini'
p2599
aI4
aI4
aI0
aI0
aI0
aI0
aI0
aI0
aI0
aI0
aI0
aI3
aI0
asS'weber001'
p2600
(lp2601
g2600
aS'Ryan Weber'
p2602
aI10
aI10
aI0
aI0
aI0
aI0
aI0
aI0
aI0
aI0
aI0
aI8
aI0
asS'gofod001'
p2603
(lp2604
g2603
aS'David Goforth'
p2605
aI4
aI3
aI0
aI0
aI0
aI0
aI0
aI0
aI0
aI0
aI0
aI3
aI0
asS'wootr001'
p2606
(lp2607
g2606
aS'Rob Wooten'
p2608
aI1
aI1
aI0
aI0
aI0
aI0
aI0
aI0
aI0
aI0
aI0
aI0
aI0
asS'carrc003'
p2609
(lp2610
g2609
aS'Carlos Carrasco'
p2611
aI3
aI1
aI0
aI1
aI0
aI0
aI0
aI0
aI0
aI0
aI0
aI0
aI1
asS'casha001'
p2612
(lp2613
g2612
aS'Andrew Cashner'
p2614
aI61
aI60
aI2
aI5
aI0
aI0
aI0
aI1
aI0
aI0
aI1
aI24
aI5
asS'aschc001'
p2615
(lp2616
g2615
aS'Cody Asche'
p2617
aI456
aI425
aI41
aI104
aI22
aI3
aI12
aI39
aI1
aI2
aI26
aI111
aI168
asS'lowrj001'
p2618
(lp2619
g2618
aS'Jed Lowrie'
p2620
aI263
aI230
aI35
aI51
aI14
aI0
aI9
aI30
aI1
aI0
aI28
aI43
aI92
asS'beeld001'
p2621
(lp2622
g2621
aS'Dallas Beeler'
p2623
aI3
aI3
aI0
aI1
aI1
aI0
aI0
aI0
aI0
aI0
aI0
aI1
aI2
asS'tsaoc001'
p2624
(lp2625
g2624
aS'Chin-hui Tsao'
p2626
aI1
aI1
aI1
aI1
aI1
aI0
aI0
aI0
aI0
aI0
aI0
aI0
aI2
asS'nunee002'
p2627
(lp2628
g2627
aS'Eduardo Nunez'
p2629
aI204
aI188
aI23
aI53
aI14
aI1
aI4
aI20
aI8
aI4
aI12
aI29
aI81
asS'taylm002'
p2630
(lp2631
g2630
aS'Michael Taylor'
p2632
aI511
aI472
aI49
aI108
aI15
aI2
aI14
aI63
aI16
aI3
aI35
aI158
aI169
asS'capuc001'
p2633
(lp2634
g2633
aS'Chris Capuano'
p2635
aI1
aI1
aI0
aI0
aI0
aI0
aI0
aI0
aI0
aI0
aI0
aI0
aI0
asS'ray-r002'
p2636
(lp2637
g2636
aS'Robbie Ray'
p2638
aI36
aI31
aI0
aI3
aI1
aI0
aI0
aI0
aI0
aI0
aI0
aI14
aI4
asS'wadat001'
p2639
(lp2640
g2639
aS'Tsuyoshi Wada'
p2641
aI9
aI8
aI1
aI0
aI0
aI0
aI0
aI0
aI0
aI0
aI1
aI5
aI0
asS'stras001'
p2642
(lp2643
g2642
aS'Stephen Strasburg'
p2644
aI46
aI38
aI1
aI5
aI0
aI0
aI0
aI0
aI0
aI0
aI2
aI17
aI5
asS'victs001'
p2645
(lp2646
g2645
aS'Shane Victorino'
p2647
aI204
aI178
aI19
aI41
aI4
aI2
aI1
aI7
aI7
aI0
aI16
aI32
aI52
asS'koeht001'
p2648
(lp2649
g2648
aS'Tom Koehler'
p2650
aI64
aI50
aI2
aI6
aI1
aI0
aI0
aI1
aI0
aI0
aI2
aI28
aI7
asS'rollj001'
p2651
(lp2652
g2651
aS'Jimmy Rollins'
p2653
aI563
aI517
aI71
aI116
aI24
aI3
aI13
aI41
aI12
aI8
aI44
aI86
aI185
asS'treib001'
p2654
(lp2655
g2654
aS'Blake Treinen'
p2656
aI4
aI2
aI0
aI0
aI0
aI0
aI0
aI0
aI0
aI0
aI0
aI1
aI0
asS'centj001'
p2657
(lp2658
g2657
aS'Juan Centeno'
p2659
aI23
aI21
aI0
aI1
aI1
aI0
aI0
aI0
aI0
aI0
aI2
aI7
aI2
asS'ahmen001'
p2660
(lp2661
g2660
aS'Nick Ahmed'
p2662
aI459
aI421
aI49
aI95
aI17
aI6
aI9
aI34
aI4
aI5
aI29
aI81
aI151
asS'cervf001'
p2663
(lp2664
g2663
aS'Francisco Cervelli'
p2665
aI510
aI451
aI56
aI133
aI17
aI5
aI7
aI43
aI1
aI1
aI46
aI94
aI181
asS'salad001'
p2666
(lp2667
g2666
aS'Danny Salazar'
p2668
aI4
aI4
aI0
aI0
aI0
aI0
aI0
aI0
aI0
aI0
aI0
aI4
aI0
asS'castj006'
p2669
(lp2670
g2669
aS'Jason Castro'
p2671
aI375
aI337
aI38
aI71
aI19
aI0
aI11
aI31
aI0
aI0
aI33
aI115
aI123
asS'mills001'
p2672
(lp2673
g2672
aS'Shelby Miller'
p2674
aI71
aI56
aI1
aI3
aI2
aI0
aI0
aI0
aI0
aI0
aI4
aI29
aI5
asS'wilsb002'
p2675
(lp2676
g2675
aS'Bobby Wilson'
p2677
aI147
aI132
aI8
aI25
aI5
aI0
aI1
aI14
aI0
aI1
aI11
aI39
aI33
asS'thort001'
p2678
(lp2679
g2678
aS'Tyler Thornburg'
p2680
aI3
aI3
aI0
aI0
aI0
aI0
aI0
aI0
aI0
aI0
aI0
aI1
aI0
asS'holtb002'
p2681
(lp2682
g2681
aS'Brock Holt'
p2683
aI509
aI454
aI56
aI127
aI27
aI6
aI2
aI45
aI8
aI1
aI46
aI97
aI172
asS'greiz001'
p2684
(lp2685
g2684
aS'Zack Greinke'
p2686
aI77
aI67
aI8
aI15
aI2
aI0
aI2
aI3
aI1
aI0
aI1
aI14
aI23
asS'florp001'
p2687
(lp2688
g2687
aS'Pedro Florimon'
p2689
aI25
aI23
aI5
aI2
aI0
aI1
aI0
aI1
aI1
aI0
aI2
aI12
aI4
asS'noonn001'
p2690
(lp2691
g2690
aS'Nick Noonan'
p2692
aI24
aI22
aI2
aI2
aI1
aI0
aI1
aI3
aI0
aI0
aI2
aI8
aI6
asS'byrdm001'
p2693
(lp2694
g2693
aS'Marlon Byrd'
p2695
aI544
aI506
aI58
aI125
aI25
aI5
aI23
aI73
aI2
aI1
aI29
aI145
aI229
asS'perej002'
p2696
(lp2697
g2696
aS'Juan Perez'
p2698
aI40
aI39
aI5
aI11
aI3
aI0
aI0
aI2
aI1
aI0
aI1
aI6
aI14
asS'lastt001'
p2699
(lp2700
g2699
aS'Tommy La Stella'
p2701
aI75
aI67
aI4
aI18
aI6
aI0
aI1
aI11
aI2
aI0
aI5
aI7
aI27
asS'cowgc001'
p2702
(lp2703
g2702
aS'Collin Cowgill'
p2704
aI74
aI69
aI10
aI13
aI2
aI1
aI1
aI2
aI2
aI1
aI4
aI19
aI20
asS'noelr001'
p2705
(lp2706
g2705
aS'Rico Noel'
p2707
aI2
aI2
aI5
aI1
aI0
aI0
aI0
aI0
aI5
aI2
aI0
aI0
aI1
asS'abrej003'
p2708
(lp2709
g2708
aS'Jose Abreu'
p2710
aI668
aI613
aI88
aI178
aI34
aI3
aI30
aI101
aI0
aI0
aI39
aI140
aI308
asS'lamba001'
p2711
(lp2712
g2711
aS'Andrew Lambo'
p2713
aI27
aI25
aI1
aI1
aI1
aI0
aI0
aI0
aI0
aI0
aI2
aI8
aI2
asS'gimec001'
p2714
(lp2715
g2714
aS'Chris Gimenez'
p2716
aI113
aI98
aI19
aI25
aI6
aI1
aI5
aI14
aI2
aI0
aI10
aI19
aI48
asS'kinsi001'
p2717
(lp2718
g2717
aS'Ian Kinsler'
p2719
aI675
aI624
aI94
aI185
aI35
aI7
aI11
aI73
aI10
aI6
aI43
aI80
aI267
asS'mckia001'
p2720
(lp2721
g2720
aS'Andrew McKirahan'
p2722
aI1
aI1
aI0
aI0
aI0
aI0
aI0
aI0
aI0
aI0
aI0
aI1
aI0
asS'beckt001'
p2723
(lp2724
g2723
aS'Tim Beckham'
p2725
aI223
aI203
aI24
aI45
aI7
aI4
aI9
aI37
aI3
aI1
aI13
aI69
aI87
asS'peraj001'
p2726
(lp2727
g2726
aS'Jhonny Peralta'
p2728
aI640
aI579
aI64
aI159
aI26
aI1
aI17
aI71
aI1
aI4
aI50
aI111
aI238
asS'peraj002'
p2729
(lp2730
g2729
aS'Joel Peralta'
p2731
aI1
aI1
aI0
aI0
aI0
aI0
aI0
aI0
aI0
aI0
aI0
aI1
aI0
asS'navar001'
p2732
(lp2733
g2732
aS'Rey Navarro'
p2734
aI30
aI29
aI5
aI8
aI2
aI0
aI1
aI3
aI0
aI0
aI0
aI3
aI13
asS'spand001'
p2735
(lp2736
g2735
aS'Denard Span'
p2737
aI275
aI246
aI38
aI74
aI17
aI0
aI5
aI22
aI11
aI0
aI25
aI26
aI106
asS'deckc001'
p2738
(lp2739
g2738
aS'Cody Decker'
p2740
aI12
aI11
aI0
aI0
aI0
aI0
aI0
aI1
aI0
aI0
aI0
aI5
aI0
asS'roacd001'
p2741
(lp2742
g2741
aS'Donn Roach'
p2743
aI1
aI1
aI0
aI1
aI0
aI0
aI0
aI1
aI0
aI0
aI0
aI0
aI1
asS'dejed001'
p2744
(lp2745
g2744
aS'David DeJesus'
p2746
aI317
aI288
aI27
aI67
aI9
aI2
aI5
aI30
aI3
aI2
aI21
aI52
aI95
asS'hernf002'
p2747
(lp2748
g2747
aS'Felix Hernandez'
p2749
aI3
aI3
aI0
aI0
aI0
aI0
aI0
aI0
aI0
aI0
aI0
aI1
aI0
asS'defrj001'
p2750
(lp2751
g2750
aS'Justin De Fratus'
p2752
aI3
aI3
aI0
aI1
aI0
aI0
aI0
aI0
aI0
aI0
aI0
aI1
aI1
asS'crisc001'
p2753
(lp2754
g2753
aS'Coco Crisp'
p2755
aI139
aI126
aI11
aI22
aI6
aI0
aI0
aI6
aI2
aI0
aI13
aI25
aI28
asS'campe001'
p2756
(lp2757
g2756
aS'Eric Campbell'
p2758
aI206
aI173
aI28
aI34
aI8
aI0
aI3
aI19
aI5
aI3
aI26
aI37
aI51
asS'pujoa001'
p2759
(lp2760
g2759
aS'Albert Pujols'
p2761
aI661
aI602
aI85
aI147
aI22
aI0
aI40
aI95
aI5
aI3
aI50
aI72
aI289
asS'mccaj001'
p2762
(lp2763
g2762
aS'James McCann'
p2764
aI425
aI401
aI32
aI106
aI18
aI5
aI7
aI41
aI0
aI1
aI16
aI90
aI155
asS'pedrd001'
p2765
(lp2766
g2765
aS'Dustin Pedroia'
p2767
aI425
aI381
aI46
aI111
aI19
aI1
aI12
aI42
aI2
aI2
aI38
aI51
aI168
asS'coleg001'
p2768
(lp2769
g2768
aS'Gerrit Cole'
p2770
aI71
aI60
aI5
aI9
aI0
aI0
aI0
aI2
aI0
aI0
aI2
aI28
aI9
asS'desca001'
p2771
(lp2772
g2771
aS'Anthony DeSclafani'
p2773
aI64
aI58
aI1
aI9
aI1
aI0
aI0
aI3
aI0
aI0
aI3
aI33
aI10
asS'pompd001'
p2774
(lp2775
g2774
aS'Dalton Pompey'
p2776
aI103
aI94
aI17
aI21
aI8
aI0
aI2
aI6
aI5
aI1
aI7
aI23
aI35
asS'clevs001'
p2777
(lp2778
g2777
aS'Steve Clevenger'
p2779
aI105
aI101
aI11
aI29
aI4
aI2
aI2
aI15
aI0
aI0
aI4
aI13
aI43
asS'alvah001'
p2780
(lp2781
g2780
aS'Henderson Alvarez'
p2782
aI6
aI6
aI1
aI2
aI1
aI0
aI0
aI1
aI0
aI0
aI0
aI1
aI3
asS'franm004'
p2783
(lp2784
g2783
aS'Maikel Franco'
p2785
aI335
aI304
aI45
aI85
aI22
aI1
aI14
aI50
aI1
aI0
aI26
aI52
aI151
asS'vogts001'
p2786
(lp2787
g2786
aS'Stephen Vogt'
p2788
aI511
aI445
aI58
aI116
aI21
aI3
aI18
aI71
aI0
aI2
aI56
aI97
aI197
asS'perec003'
p2789
(lp2790
g2789
aS'Carlos Perez'
p2791
aI283
aI260
aI20
aI65
aI13
aI0
aI4
aI21
aI2
aI0
aI19
aI49
aI90
asS'keplm001'
p2792
(lp2793
g2792
aS'Max Kepler'
p2794
aI7
aI7
aI0
aI1
aI0
aI0
aI0
aI0
aI0
aI0
aI0
aI3
aI1
asS'incie001'
p2795
(lp2796
g2795
aS'Ender Inciarte'
p2797
aI561
aI524
aI73
aI159
aI27
aI5
aI6
aI45
aI21
aI10
aI26
aI58
aI214
asS'lindf001'
p2798
(lp2799
g2798
aS'Francisco Lindor'
p2800
aI438
aI390
aI50
aI122
aI22
aI4
aI12
aI51
aI12
aI2
aI27
aI69
aI188
asS'bryak001'
p2801
(lp2802
g2801
aS'Kris Bryant'
p2803
aI650
aI559
aI87
aI154
aI31
aI5
aI26
aI99
aI13
aI4
aI77
aI199
aI273
asS'hessk001'
p2804
(lp2805
g2804
aS'Keith Hessler'
p2806
aI1
aI1
aI0
aI1
aI0
aI0
aI0
aI0
aI0
aI0
aI0
aI0
aI1
asS'omals001'
p2807
(lp2808
g2807
aS"Shawn O'Malley"
p2809
aI57
aI42
aI10
aI11
aI1
aI0
aI1
aI7
aI3
aI0
aI12
aI14
aI15
asS'herno002'
p2810
(lp2811
g2810
aS'Oscar Hernandez'
p2812
aI36
aI31
aI4
aI5
aI1
aI0
aI0
aI1
aI0
aI0
aI3
aI15
aI6
asS'colob001'
p2813
(lp2814
g2813
aS'Bartolo Colon'
p2815
aI64
aI58
aI2
aI8
aI1
aI0
aI0
aI4
aI0
aI0
aI0
aI24
aI9
asS'blanj001'
p2816
(lp2817
g2816
aS'Joe Blanton'
p2818
aI4
aI4
aI0
aI0
aI0
aI0
aI0
aI0
aI0
aI0
aI0
aI1
aI0
asS'lorem002'
p2819
(lp2820
g2819
aS'Michael Lorenzen'
p2821
aI41
aI36
aI4
aI9
aI0
aI1
aI0
aI4
aI0
aI0
aI0
aI13
aI11
asS'chacj001'
p2822
(lp2823
g2822
aS'Jhoulys Chacin'
p2824
aI9
aI8
aI0
aI1
aI0
aI0
aI0
aI0
aI0
aI0
aI0
aI4
aI1
asa(dp2825
S'chenb001'
p2826
(lp2827
g2826
aS'Bruce Chen'
p2828
aS'  6.1'
p2829
aI17
aI9
aI9
aI3
aI1
aI1
aI4
asg14
(lp2830
g14
ag16
aS' 57.2'
p2831
aI61
aI32
aI30
aI5
aI18
aI6
aI48
asS'olsot002'
p2832
(lp2833
g2832
aS'Tyler Olson'
p2834
aS' 13.1'
p2835
aI18
aI8
aI8
aI2
aI10
aI7
aI8
asg20
(lp2836
g20
ag22
aS' 12.1'
p2837
aI13
aI8
aI8
aI1
aI6
aI1
aI7
asg23
(lp2838
g23
ag25
aS' 52.1'
p2839
aI67
aI43
aI38
aI7
aI26
aI0
aI42
asS'ramoa001'
p2840
(lp2841
g2840
aS'A.J. Ramos'
p2842
aS' 70.1'
p2843
aI45
aI18
aI18
aI6
aI26
aI0
aI87
asg38
(lp2844
g38
ag40
aS' 57.1'
p2845
aI39
aI19
aI19
aI4
aI26
aI2
aI64
asg44
(lp2846
g44
ag46
aS' 29.0'
p2847
aI42
aI30
aI30
aI8
aI10
aI0
aI16
asg53
(lp2848
g53
ag55
aS' 25.2'
p2849
aI30
aI21
aI21
aI3
aI14
aI0
aI14
asg56
(lp2850
g56
ag58
aS'134.1'
p2851
aI145
aI76
aI72
aI15
aI49
aI0
aI110
asg1889
(lp2852
g1889
ag1891
aS' 59.1'
p2853
aI40
aI19
aI17
aI6
aI22
aI1
aI87
asS'teafe001'
p2854
(lp2855
g2854
aS'Everett Teaford'
p2856
aS'  5.2'
p2857
aI5
aI1
aI1
aI0
aI3
aI1
aI4
asg65
(lp2858
g65
ag67
aS' 60.2'
p2859
aI71
aI39
aI39
aI12
aI20
aI0
aI41
asg68
(lp2860
g68
ag70
aS'121.0'
p2861
aI161
aI83
aI78
aI22
aI34
aI3
aI74
asS'mored001'
p2862
(lp2863
g2862
aS'Diego Moreno'
p2864
aS' 10.1'
p2865
aI9
aI6
aI6
aI1
aI3
aI0
aI8
asS'gilek001'
p2866
(lp2867
g2866
aS'Ken Giles'
p2868
aS' 70.0'
p2869
aI59
aI23
aI14
aI2
aI25
aI2
aI87
asS'valdj001'
p2870
(lp2871
g2870
aS'Jose Valdez'
p2872
aS'  9.0'
p2873
aI10
aI4
aI4
aI2
aI4
aI0
aI4
asS'perkg001'
p2874
(lp2875
g2874
aS'Glen Perkins'
p2876
aS' 57.0'
p2877
aI58
aI21
aI21
aI9
aI10
aI2
aI54
asS'fujik001'
p2878
(lp2879
g2878
aS'Kyuji Fujikawa'
p2880
aS'  1.2'
p2881
aI2
aI3
aI3
aI1
aI0
aI0
aI1
asS'sanca006'
p2882
(lp2883
g2882
aS'Aaron Sanchez'
p2884
aS' 92.1'
p2885
aI74
aI35
aI33
aI9
aI44
aI2
aI61
asS'wilsa001'
p2886
(lp2887
g2886
aS'Alex Wilson'
p2888
aS' 70.0'
p2889
aI61
aI19
aI17
aI5
aI11
aI1
aI38
asS'pinoy001'
p2890
(lp2891
g2890
aS'Yohan Pino'
p2892
aS' 19.1'
p2893
aI23
aI8
aI7
aI2
aI3
aI0
aI13
asS'scrie001'
p2894
(lp2895
g2894
aS'Evan Scribner'
p2896
aS' 60.0'
p2897
aI58
aI31
aI29
aI14
aI4
aI0
aI64
asS'castm002'
p2898
(lp2899
g2898
aS'Miguel Castro'
p2900
aS' 17.2'
p2901
aI21
aI13
aI12
aI4
aI10
aI2
aI18
asg104
(lp2902
g104
ag106
aS' 20.0'
p2903
aI16
aI9
aI7
aI2
aI7
aI0
aI15
asS'baezp001'
p2904
(lp2905
g2904
aS'Pedro Baez'
p2906
aS' 51.0'
p2907
aI47
aI22
aI19
aI4
aI11
aI1
aI60
asS'leond003'
p2908
(lp2909
g2908
aS'Dominic Leone'
p2910
aS' 15.0'
p2911
aI19
aI15
aI14
aI2
aI9
aI2
aI9
asg113
(lp2912
g113
ag115
aS'184.1'
p2913
aI193
aI76
aI70
aI15
aI68
aI0
aI121
asS'hernd002'
p2914
(lp2915
g2914
aS'David Hernandez'
p2916
aS' 33.2'
p2917
aI33
aI18
aI16
aI6
aI11
aI0
aI33
asg617
(lp2918
g617
ag619
aS'  1.0'
p2919
aI3
aI1
aI1
aI1
aI0
aI0
aI0
asS'barnm001'
p2920
(lp2921
g2920
aS'Matt Barnes'
p2922
aS' 43.0'
p2923
aI56
aI28
aI26
aI9
aI15
aI0
aI39
asS'marse001'
p2924
(lp2925
g2924
aS'Evan Marshall'
p2926
aS' 13.1'
p2927
aI20
aI9
aI9
aI3
aI5
aI1
aI7
asS'alexs001'
p2928
(lp2929
g2928
aS'Scott Alexander'
p2930
aS'  6.0'
p2931
aI5
aI3
aI3
aI0
aI3
aI0
aI3
asg131
(lp2932
g131
ag133
aS'  1.0'
p2933
aI2
aI1
aI1
aI1
aI0
aI0
aI0
asg2300
(lp2934
g2300
ag2302
aS' 63.0'
p2935
aI74
aI40
aI38
aI9
aI23
aI1
aI46
asg137
(lp2936
g137
ag139
aS' 28.2'
p2937
aI24
aI12
aI7
aI4
aI8
aI0
aI27
asS'ramin001'
p2938
(lp2939
g2938
aS'Neil Ramirez'
p2940
aS' 14.0'
p2941
aI12
aI5
aI5
aI1
aI6
aI0
aI15
asS'tropn001'
p2942
(lp2943
g2942
aS'Nick Tropeano'
p2944
aS' 37.2'
p2945
aI40
aI18
aI16
aI2
aI10
aI0
aI38
asS'putnz001'
p2946
(lp2947
g2946
aS'Zach Putnam'
p2948
aS' 48.2'
p2949
aI42
aI24
aI22
aI7
aI24
aI5
aI64
asg155
(lp2950
g155
ag157
aS' 83.0'
p2951
aI100
aI68
aI62
aI15
aI31
aI0
aI71
asS'gracm003'
p2952
(lp2953
g2952
aS'Matt Grace'
p2954
aS' 17.0'
p2955
aI26
aI11
aI8
aI0
aI8
aI2
aI14
asS'bochb003'
p2956
(lp2957
g2956
aS'Brett Bochy'
p2958
aS'  3.0'
p2959
aI1
aI0
aI0
aI0
aI1
aI0
aI3
asg167
(lp2960
g167
ag169
aS'184.0'
p2961
aI182
aI89
aI84
aI20
aI68
aI1
aI168
asg968
(lp2962
g968
ag970
aS'  6.0'
p2963
aI11
aI6
aI6
aI2
aI1
aI0
aI4
asS'johnj010'
p2964
(lp2965
g2964
aS'Jim Johnson'
p2966
aS' 66.2'
p2967
aI77
aI36
aI33
aI5
aI20
aI2
aI50
asg176
(lp2968
g176
ag178
aS' 86.1'
p2969
aI99
aI48
aI47
aI10
aI36
aI2
aI72
asg1844
(lp2970
g1844
ag1846
aS' 57.1'
p2971
aI51
aI20
aI19
aI3
aI10
aI2
aI71
asg2363
(lp2972
g2363
ag2365
aS' 48.0'
p2973
aI37
aI19
aI19
aI8
aI21
aI0
aI45
asg1127
(lp2974
g1127
ag1129
aS' 17.0'
p2975
aI20
aI10
aI10
aI0
aI6
aI0
aI11
asS'gregk001'
p2976
(lp2977
g2976
aS'Kevin Gregg'
p2978
aS' 10.2'
p2979
aI13
aI12
aI12
aI3
aI5
aI0
aI14
asg194
(lp2980
g194
ag196
aS'154.1'
p2981
aI175
aI72
aI72
aI10
aI49
aI0
aI121
asS'carlb001'
p2982
(lp2983
g2982
aS'Buddy Carlyle'
p2984
aS'  8.0'
p2985
aI8
aI5
aI5
aI0
aI1
aI0
aI6
asg197
(lp2986
g197
ag199
aS' 77.2'
p2987
aI88
aI38
aI35
aI7
aI26
aI1
aI43
asg206
(lp2988
g206
ag208
aS' 67.0'
p2989
aI65
aI28
aI28
aI7
aI21
aI1
aI59
asS'kohnm001'
p2990
(lp2991
g2990
aS'Michael Kohn'
p2992
aS'  4.2'
p2993
aI0
aI0
aI0
aI0
aI6
aI0
aI4
asS'smitw002'
p2994
(lp2995
g2994
aS'Will Smith'
p2996
aS' 63.1'
p2997
aI52
aI23
aI19
aI5
aI24
aI1
aI91
asS'strad003'
p2998
(lp2999
g2998
aS'Dan Straily'
p3000
aS' 16.2'
p3001
aI16
aI11
aI10
aI2
aI8
aI0
aI14
asS'schet001'
p3002
(lp3003
g3002
aS'Tanner Scheppers'
p3004
aS' 38.1'
p3005
aI37
aI25
aI24
aI6
aI23
aI3
aI32
asS'smitj002'
p3006
(lp3007
g3006
aS'Joe Smith'
p3008
aS' 65.1'
p3009
aI64
aI26
aI26
aI4
aI19
aI4
aI57
asg221
(lp3010
g221
ag223
aS' 32.2'
p3011
aI42
aI27
aI25
aI5
aI21
aI3
aI30
asS'kensl001'
p3012
(lp3013
g3012
aS'Logan Kensing'
p3014
aS' 15.1'
p3015
aI12
aI10
aI10
aI2
aI7
aI0
aI13
asS'johnb004'
p3016
(lp3017
g3016
aS'Brian Johnson'
p3018
aS'  4.1'
p3019
aI3
aI4
aI4
aI0
aI4
aI0
aI3
asS'faula001'
p3020
(lp3021
g3020
aS'Andrew Faulkner'
p3022
aS'  9.2'
p3023
aI8
aI3
aI3
aI2
aI3
aI1
aI10
asg227
(lp3024
g227
ag229
aS'103.0'
p3025
aI120
aI56
aI48
aI14
aI24
aI3
aI63
asS'ramij002'
p3026
(lp3027
g3026
aS'J.C. Ramirez'
p3028
aS' 23.2'
p3029
aI25
aI14
aI14
aI3
aI11
aI3
aI16
asS'barra001'
p3030
(lp3031
g3030
aS'Aaron Barrett'
p3032
aS' 29.1'
p3033
aI28
aI15
aI15
aI1
aI7
aI0
aI35
asg248
(lp3034
g248
ag250
aS' 10.0'
p3035
aI9
aI6
aI5
aI0
aI5
aI3
aI13
asg1922
(lp3036
g1922
ag1924
aS'202.1'
p3037
aI189
aI93
aI88
aI33
aI81
aI5
aI216
asS'schub001'
p3038
(lp3039
g3038
aS'Bo Schultz'
p3040
aS' 43.0'
p3041
aI32
aI19
aI17
aI7
aI14
aI0
aI31
asS'montf001'
p3042
(lp3043
g3042
aS'Frankie Montas'
p3044
aS' 15.0'
p3045
aI14
aI8
aI8
aI1
aI9
aI1
aI20
asg1556
(lp3046
g1556
ag1558
aS'189.2'
p3047
aI198
aI86
aI81
aI15
aI59
aI4
aI139
asS'cishs001'
p3048
(lp3049
g3048
aS'Steve Cishek'
p3050
aS' 55.1'
p3051
aI55
aI26
aI22
aI4
aI27
aI3
aI48
asS'qualc001'
p3052
(lp3053
g3052
aS'Chad Qualls'
p3054
aS' 49.1'
p3055
aI46
aI24
aI24
aI6
aI9
aI1
aI46
asS'lobsk001'
p3056
(lp3057
g3056
aS'Kyle Lobstein'
p3058
aS' 63.2'
p3059
aI78
aI43
aI42
aI7
aI23
aI1
aI32
asS'uehak001'
p3060
(lp3061
g3060
aS'Koji Uehara'
p3062
aS' 40.1'
p3063
aI28
aI14
aI10
aI3
aI9
aI1
aI47
asS'morim002'
p3064
(lp3065
g3064
aS'Mike Morin'
p3066
aS' 35.1'
p3067
aI36
aI28
aI25
aI3
aI9
aI2
aI41
asS'sants001'
p3068
(lp3069
g3068
aS'Sergio Santos'
p3070
aS' 16.1'
p3071
aI16
aI9
aI9
aI3
aI7
aI1
aI18
asg119
(lp3072
g119
ag121
aS'135.0'
p3073
aI140
aI76
aI70
aI17
aI58
aI2
aI108
asg1421
(lp3074
g1421
ag1423
aS'  0.2'
p3075
aI1
aI2
aI0
aI0
aI1
aI0
aI0
asg1529
(lp3076
g1529
ag1531
aS' 49.2'
p3077
aI31
aI18
aI11
aI4
aI26
aI1
aI67
asS'gonzm005'
p3078
(lp3079
g3078
aS'Marco Gonzales'
p3080
aS'  2.2'
p3081
aI7
aI4
aI4
aI1
aI1
aI0
aI1
asg296
(lp3082
g296
ag298
aS' 76.1'
p3083
aI75
aI37
aI35
aI7
aI38
aI2
aI60
asg299
(lp3084
g299
ag301
aS'  9.1'
p3085
aI14
aI11
aI6
aI1
aI1
aI1
aI9
asg302
(lp3086
g302
ag304
aS'144.2'
p3087
aI151
aI81
aI79
aI24
aI51
aI2
aI109
asS'garcl005'
p3088
(lp3089
g3088
aS'Luis Garcia'
p3090
aS' 66.2'
p3091
aI72
aI28
aI26
aI4
aI37
aI8
aI63
asg305
(lp3092
g305
ag307
aS'  1.0'
p3093
aI1
aI0
aI0
aI0
aI0
aI0
aI1
asS'lee-c004'
p3094
(lp3095
g3094
aS'C.C. Lee'
p3096
aS'  1.2'
p3097
aI4
aI1
aI1
aI0
aI1
aI0
aI3
asS'tuivs001'
p3098
(lp3099
g3098
aS'Sam Tuivailala'
p3100
aS' 14.2'
p3101
aI13
aI5
aI5
aI2
aI8
aI1
aI20
asg323
(lp3102
g323
ag325
aS'203.2'
p3103
aI207
aI89
aI88
aI19
aI53
aI2
aI171
asg326
(lp3104
g326
ag328
aS'177.1'
p3105
aI163
aI89
aI81
aI18
aI65
aI4
aI148
asS'jimec002'
p3106
(lp3107
g3106
aS'Cesar Jimenez'
p3108
aS' 23.0'
p3109
aI17
aI8
aI8
aI2
aI8
aI0
aI25
asg341
(lp3110
g341
ag343
aS' 93.1'
p3111
aI107
aI55
aI55
aI9
aI32
aI1
aI67
asS'rosis001'
p3112
(lp3113
g3112
aS'Seth Rosin'
p3114
aS'  2.0'
p3115
aI7
aI5
aI5
aI1
aI1
aI0
aI0
asS'mcfat001'
p3116
(lp3117
g3116
aS'T.J. McFarland'
p3118
aS' 40.1'
p3119
aI52
aI26
aI22
aI4
aI18
aI5
aI26
asg344
(lp3120
g344
ag346
aS' 58.1'
p3121
aI82
aI51
aI47
aI10
aI36
aI1
aI41
asS'bresc001'
p3122
(lp3123
g3122
aS'Craig Breslow'
p3124
aS' 65.0'
p3125
aI69
aI33
aI30
aI12
aI23
aI5
aI46
asS'buchj001'
p3126
(lp3127
g3126
aS'Jake Buchanan'
p3128
aS'  9.0'
p3129
aI5
aI2
aI2
aI1
aI4
aI0
aI5
asg359
(lp3130
g359
ag361
aS'  3.1'
p3131
aI4
aI4
aI4
aI2
aI1
aI0
aI4
asg1349
(lp3132
g1349
ag1351
aS' 13.2'
p3133
aI22
aI11
aI11
aI1
aI7
aI0
aI5
asS'casta004'
p3134
(lp3135
g3134
aS'Angel Castro'
p3136
aS'  4.0'
p3137
aI8
aI1
aI1
aI1
aI3
aI0
aI4
asS'rivef001'
p3138
(lp3139
g3138
aS'Felipe Rivero'
p3140
aS' 48.1'
p3141
aI35
aI15
aI15
aI2
aI11
aI2
aI43
asS'wilsj004'
p3142
(lp3143
g3142
aS'Justin Wilson'
p3144
aS' 61.0'
p3145
aI49
aI21
aI21
aI3
aI20
aI0
aI66
asS'pomed001'
p3146
(lp3147
g3146
aS'Drew Pomeranz'
p3148
aS' 86.0'
p3149
aI71
aI44
aI35
aI8
aI31
aI1
aI82
asS'bella001'
p3150
(lp3151
g3150
aS'Andrew Bellatti'
p3152
aS' 23.1'
p3153
aI16
aI7
aI6
aI4
aI10
aI0
aI18
asS'rucid001'
p3154
(lp3155
g3154
aS'Drew Rucinski'
p3156
aS'  7.0'
p3157
aI10
aI6
aI6
aI1
aI6
aI0
aI4
asS'alvaj003'
p3158
(lp3159
g3158
aS'Jose Alvarez'
p3160
aS' 67.0'
p3161
aI58
aI29
aI26
aI5
aI23
aI4
aI59
asS'cothc001'
p3162
(lp3163
g3162
aS'Caleb Cotham'
p3164
aS'  9.2'
p3165
aI14
aI7
aI7
aI4
aI1
aI0
aI11
asS'chapk002'
p3166
(lp3167
g3166
aS'Kevin Chapman'
p3168
aS'  5.1'
p3169
aI4
aI2
aI2
aI1
aI3
aI0
aI8
asg389
(lp3170
g389
ag391
aS'187.0'
p3171
aI201
aI112
aI105
aI24
aI68
aI1
aI117
asg392
(lp3172
g392
ag394
aS' 37.1'
p3173
aI50
aI31
aI28
aI3
aI14
aI2
aI35
asS'veald001'
p3174
(lp3175
g3174
aS'Donnie Veal'
p3176
aS'  4.1'
p3177
aI8
aI7
aI7
aI3
aI2
aI0
aI3
asg2057
(lp3178
g2057
ag2059
aS'110.2'
p3179
aI99
aI45
aI44
aI12
aI25
aI1
aI78
asg401
(lp3180
g401
ag403
aS' 36.0'
p3181
aI39
aI14
aI14
aI1
aI11
aI1
aI13
asg407
(lp3182
g407
ag409
aS' 31.0'
p3183
aI32
aI28
aI20
aI10
aI20
aI1
aI17
asS'kells001'
p3184
(lp3185
g3184
aS'Shawn Kelley'
p3186
aS' 51.1'
p3187
aI41
aI18
aI14
aI4
aI15
aI4
aI63
asS'ramin002'
p3188
(lp3189
g3188
aS'Noe Ramirez'
p3190
aS' 13.0'
p3191
aI13
aI12
aI6
aI3
aI7
aI0
aI13
asS'petrj001'
p3192
(lp3193
g3192
aS'Jake Petricka'
p3194
aS' 52.0'
p3195
aI56
aI21
aI21
aI2
aI18
aI4
aI33
asS'romee002'
p3196
(lp3197
g3196
aS'Enny Romero'
p3198
aS' 30.0'
p3199
aI39
aI18
aI17
aI1
aI13
aI0
aI31
asS'betad001'
p3200
(lp3201
g3200
aS'Dellin Betances'
p3202
aS' 84.0'
p3203
aI45
aI17
aI14
aI6
aI40
aI2
aI131
asg422
(lp3204
g422
ag424
aS' 43.1'
p3205
aI44
aI27
aI26
aI4
aI16
aI1
aI36
asS'parnb001'
p3206
(lp3207
g3206
aS'Bobby Parnell'
p3208
aS' 24.0'
p3209
aI30
aI20
aI17
aI0
aI17
aI1
aI13
asg431
(lp3210
g431
ag433
aS'176.0'
p3211
aI152
aI90
aI89
aI23
aI79
aI1
aI170
asS'westm002'
p3212
(lp3213
g3212
aS'Matt West'
p3214
aS'  3.0'
p3215
aI2
aI0
aI0
aI0
aI1
aI0
aI2
asg2606
(lp3216
g2606
ag2608
aS'  6.0'
p3217
aI5
aI8
aI8
aI1
aI6
aI0
aI6
asS'richg002'
p3218
(lp3219
g3218
aS'Garrett Richards'
p3220
aS'207.1'
p3221
aI181
aI94
aI84
aI20
aI76
aI2
aI176
asS'mazzv001'
p3222
(lp3223
g3222
aS'Vin Mazzaro'
p3224
aS' 12.0'
p3225
aI15
aI6
aI5
aI0
aI6
aI1
aI6
asS'rossr002'
p3226
(lp3227
g3226
aS'Robbie Ross'
p3228
aS' 60.2'
p3229
aI59
aI28
aI26
aI7
aI20
aI2
aI53
asS'schlb001'
p3230
(lp3231
g3230
aS'Brian Schlitter'
p3232
aS'  7.1'
p3233
aI12
aI6
aI6
aI2
aI2
aI0
aI4
asg449
(lp3234
g449
ag451
aS'108.2'
p3235
aI130
aI60
aI57
aI14
aI37
aI2
aI60
asg452
(lp3236
g452
ag454
aS'192.0'
p3237
aI174
aI80
aI79
aI22
aI49
aI5
aI119
asS'gearc001'
p3238
(lp3239
g3238
aS'Cory Gearrin'
p3240
aS'  3.2'
p3241
aI1
aI2
aI2
aI0
aI1
aI0
aI5
asg461
(lp3242
g461
ag463
aS'139.1'
p3243
aI130
aI63
aI58
aI11
aI71
aI0
aI139
asS'waldj001'
p3244
(lp3245
g3244
aS'Jordan Walden'
p3246
aS' 10.1'
p3247
aI7
aI1
aI1
aI0
aI4
aI1
aI12
asg473
(lp3248
g473
ag475
aS' 15.1'
p3249
aI24
aI11
aI11
aI1
aI2
aI0
aI6
asS'rolld002'
p3250
(lp3251
g3250
aS'David Rollins'
p3252
aS' 25.0'
p3253
aI37
aI21
aI21
aI3
aI8
aI1
aI21
asS'cabrc001'
p3254
(lp3255
g3254
aS'Cesar Cabral'
p3256
aS'  1.0'
p3257
aI0
aI0
aI0
aI0
aI1
aI0
aI1
asS'whitc001'
p3258
(lp3259
g3258
aS'Chase Whitley'
p3260
aS' 19.1'
p3261
aI20
aI9
aI9
aI3
aI5
aI0
aI16
asS'pestv001'
p3262
(lp3263
g3262
aS'Vinnie Pestano'
p3264
aS' 11.2'
p3265
aI15
aI9
aI7
aI3
aI8
aI2
aI13
asS'hinod001'
p3266
(lp3267
g3266
aS'Dalier Hinojosa'
p3268
aS' 24.2'
p3269
aI15
aI3
aI2
aI1
aI11
aI1
aI23
asg101
(lp3270
g101
ag103
aS' 67.0'
p3271
aI70
aI21
aI17
aI3
aI19
aI2
aI36
asS'orour001'
p3272
(lp3273
g3272
aS"Ryan O'Rourke"
p3274
aS' 22.0'
p3275
aI16
aI15
aI15
aI3
aI15
aI2
aI24
asS'matem001'
p3276
(lp3277
g3276
aS'Marcos Mateo'
p3278
aS' 27.0'
p3279
aI22
aI16
aI12
aI5
aI9
aI1
aI33
asg497
(lp3280
g497
ag499
aS' 75.0'
p3281
aI56
aI23
aI23
aI3
aI30
aI6
aI58
asg500
(lp3282
g500
ag502
aS' 58.0'
p3283
aI59
aI35
aI33
aI8
aI22
aI0
aI42
asS'edwaj001'
p3284
(lp3285
g3284
aS'Jon Edwards'
p3286
aS' 16.2'
p3287
aI12
aI8
aI8
aI4
aI16
aI0
aI22
asS'ryank002'
p3288
(lp3289
g3288
aS'Kyle Ryan'
p3290
aS' 56.1'
p3291
aI60
aI29
aI28
aI9
aI20
aI0
aI30
asg518
(lp3292
g518
ag520
aS' 28.0'
p3293
aI25
aI7
aI5
aI0
aI4
aI0
aI20
asS'wrigw001'
p3294
(lp3295
g3294
aS'Wesley Wright'
p3296
aS'  7.1'
p3297
aI6
aI4
aI3
aI1
aI3
aI1
aI5
asS'cedex001'
p3298
(lp3299
g3298
aS'Xavier Cedeno'
p3300
aS' 46.0'
p3301
aI40
aI13
aI12
aI4
aI14
aI2
aI47
asg530
(lp3302
g530
ag532
aS'129.0'
p3303
aI137
aI77
aI69
aI13
aI41
aI6
aI96
asS'sotog002'
p3304
(lp3305
g3304
aS'Giovanni Soto'
p3306
aS'  3.1'
p3307
aI3
aI0
aI0
aI0
aI0
aI0
aI0
asg542
(lp3308
g542
ag544
aS' 96.2'
p3309
aI88
aI46
aI36
aI5
aI25
aI1
aI64
asS'hallc001'
p3310
(lp3311
g3310
aS'Cody Hall'
p3312
aS'  8.1'
p3313
aI10
aI6
aI6
aI1
aI4
aI0
aI7
asS'redmt002'
p3314
(lp3315
g3314
aS'Todd Redmond'
p3316
aS' 16.0'
p3317
aI17
aI13
aI13
aI3
aI7
aI0
aI13
asg1247
(lp3318
g1247
ag1249
aS' 63.0'
p3319
aI62
aI35
aI32
aI7
aI24
aI0
aI50
asg560
(lp3320
g560
ag562
aS' 59.1'
p3321
aI68
aI38
aI37
aI7
aI27
aI0
aI49
asg563
(lp3322
g563
ag565
aS' 38.1'
p3323
aI44
aI21
aI19
aI4
aI17
aI0
aI27
asS'verhd001'
p3324
(lp3325
g3324
aS'Drew VerHagen'
p3326
aS' 26.1'
p3327
aI18
aI6
aI6
aI1
aI14
aI2
aI13
asg107
(lp3328
g107
ag109
aS' 23.1'
p3329
aI29
aI21
aI18
aI7
aI20
aI1
aI21
asg2447
(lp3330
g2447
ag2449
aS'163.1'
p3331
aI145
aI73
aI68
aI16
aI40
aI0
aI126
asg578
(lp3332
g578
ag580
aS' 27.1'
p3333
aI24
aI14
aI13
aI2
aI14
aI2
aI27
asS'morrb002'
p3334
(lp3335
g3334
aS'Bryan Morris'
p3336
aS' 63.0'
p3337
aI67
aI26
aI22
aI3
aI26
aI0
aI47
asg581
(lp3338
g581
ag583
aS' 33.0'
p3339
aI29
aI10
aI10
aI3
aI7
aI0
aI23
asg584
(lp3340
g584
ag586
aS'180.1'
p3341
aI194
aI82
aI74
aI18
aI46
aI2
aI116
asg110
(lp3342
g110
ag112
aS' 40.1'
p3343
aI38
aI19
aI17
aI8
aI10
aI0
aI41
asg590
(lp3344
g590
ag592
aS' 42.1'
p3345
aI47
aI18
aI18
aI3
aI7
aI1
aI22
asS'furbc001'
p3346
(lp3347
g3346
aS'Charlie Furbush'
p3348
aS' 21.2'
p3349
aI9
aI6
aI5
aI2
aI5
aI2
aI17
asg596
(lp3350
g596
ag598
aS'  4.2'
p3351
aI11
aI7
aI7
aI1
aI1
aI0
aI3
asS'browb005'
p3352
(lp3353
g3352
aS'Brooks Brown'
p3354
aS' 33.0'
p3355
aI32
aI18
aI18
aI2
aI16
aI0
aI20
asg602
(lp3356
g602
ag604
aS'  2.0'
p3357
aI2
aI3
aI2
aI2
aI1
aI0
aI1
asS'gregl001'
p3358
(lp3359
g3358
aS'Luke Gregerson'
p3360
aS' 61.0'
p3361
aI48
aI24
aI21
aI5
aI10
aI2
aI59
asS'yatek001'
p3362
(lp3363
g3362
aS'Kirby Yates'
p3364
aS' 20.1'
p3365
aI23
aI18
aI18
aI10
aI7
aI0
aI21
asS'green002'
p3366
(lp3367
g3366
aS'Nick Greenwood'
p3368
aV  0.0
p3369
aI0
aI0
aI0
aI0
aI0
aI0
aI0
asg626
(lp3370
g626
ag628
aS' 40.1'
p3371
aI53
aI35
aI33
aI10
aI17
aI2
aI24
asS'davik002'
p3372
(lp3373
g3372
aS'Kyle Davies'
p3374
aS'  2.1'
p3375
aI3
aI0
aI0
aI0
aI0
aI0
aI2
asg2033
(lp3376
g2033
ag2035
aS'193.2'
p3377
aI201
aI98
aI96
aI17
aI64
aI0
aI147
asS'felim001'
p3378
(lp3379
g3378
aS'Michael Feliz'
p3380
aS'  8.0'
p3381
aI9
aI7
aI7
aI2
aI4
aI0
aI7
asg647
(lp3382
g647
ag649
aS'  7.1'
p3383
aI8
aI3
aI3
aI1
aI3
aI1
aI3
asg659
(lp3384
g659
ag661
aS' 17.0'
p3385
aI16
aI9
aI9
aI1
aI2
aI0
aI10
asS'bedrc001'
p3386
(lp3387
g3386
aS'Cam Bedrosian'
p3388
aS' 33.1'
p3389
aI40
aI21
aI20
aI3
aI19
aI2
aI34
asg593
(lp3390
g593
ag595
aS' 37.0'
p3391
aI53
aI26
aI24
aI5
aI8
aI0
aI15
asg686
(lp3392
g686
ag688
aS' 62.1'
p3393
aI53
aI21
aI20
aI9
aI22
aI0
aI56
asS'robed002'
p3394
(lp3395
g3394
aS'David Robertson'
p3396
aS' 63.1'
p3397
aI46
aI27
aI24
aI7
aI13
aI2
aI86
asg1673
(lp3398
g1673
ag1675
aS'180.2'
p3399
aI156
aI80
aI72
aI29
aI71
aI5
aI162
asS'floyg001'
p3400
(lp3401
g3400
aS'Gavin Floyd'
p3402
aS' 13.1'
p3403
aI11
aI4
aI4
aI0
aI4
aI0
aI7
asg2531
(lp3404
g2531
ag2533
aS'175.1'
p3405
aI172
aI66
aI59
aI13
aI68
aI5
aI167
asS'stitm001'
p3406
(lp3407
g3406
aS'Matt Stites'
p3408
aS'  8.2'
p3409
aI14
aI14
aI12
aI1
aI5
aI0
aI6
asg713
(lp3410
g713
ag715
aS' 19.2'
p3411
aI17
aI14
aI13
aI2
aI13
aI1
aI15
asg722
(lp3412
g722
ag724
aS'  2.0'
p3413
aI6
aI3
aI3
aI1
aI0
aI0
aI0
asg2015
(lp3414
g2015
ag2017
aS'  1.0'
p3415
aI0
aI0
aI0
aI0
aI0
aI0
aI1
asS'mujie001'
p3416
(lp3417
g3416
aS'Edward Mujica'
p3418
aS' 47.1'
p3419
aI52
aI28
aI25
aI10
aI7
aI2
aI30
asS'hillt001'
p3420
(lp3421
g3420
aS'Taylor Hill'
p3422
aS' 12.0'
p3423
aI14
aI5
aI5
aI2
aI4
aI0
aI9
asg740
(lp3424
g740
ag742
aS'229.0'
p3425
aI150
aI52
aI45
aI10
aI48
aI2
aI236
asS'rodrp001'
p3426
(lp3427
g3426
aS'Paco Rodriguez'
p3428
aS' 10.1'
p3429
aI10
aI3
aI3
aI0
aI3
aI0
aI8
asS'vargj001'
p3430
(lp3431
g3430
aS'Jason Vargas'
p3432
aS' 43.0'
p3433
aI46
aI20
aI19
aI5
aI12
aI0
aI27
asS'contc001'
p3434
(lp3435
g3434
aS'Carlos Contreras'
p3436
aS' 28.0'
p3437
aI22
aI16
aI15
aI3
aI20
aI0
aI19
asS'pazoj001'
p3438
(lp3439
g3438
aS'James Pazos'
p3440
aS'  5.0'
p3441
aI3
aI0
aI0
aI0
aI3
aI0
aI3
asg752
(lp3442
g752
ag754
aS'173.0'
p3443
aI176
aI97
aI96
aI20
aI64
aI1
aI120
asg758
(lp3444
g758
ag760
aS'191.0'
p3445
aI149
aI59
aI54
aI16
aI38
aI2
aI205
asg770
(lp3446
g770
ag772
aS'169.1'
p3447
aI149
aI65
aI63
aI18
aI46
aI0
aI150
asg773
(lp3448
g773
ag775
aS' 27.0'
p3449
aI30
aI14
aI11
aI4
aI13
aI0
aI15
asS'cookr001'
p3450
(lp3451
g3450
aS'Ryan Cook'
p3452
aS'  8.2'
p3453
aI20
aI19
aI18
aI4
aI7
aI0
aI6
asS'sorir001'
p3454
(lp3455
g3454
aS'Rafael Soriano'
p3456
aS'  5.2'
p3457
aI8
aI4
aI4
aI2
aI1
aI0
aI4
asg782
(lp3458
g782
ag784
aS'  3.0'
p3459
aI2
aI0
aI0
aI0
aI1
aI0
aI3
asg785
(lp3460
g785
ag787
aS' 39.2'
p3461
aI55
aI29
aI26
aI5
aI11
aI3
aI25
asg1736
(lp3462
g1736
ag1738
aS'200.2'
p3463
aI189
aI99
aI90
aI27
aI73
aI3
aI171
asg800
(lp3464
g800
ag802
aS' 89.0'
p3465
aI90
aI38
aI37
aI15
aI22
aI2
aI81
asg803
(lp3466
g803
ag805
aS'109.1'
p3467
aI104
aI49
aI44
aI11
aI45
aI3
aI98
asg812
(lp3468
g812
ag814
aS' 34.0'
p3469
aI42
aI24
aI20
aI3
aI9
aI2
aI20
asS'neshp001'
p3470
(lp3471
g3470
aS'Pat Neshek'
p3472
aS' 54.2'
p3473
aI49
aI25
aI22
aI8
aI12
aI1
aI51
asS'rondh001'
p3474
(lp3475
g3474
aS'Hector Rondon'
p3476
aS' 70.0'
p3477
aI55
aI19
aI13
aI4
aI15
aI2
aI69
asS'moraf001'
p3478
(lp3479
g3478
aS'Franklin Morales'
p3480
aS' 62.1'
p3481
aI58
aI24
aI22
aI4
aI14
aI0
aI41
asS'shawb001'
p3482
(lp3483
g3482
aS'Bryan Shaw'
p3484
aS' 64.0'
p3485
aI59
aI24
aI21
aI8
aI19
aI1
aI54
asS'carpd001'
p3486
(lp3487
g3486
aS'David Carpenter'
p3488
aS' 28.1'
p3489
aI31
aI15
aI14
aI6
aI9
aI1
aI20
asg833
(lp3490
g833
ag835
aS'  2.0'
p3491
aI1
aI0
aI0
aI0
aI1
aI0
aI1
asS'jeffj001'
p3492
(lp3493
g3492
aS'Jeremy Jeffress'
p3494
aS' 68.0'
p3495
aI64
aI22
aI20
aI5
aI22
aI5
aI67
asS'dools001'
p3496
(lp3497
g3496
aS'Sean Doolittle'
p3498
aS' 13.2'
p3499
aI12
aI6
aI6
aI1
aI5
aI0
aI15
asS'kahnt001'
p3500
(lp3501
g3500
aS'Tommy Kahnle'
p3502
aS' 33.1'
p3503
aI31
aI22
aI18
aI3
aI28
aI1
aI39
asS'fienc001'
p3504
(lp3505
g3504
aS'Casey Fien'
p3506
aS' 63.1'
p3507
aI61
aI26
aI25
aI6
aI8
aI0
aI41
asS'millb001'
p3508
(lp3509
g3508
aS'Brad Mills'
p3510
aS'  5.0'
p3511
aI7
aI3
aI3
aI1
aI1
aI0
aI1
asS'dullr001'
p3512
(lp3513
g3512
aS'Ryan Dull'
p3514
aS' 17.0'
p3515
aI12
aI8
aI8
aI4
aI6
aI1
aI16
asg863
(lp3516
g863
ag865
aS' 30.2'
p3517
aI25
aI17
aI16
aI6
aI14
aI3
aI35
asS'achta001'
p3518
(lp3519
g3518
aS'A.J. Achter'
p3520
aS' 13.1'
p3521
aI12
aI10
aI10
aI4
aI6
aI1
aI14
asg1616
(lp3522
g1616
ag1618
aS' 30.2'
p3523
aI40
aI27
aI27
aI8
aI12
aI0
aI27
asS'osunr001'
p3524
(lp3525
g3524
aS'Roberto Osuna'
p3526
aS' 69.2'
p3527
aI48
aI21
aI20
aI7
aI16
aI2
aI75
asg872
(lp3528
g872
ag874
aS'155.1'
p3529
aI184
aI76
aI76
aI29
aI16
aI0
aI94
asg875
(lp3530
g875
ag877
aS' 23.0'
p3531
aI24
aI15
aI15
aI9
aI4
aI0
aI29
asg878
(lp3532
g878
ag880
aS' 12.1'
p3533
aI11
aI13
aI10
aI5
aI8
aI2
aI12
asS'cokep001'
p3534
(lp3535
g3534
aS'Phil Coke'
p3536
aS' 12.2'
p3537
aI15
aI8
aI8
aI2
aI5
aI2
aI12
asg890
(lp3538
g890
ag892
aS'148.1'
p3539
aI186
aI101
aI98
aI29
aI44
aI1
aI84
asS'rodnf001'
p3540
(lp3541
g3540
aS'Fernando Rodney'
p3542
aS' 62.2'
p3543
aI59
aI36
aI33
aI9
aI29
aI3
aI58
asS'eliar001'
p3544
(lp3545
g3544
aS'Roenis Elias'
p3546
aS'115.1'
p3547
aI106
aI57
aI53
aI15
aI44
aI1
aI97
asg902
(lp3548
g902
ag904
aS'116.1'
p3549
aI120
aI67
aI64
aI13
aI32
aI1
aI100
asg905
(lp3550
g905
ag907
aS'150.0'
p3551
aI126
aI60
aI54
aI19
aI31
aI2
aI166
asg908
(lp3552
g908
ag910
aS' 23.1'
p3553
aI37
aI23
aI17
aI4
aI8
aI0
aI14
asS'jackj001'
p3554
(lp3555
g3554
aS'Jay Jackson'
p3556
aS'  4.1'
p3557
aI7
aI3
aI3
aI0
aI1
aI0
aI4
asg719
(lp3558
g719
ag721
aS' 61.2'
p3559
aI73
aI37
aI36
aI5
aI25
aI2
aI28
asS'odayd001'
p3560
(lp3561
g3560
aS"Darren O'Day"
p3562
aS' 65.1'
p3563
aI47
aI13
aI11
aI5
aI14
aI1
aI82
asS'rzepm001'
p3564
(lp3565
g3564
aS'Marc Rzepczynski'
p3566
aS' 35.0'
p3567
aI40
aI29
aI22
aI3
aI14
aI4
aI41
asS'tomlj001'
p3568
(lp3569
g3568
aS'Josh Tomlin'
p3570
aS' 65.2'
p3571
aI47
aI22
aI22
aI13
aI8
aI0
aI57
asg932
(lp3572
g932
ag934
aS' 29.2'
p3573
aI37
aI24
aI21
aI4
aI16
aI1
aI29
asg938
(lp3574
g938
ag940
aS' 51.0'
p3575
aI40
aI16
aI15
aI5
aI13
aI0
aI49
asS'papej001'
p3576
(lp3577
g3576
aS'Jonathan Papelbon'
p3578
aS' 63.1'
p3579
aI53
aI22
aI15
aI7
aI12
aI2
aI56
asg953
(lp3580
g953
ag955
aS' 51.1'
p3581
aI34
aI14
aI14
aI4
aI10
aI1
aI50
asS'daviw001'
p3582
(lp3583
g3582
aS'Wade Davis'
p3584
aS' 67.1'
p3585
aI33
aI8
aI7
aI3
aI20
aI1
aI78
asS'jenkc001'
p3586
(lp3587
g3586
aS'Chad Jenkins'
p3588
aS'  3.2'
p3589
aI3
aI2
aI2
aI1
aI3
aI0
aI2
asS'thiec001'
p3590
(lp3591
g3590
aS'Caleb Thielbar'
p3592
aS'  5.0'
p3593
aI5
aI3
aI3
aI0
aI0
aI0
aI5
asS'boxbb001'
p3594
(lp3595
g3594
aS'Brad Boxberger'
p3596
aS' 63.0'
p3597
aI54
aI29
aI26
aI9
aI32
aI5
aI74
asg1694
(lp3598
g1694
ag1696
aS'208.2'
p3599
aI185
aI88
aI79
aI23
aI42
aI0
aI274
asg983
(lp3600
g983
ag985
aS'169.2'
p3601
aI163
aI92
aI86
aI25
aI40
aI1
aI157
asS'famij001'
p3602
(lp3603
g3602
aS'Jeurys Familia'
p3604
aS' 78.0'
p3605
aI59
aI16
aI16
aI6
aI19
aI1
aI86
asg989
(lp3606
g989
ag991
aS' 86.2'
p3607
aI112
aI63
aI55
aI17
aI29
aI0
aI77
asg2315
(lp3608
g2315
ag2317
aS' 47.2'
p3609
aI48
aI31
aI31
aI10
aI13
aI1
aI31
asg1001
(lp3610
g1001
ag1003
aS'148.2'
p3611
aI176
aI102
aI93
aI23
aI57
aI3
aI104
asg1004
(lp3612
g1004
ag1006
aS'119.1'
p3613
aI106
aI55
aI50
aI11
aI47
aI1
aI107
asS'gausk001'
p3614
(lp3615
g3614
aS'Kevin Gausman'
p3616
aS'112.1'
p3617
aI109
aI56
aI53
aI17
aI29
aI1
aI103
asg1010
(lp3618
g1010
ag1012
aS'214.0'
p3619
aI228
aI122
aI118
aI29
aI49
aI0
aI163
asg1013
(lp3620
g1013
ag1015
aS' 60.0'
p3621
aI59
aI29
aI25
aI12
aI15
aI0
aI60
asS'barry001'
p3622
(lp3623
g3622
aS'Yhonathan Barrios'
p3624
aS'  6.2'
p3625
aI3
aI0
aI0
aI0
aI0
aI0
aI7
asg1019
(lp3626
g1019
ag1021
aS' 71.0'
p3627
aI49
aI25
aI23
aI8
aI31
aI2
aI64
asg2435
(lp3628
g2435
ag2437
aS'  0.2'
p3629
aI0
aI0
aI0
aI0
aI0
aI0
aI0
asS'thayd001'
p3630
(lp3631
g3630
aS'Dale Thayer'
p3632
aS' 37.2'
p3633
aI37
aI17
aI17
aI5
aI15
aI4
aI25
asS'gonzc002'
p3634
(lp3635
g3634
aS'Chi Chi Gonzalez'
p3636
aS' 67.0'
p3637
aI49
aI33
aI29
aI6
aI32
aI1
aI30
asg1034
(lp3638
g1034
ag1036
aS' 21.1'
p3639
aI25
aI11
aI8
aI2
aI4
aI2
aI17
asg1007
(lp3640
g1007
ag1009
aS' 50.0'
p3641
aI57
aI24
aI19
aI6
aI12
aI2
aI29
asg1046
(lp3642
g1046
ag1048
aS' 68.1'
p3643
aI73
aI36
aI36
aI14
aI25
aI3
aI43
asg1049
(lp3644
g1049
ag1051
aS'  4.2'
p3645
aI3
aI3
aI2
aI0
aI3
aI0
aI4
asg1055
(lp3646
g1055
ag1057
aS'212.0'
p3647
aI194
aI87
aI81
aI21
aI46
aI1
aI176
asg1058
(lp3648
g1058
ag1060
aS'105.2'
p3649
aI99
aI41
aI41
aI9
aI28
aI1
aI78
asg1061
(lp3650
g1061
ag1063
aS' 31.0'
p3651
aI18
aI5
aI4
aI2
aI7
aI0
aI58
asS'mejij001'
p3652
(lp3653
g3652
aS'Jenrry Mejia'
p3654
aS'  7.1'
p3655
aI4
aI0
aI0
aI0
aI2
aI1
aI7
asg1079
(lp3656
g1079
ag1081
aS'132.0'
p3657
aI118
aI59
aI57
aI13
aI46
aI2
aI110
asS'noesh001'
p3658
(lp3659
g3658
aS'Hector Noesi'
p3660
aS' 32.2'
p3661
aI41
aI26
aI25
aI7
aI17
aI1
aI22
asg1130
(lp3662
g1130
ag1132
aS' 56.0'
p3663
aI58
aI21
aI21
aI3
aI19
aI6
aI51
asS'grilj001'
p3664
(lp3665
g3664
aS'Jason Grilli'
p3666
aS' 33.2'
p3667
aI28
aI13
aI11
aI2
aI10
aI1
aI45
asg1088
(lp3668
g1088
ag1090
aS'  0.1'
p3669
aI0
aI0
aI0
aI0
aI0
aI0
aI0
asS'oflae001'
p3670
(lp3671
g3670
aS"Eric O'Flaherty"
p3672
aS' 30.0'
p3673
aI47
aI30
aI27
aI2
aI18
aI2
aI21
asg1100
(lp3674
g1100
ag1102
aS' 79.1'
p3675
aI102
aI57
aI52
aI13
aI42
aI4
aI44
asS'gurkj001'
p3676
(lp3677
g3676
aS'Jason Gurka'
p3678
aS'  7.2'
p3679
aI16
aI8
aI8
aI1
aI2
aI0
aI7
asg665
(lp3680
g665
ag667
aS'115.0'
p3681
aI120
aI56
aI54
aI11
aI42
aI2
aI98
asg1106
(lp3682
g1106
ag1108
aS' 83.2'
p3683
aI103
aI67
aI64
aI13
aI27
aI4
aI50
asg704
(lp3684
g704
ag706
aS' 34.2'
p3685
aI29
aI17
aI13
aI1
aI19
aI1
aI34
asg1112
(lp3686
g1112
ag1114
aS' 31.2'
p3687
aI29
aI16
aI15
aI2
aI11
aI0
aI26
asg1118
(lp3688
g1118
ag1120
aS'  8.2'
p3689
aI10
aI8
aI8
aI2
aI5
aI1
aI4
asS'rearc001'
p3690
(lp3691
g3690
aS'Chris Rearick'
p3692
aS'  3.0'
p3693
aI6
aI4
aI4
aI2
aI2
aI0
aI4
asS'betar001'
p3694
(lp3695
g3694
aS'Rafael Betancourt'
p3696
aS' 39.1'
p3697
aI43
aI29
aI27
aI4
aI12
aI4
aI40
asg188
(lp3698
g188
ag190
aS' 64.2'
p3699
aI59
aI23
aI21
aI3
aI11
aI1
aI71
asS'wojca001'
p3700
(lp3701
g3700
aS'Asher Wojciechowski'
p3702
aS' 16.1'
p3703
aI23
aI13
aI13
aI2
aI7
aI0
aI16
asg1133
(lp3704
g1133
ag1135
aS' 35.2'
p3705
aI36
aI23
aI23
aI3
aI22
aI1
aI23
asg98
(lp3706
g98
ag100
aS'157.0'
p3707
aI152
aI89
aI87
aI29
aI49
aI1
aI138
asS'strom001'
p3708
(lp3709
g3708
aS'Marcus Stroman'
p3710
aS' 27.0'
p3711
aI20
aI5
aI5
aI2
aI6
aI0
aI18
asS'jaimj001'
p3712
(lp3713
g3712
aS'Juan Jaime'
p3714
aS'  1.1'
p3715
aI0
aI1
aI1
aI0
aI4
aI1
aI1
asg1151
(lp3716
g1151
ag1153
aS'205.0'
p3717
aI183
aI83
aI76
aI16
aI47
aI0
aI207
asg1154
(lp3718
g1154
ag1156
aS'112.0'
p3719
aI119
aI59
aI56
aI11
aI33
aI0
aI77
asS'kelak001'
p3720
(lp3721
g3720
aS'Keone Kela'
p3722
aS' 60.1'
p3723
aI52
aI18
aI16
aI4
aI18
aI0
aI68
asg1166
(lp3724
g1166
ag1168
aS' 39.1'
p3725
aI19
aI8
aI7
aI1
aI16
aI3
aI26
asS'varva001'
p3726
(lp3727
g3726
aS'Anthony Varvaro'
p3728
aS' 11.0'
p3729
aI14
aI5
aI5
aI0
aI6
aI1
aI8
asg1172
(lp3730
g1172
ag1174
aS' 10.0'
p3731
aI14
aI6
aI6
aI0
aI5
aI0
aI10
asS'knebc001'
p3732
(lp3733
g3732
aS'Corey Knebel'
p3734
aS' 50.1'
p3735
aI44
aI18
aI18
aI8
aI17
aI1
aI58
asS'roblh001'
p3736
(lp3737
g3736
aS'Hansel Robles'
p3738
aS' 54.0'
p3739
aI37
aI27
aI22
aI8
aI18
aI1
aI61
asS'ravij001'
p3740
(lp3741
g3740
aS'Josh Ravin'
p3742
aS'  9.1'
p3743
aI13
aI7
aI7
aI3
aI4
aI0
aI12
asS'camia001'
p3744
(lp3745
g3744
aS'Arquimedes Caminero'
p3746
aS' 74.2'
p3747
aI63
aI31
aI30
aI7
aI29
aI2
aI73
asS'melam001'
p3748
(lp3749
g3748
aS'Mark Melancon'
p3750
aS' 76.2'
p3751
aI57
aI22
aI19
aI4
aI14
aI2
aI62
asg1184
(lp3752
g1184
ag1186
aS'  1.0'
p3753
aI3
aI2
aI2
aI1
aI0
aI0
aI0
asS'roe-c001'
p3754
(lp3755
g3754
aS'Chaz Roe'
p3756
aS' 41.1'
p3757
aI44
aI19
aI19
aI4
aI17
aI2
aI38
asS'ferrj001'
p3758
(lp3759
g3758
aS'Jeff Ferrell'
p3760
aS' 11.1'
p3761
aI12
aI8
aI8
aI3
aI4
aI0
aI6
asS'smitc003'
p3762
(lp3763
g3762
aS'Chad Smith'
p3764
aS'  1.1'
p3765
aI5
aI5
aI5
aI0
aI3
aI0
aI2
asS'teper001'
p3766
(lp3767
g3766
aS'Ryan Tepera'
p3768
aS' 33.0'
p3769
aI23
aI14
aI12
aI8
aI6
aI0
aI22
asg1175
(lp3770
g1175
ag1177
aS'232.2'
p3771
aI163
aI62
aI55
aI15
aI42
aI1
aI301
asS'crock001'
p3772
(lp3773
g3772
aS'Kyle Crockett'
p3774
aS' 17.2'
p3775
aI17
aI9
aI8
aI1
aI7
aI0
aI15
asg575
(lp3776
g575
ag577
aS' 72.2'
p3777
aI67
aI38
aI33
aI12
aI27
aI0
aI52
asS'blevj001'
p3778
(lp3779
g3778
aS'Jerry Blevins'
p3780
aS'  5.0'
p3781
aI0
aI0
aI0
aI0
aI0
aI0
aI4
asS'broxj001'
p3782
(lp3783
g3782
aS'Jonathan Broxton'
p3784
aS' 60.1'
p3785
aI61
aI32
aI31
aI7
aI22
aI1
aI63
asg1670
(lp3786
g1670
ag1672
aS'  1.0'
p3787
aI2
aI1
aI1
aI0
aI0
aI0
aI0
asS'velav001'
p3788
(lp3789
g3788
aS'Vincent Velasquez'
p3790
aS' 55.2'
p3791
aI50
aI28
aI27
aI5
aI21
aI0
aI58
asg1217
(lp3792
g1217
ag1219
aS' 11.1'
p3793
aI19
aI13
aI10
aI1
aI3
aI0
aI7
asS'obers001'
p3794
(lp3795
g3794
aS'Scott Oberg'
p3796
aS' 58.1'
p3797
aI58
aI35
aI33
aI10
aI31
aI2
aI44
asS'chenw001'
p3798
(lp3799
g3798
aS'Wei-Yin Chen'
p3800
aS'191.1'
p3801
aI192
aI78
aI71
aI28
aI41
aI0
aI153
asS'streh001'
p3802
(lp3803
g3802
aS'Huston Street'
p3804
aS' 62.1'
p3805
aI52
aI22
aI22
aI7
aI20
aI5
aI57
asg1229
(lp3806
g1229
ag1231
aS'181.1'
p3807
aI162
aI74
aI68
aI19
aI58
aI4
aI153
asg1235
(lp3808
g1235
ag1237
aS' 78.2'
p3809
aI88
aI45
aI39
aI3
aI24
aI1
aI48
asS'givem001'
p3810
(lp3811
g3810
aS'Mychal Givens'
p3812
aS' 30.0'
p3813
aI20
aI7
aI6
aI1
aI6
aI0
aI38
asg1238
(lp3814
g1238
ag1240
aS' 33.1'
p3815
aI24
aI9
aI9
aI1
aI9
aI2
aI34
asg1244
(lp3816
g1244
ag1246
aS' 84.2'
p3817
aI90
aI48
aI41
aI9
aI26
aI2
aI42
asS'mcgos001'
p3818
(lp3819
g3818
aS'Scott McGough'
p3820
aS'  6.2'
p3821
aI12
aI7
aI7
aI0
aI4
aI0
aI4
asS'rondj001'
p3822
(lp3823
g3822
aS'Jorge Rondon'
p3824
aS' 14.1'
p3825
aI28
aI26
aI21
aI3
aI9
aI0
aI9
asS'madsr001'
p3826
(lp3827
g3826
aS'Ryan Madson'
p3828
aS' 63.1'
p3829
aI47
aI17
aI15
aI5
aI14
aI1
aI58
asS'tazaj001'
p3830
(lp3831
g3830
aS'Junichi Tazawa'
p3832
aS' 58.2'
p3833
aI65
aI28
aI27
aI5
aI13
aI1
aI56
asS'knudg001'
p3834
(lp3835
g3834
aS'Guido Knudson'
p3836
aS'  5.0'
p3837
aI13
aI10
aI10
aI5
aI3
aI1
aI6
asg1256
(lp3838
g1256
ag1258
aS' 29.2'
p3839
aI26
aI14
aI14
aI3
aI9
aI4
aI29
asS'ohler001'
p3840
(lp3841
g3840
aS'Ross Ohlendorf'
p3842
aS' 19.1'
p3843
aI21
aI8
aI8
aI4
aI7
aI2
aI19
asg1259
(lp3844
g1259
ag1261
aS'159.0'
p3845
aI163
aI84
aI82
aI24
aI33
aI3
aI90
asS'bassa001'
p3846
(lp3847
g3846
aS'Anthony Bass'
p3848
aS' 64.0'
p3849
aI66
aI33
aI32
aI5
aI20
aI1
aI45
asg1268
(lp3850
g1268
ag1270
aS' 38.2'
p3851
aI44
aI16
aI14
aI4
aI7
aI1
aI34
asS'gorzt001'
p3852
(lp3853
g3852
aS'Tom Gorzelanny'
p3854
aS' 39.1'
p3855
aI45
aI28
aI26
aI4
aI23
aI2
aI36
asS'jennd003'
p3856
(lp3857
g3856
aS'Dan Jennings'
p3858
aS' 56.1'
p3859
aI55
aI28
aI25
aI3
aI24
aI6
aI46
asg1139
(lp3860
g1139
ag1141
aS' 71.2'
p3861
aI81
aI36
aI32
aI6
aI21
aI3
aI49
asg1274
(lp3862
g1274
ag1276
aS' 27.1'
p3863
aI29
aI14
aI12
aI2
aI5
aI0
aI22
asg842
(lp3864
g842
ag844
aS' 67.0'
p3865
aI67
aI34
aI29
aI8
aI29
aI1
aI56
asS'mcalz001'
p3866
(lp3867
g3866
aS'Zach McAllister'
p3868
aS' 69.0'
p3869
aI70
aI28
aI23
aI7
aI23
aI4
aI84
asS'ibare001'
p3870
(lp3871
g3870
aS'Edgar Ibarra'
p3872
aS'  4.0'
p3873
aI4
aI1
aI1
aI0
aI3
aI0
aI3
asg1289
(lp3874
g1289
ag1291
aS' 48.2'
p3875
aI46
aI24
aI23
aI5
aI21
aI4
aI24
asS'peacb001'
p3876
(lp3877
g3876
aS'Brad Peacock'
p3878
aS'  5.0'
p3879
aI5
aI3
aI3
aI0
aI2
aI0
aI3
asg224
(lp3880
g224
ag226
aS'152.1'
p3881
aI180
aI99
aI99
aI29
aI43
aI3
aI108
asg1319
(lp3882
g1319
ag1321
aS'135.1'
p3883
aI135
aI70
aI67
aI24
aI35
aI2
aI116
asS'hembh001'
p3884
(lp3885
g3884
aS'Heath Hembree'
p3886
aS' 25.1'
p3887
aI25
aI10
aI10
aI5
aI9
aI2
aI15
asS'rodrf003'
p3888
(lp3889
g3888
aS'Francisco Rodriguez'
p3890
aS' 57.0'
p3891
aI38
aI15
aI14
aI6
aI11
aI1
aI62
asS'ziegb001'
p3892
(lp3893
g3892
aS'Brad Ziegler'
p3894
aS' 68.0'
p3895
aI48
aI17
aI14
aI3
aI17
aI3
aI36
asS'rodrf004'
p3896
(lp3897
g3896
aS'Fernando Rodriguez'
p3898
aS' 58.2'
p3899
aI43
aI27
aI25
aI4
aI24
aI1
aI65
asg2093
(lp3900
g2093
ag2095
aS'168.1'
p3901
aI179
aI95
aI84
aI15
aI60
aI4
aI129
asS'mottj001'
p3902
(lp3903
g3902
aS'Jason Motte'
p3904
aS' 48.1'
p3905
aI48
aI21
aI21
aI4
aI11
aI5
aI34
asg1337
(lp3906
g1337
ag1339
aS' 16.0'
p3907
aI17
aI10
aI10
aI0
aI9
aI0
aI11
asS'beckc002'
p3908
(lp3909
g3908
aS'Chris Beck'
p3910
aS'  6.0'
p3911
aI10
aI5
aI4
aI0
aI4
aI0
aI3
asS'cunnb001'
p3912
(lp3913
g3912
aS'Brandon Cunniff'
p3914
aS' 35.0'
p3915
aI27
aI20
aI18
aI4
aI22
aI2
aI37
asg1343
(lp3916
g1343
ag1345
aS'  0.2'
p3917
aI0
aI0
aI0
aI0
aI1
aI0
aI0
asS'kleip001'
p3918
(lp3919
g3918
aS'Phil Klein'
p3920
aS' 17.1'
p3921
aI23
aI15
aI13
aI4
aI10
aI0
aI12
asg1352
(lp3922
g1352
ag1354
aS'198.2'
p3923
aI214
aI100
aI84
aI22
aI33
aI4
aI91
asg1358
(lp3924
g1358
ag1360
aS'201.2'
p3925
aI204
aI89
aI82
aI24
aI39
aI3
aI164
asS'markm001'
p3926
(lp3927
g3926
aS'Matt Marksberry'
p3928
aS' 23.1'
p3929
aI22
aI16
aI13
aI2
aI16
aI2
aI21
asg1370
(lp3930
g1370
ag1372
aS'123.1'
p3931
aI91
aI44
aI42
aI16
aI43
aI0
aI83
asg1373
(lp3932
g1373
ag1375
aS' 55.1'
p3933
aI73
aI41
aI41
aI9
aI14
aI0
aI38
asg1385
(lp3934
g1385
ag1387
aS' 33.1'
p3935
aI21
aI15
aI15
aI2
aI11
aI0
aI38
asg1388
(lp3936
g1388
ag1390
aS'212.0'
p3937
aI175
aI85
aI76
aI19
aI66
aI0
aI252
asS'allec002'
p3938
(lp3939
g3938
aS'Cody Allen'
p3940
aS' 69.1'
p3941
aI56
aI26
aI23
aI2
aI25
aI2
aI99
asg1397
(lp3942
g1397
ag1399
aS'146.0'
p3943
aI151
aI79
aI75
aI22
aI43
aI3
aI121
asS'howej003'
p3944
(lp3945
g3944
aS'J.P. Howell'
p3946
aS' 44.0'
p3947
aI47
aI9
aI7
aI3
aI14
aI1
aI39
asg242
(lp3948
g242
ag244
aS' 72.0'
p3949
aI63
aI28
aI26
aI7
aI33
aI2
aI73
asg1430
(lp3950
g1430
ag1432
aS'108.1'
p3951
aI115
aI49
aI47
aI13
aI27
aI1
aI61
asg1436
(lp3952
g1436
ag1438
aS' 34.0'
p3953
aI26
aI14
aI14
aI2
aI15
aI0
aI24
asg1439
(lp3954
g1439
ag1441
aS'183.0'
p3955
aI162
aI77
aI63
aI20
aI59
aI0
aI155
asg2642
(lp3956
g2642
ag2644
aS'127.1'
p3957
aI115
aI56
aI49
aI14
aI26
aI0
aI155
asg1448
(lp3958
g1448
ag1450
aS'200.1'
p3959
aI190
aI89
aI79
aI16
aI72
aI1
aI155
asg1451
(lp3960
g1451
ag1453
aS'208.0'
p3961
aI166
aI71
aI63
aI17
aI59
aI0
aI169
asg1454
(lp3962
g1454
ag1456
aS'172.0'
p3963
aI196
aI103
aI94
aI25
aI38
aI0
aI149
asS'sante001'
p3964
(lp3965
g3964
aS'Ervin Santana'
p3966
aS'108.0'
p3967
aI104
aI50
aI48
aI12
aI36
aI2
aI82
asg1460
(lp3968
g1460
ag1462
aS'129.2'
p3969
aI117
aI53
aI51
aI18
aI21
aI1
aI111
asS'olmoe001'
p3970
(lp3971
g3970
aS'Edgar Olmos'
p3972
aS' 14.0'
p3973
aI16
aI8
aI7
aI1
aI8
aI1
aI4
asg1463
(lp3974
g1463
ag1465
aS' 77.2'
p3975
aI74
aI31
aI31
aI11
aI19
aI1
aI68
asS'ramoc001'
p3976
(lp3977
g3976
aS'Cesar Ramos'
p3978
aS' 52.1'
p3979
aI55
aI17
aI16
aI2
aI15
aI0
aI43
asg1466
(lp3980
g1466
ag1468
aS'222.0'
p3981
aI189
aI92
aI86
aI22
aI45
aI3
aI245
asS'hagan001'
p3982
(lp3983
g3982
aS'Nick Hagadone'
p3984
aS' 27.1'
p3985
aI30
aI16
aI13
aI3
aI12
aI1
aI28
asS'smyld001'
p3986
(lp3987
g3986
aS'Drew Smyly'
p3988
aS' 66.2'
p3989
aI58
aI24
aI23
aI11
aI20
aI0
aI77
asg1478
(lp3990
g1478
ag1480
aS'175.2'
p3991
aI181
aI79
aI74
aI8
aI69
aI3
aI169
asg1481
(lp3992
g1481
ag1483
aS'  4.0'
p3993
aI5
aI6
aI6
aI2
aI7
aI0
aI3
asS'cottn001'
p3994
(lp3995
g3994
aS'Neal Cotts'
p3996
aS' 63.1'
p3997
aI58
aI26
aI24
aI12
aI22
aI2
aI58
asg1490
(lp3998
g1490
ag1492
aS'  1.0'
p3999
aI1
aI0
aI0
aI0
aI0
aI0
aI1
asg161
(lp4000
g161
ag163
aS'204.2'
p4001
aI211
aI114
aI106
aI26
aI42
aI2
aI142
asS'belij001'
p4002
(lp4003
g4002
aS'Jeff Beliveau'
p4004
aS'  2.2'
p4005
aI6
aI4
aI4
aI1
aI1
aI0
aI2
asg1502
(lp4006
g1502
ag1504
aS'113.1'
p4007
aI114
aI48
aI41
aI6
aI23
aI0
aI107
asg209
(lp4008
g209
ag211
aS' 84.1'
p4009
aI88
aI45
aI42
aI14
aI17
aI0
aI49
asg1511
(lp4010
g1511
ag1513
aS'  8.0'
p4011
aI10
aI7
aI7
aI1
aI6
aI2
aI5
asS'balfg001'
p4012
(lp4013
g4012
aS'Grant Balfour'
p4014
aS'  4.1'
p4015
aI3
aI3
aI3
aI1
aI4
aI0
aI0
asg1517
(lp4016
g1517
ag1519
aS' 58.1'
p4017
aI75
aI37
aI34
aI5
aI25
aI2
aI45
asg1520
(lp4018
g1520
ag1522
aS' 53.1'
p4019
aI48
aI24
aI24
aI6
aI15
aI2
aI49
asS'schua001'
p4020
(lp4021
g4020
aS'A.J. Schugel'
p4022
aS'  9.0'
p4023
aI17
aI13
aI5
aI2
aI5
aI2
aI5
asS'armss001'
p4024
(lp4025
g4024
aS'Shawn Armstrong'
p4026
aS'  8.0'
p4027
aI5
aI2
aI2
aI1
aI2
aI0
aI11
asS'marcs001'
p4028
(lp4029
g4028
aS'Shaun Marcum'
p4030
aS' 35.0'
p4031
aI32
aI21
aI21
aI9
aI11
aI3
aI30
asS'garcy001'
p4032
(lp4033
g4032
aS'Yimi Garcia'
p4034
aS' 56.2'
p4035
aI44
aI23
aI21
aI8
aI10
aI1
aI68
asS'thatj001'
p4036
(lp4037
g4036
aS'Joe Thatcher'
p4038
aS' 22.2'
p4039
aI23
aI8
aI8
aI1
aI12
aI0
aI26
asS'novai001'
p4040
(lp4041
g4040
aS'Ivan Nova'
p4042
aS' 94.0'
p4043
aI99
aI54
aI53
aI13
aI33
aI0
aI63
asg482
(lp4044
g482
ag484
aS' 63.1'
p4045
aI77
aI35
aI30
aI7
aI13
aI4
aI46
asS'jepsk001'
p4046
(lp4047
g4046
aS'Kevin Jepsen'
p4048
aS' 69.2'
p4049
aI52
aI20
aI18
aI5
aI27
aI1
aI59
asg1553
(lp4050
g1553
ag1555
aS' 76.2'
p4051
aI64
aI33
aI31
aI7
aI21
aI0
aI69
asg1562
(lp4052
g1562
ag1564
aS' 55.2'
p4053
aI44
aI25
aI19
aI4
aI21
aI1
aI40
asg1568
(lp4054
g1568
ag1570
aS' 57.1'
p4055
aI50
aI17
aI17
aI2
aI18
aI5
aI54
asg2174
(lp4056
g2174
ag2176
aS' 90.0'
p4057
aI92
aI49
aI46
aI11
aI37
aI1
aI64
asS'lindj005'
p4058
(lp4059
g4058
aS'Jacob Lindgren'
p4060
aS'  7.0'
p4061
aI5
aI4
aI4
aI3
aI4
aI0
aI8
asS'ogana001'
p4062
(lp4063
g4062
aS'Alexi Ogando'
p4064
aS' 65.1'
p4065
aI59
aI29
aI29
aI12
aI28
aI2
aI53
asS'depaj004'
p4066
(lp4067
g4066
aS'Jose De Paula'
p4068
aS'  3.1'
p4069
aI2
aI1
aI1
aI1
aI4
aI0
aI2
asS'parrm001'
p4070
(lp4071
g4070
aS'Manny Parra'
p4072
aS' 32.1'
p4073
aI32
aI15
aI14
aI2
aI6
aI1
aI23
asg1580
(lp4074
g1580
ag1582
aS'160.2'
p4075
aI176
aI83
aI78
aI21
aI21
aI0
aI156
asg266
(lp4076
g266
ag268
aS' 86.0'
p4077
aI78
aI36
aI34
aI5
aI30
aI0
aI64
asg1586
(lp4078
g1586
ag1588
aS'  7.0'
p4079
aI12
aI6
aI5
aI1
aI5
aI0
aI7
asS'cornj002'
p4080
(lp4081
g4080
aS'John Cornely'
p4082
aS'  1.0'
p4083
aI3
aI4
aI4
aI1
aI1
aI0
aI1
asS'mcgej001'
p4084
(lp4085
g4084
aS'Jake McGee'
p4086
aS' 37.1'
p4087
aI27
aI11
aI10
aI3
aI8
aI1
aI48
asg1598
(lp4088
g1598
ag1600
aS' 68.1'
p4089
aI82
aI36
aI36
aI8
aI15
aI1
aI37
asg1601
(lp4090
g1601
ag1603
aS' 30.1'
p4091
aI24
aI15
aI15
aI7
aI9
aI0
aI32
asS'kellr001'
p4092
(lp4093
g4092
aS'Ryan Kelly'
p4094
aS' 16.2'
p4095
aI21
aI14
aI13
aI5
aI6
aI0
aI10
asg1610
(lp4096
g1610
ag1612
aS' 65.2'
p4097
aI69
aI32
aI30
aI8
aI18
aI1
aI49
asg1709
(lp4098
g1709
ag1711
aS'  1.0'
p4099
aI1
aI0
aI0
aI0
aI0
aI0
aI0
asS'kroli001'
p4100
(lp4101
g4100
aS'Ian Krol'
p4102
aS' 28.0'
p4103
aI31
aI19
aI18
aI4
aI17
aI1
aI26
asS'dufft001'
p4104
(lp4105
g4104
aS'Tyler Duffey'
p4106
aS' 58.0'
p4107
aI56
aI20
aI20
aI4
aI20
aI0
aI53
asS'houst002'
p4108
(lp4109
g4108
aS'T.J. House'
p4110
aS' 13.0'
p4111
aI21
aI19
aI19
aI1
aI12
aI1
aI7
asS'pereo002'
p4112
(lp4113
g4112
aS'Oliver Perez'
p4114
aS' 41.0'
p4115
aI39
aI24
aI19
aI4
aI15
aI2
aI51
asS'murat001'
p4116
(lp4117
g4116
aS'Toru Murata'
p4118
aS'  3.1'
p4119
aI4
aI5
aI3
aI2
aI1
aI0
aI2
asg1619
(lp4120
g1619
ag1621
aS' 11.1'
p4121
aI16
aI7
aI7
aI3
aI4
aI2
aI3
asS'martc007'
p4122
(lp4123
g4122
aS'Chris Martin'
p4124
aS' 20.2'
p4125
aI28
aI13
aI13
aI2
aI6
aI1
aI18
asg1622
(lp4126
g1622
ag1624
aS'179.2'
p4127
aI168
aI65
aI60
aI13
aI63
aI5
aI184
asS'belim001'
p4128
(lp4129
g4128
aS'Matt Belisle'
p4130
aS' 33.2'
p4131
aI34
aI10
aI10
aI1
aI15
aI2
aI25
asg1625
(lp4132
g1625
ag1627
aS' 69.2'
p4133
aI63
aI35
aI35
aI10
aI33
aI1
aI47
asg8
(lp4134
g8
ag10
aS' 49.0'
p4135
aI54
aI32
aI28
aI2
aI19
aI1
aI30
asS'albua001'
p4136
(lp4137
g4136
aS'Al Alburquerque'
p4138
aS' 62.0'
p4139
aI63
aI29
aI29
aI4
aI33
aI3
aI58
asS'herrk001'
p4140
(lp4141
g4140
aS'Kelvin Herrera'
p4142
aS' 69.2'
p4143
aI52
aI23
aI21
aI5
aI26
aI1
aI64
asS'albem001'
p4144
(lp4145
g4144
aS'Matt Albers'
p4146
aS' 37.1'
p4147
aI31
aI6
aI5
aI3
aI9
aI2
aI28
asg1643
(lp4148
g1643
ag1645
aS' 61.0'
p4149
aI50
aI21
aI20
aI6
aI21
aI2
aI55
asS'boydm001'
p4150
(lp4151
g4150
aS'Matt Boyd'
p4152
aS' 57.1'
p4153
aI71
aI50
aI48
aI17
aI20
aI0
aI43
asS'rogee002'
p4154
(lp4155
g4154
aS'Esmil Rogers'
p4156
aS' 33.0'
p4157
aI41
aI29
aI23
aI5
aI14
aI0
aI31
asS'coloa001'
p4158
(lp4159
g4158
aS'Alex Colome'
p4160
aS'109.2'
p4161
aI112
aI50
aI48
aI9
aI31
aI4
aI88
asg1655
(lp4162
g1655
ag1657
aS' 67.2'
p4163
aI64
aI34
aI29
aI7
aI25
aI2
aI71
asg1661
(lp4164
g1661
ag1663
aS' 47.2'
p4165
aI34
aI20
aI19
aI6
aI15
aI4
aI39
asg776
(lp4166
g776
ag778
aS' 16.0'
p4167
aI19
aI12
aI12
aI3
aI6
aI0
aI5
asS'tonkm001'
p4168
(lp4169
g4168
aS'Michael Tonkin'
p4170
aS' 23.1'
p4171
aI21
aI9
aI9
aI4
aI9
aI2
aI19
asS'brotr001'
p4172
(lp4173
g4172
aS'Rex Brothers'
p4174
aS' 10.1'
p4175
aI9
aI2
aI2
aI0
aI8
aI0
aI5
asS'felin001'
p4176
(lp4177
g4176
aS'Neftali Feliz'
p4178
aS' 48.0'
p4179
aI57
aI34
aI34
aI5
aI18
aI6
aI39
asS'shrec001'
p4180
(lp4181
g4180
aS'Chasen Shreve'
p4182
aS' 58.1'
p4183
aI49
aI21
aI20
aI10
aI33
aI2
aI64
asg1700
(lp4184
g1700
ag1702
aS'206.1'
p4185
aI218
aI81
aI77
aI16
aI44
aI4
aI177
asg1703
(lp4186
g1703
ag1705
aS' 44.2'
p4187
aI52
aI30
aI30
aI9
aI18
aI3
aI26
asg1721
(lp4188
g1721
ag1723
aS' 71.0'
p4189
aI94
aI49
aI48
aI16
aI20
aI5
aI35
asS'gelts001'
p4190
(lp4191
g4190
aS'Steve Geltz'
p4192
aS' 67.1'
p4193
aI45
aI31
aI28
aI8
aI26
aI3
aI61
asS'abadf001'
p4194
(lp4195
g4194
aS'Fernando Abad'
p4196
aS' 47.2'
p4197
aI45
aI23
aI22
aI11
aI19
aI3
aI45
asS'delas001'
p4198
(lp4199
g4198
aS'Steve Delabar'
p4200
aS' 29.1'
p4201
aI28
aI19
aI17
aI5
aI14
aI1
aI30
asS'oterd001'
p4202
(lp4203
g4202
aS'Dan Otero'
p4204
aS' 46.2'
p4205
aI64
aI35
aI35
aI7
aI6
aI2
aI28
asg1712
(lp4206
g1712
ag1714
aS'186.2'
p4207
aI155
aI75
aI70
aI15
aI70
aI1
aI205
asg1715
(lp4208
g1715
ag1717
aS' 74.2'
p4209
aI82
aI28
aI25
aI4
aI17
aI4
aI50
asS'webbd001'
p4210
(lp4211
g4210
aS'Daniel Webb'
p4212
aS' 30.0'
p4213
aI41
aI26
aI21
aI3
aI22
aI1
aI22
asg1718
(lp4214
g1718
ag1720
aS'  1.0'
p4215
aI3
aI2
aI2
aI1
aI0
aI0
aI1
asS'gottt001'
p4216
(lp4217
g4216
aS'Trevor Gott'
p4218
aS' 47.2'
p4219
aI43
aI18
aI16
aI2
aI16
aI3
aI27
asS'ellib001'
p4220
(lp4221
g4220
aS'Brian Ellington'
p4222
aS' 25.0'
p4223
aI17
aI10
aI8
aI1
aI13
aI2
aI18
asS'verlj001'
p4224
(lp4225
g4224
aS'Justin Verlander'
p4226
aS'133.1'
p4227
aI113
aI56
aI50
aI13
aI32
aI1
aI113
asg1727
(lp4228
g1727
ag1729
aS' 71.0'
p4229
aI42
aI18
aI15
aI8
aI22
aI1
aI68
asg1730
(lp4230
g1730
ag1732
aS'  0.1'
p4231
aI2
aI5
aI0
aI1
aI1
aI0
aI0
asS'swara001'
p4232
(lp4233
g4232
aS'Anthony Swarzak'
p4234
aS' 13.1'
p4235
aI18
aI9
aI5
aI1
aI4
aI1
aI13
asg1646
(lp4236
g1646
ag1648
aS' 23.1'
p4237
aI20
aI11
aI10
aI2
aI11
aI0
aI23
asS'guaim001'
p4238
(lp4239
g4238
aS'Mayckol Guaipe'
p4240
aS' 26.2'
p4241
aI34
aI19
aI16
aI5
aI13
aI1
aI22
asg1742
(lp4242
g1742
ag1744
aS' 66.1'
p4243
aI71
aI30
aI29
aI4
aI20
aI4
aI36
asg1745
(lp4244
g1745
ag1747
aS' 47.1'
p4245
aI64
aI37
aI34
aI10
aI14
aI2
aI37
asS'mediy001'
p4246
(lp4247
g4246
aS'Yoervis Medina'
p4248
aS' 21.0'
p4249
aI23
aI12
aI11
aI2
aI11
aI0
aI16
asg1751
(lp4250
g1751
ag1753
aS' 15.1'
p4251
aI18
aI13
aI13
aI2
aI8
aI0
aI11
asg2639
(lp4252
g2639
ag2641
aS' 32.1'
p4253
aI30
aI14
aI13
aI5
aI11
aI1
aI31
asg2021
(lp4254
g2021
ag2023
aS' 64.2'
p4255
aI61
aI21
aI21
aI4
aI14
aI0
aI79
asg1772
(lp4256
g1772
ag1774
aS'172.1'
p4257
aI189
aI100
aI93
aI26
aI51
aI3
aI108
asS'thorm001'
p4258
(lp4259
g4258
aS'Matt Thornton'
p4260
aS' 41.1'
p4261
aI33
aI12
aI10
aI2
aI11
aI3
aI23
asS'casts002'
p4262
(lp4263
g4262
aS'Simon Castro'
p4264
aS' 10.1'
p4265
aI11
aI7
aI7
aI0
aI5
aI0
aI9
asg1781
(lp4266
g1781
ag1783
aS' 76.0'
p4267
aI75
aI32
aI31
aI11
aI15
aI2
aI59
asg1784
(lp4268
g1784
ag1786
aS'220.1'
p4269
aI190
aI70
aI60
aI17
aI47
aI2
aI225
asg1790
(lp4270
g1790
ag1792
aS'131.2'
p4271
aI170
aI88
aI78
aI19
aI41
aI5
aI86
asS'lazor001'
p4272
(lp4273
g4272
aS'Raudel Lazo'
p4274
aS'  5.2'
p4275
aI5
aI2
aI2
aI1
aI2
aI0
aI5
asS'jonen001'
p4276
(lp4277
g4276
aS'Nate Jones'
p4278
aS' 19.0'
p4279
aI12
aI7
aI7
aI5
aI6
aI0
aI27
asg1805
(lp4280
g1805
ag1807
aS'187.1'
p4281
aI174
aI79
aI75
aI31
aI38
aI2
aI132
asS'scahr001'
p4282
(lp4283
g4282
aS'Rob Scahill'
p4284
aS' 30.2'
p4285
aI33
aI15
aI9
aI3
aI16
aI5
aI24
asS'mattr001'
p4286
(lp4287
g4286
aS'Ryan Mattheus'
p4288
aS' 56.0'
p4289
aI67
aI31
aI25
aI3
aI18
aI2
aI37
asg1811
(lp4290
g1811
ag1813
aS'131.1'
p4291
aI114
aI51
aI48
aI10
aI39
aI1
aI104
asS'hillr001'
p4292
(lp4293
g4292
aS'Rich Hill'
p4294
aS' 29.0'
p4295
aI14
aI5
aI5
aI2
aI5
aI0
aI36
asS'duffd001'
p4296
(lp4297
g4296
aS'Danny Duffy'
p4298
aS'136.2'
p4299
aI137
aI64
aI62
aI15
aI53
aI0
aI102
asS'martr005'
p4300
(lp4301
g4300
aS'Rafael Martin'
p4302
aS' 12.1'
p4303
aI12
aI9
aI7
aI4
aI5
aI0
aI25
asS'presr001'
p4304
(lp4305
g4304
aS'Ryan Pressly'
p4306
aS' 27.2'
p4307
aI27
aI9
aI9
aI0
aI12
aI1
aI22
asg1826
(lp4308
g1826
ag1828
aS'  2.0'
p4309
aI0
aI0
aI0
aI0
aI0
aI0
aI0
asg1829
(lp4310
g1829
ag1831
aS' 16.2'
p4311
aI28
aI16
aI16
aI1
aI8
aI1
aI12
asS'colel001'
p4312
(lp4313
g4312
aS'Louis Coleman'
p4314
aS'  3.0'
p4315
aI1
aI0
aI0
aI0
aI2
aI0
aI1
asS'massn001'
p4316
(lp4317
g4316
aS'Nick Masset'
p4318
aS' 25.0'
p4319
aI30
aI15
aI13
aI3
aI9
aI3
aI18
asg1838
(lp4320
g1838
ag1840
aS'154.0'
p4321
aI126
aI66
aI60
aI25
aI27
aI0
aI139
asg1841
(lp4322
g1841
ag1843
aS'  1.0'
p4323
aI0
aI0
aI0
aI0
aI1
aI0
aI1
asS'logab001'
p4324
(lp4325
g4324
aS'Boone Logan'
p4326
aS' 35.1'
p4327
aI40
aI17
aI17
aI3
aI17
aI1
aI44
asg1856
(lp4328
g1856
ag1858
aS'125.0'
p4329
aI135
aI66
aI55
aI16
aI46
aI2
aI77
asg959
(lp4330
g959
ag961
aS' 29.2'
p4331
aI25
aI7
aI6
aI1
aI10
aI1
aI27
asS'salaf001'
p4332
(lp4333
g4332
aS'Fernando Salas'
p4334
aS' 63.2'
p4335
aI61
aI34
aI30
aI8
aI12
aI5
aI74
asS'nolis001'
p4336
(lp4337
g4336
aS'Sean Nolin'
p4338
aS' 29.0'
p4339
aI35
aI19
aI17
aI4
aI12
aI0
aI15
asS'doubf001'
p4340
(lp4341
g4340
aS'Felix Doubront'
p4342
aS' 75.1'
p4343
aI87
aI50
aI46
aI10
aI26
aI1
aI56
asg1877
(lp4344
g1877
ag1879
aS'100.2'
p4345
aI86
aI48
aI43
aI11
aI39
aI5
aI118
asS'murrc002'
p4346
(lp4347
g4346
aS'Colton Murray'
p4348
aS'  7.2'
p4349
aI11
aI5
aI5
aI2
aI2
aI0
aI9
asg1886
(lp4350
g1886
ag1888
aS' 40.2'
p4351
aI52
aI26
aI25
aI4
aI14
aI2
aI40
asg1898
(lp4352
g1898
ag1900
aS'  2.0'
p4353
aI1
aI2
aI2
aI1
aI3
aI0
aI1
asS'franj003'
p4354
(lp4355
g4354
aS'Jeff Francis'
p4356
aS' 22.0'
p4357
aI27
aI16
aI15
aI3
aI9
aI0
aI21
asS'wilka001'
p4358
(lp4359
g4358
aS'Adam Wilk'
p4360
aS'  2.0'
p4361
aI2
aI1
aI1
aI1
aI1
aI0
aI2
asS'rasmr001'
p4362
(lp4363
g4362
aS'Rob Rasmussen'
p4364
aS' 15.1'
p4365
aI26
aI18
aI17
aI2
aI8
aI0
aI17
asg203
(lp4366
g203
ag205
aS' 73.1'
p4367
aI57
aI20
aI19
aI9
aI12
aI3
aI44
asS'gravk001'
p4368
(lp4369
g4368
aS'Kendall Graveman'
p4370
aS'115.2'
p4371
aI126
aI57
aI52
aI15
aI38
aI0
aI77
asS'garcj002'
p4372
(lp4373
g4372
aS'Santiago Casilla'
p4374
aS' 58.0'
p4375
aI51
aI19
aI18
aI6
aI23
aI2
aI62
asS'chamj002'
p4376
(lp4377
g4376
aS'Joba Chamberlain'
p4378
aS' 27.2'
p4379
aI38
aI20
aI15
aI6
aI9
aI0
aI23
asg1931
(lp4380
g1931
ag1933
aS' 29.2'
p4381
aI25
aI19
aI14
aI3
aI17
aI1
aI22
asg1934
(lp4382
g1934
ag1936
aS'129.2'
p4383
aI106
aI37
aI35
aI6
aI30
aI0
aI97
asg1946
(lp4384
g1946
ag1948
aS' 12.2'
p4385
aI16
aI8
aI7
aI0
aI4
aI1
aI9
asS'patts002'
p4386
(lp4387
g4386
aS'Spencer Patton'
p4388
aS' 24.0'
p4389
aI24
aI24
aI24
aI5
aI12
aI0
aI28
asS'eveld001'
p4390
(lp4391
g4390
aS'Dana Eveland'
p4392
aS'  3.1'
p4393
aI5
aI2
aI2
aI1
aI3
aI1
aI4
asg1964
(lp4394
g1964
ag1966
aS'232.0'
p4395
aI185
aI68
aI64
aI17
aI51
aI0
aI216
asS'garcf003'
p4396
(lp4397
g4396
aS'Frank Garces'
p4398
aS' 38.0'
p4399
aI41
aI23
aI22
aI9
aI22
aI1
aI30
asg1970
(lp4400
g1970
ag1972
aS' 30.2'
p4401
aI44
aI27
aI27
aI5
aI7
aI0
aI28
asg1976
(lp4402
g1976
ag1978
aS' 33.1'
p4403
aI31
aI21
aI21
aI3
aI25
aI3
aI39
asg1979
(lp4404
g1979
ag1981
aS'212.1'
p4405
aI190
aI88
aI86
aI22
aI62
aI3
aI215
asS'mansj001'
p4406
(lp4407
g4406
aS'Jeff Manship'
p4408
aS' 39.1'
p4409
aI20
aI4
aI4
aI1
aI10
aI0
aI33
asg1985
(lp4410
g1985
ag1987
aS' 22.0'
p4411
aI21
aI10
aI10
aI2
aI19
aI0
aI15
asS'holld003'
p4412
(lp4413
g4412
aS'Derek Holland'
p4414
aS' 58.2'
p4415
aI59
aI32
aI32
aI11
aI17
aI2
aI41
asg1997
(lp4416
g1997
ag1999
aS' 35.2'
p4417
aI34
aI9
aI9
aI4
aI10
aI0
aI34
asg2000
(lp4418
g2000
ag2002
aS' 26.1'
p4419
aI30
aI17
aI15
aI4
aI12
aI0
aI19
asS'alvad001'
p4420
(lp4421
g4420
aS'Dario Alvarez'
p4422
aS'  3.2'
p4423
aI5
aI5
aI5
aI2
aI1
aI0
aI2
asg2012
(lp4424
g2012
ag2014
aS'157.0'
p4425
aI164
aI78
aI73
aI18
aI48
aI2
aI136
asS'adcon001'
p4426
(lp4427
g4426
aS'Nathan Adcock'
p4428
aS' 18.0'
p4429
aI15
aI12
aI12
aI3
aI12
aI0
aI13
asg1763
(lp4430
g1763
ag1765
aS'194.2'
p4431
aI186
aI88
aI83
aI18
aI65
aI6
aI145
asg2075
(lp4432
g2075
ag2077
aS'  2.0'
p4433
aI2
aI0
aI0
aI0
aI0
aI0
aI0
asS'tracm001'
p4434
(lp4435
g4434
aS'Matt Tracy'
p4436
aS'  2.0'
p4437
aI2
aI3
aI0
aI0
aI2
aI0
aI1
asg836
(lp4438
g836
ag838
aS' 27.2'
p4439
aI28
aI9
aI9
aI4
aI14
aI1
aI25
asg2030
(lp4440
g2030
ag2032
aS' 60.0'
p4441
aI53
aI31
aI25
aI9
aI19
aI0
aI45
asS'zitob001'
p4442
(lp4443
g4442
aS'Barry Zito'
p4444
aS'  7.0'
p4445
aI12
aI8
aI8
aI4
aI6
aI0
aI2
asS'nesba001'
p4446
(lp4447
g4446
aS'Angel Nesbitt'
p4448
aS' 21.2'
p4449
aI22
aI14
aI13
aI2
aI8
aI2
aI14
asS'morra001'
p4450
(lp4451
g4450
aS'Akeel Morris'
p4452
aS'  0.2'
p4453
aI3
aI5
aI5
aI1
aI3
aI0
aI0
asS'diazj006'
p4454
(lp4455
g4454
aS'Jairo Diaz'
p4456
aS' 19.0'
p4457
aI16
aI6
aI5
aI2
aI6
aI0
aI18
asS'diazj005'
p4458
(lp4459
g4458
aS'Jumbo Diaz'
p4460
aS' 60.1'
p4461
aI58
aI29
aI28
aI9
aI18
aI3
aI70
asg2063
(lp4462
g2063
ag2065
aS' 68.2'
p4463
aI62
aI16
aI16
aI3
aI25
aI3
aI83
asg2066
(lp4464
g2066
ag2068
aS' 66.1'
p4465
aI43
aI13
aI12
aI3
aI33
aI1
aI116
asg2231
(lp4466
g2231
ag2233
aS' 28.2'
p4467
aI22
aI14
aI14
aI3
aI12
aI0
aI23
asS'marim001'
p4468
(lp4469
g4468
aS'Michael Mariot'
p4470
aS'  3.0'
p4471
aI2
aI1
aI1
aI1
aI2
aI0
aI1
asS'leatj001'
p4472
(lp4473
g4472
aS'Jack Leathersich'
p4474
aS' 11.2'
p4475
aI12
aI3
aI3
aI0
aI7
aI0
aI14
asg1085
(lp4476
g1085
ag1087
aS'168.1'
p4477
aI166
aI95
aI80
aI31
aI52
aI4
aI174
asS'guerj003'
p4478
(lp4479
g4478
aS'Junior Guerra'
p4480
aS'  4.0'
p4481
aI7
aI3
aI3
aI1
aI1
aI1
aI3
asS'guerj002'
p4482
(lp4483
g4482
aS'Javy Guerra'
p4484
aS'  1.2'
p4485
aI2
aI0
aI0
aI0
aI1
aI0
aI0
asS'atchs001'
p4486
(lp4487
g4486
aS'Scott Atchison'
p4488
aS' 19.2'
p4489
aI23
aI15
aI15
aI6
aI4
aI0
aI12
asg2084
(lp4490
g2084
ag2086
aS'164.0'
p4491
aI174
aI64
aI58
aI11
aI49
aI2
aI143
asS'mazzc001'
p4492
(lp4493
g4492
aS'Cory Mazzoni'
p4494
aS'  8.2'
p4495
aI23
aI22
aI20
aI2
aI5
aI0
aI8
asS'beimj001'
p4496
(lp4497
g4496
aS'Joe Beimel'
p4498
aS' 47.1'
p4499
aI49
aI25
aI21
aI8
aI16
aI3
aI22
asg2105
(lp4500
g2105
ag2107
aS' 95.1'
p4501
aI81
aI45
aI44
aI11
aI28
aI0
aI104
asS'vizca001'
p4502
(lp4503
g4502
aS'Arodys Vizcaino'
p4504
aS' 33.2'
p4505
aI27
aI7
aI6
aI1
aI13
aI2
aI37
asS'loupa001'
p4506
(lp4507
g4506
aS'Aaron Loup'
p4508
aS' 42.1'
p4509
aI47
aI24
aI21
aI6
aI7
aI0
aI46
asS'wilht001'
p4510
(lp4511
g4510
aS'Tom Wilhelmsen'
p4512
aS' 62.0'
p4513
aI56
aI24
aI22
aI3
aI29
aI3
aI60
asS'farqd001'
p4514
(lp4515
g4514
aS'Danny Farquhar'
p4516
aS' 51.0'
p4517
aI53
aI33
aI29
aI9
aI17
aI2
aI48
asS'stord001'
p4518
(lp4519
g4518
aS'Drew Storen'
p4520
aS' 55.0'
p4521
aI45
aI23
aI21
aI4
aI16
aI2
aI67
asg2132
(lp4522
g2132
ag2134
aS'172.0'
p4523
aI173
aI71
aI69
aI16
aI45
aI4
aI151
asS'guilp001'
p4524
(lp4525
g4524
aS'Preston Guilmet'
p4526
aS'  7.1'
p4527
aI9
aI9
aI9
aI2
aI4
aI0
aI6
asg2006
(lp4528
g2006
ag2008
aS'121.2'
p4529
aI120
aI55
aI52
aI13
aI37
aI1
aI98
asS'rumbn001'
p4530
(lp4531
g4530
aS'Nick Rumbelow'
p4532
aS' 15.2'
p4533
aI16
aI8
aI7
aI2
aI5
aI1
aI15
asg2150
(lp4534
g2150
ag2152
aS'170.2'
p4535
aI158
aI79
aI71
aI23
aI40
aI4
aI172
asg2153
(lp4536
g2153
ag2155
aS'  0.1'
p4537
aI0
aI0
aI0
aI0
aI0
aI0
aI0
asS'huntt002'
p4538
(lp4539
g4538
aS'Tommy Hunter'
p4540
aS' 60.1'
p4541
aI61
aI29
aI28
aI7
aI14
aI2
aI47
asS'hollg001'
p4542
(lp4543
g4542
aS'Greg Holland'
p4544
aS' 44.2'
p4545
aI39
aI20
aI19
aI2
aI26
aI1
aI49
asg2162
(lp4546
g2162
ag2164
aS'  7.2'
p4547
aI15
aI14
aI11
aI0
aI10
aI1
aI5
asg2165
(lp4548
g2165
ag2167
aS' 11.0'
p4549
aI11
aI7
aI7
aI4
aI3
aI0
aI8
asg2168
(lp4550
g2168
ag2170
aS'228.2'
p4551
aI176
aI74
aI71
aI27
aI34
aI2
aI276
asS'pimes001'
p4552
(lp4553
g4552
aS'Stolmy Pimentel'
p4554
aS' 11.1'
p4555
aI11
aI5
aI5
aI1
aI3
aI0
aI7
asS'axfoj001'
p4556
(lp4557
g4556
aS'John Axford'
p4558
aS' 55.2'
p4559
aI56
aI27
aI26
aI4
aI32
aI4
aI62
asS'claua001'
p4560
(lp4561
g4560
aS'Alex Claudio'
p4562
aS' 15.2'
p4563
aI12
aI6
aI5
aI4
aI6
aI2
aI13
asg2183
(lp4564
g2183
ag2185
aS' 58.1'
p4565
aI56
aI30
aI26
aI6
aI18
aI0
aI40
asS'bracb001'
p4566
(lp4567
g4566
aS'Brad Brach'
p4568
aS' 79.1'
p4569
aI57
aI25
aI24
aI7
aI38
aI3
aI89
asg866
(lp4570
g866
ag868
aS'196.0'
p4571
aI172
aI78
aI71
aI9
aI84
aI3
aI212
asg386
(lp4572
g386
ag388
aS' 19.1'
p4573
aI20
aI15
aI15
aI3
aI17
aI1
aI22
asg2201
(lp4574
g2201
ag2203
aS' 49.2'
p4575
aI58
aI32
aI32
aI8
aI19
aI0
aI58
asS'almom001'
p4576
(lp4577
g4576
aS'Miguel Almonte'
p4578
aS'  8.2'
p4579
aI7
aI6
aI6
aI4
aI7
aI0
aI10
asg2207
(lp4580
g2207
ag2209
aS'214.1'
p4581
aI195
aI97
aI93
aI25
aI61
aI1
aI126
asg2210
(lp4582
g2210
ag2212
aS' 11.2'
p4583
aI11
aI6
aI6
aI2
aI5
aI0
aI6
asS'aro-j001'
p4584
(lp4585
g4584
aS'Jonathan Aro'
p4586
aS' 10.1'
p4587
aI15
aI8
aI8
aI2
aI4
aI0
aI8
asg2213
(lp4588
g2213
ag2215
aS'152.2'
p4589
aI158
aI75
aI73
aI18
aI40
aI2
aI111
asg2219
(lp4590
g2219
ag2221
aS' 91.1'
p4591
aI77
aI32
aI31
aI9
aI24
aI1
aI44
asS'riefc001'
p4592
(lp4593
g4592
aS'C.J. Riefenhauser'
p4594
aS' 14.2'
p4595
aI15
aI10
aI9
aI3
aI7
aI0
aI7
asS'nathj001'
p4596
(lp4597
g4596
aS'Joe Nathan'
p4598
aS'  0.1'
p4599
aI0
aI0
aI0
aI0
aI0
aI0
aI1
asg2234
(lp4600
g2234
ag2236
aS'218.1'
p4601
aI181
aI73
aI71
aI21
aI39
aI2
aI234
asS'dukez001'
p4602
(lp4603
g4602
aS'Zach Duke'
p4604
aS' 60.2'
p4605
aI47
aI26
aI23
aI9
aI32
aI4
aI66
asg2243
(lp4606
g2243
ag2245
aS'  5.0'
p4607
aI4
aI2
aI2
aI1
aI1
aI0
aI5
asS'ogann001'
p4608
(lp4609
g4608
aS'Nefi Ogando'
p4610
aS'  4.0'
p4611
aI7
aI5
aI4
aI0
aI2
aI0
aI2
asS'burad001'
p4612
(lp4613
g4612
aS'Danny Burawa'
p4614
aS' 13.0'
p4615
aI11
aI9
aI9
aI2
aI5
aI0
aI11
asS'burge002'
p4616
(lp4617
g4616
aS'Enrique Burgos'
p4618
aS' 27.0'
p4619
aI27
aI15
aI14
aI2
aI15
aI0
aI39
asS'housa001'
p4620
(lp4621
g4620
aS'Adrian Houser'
p4622
aS'  2.0'
p4623
aI1
aI0
aI0
aI0
aI2
aI0
aI0
asS'campl001'
p4624
(lp4625
g4624
aS'Leonel Campos'
p4626
aS'  1.0'
p4627
aI1
aI1
aI1
aI0
aI1
aI0
aI1
asS'frasj002'
p4628
(lp4629
g4628
aS'Jason Frasor'
p4630
aS' 28.0'
p4631
aI27
aI5
aI4
aI1
aI18
aI3
aI22
asS'siegk001'
p4632
(lp4633
g4632
aS'Kevin Siegrist'
p4634
aS' 74.2'
p4635
aI53
aI20
aI18
aI4
aI34
aI2
aI90
asg2264
(lp4636
g2264
ag2266
aS'114.2'
p4637
aI127
aI53
aI51
aI11
aI26
aI2
aI110
asg2267
(lp4638
g2267
ag2269
aS' 15.2'
p4639
aI17
aI13
aI13
aI3
aI13
aI0
aI13
asg881
(lp4640
g881
ag883
aS'123.2'
p4641
aI134
aI62
aI61
aI13
aI37
aI1
aI64
asS'diekj001'
p4642
(lp4643
g4642
aS'Jake Diekman'
p4644
aS' 58.1'
p4645
aI53
aI28
aI26
aI5
aI31
aI0
aI69
asS'quack001'
p4646
(lp4647
g4646
aS'Kevin Quackenbush'
p4648
aS' 58.1'
p4649
aI52
aI28
aI26
aI6
aI20
aI3
aI58
asS'thoma003'
p4650
(lp4651
g4650
aS'Aaron Thompson'
p4652
aS' 32.1'
p4653
aI32
aI19
aI18
aI2
aI11
aI2
aI17
asg2291
(lp4654
g2291
ag2293
aS' 78.1'
p4655
aI95
aI56
aI53
aI14
aI20
aI2
aI61
asg2297
(lp4656
g2297
ag2299
aS' 35.1'
p4657
aI43
aI24
aI23
aI6
aI14
aI2
aI21
asg2552
(lp4658
g2552
ag2554
aS'109.0'
p4659
aI119
aI59
aI57
aI16
aI40
aI4
aI72
asg2306
(lp4660
g2306
ag2308
aS'177.2'
p4661
aI169
aI82
aI78
aI16
aI64
aI3
aI141
asg2318
(lp4662
g2318
ag2320
aS' 28.1'
p4663
aI36
aI24
aI24
aI10
aI16
aI0
aI15
asS'albea001'
p4664
(lp4665
g4664
aS'Andrew Albers'
p4666
aS'  2.2'
p4667
aI1
aI1
aI1
aI1
aI2
aI0
aI1
asS'drabk001'
p4668
(lp4669
g4668
aS'Kyle Drabek'
p4670
aS'  5.1'
p4671
aI9
aI3
aI3
aI1
aI2
aI0
aI3
asS'luetl001'
p4672
(lp4673
g4672
aS'Lucas Luetge'
p4674
aS'  2.1'
p4675
aI0
aI0
aI0
aI0
aI2
aI0
aI2
asg2342
(lp4676
g2342
ag2344
aS' 85.0'
p4677
aI91
aI34
aI34
aI9
aI17
aI0
aI78
asS'jansk001'
p4678
(lp4679
g4678
aS'Kenley Jansen'
p4680
aS' 52.1'
p4681
aI33
aI14
aI14
aI6
aI8
aI0
aI80
asS'hochl001'
p4682
(lp4683
g4682
aS'Luke Hochevar'
p4684
aS' 50.2'
p4685
aI49
aI23
aI21
aI7
aI16
aI0
aI49
asS'barrk002'
p4686
(lp4687
g4686
aS'Kyle Barraclough'
p4688
aS' 24.1'
p4689
aI12
aI8
aI7
aI1
aI18
aI2
aI30
asS'rondb001'
p4690
(lp4691
g4690
aS'Bruce Rondon'
p4692
aS' 31.0'
p4693
aI31
aI22
aI20
aI3
aI19
aI1
aI36
asS'stamc001'
p4694
(lp4695
g4694
aS'Craig Stammen'
p4696
aS'  4.0'
p4697
aI2
aI0
aI0
aI0
aI3
aI1
aI3
asS'carrs001'
p4698
(lp4699
g4698
aS'Scott Carroll'
p4700
aS' 36.2'
p4701
aI40
aI19
aI14
aI2
aI13
aI2
aI27
asg2348
(lp4702
g2348
ag2350
aS'111.0'
p4703
aI119
aI55
aI54
aI17
aI26
aI3
aI70
asg2354
(lp4704
g2354
ag2356
aS'  8.0'
p4705
aI8
aI7
aI7
aI0
aI4
aI1
aI6
asS'gomeb001'
p4706
(lp4707
g4706
aS'Brandon Gomes'
p4708
aS' 59.0'
p4709
aI55
aI28
aI28
aI10
aI15
aI2
aI44
asS'hoovj002'
p4710
(lp4711
g4710
aS'J.J. Hoover'
p4712
aS' 64.1'
p4713
aI44
aI24
aI21
aI7
aI31
aI1
aI52
asS'domij002'
p4714
(lp4715
g4714
aS'Jose Dominguez'
p4716
aS'  5.2'
p4717
aI2
aI0
aI0
aI0
aI2
aI0
aI5
asS'vincn001'
p4718
(lp4719
g4718
aS'Nick Vincent'
p4720
aS' 23.0'
p4721
aI25
aI8
aI6
aI0
aI10
aI1
aI22
asS'britz001'
p4722
(lp4723
g4722
aS'Zach Britton'
p4724
aS' 65.2'
p4725
aI51
aI16
aI14
aI3
aI14
aI1
aI79
asg2378
(lp4726
g2378
ag2380
aS'189.1'
p4727
aI156
aI62
aI57
aI18
aI37
aI2
aI188
asS'boyeb001'
p4728
(lp4729
g4728
aS'Blaine Boyer'
p4730
aS' 65.0'
p4731
aI62
aI24
aI18
aI5
aI19
aI4
aI33
asg2390
(lp4732
g2390
ag2392
aS' 34.1'
p4733
aI26
aI16
aI12
aI6
aI26
aI1
aI35
asg2402
(lp4734
g2402
ag2404
aS' 16.2'
p4735
aI26
aI12
aI12
aI5
aI3
aI0
aI17
asg2405
(lp4736
g2405
ag2407
aS' 39.0'
p4737
aI35
aI19
aI16
aI4
aI13
aI2
aI45
asS'dysos001'
p4738
(lp4739
g4738
aS'Sam Dyson'
p4740
aS' 75.1'
p4741
aI65
aI26
aI22
aI4
aI21
aI1
aI71
asg1208
(lp4742
g1208
ag1210
aS' 20.2'
p4743
aI15
aI12
aI12
aI3
aI11
aI2
aI27
asS'staut001'
p4744
(lp4745
g4744
aS'Tim Stauffer'
p4746
aS' 20.2'
p4747
aI32
aI18
aI16
aI6
aI9
aI2
aI14
asg2426
(lp4748
g2426
ag2428
aS'218.0'
p4749
aI211
aI71
aI67
aI21
aI53
aI5
aI175
asg1391
(lp4750
g1391
ag1393
aS' 55.2'
p4751
aI40
aI17
aI15
aI3
aI18
aI1
aI47
asS'ottaa001'
p4752
(lp4753
g4752
aS'Adam Ottavino'
p4754
aS' 10.1'
p4755
aI3
aI0
aI0
aI0
aI2
aI0
aI13
asS'matub001'
p4756
(lp4757
g4756
aS'Brian Matusz'
p4758
aS' 49.0'
p4759
aI38
aI18
aI16
aI5
aI20
aI3
aI56
asg2453
(lp4760
g2453
ag2455
aS'164.2'
p4761
aI198
aI86
aI78
aI11
aI45
aI1
aI86
asS'mendr002'
p4762
(lp4763
g4762
aS'Roman Mendez'
p4764
aS' 13.2'
p4765
aI14
aI8
aI8
aI2
aI8
aI1
aI10
asS'strop001'
p4766
(lp4767
g4766
aS'Pedro Strop'
p4768
aS' 68.0'
p4769
aI39
aI24
aI22
aI5
aI29
aI6
aI81
asg2468
(lp4770
g2468
ag2470
aS'181.0'
p4771
aI134
aI67
aI63
aI24
aI55
aI2
aI131
asg2471
(lp4772
g2471
ag2473
aS'121.0'
p4773
aI129
aI53
aI51
aI18
aI24
aI2
aI63
asS'dankj001'
p4774
(lp4775
g4774
aS'John Danks'
p4776
aS'177.2'
p4777
aI195
aI104
aI93
aI24
aI56
aI1
aI124
asS'baila001'
p4778
(lp4779
g4778
aS'Andrew Bailey'
p4780
aS'  8.2'
p4781
aI9
aI8
aI5
aI2
aI5
aI1
aI6
asS'cecib001'
p4782
(lp4783
g4782
aS'Brett Cecil'
p4784
aS' 54.1'
p4785
aI39
aI17
aI15
aI4
aI13
aI3
aI70
asS'lowem002'
p4786
(lp4787
g4786
aS'Mark Lowe'
p4788
aS' 55.0'
p4789
aI46
aI15
aI12
aI4
aI12
aI1
aI61
asS'volsc001'
p4790
(lp4791
g4790
aS'Chris Volstad'
p4792
aS'  2.0'
p4793
aI2
aI0
aI0
aI0
aI0
aI0
aI0
asS'alvar001'
p4794
(lp4795
g4794
aS'R.J. Alvarez'
p4796
aS' 20.0'
p4797
aI27
aI23
aI22
aI7
aI13
aI1
aI23
asS'hynec001'
p4798
(lp4799
g4798
aS'Colt Hynes'
p4800
aS'  3.0'
p4801
aI8
aI2
aI2
aI0
aI2
aI1
aI4
asS'winkd001'
p4802
(lp4803
g4802
aS'Daniel Winkler'
p4804
aS'  1.2'
p4805
aI2
aI2
aI2
aI2
aI1
aI0
aI2
asS'sorij001'
p4806
(lp4807
g4806
aS'Joakim Soria'
p4808
aS' 67.2'
p4809
aI55
aI20
aI19
aI8
aI19
aI1
aI64
asg2525
(lp4810
g2525
ag2527
aS'142.1'
p4811
aI172
aI102
aI100
aI33
aI45
aI2
aI80
asS'reynm002'
p4812
(lp4813
g4812
aS'Matt Reynolds'
p4814
aS' 13.2'
p4815
aI14
aI7
aI7
aI6
aI7
aI2
aI18
asS'grahj002'
p4816
(lp4817
g4816
aS'J.R. Graham'
p4818
aS' 63.2'
p4819
aI73
aI41
aI35
aI10
aI21
aI0
aI53
asS'meyea001'
p4820
(lp4821
g4820
aS'Alex Meyer'
p4822
aS'  2.2'
p4823
aI4
aI5
aI5
aI2
aI3
aI0
aI3
asg2537
(lp4824
g2537
ag2539
aS'163.1'
p4825
aI154
aI75
aI74
aI14
aI58
aI1
aI156
asS'johne003'
p4826
(lp4827
g4826
aS'Erik Johnson'
p4828
aS' 35.0'
p4829
aI32
aI14
aI13
aI8
aI17
aI0
aI30
asg2540
(lp4830
g2540
ag2542
aS' 58.1'
p4831
aI59
aI25
aI25
aI1
aI32
aI6
aI65
asS'lafrb001'
p4832
(lp4833
g4832
aS'Bobby LaFromboise'
p4834
aS'  8.0'
p4835
aI5
aI1
aI1
aI1
aI1
aI0
aI8
asg2546
(lp4836
g2546
ag2548
aS' 42.2'
p4837
aI47
aI30
aI27
aI5
aI22
aI1
aI35
asg2549
(lp4838
g2549
ag2551
aS' 31.1'
p4839
aI28
aI12
aI11
aI3
aI10
aI2
aI29
asS'frees001'
p4840
(lp4841
g4840
aS'Sam Freeman'
p4842
aS' 38.1'
p4843
aI31
aI13
aI13
aI4
aI25
aI0
aI40
asg2555
(lp4844
g2555
ag2557
aS'  1.0'
p4845
aI2
aI0
aI0
aI0
aI0
aI0
aI0
asg2564
(lp4846
g2564
ag2566
aS' 74.2'
p4847
aI109
aI60
aI58
aI12
aI29
aI1
aI44
asg1376
(lp4848
g1376
ag1378
aS' 61.1'
p4849
aI61
aI23
aI21
aI2
aI22
aI2
aI55
asg2570
(lp4850
g2570
ag2572
aS' 23.1'
p4851
aI26
aI11
aI11
aI4
aI12
aI2
aI27
asg2579
(lp4852
g2579
ag2581
aS'125.2'
p4853
aI142
aI82
aI81
aI17
aI32
aI3
aI69
asS'benoj001'
p4854
(lp4855
g4854
aS'Joaquin Benoit'
p4856
aS' 65.1'
p4857
aI36
aI17
aI17
aI7
aI23
aI1
aI63
asS'moylp001'
p4858
(lp4859
g4858
aS'Peter Moylan'
p4860
aS' 10.1'
p4861
aI12
aI5
aI4
aI1
aI0
aI0
aI8
asg2588
(lp4862
g2588
ag2590
aS' 74.0'
p4863
aI72
aI33
aI33
aI8
aI20
aI2
aI23
asg2591
(lp4864
g2591
ag2593
aS' 38.2'
p4865
aI41
aI19
aI19
aI4
aI26
aI3
aI33
asS'jackl001'
p4866
(lp4867
g4866
aS'Luke Jackson'
p4868
aS'  6.1'
p4869
aI5
aI3
aI3
aI1
aI2
aI0
aI6
asg1544
(lp4870
g1544
ag1546
aS' 36.2'
p4871
aI29
aI13
aI13
aI4
aI17
aI1
aI34
asS'maurb001'
p4872
(lp4873
g4872
aS'Brandon Maurer'
p4874
aS' 51.0'
p4875
aI39
aI19
aI17
aI3
aI15
aI1
aI39
asg2600
(lp4876
g2600
ag2602
aS' 28.1'
p4877
aI25
aI15
aI15
aI3
aI6
aI0
aI19
asg2603
(lp4878
g2603
ag2605
aS' 24.2'
p4879
aI32
aI13
aI11
aI4
aI8
aI2
aI24
asg2609
(lp4880
g2609
ag2611
aS'183.2'
p4881
aI154
aI75
aI74
aI18
aI43
aI2
aI216
asg2612
(lp4882
g2612
ag2614
aS'184.2'
p4883
aI200
aI111
aI89
aI19
aI66
aI2
aI165
asg2621
(lp4884
g2621
ag2623
aS'  8.1'
p4885
aI14
aI11
aI9
aI0
aI7
aI2
aI7
asg2624
(lp4886
g2624
ag2626
aS'  7.0'
p4887
aI15
aI9
aI8
aI3
aI3
aI1
aI7
asg2633
(lp4888
g2633
ag2635
aS' 40.2'
p4889
aI52
aI38
aI36
aI6
aI22
aI1
aI38
asS'jansc001'
p4890
(lp4891
g4890
aS'Casey Janssen'
p4892
aS' 40.0'
p4893
aI38
aI22
aI22
aI5
aI8
aI3
aI27
asS'reedc001'
p4894
(lp4895
g4894
aS'Chris Reed'
p4896
aS'  4.0'
p4897
aI6
aI2
aI2
aI0
aI1
aI0
aI1
asg2636
(lp4898
g2636
ag2638
aS'127.2'
p4899
aI121
aI56
aI50
aI9
aI49
aI3
aI119
asS'leona001'
p4900
(lp4901
g4900
aS'Arnold Leon'
p4902
aS' 26.2'
p4903
aI30
aI14
aI13
aI3
aI9
aI3
aI19
asS'watst001'
p4904
(lp4905
g4904
aS'Tony Watson'
p4906
aS' 75.1'
p4907
aI55
aI17
aI16
aI3
aI17
aI1
aI62
asg2648
(lp4908
g2648
ag2650
aS'187.1'
p4909
aI180
aI96
aI85
aI22
aI77
aI3
aI137
asg2654
(lp4910
g2654
ag2656
aS' 67.2'
p4911
aI62
aI32
aI29
aI4
aI32
aI6
aI65
asS'fielj002'
p4912
(lp4913
g4912
aS'Josh Fields'
p4914
aS' 50.2'
p4915
aI39
aI20
aI20
aI2
aI19
aI3
aI67
asS'johns001'
p4916
(lp4917
g4916
aS'Steve Johnson'
p4918
aS'  5.1'
p4919
aI8
aI6
aI6
aI2
aI5
aI0
aI3
asg2666
(lp4920
g2666
ag2668
aS'185.0'
p4921
aI156
aI79
aI71
aI23
aI53
aI1
aI195
asg2672
(lp4922
g2672
ag2674
aS'205.1'
p4923
aI183
aI82
aI69
aI13
aI73
aI8
aI171
asS'smitc004'
p4924
(lp4925
g4924
aS'Carson Smith'
p4926
aS' 70.0'
p4927
aI49
aI19
aI18
aI2
aI22
aI4
aI92
asg2678
(lp4928
g2678
ag2680
aS' 34.1'
p4929
aI31
aI22
aI14
aI7
aI12
aI1
aI34
asg2684
(lp4930
g2684
ag2686
aS'222.2'
p4931
aI148
aI43
aI41
aI14
aI40
aI1
aI200
asS'hatlm001'
p4932
(lp4933
g4932
aS'Marcus Hatley'
p4934
aS'  1.1'
p4935
aI1
aI0
aI0
aI0
aI2
aI0
aI2
asg1952
(lp4936
g1952
ag1954
aS'125.2'
p4937
aI106
aI49
aI45
aI10
aI43
aI2
aI129
asS'goodn001'
p4938
(lp4939
g4938
aS'Nick Goody'
p4940
aS'  5.2'
p4941
aI6
aI3
aI3
aI0
aI3
aI0
aI3
asS'zycht001'
p4942
(lp4943
g4942
aS'Tony Zych'
p4944
aS' 18.1'
p4945
aI17
aI6
aI5
aI1
aI3
aI0
aI24
asg2720
(lp4946
g2720
ag2722
aS' 27.1'
p4947
aI40
aI18
aI18
aI2
aI10
aI2
aI22
asg2729
(lp4948
g2729
ag2731
aS' 29.0'
p4949
aI28
aI14
aI14
aI6
aI8
aI1
aI24
asS'tolls002'
p4950
(lp4951
g4950
aS'Shawn Tolleson'
p4952
aS' 72.1'
p4953
aI66
aI25
aI24
aI9
aI17
aI5
aI76
asg2741
(lp4954
g2741
ag2743
aS'  3.1'
p4955
aI8
aI4
aI4
aI0
aI1
aI0
aI1
asg2261
(lp4956
g2261
ag2263
aS'180.0'
p4957
aI166
aI82
aI79
aI17
aI43
aI1
aI167
asg2747
(lp4958
g2747
ag2749
aS'201.2'
p4959
aI180
aI80
aI79
aI23
aI58
aI0
aI191
asg2750
(lp4960
g2750
ag2752
aS' 80.0'
p4961
aI92
aI52
aI49
aI9
aI32
aI2
aI68
asg2279
(lp4962
g2279
ag2281
aS' 33.1'
p4963
aI37
aI15
aI14
aI2
aI13
aI0
aI23
asg2768
(lp4964
g2768
ag2770
aS'208.0'
p4965
aI183
aI71
aI60
aI11
aI44
aI1
aI202
asg2771
(lp4966
g2771
ag2773
aS'184.2'
p4967
aI194
aI93
aI83
aI17
aI55
aI5
aI151
asg2780
(lp4968
g2780
ag2782
aS' 22.1'
p4969
aI28
aI18
aI16
aI1
aI7
aI1
aI9
asg2444
(lp4970
g2444
ag2446
aS'116.2'
p4971
aI130
aI66
aI62
aI13
aI51
aI2
aI73
asS'drako001'
p4972
(lp4973
g4972
aS'Oliver Drake'
p4974
aS' 15.2'
p4975
aI16
aI7
aI5
aI1
aI9
aI0
aI17
asS'milla002'
p4976
(lp4977
g4976
aS'Andrew Miller'
p4978
aS' 61.2'
p4979
aI33
aI16
aI14
aI5
aI20
aI1
aI100
asS'reyej003'
p4980
(lp4981
g4980
aS'Jo-Jo Reyes'
p4982
aS'  0.1'
p4983
aI0
aI0
aI0
aI0
aI0
aI0
aI0
asg2804
(lp4984
g2804
ag2806
aS' 12.1'
p4985
aI16
aI11
aI11
aI4
aI4
aI1
aI12
asS'bracs001'
p4986
(lp4987
g4986
aS'Silvino Bracho'
p4988
aS' 12.1'
p4989
aI9
aI2
aI2
aI2
aI4
aI1
aI17
asS'webbr001'
p4990
(lp4991
g4990
aS'Ryan Webb'
p4992
aS' 50.2'
p4993
aI46
aI21
aI18
aI4
aI12
aI2
aI31
asS'sippt001'
p4994
(lp4995
g4994
aS'Tony Sipp'
p4996
aS' 54.1'
p4997
aI41
aI13
aI12
aI5
aI15
aI1
aI62
asg2813
(lp4998
g2813
ag2815
aS'194.2'
p4999
aI217
aI94
aI90
aI25
aI24
aI5
aI136
asS'hutcd001'
p5000
(lp5001
g5000
aS'Drew Hutchison'
p5002
aS'150.1'
p5003
aI179
aI103
aI93
aI22
aI44
aI0
aI129
asg2816
(lp5004
g2816
ag2818
aS' 76.0'
p5005
aI69
aI26
aI24
aI7
aI16
aI5
aI79
asg2819
(lp5006
g2819
ag2821
aS'113.1'
p5007
aI131
aI70
aI68
aI18
aI57
aI6
aI83
asS'friee001'
p5008
(lp5009
g5008
aS'Ernesto Frieri'
p5010
aS' 23.1'
p5011
aI20
aI12
aI12
aI6
aI11
aI0
aI19
asS'wolfr001'
p5012
(lp5013
g5012
aS'Randy Wolf'
p5014
aS' 34.2'
p5015
aI46
aI28
aI24
aI5
aI15
aI1
aI28
asg2822
(lp5016
g2822
ag2824
aS' 26.2'
p5017
aI24
aI11
aI10
aI4
aI10
aI0
aI21
asa.