(lp0
(dp1
S'mcdod002'
p2
(lp3
g2
aS'Darnell McDonald'
p4
aI57
aI53
aI4
aI16
aI4
aI0
aI1
aI5
aI0
aI0
aI4
aI8
aI23
asS'corbp001'
p5
(lp6
g5
aS'Patrick Corbin'
p7
aI73
aI65
aI8
aI8
aI4
aI0
aI0
aI3
aI0
aI0
aI2
aI23
aI12
asS'tejar001'
p8
(lp9
g8
aS'Ruben Tejada'
p10
aI227
aI208
aI20
aI42
aI12
aI0
aI0
aI10
aI2
aI1
aI15
aI24
aI54
asS'torrc001'
p11
(lp12
g11
aS'Carlos Torres'
p13
aI18
aI16
aI0
aI1
aI0
aI0
aI0
aI1
aI0
aI0
aI1
aI8
aI1
asS'belta001'
p14
(lp15
g14
aS'Adrian Beltre'
p16
aI690
aI631
aI88
aI199
aI32
aI0
aI30
aI92
aI1
aI0
aI50
aI78
aI321
asS'venaw001'
p17
(lp18
g17
aS'Will Venable'
p19
aI515
aI481
aI64
aI129
aI22
aI8
aI22
aI53
aI22
aI6
aI29
aI118
aI233
asS'davim005'
p20
(lp21
g20
aS'Matt Davidson'
p22
aI87
aI76
aI8
aI18
aI6
aI0
aI3
aI12
aI0
aI1
aI10
aI24
aI33
asS'scutm001'
p23
(lp24
g23
aS'Marco Scutaro'
p25
aI547
aI488
aI57
aI145
aI23
aI3
aI2
aI31
aI2
aI0
aI45
aI34
aI180
asS'gonzc001'
p26
(lp27
g26
aS'Carlos Gonzalez'
p28
aI436
aI391
aI72
aI118
aI23
aI6
aI26
aI70
aI21
aI3
aI41
aI118
aI231
asS'worlv001'
p29
(lp30
g29
aS'Vance Worley'
p31
aI1
aI1
aI0
aI0
aI0
aI0
aI0
aI0
aI0
aI0
aI0
aI0
aI0
asS'ramiw001'
p32
(lp33
g32
aS'Wilkin Ramirez'
p34
aI87
aI81
aI5
aI22
aI6
aI1
aI0
aI6
aI0
aI0
aI3
aI23
aI30
asS'culbc001'
p35
(lp36
g35
aS'Charlie Culberson'
p37
aI104
aI99
aI12
aI29
aI5
aI0
aI2
aI12
aI5
aI1
aI4
aI23
aI40
asS'aybae001'
p38
(lp39
g38
aS'Erick Aybar'
p40
aI589
aI550
aI67
aI149
aI33
aI5
aI6
aI54
aI12
aI7
aI23
aI59
aI210
asS'arrob001'
p41
(lp42
g41
aS'Bronson Arroyo'
p43
aI75
aI59
aI0
aI4
aI0
aI0
aI0
aI0
aI0
aI0
aI0
aI26
aI4
asS'garca003'
p44
(lp45
g44
aS'Avisail Garcia'
p46
aI256
aI244
aI30
aI69
aI7
aI3
aI7
aI31
aI3
aI3
aI9
aI59
aI103
asS'kellj001'
p47
(lp48
g47
aS'Joe Kelly'
p49
aI40
aI33
aI4
aI5
aI1
aI0
aI0
aI2
aI0
aI0
aI0
aI8
aI6
asS'darnt001'
p50
(lp51
g50
aS"Travis d'Arnaud"
p52
aI112
aI99
aI4
aI20
aI3
aI0
aI1
aI5
aI0
aI0
aI12
aI21
aI26
asS'herrc001'
p53
(lp54
g53
aS'Chris Herrmann'
p55
aI178
aI157
aI16
aI32
aI7
aI0
aI4
aI18
aI0
aI1
aI18
aI49
aI51
asS'kottg001'
p56
(lp57
g56
aS'George Kottaras'
p58
aI126
aI100
aI13
aI18
aI4
aI0
aI5
aI12
aI1
aI0
aI24
aI42
aI37
asS'cainm001'
p59
(lp60
g59
aS'Matt Cain'
p61
aI64
aI52
aI0
aI5
aI0
aI0
aI0
aI2
aI0
aI0
aI2
aI22
aI5
asS'willj003'
p62
(lp63
g62
aS'Jerome Williams'
p64
aI2
aI2
aI0
aI0
aI0
aI0
aI0
aI0
aI0
aI0
aI0
aI1
aI0
asS'niesj001'
p65
(lp66
g65
aS'Jon Niese'
p67
aI45
aI39
aI6
aI8
aI2
aI0
aI0
aI4
aI0
aI0
aI4
aI17
aI10
asS'willj004'
p68
(lp69
g68
aS'Josh Willingham'
p70
aI471
aI389
aI42
aI81
aI20
aI0
aI14
aI48
aI1
aI0
aI66
aI128
aI143
asS'quenc001'
p71
(lp72
g71
aS'Carlos Quentin'
p73
aI320
aI276
aI42
aI76
aI21
aI0
aI13
aI44
aI0
aI0
aI31
aI55
aI136
asS'nieuk001'
p74
(lp75
g74
aS'Kirk Nieuwenhuis'
p76
aI108
aI95
aI10
aI18
aI3
aI1
aI3
aI14
aI2
aI0
aI12
aI32
aI32
asS'stule002'
p77
(lp78
g77
aS'Eric Stults'
p79
aI69
aI61
aI2
aI10
aI1
aI0
aI1
aI4
aI0
aI0
aI0
aI21
aI14
asS'maldm001'
p80
(lp81
g80
aS'Martin Maldonado'
p82
aI202
aI183
aI13
aI31
aI7
aI1
aI4
aI22
aI0
aI0
aI13
aI53
aI52
asS'heywj001'
p83
(lp84
g83
aS'Jason Heyward'
p85
aI440
aI382
aI67
aI97
aI22
aI1
aI14
aI38
aI2
aI4
aI48
aI73
aI163
asS'sellj002'
p86
(lp87
g86
aS'Justin Sellers'
p88
aI77
aI69
aI6
aI13
aI1
aI0
aI1
aI2
aI0
aI0
aI5
aI20
aI17
asS'sanca004'
p89
(lp90
g89
aS'Anibal Sanchez'
p91
aI7
aI4
aI0
aI0
aI0
aI0
aI0
aI0
aI0
aI0
aI1
aI4
aI0
asS'sanca005'
p92
(lp93
g92
aS'Angel Sanchez'
p94
aI2
aI2
aI0
aI0
aI0
aI0
aI0
aI0
aI0
aI0
aI0
aI0
aI0
asS'gally001'
p95
(lp96
g95
aS'Yovani Gallardo'
p97
aI64
aI57
aI4
aI12
aI2
aI0
aI2
aI4
aI0
aI0
aI0
aI29
aI20
asS'guerm001'
p98
(lp99
g98
aS'Matt Guerrier'
p100
aI1
aI1
aI0
aI0
aI0
aI0
aI0
aI0
aI0
aI0
aI0
aI1
aI0
asS'crawc002'
p101
(lp102
g101
aS'Carl Crawford'
p103
aI469
aI435
aI62
aI123
aI30
aI3
aI6
aI31
aI15
aI4
aI28
aI66
aI177
asS'phegj001'
p104
(lp105
g104
aS'Josh Phegley'
p106
aI213
aI204
aI14
aI42
aI7
aI0
aI4
aI22
aI2
aI0
aI5
aI41
aI61
asS'vicid001'
p107
(lp108
g107
aS'Dayan Viciedo'
p109
aI473
aI441
aI43
aI117
aI23
aI3
aI14
aI56
aI0
aI0
aI24
aI98
aI188
asS'sierm001'
p110
(lp111
g110
aS'Moises Sierra'
p112
aI122
aI107
aI10
aI31
aI13
aI1
aI1
aI13
aI1
aI0
aI14
aI29
aI49
asS'rodra001'
p113
(lp114
g113
aS'Alex Rodriguez'
p115
aI181
aI156
aI21
aI38
aI7
aI0
aI7
aI19
aI4
aI2
aI23
aI43
aI66
asS'davir003'
p116
(lp117
g116
aS'Rajai Davis'
p118
aI360
aI331
aI48
aI86
aI16
aI2
aI6
aI24
aI45
aI6
aI21
aI67
aI124
asS'gausk001'
p119
(lp120
g119
aS'Kevin Gausman'
p121
aI1
aI1
aI0
aI0
aI0
aI0
aI0
aI0
aI0
aI0
aI0
aI1
aI0
asS'wilsj003'
p122
(lp123
g122
aS'Josh Wilson'
p124
aI65
aI60
aI9
aI12
aI1
aI1
aI1
aI4
aI0
aI0
aI5
aI17
aI18
asS'fulds001'
p125
(lp126
g125
aS'Sam Fuld'
p127
aI200
aI176
aI25
aI35
aI0
aI3
aI2
aI17
aI8
aI2
aI17
aI28
aI47
asS'wilsj004'
p128
(lp129
g128
aS'Justin Wilson'
p130
aI6
aI5
aI0
aI0
aI0
aI0
aI0
aI0
aI0
aI0
aI0
aI5
aI0
asS'bourj001'
p131
(lp132
g131
aS'Jason Bourgeois'
p133
aI18
aI16
aI2
aI3
aI0
aI0
aI1
aI2
aI0
aI0
aI2
aI4
aI6
asS'belir001'
p134
(lp135
g134
aS'Ronald Belisario'
p136
aI1
aI1
aI0
aI0
aI0
aI0
aI0
aI0
aI0
aI0
aI0
aI0
aI0
asS'cespy001'
p137
(lp138
g137
aS'Yoenis Cespedes'
p139
aI574
aI529
aI74
aI127
aI21
aI4
aI26
aI80
aI7
aI7
aI37
aI137
aI234
asS'josec001'
p140
(lp141
g140
aS'Corban Joseph'
p142
aI7
aI6
aI1
aI1
aI1
aI0
aI0
aI0
aI0
aI0
aI1
aI1
aI2
asS'espid001'
p143
(lp144
g143
aS'Danny Espinosa'
p145
aI167
aI158
aI11
aI25
aI9
aI0
aI3
aI12
aI1
aI0
aI4
aI47
aI43
asS'snidt001'
p146
(lp147
g146
aS'Travis Snider'
p148
aI285
aI261
aI28
aI56
aI12
aI2
aI5
aI25
aI2
aI3
aI24
aI75
aI87
asS'norrb001'
p149
(lp150
g149
aS'Bud Norris'
p151
aI7
aI7
aI0
aI3
aI0
aI0
aI0
aI0
aI0
aI0
aI0
aI0
aI3
asS'joycm001'
p152
(lp153
g152
aS'Matthew Joyce'
p154
aI481
aI413
aI61
aI97
aI22
aI0
aI18
aI47
aI7
aI3
aI59
aI87
aI173
asS'lopew001'
p155
(lp156
g155
aS'Wilton Lopez'
p157
aI1
aI1
aI0
aI0
aI0
aI0
aI0
aI0
aI0
aI0
aI0
aI1
aI0
asS'jimeu001'
p158
(lp159
g158
aS'Ubaldo Jimenez'
p160
aI5
aI3
aI0
aI0
aI0
aI0
aI0
aI0
aI0
aI0
aI1
aI3
aI0
asS'adamm002'
p161
(lp162
g161
aS'Matt Adams'
p163
aI319
aI296
aI46
aI84
aI14
aI0
aI17
aI51
aI0
aI1
aI23
aI80
aI149
asS'rodrw002'
p164
(lp165
g164
aS'Wandy Rodriguez'
p166
aI24
aI22
aI0
aI2
aI0
aI0
aI0
aI1
aI0
aI0
aI0
aI8
aI2
asS'suzui001'
p167
(lp168
g167
aS'Ichiro Suzuki'
p169
aI555
aI520
aI57
aI136
aI15
aI3
aI7
aI35
aI20
aI4
aI26
aI63
aI178
asS'ingeb001'
p170
(lp171
g170
aS'Brandon Inge'
p172
aI110
aI105
aI5
aI19
aI3
aI0
aI1
aI7
aI0
aI0
aI2
aI32
aI25
asS'jordt001'
p173
(lp174
g173
aS'Taylor Jordan'
p175
aI18
aI14
aI0
aI2
aI0
aI0
aI0
aI0
aI0
aI0
aI0
aI3
aI2
asS'quirg001'
p176
(lp177
g176
aS'Guillermo Quiroz'
p178
aI95
aI86
aI5
aI16
aI7
aI0
aI1
aI6
aI0
aI0
aI5
aI21
aI26
asS'eovan001'
p179
(lp180
g179
aS'Nathan Eovaldi'
p181
aI35
aI31
aI1
aI2
aI0
aI0
aI0
aI1
aI0
aI0
aI1
aI17
aI2
asS'eatoa002'
p182
(lp183
g182
aS'Adam Eaton'
p184
aI277
aI250
aI40
aI63
aI10
aI4
aI3
aI22
aI5
aI2
aI17
aI44
aI90
asS'ramij003'
p185
(lp186
g185
aS'Jose Ramirez'
p187
aI14
aI12
aI5
aI4
aI0
aI1
aI0
aI0
aI0
aI1
aI2
aI2
aI6
asS'morrl001'
p188
(lp189
g188
aS'Logan Morrison'
p190
aI333
aI293
aI32
aI71
aI13
aI4
aI6
aI36
aI0
aI0
aI38
aI56
aI110
asS'markn001'
p191
(lp192
g191
aS'Nick Markakis'
p193
aI700
aI634
aI89
aI172
aI24
aI0
aI10
aI59
aI1
aI2
aI55
aI76
aI226
asS'franj004'
p194
(lp195
g194
aS'Jeff Francoeur'
p196
aI256
aI245
aI20
aI50
aI10
aI2
aI3
aI17
aI3
aI0
aI9
aI61
aI73
asS'hairs001'
p197
(lp198
g197
aS'Scott Hairston'
p199
aI174
aI157
aI18
aI30
aI5
aI0
aI10
aI26
aI2
aI0
aI9
aI44
aI65
asS'barnd001'
p200
(lp201
g200
aS'Darwin Barney'
p202
aI555
aI501
aI49
aI104
aI25
aI1
aI7
aI41
aI4
aI2
aI36
aI64
aI152
asS'strad003'
p203
(lp204
g203
aS'Dan Straily'
p205
aI3
aI2
aI0
aI0
aI0
aI0
aI0
aI0
aI0
aI0
aI1
aI2
aI0
asS'webet001'
p206
(lp207
g206
aS'Thad Weber'
p208
aI3
aI3
aI0
aI0
aI0
aI0
aI0
aI0
aI0
aI0
aI0
aI0
aI0
asS'lohsk001'
p209
(lp210
g209
aS'Kyle Lohse'
p211
aI68
aI55
aI2
aI8
aI0
aI0
aI0
aI3
aI0
aI0
aI1
aI29
aI8
asS'marte002'
p212
(lp213
g212
aS'Ethan Martin'
p214
aI10
aI9
aI0
aI0
aI0
aI0
aI0
aI0
aI0
aI0
aI0
aI6
aI0
asS'gillc002'
p215
(lp216
g215
aS'Cole Gillespie'
p217
aI69
aI59
aI6
aI12
aI2
aI0
aI0
aI4
aI0
aI0
aI7
aI13
aI14
asS'mcguc001'
p218
(lp219
g218
aS'Chris McGuiness'
p220
aI34
aI34
aI0
aI6
aI1
aI0
aI0
aI1
aI0
aI0
aI0
aI13
aI7
asS'parra001'
p221
(lp222
g221
aS'Andy Parrino'
p223
aI36
aI34
aI2
aI4
aI2
aI0
aI0
aI1
aI0
aI0
aI2
aI12
aI6
asS'riosa002'
p224
(lp225
g224
aS'Alex Rios'
p226
aI662
aI616
aI83
aI171
aI33
aI4
aI18
aI81
aI42
aI7
aI41
aI108
aI266
asS'tejam001'
p227
(lp228
g227
aS'Miguel Tejada'
p229
aI167
aI156
aI15
aI45
aI5
aI0
aI3
aI20
aI1
aI0
aI6
aI25
aI59
asS'jimel002'
p230
(lp231
g230
aS'Luis Jimenez'
p232
aI110
aI104
aI15
aI27
aI6
aI0
aI0
aI5
aI0
aI2
aI2
aI28
aI33
asS'delgr001'
p233
(lp234
g233
aS'Randall Delgado'
p235
aI37
aI32
aI2
aI7
aI0
aI0
aI0
aI1
aI0
aI0
aI1
aI13
aI7
asS'lutzd001'
p236
(lp237
g236
aS'Donald Lutz'
p238
aI59
aI58
aI5
aI14
aI1
aI0
aI1
aI8
aI2
aI0
aI1
aI14
aI18
asS'harvm001'
p239
(lp240
g239
aS'Matt Harvey'
p241
aI64
aI58
aI2
aI5
aI2
aI0
aI0
aI2
aI0
aI0
aI1
aI27
aI7
asS'dendm001'
p242
(lp243
g242
aS'Matt den Dekker'
p244
aI63
aI58
aI7
aI12
aI1
aI0
aI1
aI6
aI4
aI1
aI4
aI23
aI16
asS'aokin001'
p245
(lp246
g245
aS'Norichika Aoki'
p247
aI674
aI597
aI80
aI171
aI20
aI3
aI8
aI37
aI20
aI12
aI55
aI40
aI221
asS'puntn001'
p248
(lp249
g248
aS'Nick Punto'
p250
aI335
aI294
aI34
aI75
aI15
aI0
aI2
aI21
aI3
aI3
aI33
aI67
aI96
asS'betay001'
p251
(lp252
g251
aS'Yuniesky Betancourt'
p253
aI409
aI391
aI35
aI83
aI15
aI1
aI13
aI46
aI0
aI0
aI14
aI71
aI139
asS'wooda002'
p254
(lp255
g254
aS'Alex Wood'
p256
aI22
aI21
aI1
aI0
aI0
aI0
aI0
aI0
aI0
aI0
aI0
aI15
aI0
asS'hundn001'
p257
(lp258
g257
aS'Nick Hundley'
p259
aI408
aI373
aI35
aI87
aI19
aI0
aI13
aI44
aI1
aI0
aI26
aI98
aI145
asS'crawb001'
p260
(lp261
g260
aS'Brandon Crawford'
p262
aI550
aI499
aI52
aI124
aI24
aI3
aI9
aI43
aI1
aI2
aI42
aI96
aI181
asS'monej001'
p263
(lp264
g263
aS'Johnny Monell'
p265
aI9
aI8
aI2
aI1
aI0
aI0
aI0
aI1
aI0
aI0
aI0
aI3
aI1
asS'frazt001'
p266
(lp267
g266
aS'Todd Frazier'
p268
aI600
aI531
aI63
aI124
aI29
aI3
aI19
aI73
aI6
aI5
aI50
aI125
aI216
asS'mortc002'
p269
(lp270
g269
aS'Charlie Morton'
p271
aI38
aI36
aI1
aI5
aI0
aI0
aI0
aI1
aI0
aI0
aI0
aI11
aI5
asS'navad001'
p272
(lp273
g272
aS'Dioner Navarro'
p274
aI266
aI240
aI31
aI72
aI7
aI0
aI13
aI34
aI0
aI1
aI23
aI36
aI118
asS'sants001'
p275
(lp276
g275
aS'Sergio Santos'
p277
aI1
aI1
aI0
aI0
aI0
aI0
aI0
aI0
aI0
aI0
aI0
aI0
aI0
asS'carrj001'
p278
(lp279
g278
aS'Jamey Carroll'
p280
aI249
aI227
aI26
aI48
aI9
aI0
aI0
aI11
aI2
aI1
aI17
aI39
aI57
asS'avilm001'
p281
(lp282
g281
aS'Mike Aviles'
p283
aI394
aI361
aI54
aI91
aI15
aI0
aI9
aI46
aI8
aI5
aI15
aI41
aI133
asS'watst001'
p284
(lp285
g284
aS'Tony Watson'
p286
aI3
aI1
aI0
aI0
aI0
aI0
aI0
aI0
aI0
aI0
aI0
aI1
aI0
asS'teagt001'
p287
(lp288
g287
aS'Taylor Teagarden'
p289
aI62
aI60
aI3
aI10
aI2
aI0
aI2
aI5
aI0
aI1
aI1
aI18
aI18
asS'susds001'
p290
(lp291
g290
aS'Steve Susdorf'
p292
aI7
aI7
aI1
aI1
aI1
aI0
aI0
aI0
aI0
aI0
aI0
aI1
aI2
asS'gonzm003'
p293
(lp294
g293
aS'Miguel Gonzalez'
p295
aI4
aI3
aI0
aI0
aI0
aI0
aI0
aI0
aI0
aI0
aI0
aI1
aI0
asS'gonzm002'
p296
(lp297
g296
aS'Marwin Gonzalez'
p298
aI222
aI204
aI22
aI45
aI8
aI0
aI4
aI14
aI6
aI2
aI9
aI37
aI65
asS'guzmj005'
p299
(lp300
g299
aS'Jesus Guzman'
p301
aI318
aI288
aI33
aI65
aI17
aI0
aI9
aI35
aI3
aI0
aI27
aI79
aI109
asS'linct001'
p302
(lp303
g302
aS'Tim Lincecum'
p304
aI67
aI57
aI3
aI6
aI0
aI1
aI0
aI1
aI0
aI0
aI3
aI34
aI8
asS'murpd006'
p305
(lp306
g305
aS'Daniel Murphy'
p307
aI697
aI658
aI92
aI188
aI38
aI4
aI13
aI78
aI23
aI3
aI32
aI95
aI273
asS'choim001'
p308
(lp309
g308
aS'Michael Choice'
p310
aI19
aI18
aI2
aI5
aI1
aI0
aI0
aI0
aI0
aI0
aI1
aI6
aI6
asS'garcl005'
p311
(lp312
g311
aS'Luis Garcia'
p313
aI2
aI2
aI0
aI0
aI0
aI0
aI0
aI0
aI0
aI0
aI0
aI1
aI0
asS'lee-c003'
p314
(lp315
g314
aS'Cliff Lee'
p316
aI72
aI60
aI5
aI11
aI1
aI1
aI0
aI6
aI0
aI2
aI2
aI25
aI14
asS'parej002'
p317
(lp318
g317
aS'Jimmy Paredes'
p319
aI135
aI125
aI8
aI24
aI4
aI0
aI1
aI10
aI4
aI4
aI6
aI44
aI31
asS'butlj002'
p320
(lp321
g320
aS'Joey Butler'
p322
aI15
aI12
aI3
aI4
aI2
aI0
aI0
aI1
aI0
aI0
aI3
aI6
aI6
asS'carsm001'
p323
(lp324
g323
aS'Matt Carson'
p325
aI13
aI11
aI5
aI7
aI0
aI0
aI1
aI3
aI3
aI0
aI1
aI1
aI10
asS'hamib001'
p326
(lp327
g326
aS'Billy Hamilton'
p328
aI22
aI19
aI9
aI7
aI2
aI0
aI0
aI1
aI13
aI1
aI2
aI4
aI9
asS'gutif001'
p329
(lp330
g329
aS'Franklin Gutierrez'
p331
aI151
aI145
aI18
aI36
aI7
aI0
aI10
aI24
aI3
aI1
aI5
aI43
aI73
asS'karnn001'
p332
(lp333
g332
aS'Nathan Karns'
p334
aI5
aI3
aI0
aI0
aI0
aI0
aI0
aI0
aI0
aI0
aI0
aI1
aI0
asS'quino001'
p335
(lp336
g335
aS'Omar Quintanilla'
p337
aI359
aI315
aI28
aI70
aI9
aI2
aI2
aI21
aI2
aI0
aI38
aI70
aI89
asS'mchuc001'
p338
(lp339
g338
aS'Collin McHugh'
p340
aI6
aI6
aI0
aI1
aI0
aI0
aI0
aI0
aI0
aI0
aI0
aI2
aI1
asS'nelsj004'
p341
(lp342
g341
aS'Jimmy Nelson'
p343
aI2
aI2
aI0
aI0
aI0
aI0
aI0
aI0
aI0
aI0
aI0
aI2
aI0
asS'carpm001'
p344
(lp345
g344
aS'Mike Carp'
p346
aI243
aI216
aI34
aI64
aI18
aI2
aI9
aI43
aI1
aI0
aI22
aI67
aI113
asS'iglej001'
p347
(lp348
g347
aS'Jose Iglesias'
p349
aI382
aI350
aI39
aI106
aI16
aI2
aI3
aI29
aI5
aI2
aI15
aI60
aI135
asS'carpm002'
p350
(lp351
g350
aS'Matt Carpenter'
p352
aI717
aI626
aI126
aI199
aI55
aI7
aI11
aI78
aI3
aI3
aI72
aI98
aI301
asS'handb001'
p353
(lp354
g353
aS'Brad Hand'
p355
aI4
aI4
aI0
aI0
aI0
aI0
aI0
aI0
aI0
aI0
aI0
aI2
aI0
asS'keucd001'
p356
(lp357
g356
aS'Dallas Keuchel'
p358
aI2
aI2
aI0
aI0
aI0
aI0
aI0
aI0
aI0
aI0
aI0
aI2
aI0
asS'chisl001'
p359
(lp360
g359
aS'Lonnie Chisenhall'
p361
aI308
aI289
aI30
aI65
aI17
aI0
aI11
aI36
aI1
aI0
aI16
aI56
aI115
asS'casta003'
p362
(lp363
g362
aS'Alex Castellanos'
p364
aI18
aI18
aI2
aI3
aI1
aI0
aI1
aI1
aI0
aI0
aI0
aI5
aI7
asS'robeb003'
p365
(lp366
g365
aS'Brian Roberts'
p367
aI296
aI265
aI33
aI66
aI12
aI1
aI8
aI39
aI3
aI1
aI26
aI44
aI104
asS'howar001'
p368
(lp369
g368
aS'Ryan Howard'
p370
aI317
aI286
aI34
aI76
aI20
aI2
aI11
aI43
aI0
aI0
aI23
aI95
aI133
asS'corpm001'
p371
(lp372
g371
aS'Manuel Corpas'
p373
aI4
aI3
aI0
aI0
aI0
aI0
aI0
aI0
aI0
aI0
aI0
aI3
aI0
asS'lincb001'
p374
(lp375
g374
aS'Brad Lincoln'
p376
aI1
aI1
aI0
aI0
aI0
aI0
aI0
aI0
aI0
aI0
aI0
aI0
aI0
asS'flynb001'
p377
(lp378
g377
aS'Brian Flynn'
p379
aI6
aI5
aI0
aI2
aI0
aI0
aI0
aI0
aI0
aI0
aI0
aI2
aI2
asS'diams001'
p380
(lp381
g380
aS'Scott Diamond'
p382
aI7
aI7
aI0
aI1
aI0
aI0
aI0
aI0
aI0
aI0
aI0
aI3
aI1
asS'smits002'
p383
(lp384
g383
aS'Seth Smith'
p385
aI410
aI368
aI49
aI93
aI27
aI0
aI8
aI40
aI0
aI0
aI39
aI94
aI144
asS'hilla001'
p386
(lp387
g386
aS'Aaron Hill'
p388
aI362
aI327
aI45
aI95
aI21
aI1
aI11
aI41
aI1
aI4
aI29
aI48
aI151
asS'pomed001'
p389
(lp390
g389
aS'Drew Pomeranz'
p391
aI4
aI3
aI0
aI0
aI0
aI0
aI0
aI0
aI0
aI0
aI0
aI1
aI0
asS'betew001'
p392
(lp393
g392
aS'Wilson Betemit'
p394
aI10
aI10
aI0
aI0
aI0
aI0
aI0
aI0
aI0
aI0
aI0
aI3
aI0
asS'fierm001'
p395
(lp396
g395
aS'Michael Fiers'
p397
aI5
aI4
aI0
aI0
aI0
aI0
aI0
aI0
aI0
aI0
aI0
aI4
aI0
asS'alvaj003'
p398
(lp399
g398
aS'Jose Alvarez'
p400
aI2
aI1
aI0
aI0
aI0
aI0
aI0
aI0
aI0
aI0
aI1
aI0
aI0
asS'mauej001'
p401
(lp402
g401
aS'Joe Mauer'
p403
aI508
aI445
aI62
aI144
aI35
aI0
aI11
aI47
aI0
aI1
aI61
aI89
aI212
asS'sogae001'
p404
(lp405
g404
aS'Eric Sogard'
p406
aI410
aI368
aI45
aI98
aI24
aI3
aI2
aI35
aI10
aI5
aI27
aI51
aI134
asS'simoa001'
p407
(lp408
g407
aS'Alfredo Simon'
p409
aI7
aI7
aI0
aI1
aI0
aI0
aI0
aI0
aI0
aI0
aI0
aI4
aI1
asS'nolar001'
p410
(lp411
g410
aS'Ricky Nolasco'
p412
aI64
aI50
aI3
aI6
aI2
aI0
aI0
aI1
aI0
aI0
aI6
aI24
aI8
asS'pachj001'
p413
(lp414
g413
aS'Jordan Pacheco'
p415
aI262
aI247
aI23
aI59
aI15
aI0
aI1
aI22
aI0
aI0
aI10
aI38
aI77
asS'maxwj002'
p416
(lp417
g416
aS'Justin Maxwell'
p418
aI262
aI234
aI35
aI59
aI16
aI3
aI7
aI25
aI6
aI2
aI23
aI78
aI102
asS'hoesl001'
p419
(lp420
g419
aS'L.J. Hoes'
p421
aI184
aI170
aI24
aI48
aI7
aI2
aI1
aI10
aI7
aI1
aI12
aI35
aI62
asS'mckem001'
p422
(lp423
g422
aS'Michael McKenry'
p424
aI122
aI115
aI9
aI25
aI6
aI0
aI3
aI14
aI0
aI0
aI5
aI24
aI40
asS'fowld001'
p425
(lp426
g425
aS'Dexter Fowler'
p427
aI492
aI415
aI71
aI109
aI18
aI3
aI12
aI42
aI19
aI9
aI65
aI105
aI169
asS'cahit001'
p428
(lp429
g428
aS'Trevor Cahill'
p430
aI53
aI49
aI2
aI4
aI1
aI1
aI0
aI5
aI0
aI0
aI0
aI20
aI7
asS'bernd001'
p431
(lp432
g431
aS'Doug Bernier'
p433
aI64
aI53
aI9
aI12
aI3
aI0
aI0
aI5
aI2
aI1
aI8
aI15
aI15
asS'solad001'
p434
(lp435
g434
aS'Donovan Solano'
p436
aI395
aI361
aI33
aI90
aI13
aI1
aI3
aI34
aI3
aI1
aI23
aI57
aI114
asS'bauet001'
p437
(lp438
g437
aS'Trevor Bauer'
p439
aI1
aI1
aI0
aI0
aI0
aI0
aI0
aI0
aI0
aI0
aI0
aI1
aI0
asS'pastt001'
p440
(lp441
g440
aS'Tyler Pastornicky'
p442
aI33
aI30
aI5
aI9
aI1
aI0
aI0
aI0
aI0
aI0
aI1
aI5
aI10
asS'arenj001'
p443
(lp444
g443
aS'J.P. Arencibia'
p445
aI497
aI474
aI45
aI92
aI18
aI0
aI21
aI55
aI0
aI2
aI18
aI148
aI173
asS'wootr001'
p446
(lp447
g446
aS'Rob Wooten'
p448
aI1
aI1
aI0
aI0
aI0
aI0
aI0
aI0
aI0
aI0
aI0
aI1
aI0
asS'pelfm001'
p449
(lp450
g449
aS'Mike Pelfrey'
p451
aI1
aI1
aI0
aI0
aI0
aI0
aI0
aI0
aI0
aI0
aI0
aI1
aI0
asS'younm003'
p452
(lp453
g452
aS'Michael Young'
p454
aI565
aI519
aI52
aI145
aI26
aI5
aI8
aI46
aI1
aI0
aI43
aI83
aI205
asS'hestj001'
p455
(lp456
g455
aS'John Hester'
p457
aI1
aI0
aI1
aI0
aI0
aI0
aI0
aI0
aI0
aI0
aI1
aI0
aI0
asS'pradm001'
p458
(lp459
g458
aS'Martin Prado'
p460
aI664
aI609
aI70
aI172
aI36
aI2
aI14
aI82
aI3
aI5
aI47
aI53
aI254
asS'browa003'
p461
(lp462
g461
aS'Andrew Brown'
p463
aI165
aI150
aI16
aI34
aI5
aI0
aI7
aI24
aI1
aI0
aI13
aI44
aI60
asS'leakm001'
p464
(lp465
g464
aS'Mike Leake'
p466
aI69
aI63
aI8
aI12
aI2
aI1
aI0
aI2
aI0
aI0
aI2
aI19
aI16
asS'rossc001'
p467
(lp468
g467
aS'Cody Ross'
p469
aI351
aI317
aI33
aI88
aI17
aI1
aI8
aI38
aI3
aI2
aI25
aI50
aI131
asS'lombs002'
p470
(lp471
g470
aS'Steve Lombardozzi'
p472
aI307
aI290
aI25
aI75
aI15
aI1
aI2
aI22
aI4
aI3
aI8
aI34
aI98
asS'sanct001'
p473
(lp474
g473
aS'Tony Sanchez'
p475
aI66
aI60
aI9
aI14
aI4
aI0
aI2
aI5
aI0
aI0
aI3
aI14
aI24
asS'johnr008'
p476
(lp477
g476
aS'Reed Johnson'
p478
aI136
aI123
aI13
aI30
aI7
aI1
aI1
aI11
aI0
aI0
aI6
aI32
aI42
asS'westj001'
p479
(lp480
g479
aS'Jake Westbrook'
p481
aI42
aI34
aI5
aI6
aI2
aI0
aI0
aI4
aI1
aI0
aI4
aI12
aI8
asS'kinsi001'
p482
(lp483
g482
aS'Ian Kinsler'
p484
aI614
aI545
aI85
aI151
aI31
aI2
aI13
aI72
aI15
aI11
aI51
aI59
aI225
asS'prinj001'
p485
(lp486
g485
aS'Josh Prince'
p487
aI9
aI8
aI3
aI1
aI1
aI0
aI0
aI0
aI0
aI0
aI1
aI1
aI2
asS'donaj001'
p488
(lp489
g488
aS'Josh Donaldson'
p490
aI668
aI579
aI89
aI174
aI37
aI3
aI24
aI93
aI5
aI2
aI76
aI110
aI289
asS'withc001'
p491
(lp492
g491
aS'Chris Withrow'
p493
aI2
aI1
aI0
aI0
aI0
aI0
aI0
aI0
aI0
aI0
aI0
aI1
aI0
asS'reidr001'
p494
(lp495
g494
aS'Ryan Reid'
p496
aI1
aI1
aI0
aI0
aI0
aI0
aI0
aI0
aI0
aI0
aI0
aI0
aI0
asS'pillk001'
p497
(lp498
g497
aS'Kevin Pillar'
p499
aI110
aI102
aI11
aI21
aI4
aI0
aI3
aI13
aI0
aI1
aI4
aI29
aI34
asS'weekj001'
p500
(lp501
g500
aS'Jemile Weeks'
p502
aI9
aI9
aI3
aI1
aI0
aI0
aI0
aI0
aI0
aI0
aI0
aI5
aI1
asS'hughj001'
p503
(lp504
g503
aS'Jared Hughes'
p505
aI2
aI2
aI0
aI0
aI0
aI0
aI0
aI0
aI0
aI0
aI0
aI2
aI0
asS'machj002'
p506
(lp507
g506
aS'Jean Machi'
p508
aI1
aI1
aI0
aI0
aI0
aI0
aI0
aI0
aI0
aI0
aI0
aI1
aI0
asS'hardj003'
p509
(lp510
g509
aS'J.J. Hardy'
p511
aI644
aI601
aI66
aI158
aI27
aI0
aI25
aI76
aI2
aI1
aI38
aI73
aI260
asS'forsl001'
p512
(lp513
g512
aS'Logan Forsythe'
p514
aI243
aI220
aI22
aI47
aI6
aI1
aI6
aI19
aI6
aI1
aI19
aI54
aI73
asS'cruzt002'
p515
(lp516
g515
aS'Tony Cruz'
p517
aI129
aI123
aI13
aI25
aI6
aI1
aI1
aI13
aI0
aI0
aI4
aI25
aI36
asS'valac001'
p518
(lp519
g518
aS'Chris Valaika'
p520
aI70
aI64
aI4
aI14
aI5
aI0
aI1
aI9
aI0
aI0
aI3
aI16
aI22
asS'martj006'
p521
(lp522
g521
aS'J.D. Martinez'
p523
aI310
aI296
aI24
aI74
aI17
aI0
aI7
aI36
aI2
aI0
aI10
aI82
aI112
asS'waina001'
p524
(lp525
g524
aS'Adam Wainwright'
p526
aI81
aI71
aI4
aI15
aI4
aI0
aI0
aI6
aI0
aI0
aI0
aI23
aI19
asS'harpb003'
p527
(lp528
g527
aS'Bryce Harper'
p529
aI497
aI424
aI71
aI116
aI24
aI3
aI20
aI58
aI11
aI4
aI61
aI94
aI206
asS'beckg001'
p530
(lp531
g530
aS'Gordon Beckham'
p532
aI408
aI371
aI46
aI99
aI22
aI1
aI5
aI24
aI5
aI1
aI28
aI56
aI138
asS'kendk001'
p533
(lp534
g533
aS'Kyle Kendrick'
p535
aI66
aI56
aI1
aI7
aI1
aI1
aI0
aI2
aI0
aI0
aI1
aI20
aI10
asS'mortc003'
p536
(lp537
g536
aS'Clayton Mortensen'
p538
aI1
aI1
aI0
aI0
aI0
aI0
aI0
aI0
aI0
aI0
aI0
aI1
aI0
asS'wised001'
p539
(lp540
g539
aS'Dewayne Wise'
p541
aI66
aI64
aI6
aI15
aI3
aI0
aI1
aI3
aI1
aI1
aI2
aI14
aI21
asS'trumm001'
p542
(lp543
g542
aS'Mark Trumbo'
p544
aI678
aI620
aI85
aI145
aI30
aI2
aI34
aI100
aI5
aI2
aI54
aI184
aI281
asS'torry001'
p545
(lp546
g545
aS'Yorvit Torrealba'
p547
aI196
aI179
aI10
aI43
aI8
aI0
aI0
aI16
aI0
aI0
aI13
aI24
aI51
asS'suzuk001'
p548
(lp549
g548
aS'Kurt Suzuki'
p550
aI316
aI285
aI25
aI66
aI13
aI1
aI5
aI32
aI2
aI0
aI22
aI35
aI96
asS'scotl001'
p551
(lp552
g551
aS'Luke Scott'
p553
aI291
aI253
aI27
aI61
aI13
aI2
aI9
aI40
aI1
aI1
aI30
aI63
aI105
asS'redmt002'
p554
(lp555
g554
aS'Todd Redmond'
p556
aI4
aI3
aI1
aI0
aI0
aI0
aI0
aI0
aI0
aI0
aI1
aI1
aI0
asS'mossb001'
p557
(lp558
g557
aS'Brandon Moss'
p559
aI505
aI446
aI73
aI114
aI23
aI3
aI30
aI87
aI4
aI2
aI50
aI140
aI233
asS'dietd001'
p560
(lp561
g560
aS'Derek Dietrich'
p562
aI233
aI215
aI32
aI46
aI10
aI2
aI9
aI23
aI1
aI0
aI11
aI56
aI87
asS'ackld001'
p563
(lp564
g563
aS'Dustin Ackley'
p565
aI427
aI384
aI40
aI97
aI18
aI2
aI4
aI31
aI2
aI3
aI37
aI72
aI131
asS'delae002'
p566
(lp567
g566
aS'Eury de la Rosa'
p568
aI1
aI1
aI0
aI0
aI0
aI0
aI0
aI0
aI0
aI0
aI0
aI0
aI0
asS'bussn001'
p569
(lp570
g569
aS'Nick Buss'
p571
aI20
aI19
aI0
aI2
aI0
aI0
aI0
aI0
aI0
aI0
aI1
aI1
aI2
asS'mastj001'
p572
(lp573
g572
aS'Justin Masterson'
p574
aI2
aI2
aI0
aI1
aI0
aI0
aI0
aI0
aI0
aI0
aI0
aI0
aI1
asS'genns001'
p575
(lp576
g575
aS'Scooter Gennett'
p577
aI230
aI213
aI29
aI69
aI11
aI2
aI6
aI21
aI2
aI1
aI10
aI42
aI102
asS'lairb001'
p578
(lp579
g578
aS'Brandon Laird'
p580
aI76
aI71
aI7
aI12
aI3
aI0
aI5
aI11
aI0
aI0
aI3
aI26
aI30
asS'pears001'
p581
(lp582
g581
aS'Steve Pearce'
p583
aI138
aI119
aI14
aI31
aI7
aI0
aI4
aI13
aI1
aI0
aI15
aI25
aI50
asS'stubd001'
p584
(lp585
g584
aS'Drew Stubbs'
p586
aI481
aI430
aI59
aI100
aI21
aI2
aI10
aI45
aI17
aI2
aI44
aI141
aI155
asS'gossp001'
p587
(lp588
g587
aS'Philip Gosselin'
p589
aI7
aI6
aI2
aI2
aI0
aI0
aI0
aI0
aI0
aI0
aI1
aI2
aI2
asS'wrigw001'
p590
(lp591
g590
aS'Wesley Wright'
p592
aI1
aI1
aI0
aI0
aI0
aI0
aI0
aI0
aI0
aI0
aI0
aI1
aI0
asS'ramie004'
p593
(lp594
g593
aS'Erasmo Ramirez'
p595
aI1
aI1
aI0
aI0
aI0
aI0
aI0
aI0
aI0
aI0
aI0
aI0
aI0
asS'morrb002'
p596
(lp597
g596
aS'Bryan Morris'
p598
aI5
aI5
aI1
aI1
aI0
aI0
aI0
aI0
aI0
aI0
aI0
aI2
aI1
asS'sancj002'
p599
(lp600
g599
aS'Jonathan Sanchez'
p601
aI6
aI5
aI1
aI0
aI0
aI0
aI0
aI0
aI0
aI0
aI1
aI4
aI0
asS'andeb005'
p602
(lp603
g602
aS'Bryan Anderson'
p604
aI19
aI18
aI1
aI1
aI1
aI0
aI0
aI2
aI0
aI0
aI1
aI5
aI2
asS'fuenr001'
p605
(lp606
g605
aS'Reymond Fuentes'
p607
aI36
aI33
aI4
aI5
aI0
aI0
aI0
aI1
aI3
aI0
aI3
aI16
aI5
asS'rober002'
p608
(lp609
g608
aS'Ryan Roberts'
p610
aI173
aI162
aI15
aI40
aI6
aI0
aI5
aI17
aI0
aI2
aI11
aI39
aI61
asS'billc001'
p611
(lp612
g611
aS'Chad Billingsley'
p613
aI5
aI3
aI0
aI0
aI0
aI0
aI0
aI0
aI0
aI0
aI0
aI3
aI0
asS'wortd001'
p614
(lp615
g614
aS'Danny Worth'
p616
aI2
aI2
aI0
aI0
aI0
aI0
aI0
aI0
aI0
aI0
aI0
aI1
aI0
asS'santh001'
p617
(lp618
g617
aS'Hector Santiago'
p619
aI6
aI4
aI0
aI0
aI0
aI0
aI0
aI0
aI0
aI0
aI0
aI1
aI0
asS'ishit001'
p620
(lp621
g620
aS'Travis Ishikawa'
p622
aI20
aI19
aI0
aI2
aI0
aI0
aI0
aI1
aI0
aI0
aI1
aI10
aI2
asS'lerus001'
p623
(lp624
g623
aS'Steven Lerud'
p625
aI5
aI5
aI0
aI0
aI0
aI0
aI0
aI0
aI0
aI0
aI0
aI4
aI0
asS'semim001'
p626
(lp627
g626
aS'Marcus Semien'
p628
aI71
aI69
aI7
aI18
aI4
aI0
aI2
aI7
aI2
aI2
aI1
aI22
aI28
asS'elmoj001'
p629
(lp630
g629
aS'Jake Elmore'
p631
aI136
aI120
aI16
aI29
aI4
aI0
aI2
aI6
aI1
aI6
aI13
aI20
aI39
asS'green001'
p632
(lp633
g632
aS'Nick Green'
p634
aI65
aI55
aI4
aI13
aI2
aI0
aI1
aI6
aI0
aI0
aI3
aI14
aI18
asS'mainj001'
p635
(lp636
g635
aS'John Maine'
p637
aI1
aI0
aI0
aI0
aI0
aI0
aI0
aI0
aI0
aI0
aI0
aI0
aI0
asS'branm003'
p638
(lp639
g638
aS'Michael Brantley'
p640
aI611
aI556
aI66
aI158
aI26
aI3
aI10
aI73
aI17
aI4
aI40
aI67
aI220
asS'mccab002'
p641
(lp642
g641
aS'Brian McCann'
p643
aI402
aI356
aI43
aI91
aI13
aI0
aI20
aI57
aI0
aI1
aI39
aI66
aI164
asS'kelld001'
p644
(lp645
g644
aS'Don Kelly'
p646
aI251
aI216
aI33
aI48
aI6
aI1
aI6
aI23
aI2
aI0
aI27
aI28
aI74
asS'mccab001'
p647
(lp648
g647
aS'Brandon McCarthy'
p649
aI42
aI37
aI0
aI1
aI0
aI0
aI0
aI0
aI0
aI0
aI3
aI15
aI1
asS'davik003'
p650
(lp651
g650
aS'Khris Davis'
p652
aI153
aI136
aI27
aI38
aI10
aI0
aI11
aI27
aI3
aI0
aI11
aI34
aI81
asS'rizza001'
p653
(lp654
g653
aS'Anthony Rizzo'
p655
aI690
aI606
aI71
aI141
aI40
aI2
aI23
aI80
aI6
aI5
aI76
aI127
aI254
asS'milew001'
p656
(lp657
g656
aS'Wade Miley'
p658
aI69
aI60
aI2
aI8
aI3
aI0
aI1
aI8
aI0
aI0
aI1
aI16
aI14
asS'jacke001'
p659
(lp660
g659
aS'Edwin Jackson'
p661
aI59
aI52
aI4
aI4
aI1
aI0
aI1
aI4
aI0
aI0
aI2
aI17
aI8
asS'terdj001'
p662
(lp663
g662
aS'Joey Terdoslavich'
p664
aI92
aI79
aI11
aI17
aI4
aI0
aI0
aI4
aI1
aI0
aI12
aI24
aI21
asS'martc006'
p665
(lp666
g665
aS'Carlos Martinez'
p667
aI2
aI2
aI0
aI0
aI0
aI0
aI0
aI0
aI0
aI0
aI0
aI1
aI0
asS'erlir001'
p668
(lp669
g668
aS'Robbie Erlin'
p670
aI19
aI16
aI0
aI1
aI0
aI0
aI0
aI1
aI0
aI0
aI1
aI5
aI1
asS'goinr001'
p671
(lp672
g671
aS'Ryan Goins'
p673
aI121
aI119
aI11
aI30
aI5
aI0
aI2
aI8
aI0
aI0
aI2
aI28
aI41
asS'mcdoj004'
p674
(lp675
g674
aS'James McDonald'
p676
aI12
aI11
aI2
aI3
aI0
aI0
aI0
aI0
aI0
aI0
aI1
aI5
aI3
asS'chirr001'
p677
(lp678
g677
aS'Robinson Chirinos'
p679
aI30
aI28
aI3
aI5
aI3
aI0
aI0
aI0
aI0
aI0
aI2
aI6
aI8
asS'cabra002'
p680
(lp681
g680
aS'Asdrubal Cabrera'
p682
aI562
aI508
aI66
aI123
aI35
aI2
aI14
aI64
aI9
aI3
aI35
aI114
aI204
asS'mcdoj003'
p683
(lp684
g683
aS'John McDonald'
p685
aI77
aI69
aI8
aI8
aI1
aI0
aI1
aI4
aI0
aI0
aI6
aI16
aI12
asS'langr002'
p686
(lp687
g686
aS'Ryan Langerhans'
p688
aI13
aI11
aI3
aI3
aI0
aI0
aI0
aI0
aI1
aI0
aI2
aI2
aI3
asS'moreb001'
p689
(lp690
g689
aS'Brent Morel'
p691
aI30
aI25
aI3
aI5
aI0
aI0
aI0
aI1
aI1
aI1
aI5
aI7
aI5
asS'mousm001'
p692
(lp693
g692
aS'Mike Moustakas'
p694
aI514
aI472
aI42
aI110
aI26
aI0
aI12
aI42
aI2
aI4
aI32
aI83
aI172
asS'simma001'
p695
(lp696
g695
aS'Andrelton Simmons'
p697
aI658
aI606
aI76
aI150
aI27
aI6
aI17
aI59
aI6
aI5
aI40
aI55
aI240
asS'goset001'
p698
(lp699
g698
aS'Tuffy Gosewisch'
p700
aI47
aI45
aI1
aI8
aI2
aI0
aI0
aI3
aI0
aI0
aI0
aI8
aI10
asS'schin001'
p701
(lp702
g701
aS'Nate Schierholtz'
p703
aI503
aI462
aI56
aI116
aI32
aI3
aI21
aI68
aI6
aI3
aI29
aI94
aI217
asS'nealt001'
p704
(lp705
g704
aS'Thomas Neal'
p706
aI17
aI15
aI1
aI2
aI0
aI0
aI0
aI0
aI0
aI0
aI1
aI4
aI2
asS'buckj001'
p707
(lp708
g707
aS'John Buck'
p709
aI431
aI392
aI39
aI87
aI11
aI0
aI15
aI62
aI2
aI1
aI29
aI104
aI143
asS'peguc001'
p710
(lp711
g710
aS'Carlos Peguero'
p712
aI7
aI6
aI1
aI2
aI0
aI0
aI1
aI1
aI1
aI0
aI1
aI2
aI5
asS'harrj002'
p713
(lp714
g713
aS'Josh Harrison'
p715
aI95
aI88
aI10
aI22
aI1
aI2
aI3
aI14
aI2
aI0
aI2
aI10
aI36
asS'gatte001'
p716
(lp717
g716
aS'Evan Gattis'
p718
aI382
aI354
aI44
aI86
aI21
aI0
aI21
aI65
aI0
aI0
aI21
aI81
aI170
asS'kickm001'
p719
(lp720
g719
aS'Mike Kickham'
p721
aI6
aI6
aI0
aI1
aI1
aI0
aI0
aI0
aI0
aI0
aI0
aI1
aI2
asS'hinse001'
p722
(lp723
g722
aS'Eric Hinske'
p724
aI58
aI52
aI2
aI9
aI3
aI0
aI1
aI6
aI0
aI0
aI6
aI17
aI15
asS'rosaa001'
p725
(lp726
g725
aS'Adam Rosales'
p727
aI166
aI147
aI15
aI28
aI5
aI0
aI5
aI12
aI0
aI0
aI10
aI34
aI48
asS'bay-j001'
p728
(lp729
g728
aS'Jason Bay'
p730
aI236
aI206
aI30
aI42
aI6
aI0
aI11
aI20
aI3
aI1
aI26
aI62
aI81
asS'olivm001'
p731
(lp732
g731
aS'Miguel Olivo'
p733
aI80
aI74
aI5
aI15
aI2
aI0
aI4
aI9
aI0
aI0
aI5
aI23
aI29
asS'sizes001'
p734
(lp735
g734
aS'Scott Sizemore'
p736
aI6
aI6
aI0
aI1
aI1
aI0
aI0
aI0
aI0
aI0
aI0
aI2
aI2
asS'rodrs002'
p737
(lp738
g737
aS'Sean Rodriguez'
p739
aI222
aI195
aI21
aI48
aI10
aI1
aI5
aI23
aI1
aI3
aI17
aI59
aI75
asS'krate001'
p740
(lp741
g740
aS'Erik Kratz'
p742
aI218
aI197
aI21
aI42
aI7
aI0
aI9
aI26
aI0
aI0
aI18
aI45
aI76
asS'slowk001'
p743
(lp744
g743
aS'Kevin Slowey'
p745
aI28
aI21
aI1
aI1
aI0
aI0
aI0
aI0
aI0
aI0
aI2
aI12
aI1
asS'sucrj001'
p746
(lp747
g746
aS'Jesus Sucre'
p748
aI29
aI26
aI1
aI5
aI0
aI0
aI0
aI3
aI0
aI0
aI2
aI1
aI5
asS'holab001'
p749
(lp750
g749
aS'Bryan Holaday'
p751
aI33
aI27
aI8
aI8
aI1
aI0
aI1
aI2
aI0
aI0
aI2
aI3
aI12
asS'escoa003'
p752
(lp753
g752
aS'Alcides Escobar'
p754
aI642
aI607
aI57
aI142
aI20
aI4
aI4
aI52
aI22
aI0
aI19
aI84
aI182
asS'mujie001'
p755
(lp756
g755
aS'Edward Mujica'
p757
aI2
aI2
aI0
aI0
aI0
aI0
aI0
aI0
aI0
aI0
aI0
aI2
aI0
asS'bondj001'
p758
(lp759
g758
aS'Jeremy Bonderman'
p760
aI2
aI2
aI0
aI0
aI0
aI0
aI0
aI0
aI0
aI0
aI0
aI2
aI0
asS'davic003'
p761
(lp762
g761
aS'Chris Davis'
p763
aI673
aI584
aI103
aI167
aI42
aI1
aI53
aI138
aI4
aI1
aI72
aI199
aI370
asS'arrij001'
p764
(lp765
g764
aS'Jake Arrieta'
p766
aI19
aI15
aI0
aI2
aI0
aI0
aI0
aI2
aI0
aI0
aI0
aI10
aI2
asS'rodrp001'
p767
(lp768
g767
aS'Paco Rodriguez'
p769
aI1
aI1
aI0
aI0
aI0
aI0
aI0
aI0
aI0
aI0
aI0
aI1
aI0
asS'collj001'
p770
(lp771
g770
aS'Josh Collmenter'
p772
aI12
aI11
aI1
aI1
aI0
aI0
aI0
aI0
aI0
aI0
aI0
aI5
aI1
asS'bautj002'
p773
(lp774
g773
aS'Jose Bautista'
p775
aI528
aI452
aI82
aI117
aI24
aI0
aI28
aI73
aI7
aI2
aI69
aI84
aI225
asS'tillc001'
p776
(lp777
g776
aS'Chris Tillman'
p778
aI7
aI5
aI0
aI0
aI0
aI0
aI0
aI0
aI0
aI0
aI0
aI1
aI0
asS'penac001'
p779
(lp780
g779
aS'Carlos Pena'
p781
aI328
aI280
aI38
aI58
aI13
aI1
aI8
aI25
aI1
aI3
aI43
aI92
aI97
asS'giavj001'
p782
(lp783
g782
aS'Johnny Giavotella'
p784
aI48
aI41
aI4
aI9
aI3
aI0
aI0
aI4
aI0
aI0
aI5
aI4
aI12
asS'calhk001'
p785
(lp786
g785
aS'Kole Calhoun'
p787
aI222
aI195
aI29
aI55
aI7
aI2
aI8
aI32
aI2
aI2
aI21
aI41
aI90
asS'cartc002'
p788
(lp789
g788
aS'Chris Carter'
p790
aI585
aI506
aI64
aI113
aI24
aI2
aI29
aI82
aI2
aI0
aI70
aI212
aI228
asS'marts002'
p791
(lp792
g791
aS'Starling Marte'
p793
aI566
aI510
aI83
aI143
aI26
aI10
aI12
aI35
aI41
aI15
aI25
aI138
aI225
asS'lavar001'
p794
(lp795
g794
aS'Ryan Lavarnway'
p796
aI82
aI77
aI8
aI23
aI7
aI0
aI1
aI14
aI0
aI0
aI2
aI17
aI33
asS'handd001'
p797
(lp798
g797
aS'Donovan Hand'
p799
aI14
aI11
aI0
aI1
aI0
aI0
aI0
aI0
aI0
aI0
aI0
aI3
aI1
asS'yelic001'
p800
(lp801
g800
aS'Christian Yelich'
p802
aI273
aI240
aI34
aI69
aI12
aI1
aI4
aI16
aI10
aI0
aI31
aI66
aI95
asS'valbl001'
p803
(lp804
g803
aS'Luis Valbuena'
p805
aI391
aI331
aI34
aI72
aI15
aI1
aI12
aI37
aI1
aI4
aI53
aI63
aI125
asS'vanss001'
p806
(lp807
g806
aS'Scott Van Slyke'
p808
aI152
aI129
aI13
aI31
aI8
aI0
aI7
aI19
aI1
aI1
aI20
aI37
aI60
asS'tehej001'
p809
(lp810
g809
aS'Julio Teheran'
p811
aI65
aI58
aI1
aI13
aI3
aI0
aI0
aI2
aI0
aI0
aI2
aI16
aI16
asS'saltj001'
p812
(lp813
g812
aS'Jarrod Saltalamacchia'
p814
aI470
aI425
aI68
aI116
aI40
aI0
aI14
aI65
aI4
aI1
aI43
aI139
aI198
asS'flowt001'
p815
(lp816
g815
aS'Tyler Flowers'
p817
aI275
aI256
aI24
aI50
aI11
aI0
aI10
aI24
aI0
aI1
aI14
aI94
aI91
asS'soria001'
p818
(lp819
g818
aS'Alfonso Soriano'
p820
aI626
aI581
aI84
aI148
aI32
aI1
aI34
aI101
aI18
aI9
aI36
aI156
aI284
asS'wheez001'
p821
(lp822
g821
aS'Zack Wheeler'
p823
aI34
aI30
aI1
aI4
aI1
aI0
aI0
aI2
aI0
aI0
aI1
aI13
aI5
asS'sotog001'
p824
(lp825
g824
aS'Geovany Soto'
p826
aI184
aI163
aI20
aI40
aI9
aI0
aI9
aI22
aI1
aI2
aI20
aI60
aI76
asS'taylm001'
p827
(lp828
g827
aS'Michael Taylor'
p829
aI25
aI23
aI0
aI1
aI0
aI0
aI0
aI0
aI0
aI0
aI2
aI5
aI1
asS'halts002'
p830
(lp831
g830
aS'Sean Halton'
p832
aI111
aI101
aI9
aI24
aI4
aI0
aI4
aI17
aI0
aI0
aI5
aI31
aI40
asS'choos001'
p833
(lp834
g833
aS'Shin-Soo Choo'
p835
aI712
aI569
aI107
aI162
aI34
aI2
aI21
aI54
aI20
aI11
aI112
aI133
aI263
asS'moraf001'
p836
(lp837
g836
aS'Franklin Morales'
p838
aI2
aI2
aI0
aI0
aI0
aI0
aI0
aI0
aI0
aI0
aI0
aI2
aI0
asS'loe-k001'
p839
(lp840
g839
aS'Kameron Loe'
p841
aI1
aI1
aI0
aI0
aI0
aI0
aI0
aI0
aI0
aI0
aI0
aI0
aI0
asS'carpd001'
p842
(lp843
g842
aS'David Carpenter'
p844
aI4
aI3
aI0
aI0
aI0
aI0
aI0
aI0
aI0
aI0
aI0
aI1
aI0
asS'davii001'
p845
(lp846
g845
aS'Ike Davis'
p847
aI377
aI317
aI37
aI65
aI14
aI0
aI9
aI33
aI4
aI0
aI57
aI101
aI106
asS'escae001'
p848
(lp849
g848
aS'Edgmer Escalona'
p850
aI7
aI6
aI0
aI0
aI0
aI0
aI0
aI0
aI0
aI0
aI0
aI3
aI0
asS'pimes001'
p851
(lp852
g851
aS'Stolmy Pimentel'
p853
aI1
aI1
aI0
aI0
aI0
aI0
aI0
aI0
aI0
aI0
aI0
aI0
aI0
asS'ramia001'
p854
(lp855
g854
aS'Aramis Ramirez'
p856
aI351
aI304
aI43
aI86
aI18
aI0
aI12
aI49
aI0
aI1
aI36
aI55
aI140
asS'paxtj001'
p857
(lp858
g857
aS'James Paxton'
p859
aI2
aI1
aI1
aI0
aI0
aI0
aI0
aI0
aI0
aI0
aI1
aI1
aI0
asS'millb002'
p860
(lp861
g860
aS'Brad Miller'
p862
aI335
aI306
aI41
aI81
aI11
aI6
aI8
aI36
aI5
aI3
aI24
aI52
aI128
asS'sabac001'
p863
(lp864
g863
aS'CC Sabathia'
p865
aI4
aI4
aI0
aI0
aI0
aI0
aI0
aI1
aI0
aI0
aI0
aI2
aI0
asS'triuc001'
p866
(lp867
g866
aS'Carlos Triunfel'
p868
aI47
aI44
aI1
aI6
aI1
aI0
aI0
aI2
aI0
aI0
aI0
aI11
aI7
asS'swisn001'
p869
(lp870
g869
aS'Nick Swisher'
p871
aI634
aI549
aI74
aI135
aI27
aI2
aI22
aI63
aI1
aI0
aI77
aI138
aI232
asS'boesb001'
p872
(lp873
g872
aS'Brennan Boesch'
p874
aI53
aI51
aI6
aI14
aI2
aI1
aI3
aI8
aI0
aI0
aI2
aI9
aI27
asS'lucrj001'
p875
(lp876
g875
aS'Jonathan Lucroy'
p877
aI580
aI521
aI59
aI146
aI25
aI6
aI18
aI82
aI9
aI1
aI46
aI69
aI237
asS'rosst001'
p878
(lp879
g878
aS'Tyson Ross'
p880
aI36
aI33
aI0
aI6
aI0
aI0
aI0
aI0
aI0
aI0
aI0
aI18
aI6
asS'galvf001'
p881
(lp882
g881
aS'Freddy Galvis'
p883
aI222
aI205
aI13
aI48
aI5
aI4
aI6
aI19
aI1
aI0
aI13
aI45
aI79
asS'boscj001'
p884
(lp885
g884
aS'J.C. Boscan'
p886
aI10
aI9
aI1
aI2
aI1
aI0
aI0
aI0
aI0
aI0
aI0
aI2
aI3
asS'hughp001'
p887
(lp888
g887
aS'Phil Hughes'
p889
aI4
aI3
aI0
aI0
aI0
aI0
aI0
aI0
aI0
aI0
aI0
aI1
aI0
asS'axeld001'
p890
(lp891
g890
aS'Dylan Axelrod'
p892
aI2
aI2
aI1
aI1
aI0
aI0
aI0
aI0
aI0
aI0
aI0
aI1
aI1
asS'hudst001'
p893
(lp894
g893
aS'Tim Hudson'
p895
aI48
aI38
aI2
aI6
aI1
aI0
aI1
aI3
aI0
aI0
aI4
aI14
aI10
asS'colvt001'
p896
(lp897
g896
aS'Tyler Colvin'
p898
aI78
aI75
aI8
aI12
aI0
aI0
aI3
aI10
aI0
aI0
aI3
aI27
aI21
asS'guthj001'
p899
(lp900
g899
aS'Jeremy Guthrie'
p901
aI5
aI4
aI0
aI1
aI0
aI0
aI0
aI0
aI0
aI0
aI0
aI2
aI1
asS'robic002'
p902
(lp903
g902
aS'Chris Robinson'
p904
aI12
aI12
aI1
aI2
aI0
aI0
aI1
aI3
aI0
aI0
aI0
aI3
aI5
asS'chave002'
p905
(lp906
g905
aS'Endy Chavez'
p907
aI279
aI266
aI22
aI71
aI10
aI0
aI2
aI14
aI1
aI3
aI9
aI31
aI87
asS'chave001'
p908
(lp909
g908
aS'Eric Chavez'
p910
aI254
aI228
aI28
aI64
aI14
aI2
aI9
aI44
aI1
aI0
aI19
aI45
aI109
asS'diazj004'
p911
(lp912
g911
aS'Jonathan Diaz'
p913
aI4
aI4
aI2
aI0
aI0
aI0
aI0
aI0
aI0
aI0
aI0
aI0
aI0
asS'river003'
p914
(lp915
g914
aS'Rene Rivera'
p916
aI71
aI67
aI4
aI17
aI3
aI1
aI0
aI7
aI0
aI0
aI2
aI16
aI22
asS'pridj001'
p917
(lp918
g917
aS'Jason Pridie'
p919
aI10
aI10
aI0
aI2
aI0
aI0
aI0
aI1
aI0
aI0
aI0
aI2
aI2
asS'latom001'
p920
(lp921
g920
aS'Mat Latos'
p922
aI78
aI71
aI3
aI9
aI2
aI0
aI0
aI4
aI0
aI0
aI1
aI28
aI11
asS'corrk001'
p923
(lp924
g923
aS'Kevin Correia'
p925
aI10
aI7
aI0
aI0
aI0
aI0
aI0
aI0
aI0
aI0
aI0
aI5
aI0
asS'arenn001'
p926
(lp927
g926
aS'Nolan Arenado'
p928
aI514
aI486
aI49
aI130
aI29
aI4
aI10
aI52
aI2
aI0
aI23
aI72
aI197
asS'cowgc001'
p929
(lp930
g929
aS'Collin Cowgill'
p931
aI162
aI152
aI18
aI32
aI5
aI2
aI4
aI16
aI1
aI0
aI7
aI42
aI53
asS'alvap001'
p932
(lp933
g932
aS'Pedro Alvarez'
p934
aI614
aI558
aI69
aI130
aI22
aI2
aI36
aI100
aI2
aI0
aI48
aI186
aI264
asS'beltc001'
p935
(lp936
g935
aS'Carlos Beltran'
p937
aI600
aI554
aI79
aI164
aI30
aI3
aI24
aI84
aI2
aI1
aI38
aI90
aI272
asS'snydb003'
p938
(lp939
g938
aS'Brandon Snyder'
p940
aI52
aI50
aI5
aI9
aI3
aI0
aI2
aI7
aI0
aI0
aI0
aI16
aI18
asS'wheer001'
p941
(lp942
g941
aS'Ryan Wheeler'
p943
aI42
aI41
aI1
aI9
aI2
aI0
aI0
aI7
aI0
aI0
aI1
aI10
aI11
asS'odayd001'
p944
(lp945
g944
aS"Darren O'Day"
p946
aI1
aI1
aI0
aI0
aI0
aI0
aI0
aI0
aI0
aI0
aI0
aI1
aI0
asS'bartd001'
p947
(lp948
g947
aS'Daric Barton'
p949
aI120
aI104
aI15
aI28
aI2
aI0
aI3
aI16
aI0
aI0
aI13
aI18
aI39
asS'rzepm001'
p950
(lp951
g950
aS'Marc Rzepczynski'
p952
aI1
aI1
aI0
aI0
aI0
aI0
aI0
aI0
aI0
aI0
aI0
aI1
aI0
asS'tuiam001'
p953
(lp954
g953
aS'Matt Tuiasosopo'
p955
aI191
aI164
aI26
aI40
aI7
aI0
aI7
aI30
aI0
aI0
aI25
aI57
aI68
asS'bakej002'
p956
(lp957
g956
aS'John Baker'
p958
aI46
aI40
aI0
aI6
aI0
aI0
aI0
aI2
aI0
aI0
aI6
aI12
aI6
asS'flahr001'
p959
(lp960
g959
aS'Ryan Flaherty'
p961
aI271
aI246
aI28
aI55
aI11
aI0
aI10
aI27
aI2
aI0
aI19
aI62
aI96
asS'castw002'
p962
(lp963
g962
aS'Welington Castillo'
p964
aI428
aI380
aI41
aI104
aI23
aI0
aI8
aI32
aI2
aI0
aI34
aI97
aI151
asS'navay001'
p965
(lp966
g965
aS'Yamaico Navarro'
p967
aI31
aI28
aI3
aI8
aI0
aI1
aI0
aI2
aI0
aI0
aI2
aI8
aI10
asS'heisc001'
p968
(lp969
g968
aS'Chris Heisey'
p970
aI244
aI224
aI29
aI53
aI11
aI1
aI9
aI23
aI3
aI0
aI9
aI51
aI93
asS'mathj001'
p971
(lp972
g971
aS'Jeff Mathis'
p973
aI256
aI232
aI14
aI42
aI7
aI1
aI5
aI29
aI0
aI0
aI21
aI76
aI66
asS'middw001'
p974
(lp975
g974
aS'Will Middlebrooks'
p976
aI374
aI348
aI41
aI79
aI18
aI0
aI17
aI49
aI3
aI1
aI20
aI98
aI148
asS'escoy001'
p977
(lp978
g977
aS'Yunel Escobar'
p979
aI578
aI508
aI61
aI130
aI27
aI1
aI9
aI56
aI4
aI4
aI57
aI73
aI186
asS'daviw001'
p980
(lp981
g980
aS'Wade Davis'
p982
aI4
aI3
aI0
aI0
aI0
aI0
aI0
aI0
aI0
aI0
aI0
aI2
aI0
asS'domim001'
p983
(lp984
g983
aS'Matt Dominguez'
p985
aI589
aI543
aI56
aI131
aI25
aI0
aI21
aI77
aI0
aI1
aI30
aI96
aI219
asS'tracc001'
p986
(lp987
g986
aS'Chad Tracy'
p988
aI136
aI129
aI6
aI26
aI4
aI0
aI4
aI11
aI0
aI2
aI7
aI25
aI42
asS'parrg001'
p989
(lp990
g989
aS'Gerardo Parra'
p991
aI663
aI601
aI79
aI161
aI43
aI4
aI10
aI48
aI10
aI10
aI48
aI100
aI242
asS'kipnj001'
p992
(lp993
g992
aS'Jason Kipnis'
p994
aI658
aI564
aI86
aI160
aI36
aI4
aI17
aI84
aI30
aI7
aI76
aI143
aI255
asS'bogub001'
p995
(lp996
g995
aS'Brian Bogusevic'
p997
aI155
aI143
aI18
aI39
aI7
aI1
aI6
aI16
aI2
aI0
aI10
aI35
aI66
asS'sanch002'
p998
(lp999
g998
aS'Hector Sanchez'
p1000
aI140
aI129
aI8
aI32
aI4
aI0
aI3
aI19
aI0
aI0
aI7
aI29
aI45
asS'boxbb001'
p1001
(lp1002
g1001
aS'Brad Boxberger'
p1003
aI1
aI1
aI0
aI0
aI0
aI0
aI0
aI0
aI0
aI0
aI0
aI0
aI0
asS'altuj001'
p1004
(lp1005
g1004
aS'Jose Altuve'
p1006
aI672
aI626
aI64
aI177
aI31
aI2
aI5
aI52
aI35
aI13
aI32
aI85
aI227
asS'tekob001'
p1007
(lp1008
g1007
aS'Blake Tekotte'
p1009
aI36
aI31
aI4
aI7
aI1
aI0
aI1
aI2
aI1
aI3
aI3
aI9
aI11
asS'peres002'
p1010
(lp1011
g1010
aS'Salvador Perez'
p1012
aI526
aI496
aI48
aI145
aI25
aI3
aI13
aI79
aI0
aI0
aI21
aI63
aI215
asS'renda001'
p1013
(lp1014
g1013
aS'Anthony Rendon'
p1015
aI394
aI351
aI40
aI93
aI23
aI1
aI7
aI35
aI1
aI1
aI31
aI69
aI139
asS'martm003'
p1016
(lp1017
g1016
aS'Michael Martinez'
p1018
aI40
aI40
aI5
aI7
aI0
aI0
aI0
aI3
aI1
aI0
aI0
aI12
aI7
asS'hernr002'
p1019
(lp1020
g1019
aS'Ramon Hernandez'
p1021
aI55
aI48
aI4
aI10
aI2
aI0
aI3
aI6
aI1
aI0
aI6
aI7
aI21
asS'bethc001'
p1022
(lp1023
g1022
aS'Christian Bethancourt'
p1024
aI1
aI1
aI0
aI0
aI0
aI0
aI0
aI0
aI0
aI0
aI0
aI1
aI0
asS'garzm001'
p1025
(lp1026
g1025
aS'Matt Garza'
p1027
aI20
aI18
aI1
aI4
aI1
aI0
aI0
aI2
aI0
aI0
aI0
aI9
aI5
asS'raucj001'
p1028
(lp1029
g1028
aS'Jon Rauch'
p1030
aI1
aI0
aI0
aI0
aI0
aI0
aI0
aI0
aI0
aI0
aI0
aI0
aI0
asS'samaj001'
p1031
(lp1032
g1031
aS'Jeff Samardzija'
p1033
aI73
aI62
aI4
aI7
aI2
aI0
aI1
aI2
aI0
aI0
aI1
aI31
aI12
asS'derom001'
p1034
(lp1035
g1034
aS'Mark DeRosa'
p1036
aI236
aI204
aI23
aI48
aI12
aI1
aI7
aI36
aI0
aI0
aI28
aI49
aI83
asS'lyont001'
p1037
(lp1038
g1037
aS'Tyler Lyons'
p1039
aI13
aI12
aI0
aI2
aI0
aI0
aI0
aI0
aI0
aI0
aI0
aI4
aI2
asS'johnj009'
p1040
(lp1041
g1040
aS'Josh Johnson'
p1042
aI2
aI1
aI0
aI0
aI0
aI0
aI0
aI0
aI0
aI0
aI1
aI1
aI0
asS'thomc002'
p1043
(lp1044
g1043
aS'Clete Thomas'
p1045
aI322
aI290
aI39
aI62
aI15
aI0
aI4
aI13
aI1
aI3
aI30
aI92
aI89
asS'dudal001'
p1046
(lp1047
g1046
aS'Lucas Duda'
p1048
aI384
aI318
aI42
aI71
aI16
aI0
aI15
aI33
aI0
aI3
aI55
aI102
aI132
asS'nievw001'
p1049
(lp1050
g1049
aS'Wil Nieves'
p1051
aI206
aI195
aI16
aI58
aI11
aI0
aI1
aI22
aI0
aI0
aI8
aI32
aI72
asS'thayd001'
p1052
(lp1053
g1052
aS'Dale Thayer'
p1054
aI1
aI1
aI0
aI0
aI0
aI0
aI0
aI0
aI0
aI0
aI0
aI0
aI0
asS'braur002'
p1055
(lp1056
g1055
aS'Ryan Braun'
p1057
aI253
aI225
aI30
aI67
aI14
aI2
aI9
aI38
aI4
aI5
aI27
aI56
aI112
asS'piera001'
p1058
(lp1059
g1058
aS'A.J. Pierzynski'
p1060
aI529
aI503
aI48
aI137
aI24
aI1
aI17
aI70
aI1
aI1
aI11
aI76
aI214
asS'granc001'
p1061
(lp1062
g1061
aS'Curtis Granderson'
p1063
aI245
aI214
aI31
aI49
aI13
aI2
aI7
aI15
aI8
aI2
aI27
aI69
aI87
asS'chatt001'
p1064
(lp1065
g1064
aS'Tyler Chatwood'
p1066
aI45
aI40
aI3
aI12
aI1
aI0
aI0
aI7
aI0
aI0
aI2
aI8
aI13
asS'villp001'
p1067
(lp1068
g1067
aS'Pedro Villarreal'
p1069
aI1
aI1
aI0
aI0
aI0
aI0
aI0
aI0
aI0
aI0
aI0
aI0
aI0
asS'falui001'
p1070
(lp1071
g1070
aS'Irving Falu'
p1072
aI4
aI4
aI0
aI1
aI0
aI0
aI0
aI0
aI0
aI0
aI0
aI0
aI1
asS'reimn001'
p1073
(lp1074
g1073
aS'Nolan Reimold'
p1075
aI140
aI128
aI17
aI25
aI3
aI0
aI5
aI12
aI0
aI1
aI10
aI41
aI43
asS'roset001'
p1076
(lp1077
g1076
aS'Trevor Rosenthal'
p1078
aI1
aI1
aI0
aI0
aI0
aI0
aI0
aI0
aI0
aI0
aI0
aI1
aI0
asS'kubej002'
p1079
(lp1080
g1079
aS'Jason Kubel'
p1081
aI290
aI259
aI21
aI56
aI9
aI1
aI5
aI32
aI0
aI1
aI29
aI92
aI82
asS'bradj001'
p1082
(lp1083
g1082
aS'Jackie Bradley'
p1084
aI107
aI95
aI18
aI18
aI5
aI0
aI3
aI10
aI2
aI0
aI10
aI31
aI32
asS'chama002'
p1085
(lp1086
g1085
aS'Adron Chambers'
p1087
aI29
aI26
aI5
aI4
aI1
aI0
aI0
aI1
aI0
aI1
aI3
aI11
aI5
asS'fedet001'
p1088
(lp1089
g1088
aS'Tim Federowicz'
p1090
aI173
aI160
aI12
aI37
aI8
aI0
aI4
aI16
aI0
aI0
aI10
aI56
aI57
asS'cuetj001'
p1091
(lp1092
g1091
aS'Johnny Cueto'
p1093
aI22
aI20
aI1
aI3
aI0
aI0
aI0
aI1
aI0
aI0
aI0
aI5
aI3
asS'peraw001'
p1094
(lp1095
g1094
aS'Wily Peralta'
p1096
aI60
aI50
aI1
aI7
aI0
aI0
aI0
aI0
aI0
aI0
aI1
aI20
aI7
asS'andir001'
p1097
(lp1098
g1097
aS'Robert Andino'
p1099
aI85
aI76
aI5
aI14
aI4
aI0
aI0
aI4
aI0
aI0
aI7
aI27
aI18
asS'montj003'
p1100
(lp1101
g1100
aS'Jesus Montero'
p1102
aI110
aI101
aI6
aI21
aI1
aI1
aI3
aI9
aI0
aI1
aI8
aI21
aI33
asS'sancg001'
p1103
(lp1104
g1103
aS'Gaby Sanchez'
p1105
aI320
aI264
aI29
aI67
aI18
aI0
aI7
aI36
aI1
aI0
aI44
aI51
aI106
asS'reveb001'
p1106
(lp1107
g1106
aS'Ben Revere'
p1108
aI336
aI315
aI37
aI96
aI9
aI3
aI0
aI17
aI22
aI8
aI16
aI36
aI111
asS'stewc001'
p1109
(lp1110
g1109
aS'Chris Stewart'
p1111
aI340
aI294
aI28
aI62
aI6
aI0
aI4
aI25
aI4
aI0
aI30
aI49
aI80
asS'wilsc004'
p1112
(lp1113
g1112
aS'C.J. Wilson'
p1114
aI11
aI8
aI1
aI1
aI0
aI0
aI0
aI0
aI0
aI0
aI1
aI5
aI1
asS'pierj002'
p1115
(lp1116
g1115
aS'Juan Pierre'
p1117
aI330
aI308
aI36
aI76
aI11
aI2
aI1
aI8
aI23
aI6
aI13
aI27
aI94
asS'gorda001'
p1118
(lp1119
g1118
aS'Alex Gordon'
p1120
aI700
aI633
aI90
aI168
aI27
aI6
aI20
aI81
aI11
aI3
aI52
aI141
aI267
asS'magim001'
p1121
(lp1122
g1121
aS'Matt Magill'
p1123
aI8
aI7
aI0
aI0
aI0
aI0
aI0
aI0
aI0
aI0
aI0
aI5
aI0
asS'amara001'
p1124
(lp1125
g1124
aS'Alexi Amarista'
p1126
aI396
aI368
aI35
aI87
aI14
aI4
aI5
aI32
aI4
aI2
aI22
aI57
aI124
asS'cuddm001'
p1127
(lp1128
g1127
aS'Michael Cuddyer'
p1129
aI540
aI489
aI74
aI162
aI31
aI3
aI20
aI84
aI10
aI3
aI46
aI100
aI259
asS'gosea001'
p1130
(lp1131
g1130
aS'Anthony Gose'
p1132
aI153
aI147
aI15
aI38
aI6
aI5
aI2
aI12
aI4
aI3
aI5
aI37
aI60
asS'perem004'
p1133
(lp1134
g1133
aS'Martin Perez'
p1135
aI5
aI5
aI0
aI0
aI0
aI0
aI0
aI0
aI0
aI0
aI0
aI4
aI0
asS'satij001'
p1136
(lp1137
g1136
aS'Josh Satin'
p1138
aI221
aI190
aI23
aI53
aI15
aI0
aI3
aI17
aI1
aI1
aI30
aI56
aI77
asS'bettc001'
p1139
(lp1140
g1139
aS'Chad Bettis'
p1141
aI14
aI11
aI0
aI0
aI0
aI0
aI0
aI0
aI0
aI0
aI0
aI4
aI0
asS'polap001'
p1142
(lp1143
g1142
aS'Placido Polanco'
p1144
aI416
aI377
aI33
aI98
aI13
aI0
aI1
aI23
aI2
aI0
aI23
aI31
aI114
asS'frann001'
p1145
(lp1146
g1145
aS'Nick Franklin'
p1147
aI412
aI369
aI38
aI83
aI20
aI1
aI12
aI45
aI6
aI1
aI42
aI113
aI141
asS'dewib001'
p1148
(lp1149
g1148
aS'Blake DeWitt'
p1150
aI4
aI3
aI0
aI1
aI1
aI0
aI0
aI0
aI0
aI0
aI0
aI0
aI2
asS'kontg001'
p1151
(lp1152
g1151
aS'George Kontos'
p1153
aI2
aI1
aI0
aI0
aI0
aI0
aI0
aI0
aI0
aI0
aI0
aI1
aI0
asS'andre001'
p1154
(lp1155
g1154
aS'Elvis Andrus'
p1156
aI698
aI620
aI91
aI168
aI17
aI4
aI4
aI67
aI42
aI8
aI52
aI97
aI205
asS'leons001'
p1157
(lp1158
g1157
aS'Sandy Leon'
p1159
aI1
aI1
aI0
aI0
aI0
aI0
aI0
aI0
aI0
aI0
aI0
aI1
aI0
asS'cisnj001'
p1160
(lp1161
g1160
aS'Jose Cisnero'
p1162
aI1
aI1
aI0
aI0
aI0
aI0
aI0
aI0
aI0
aI0
aI0
aI1
aI0
asS'ibanr001'
p1163
(lp1164
g1163
aS'Raul Ibanez'
p1165
aI496
aI454
aI54
aI110
aI20
aI2
aI29
aI65
aI0
aI0
aI42
aI128
aI221
asS'beckj002'
p1166
(lp1167
g1166
aS'Josh Beckett'
p1168
aI12
aI8
aI0
aI1
aI0
aI0
aI0
aI0
aI0
aI0
aI1
aI3
aI1
asS'greeg002'
p1169
(lp1170
g1169
aS'Grant Green'
p1171
aI153
aI140
aI16
aI35
aI8
aI1
aI1
aI17
aI0
aI0
aI10
aI44
aI48
asS'kiesr001'
p1172
(lp1173
g1172
aS'Roger Kieschnick'
p1174
aI95
aI84
aI6
aI17
aI0
aI1
aI0
aI5
aI0
aI0
aI11
aI29
aI19
asS'uptob001'
p1175
(lp1176
g1175
aS'B.J. Upton'
p1177
aI446
aI391
aI30
aI72
aI14
aI0
aI9
aI26
aI12
aI5
aI44
aI151
aI113
asS'ellia001'
p1178
(lp1179
g1178
aS'A.J. Ellis'
p1180
aI448
aI390
aI43
aI93
aI17
aI1
aI10
aI52
aI0
aI2
aI45
aI78
aI142
asS'lestj001'
p1181
(lp1182
g1181
aS'Jon Lester'
p1183
aI7
aI6
aI0
aI0
aI0
aI0
aI0
aI0
aI0
aI0
aI0
aI4
aI0
asS'pheld001'
p1184
(lp1185
g1184
aS'David Phelps'
p1186
aI2
aI2
aI0
aI0
aI0
aI0
aI0
aI0
aI0
aI0
aI0
aI2
aI0
asS'petes002'
p1187
(lp1188
g1187
aS'Shane Peterson'
p1189
aI8
aI7
aI1
aI1
aI0
aI0
aI0
aI1
aI0
aI0
aI1
aI3
aI1
asS'gardb001'
p1190
(lp1191
g1190
aS'Brett Gardner'
p1192
aI609
aI539
aI81
aI147
aI33
aI10
aI8
aI52
aI24
aI8
aI52
aI127
aI224
asS'barnb002'
p1193
(lp1194
g1193
aS'Brandon Barnes'
p1195
aI445
aI408
aI46
aI98
aI17
aI1
aI8
aI41
aI11
aI11
aI21
aI127
aI141
asS'matsd001'
p1196
(lp1197
g1196
aS'Daisuke Matsuzaka'
p1198
aI13
aI12
aI0
aI3
aI0
aI0
aI0
aI1
aI0
aI0
aI0
aI5
aI3
asS'lallb001'
p1199
(lp1200
g1199
aS'Blake Lalli'
p1201
aI24
aI24
aI1
aI3
aI0
aI0
aI0
aI2
aI0
aI0
aI0
aI7
aI3
asS'iannc001'
p1202
(lp1203
g1202
aS'Chris Iannetta'
p1204
aI399
aI325
aI40
aI73
aI15
aI0
aI11
aI39
aI0
aI1
aI68
aI100
aI121
asS'roe-c001'
p1205
(lp1206
g1205
aS'Chaz Roe'
p1207
aI1
aI1
aI0
aI0
aI0
aI0
aI0
aI0
aI0
aI0
aI0
aI1
aI0
asS'adduj002'
p1208
(lp1209
g1208
aS'Jim Adduci'
p1210
aI34
aI31
aI2
aI8
aI1
aI0
aI0
aI0
aI2
aI0
aI3
aI9
aI9
asS'buted001'
p1211
(lp1212
g1211
aS'Drew Butera'
p1213
aI10
aI10
aI0
aI1
aI0
aI0
aI0
aI0
aI0
aI0
aI0
aI5
aI1
asS'kersc001'
p1214
(lp1215
g1214
aS'Clayton Kershaw'
p1216
aI92
aI77
aI8
aI14
aI3
aI0
aI1
aI10
aI0
aI0
aI5
aI24
aI20
asS'adrie001'
p1217
(lp1218
g1217
aS'Ehire Adrianza'
p1219
aI20
aI18
aI3
aI4
aI1
aI0
aI1
aI3
aI0
aI0
aI1
aI5
aI8
asS'murpj001'
p1220
(lp1221
g1220
aS'J.R. Murphy'
p1222
aI27
aI26
aI3
aI4
aI1
aI0
aI0
aI1
aI0
aI0
aI1
aI9
aI5
asS'moora001'
p1223
(lp1224
g1223
aS'Adam Moore'
p1225
aI11
aI10
aI1
aI3
aI1
aI0
aI0
aI0
aI1
aI0
aI1
aI2
aI4
asS'blevj001'
p1226
(lp1227
g1226
aS'Jerry Blevins'
p1228
aI1
aI1
aI0
aI0
aI0
aI0
aI0
aI0
aI0
aI0
aI0
aI1
aI0
asS'gregd001'
p1229
(lp1230
g1229
aS'Didi Gregorius'
p1231
aI404
aI357
aI47
aI90
aI16
aI3
aI7
aI28
aI0
aI2
aI37
aI65
aI133
asS'mclon001'
p1232
(lp1233
g1232
aS'Nate McLouth'
p1234
aI593
aI531
aI76
aI137
aI31
aI4
aI12
aI36
aI30
aI7
aI53
aI86
aI212
asS'santo001'
p1235
(lp1236
g1235
aS'Omir Santos'
p1237
aI1
aI1
aI0
aI0
aI0
aI0
aI0
aI0
aI0
aI0
aI0
aI0
aI0
asS'chenw001'
p1238
(lp1239
g1238
aS'Wei-Yin Chen'
p1240
aI2
aI2
aI0
aI0
aI0
aI0
aI0
aI0
aI0
aI0
aI0
aI0
aI0
asS'marta005'
p1241
(lp1242
g1241
aS'Alfredo Marte'
p1243
aI48
aI43
aI4
aI8
aI3
aI0
aI0
aI4
aI0
aI0
aI4
aI12
aI11
asS'puigy001'
p1244
(lp1245
g1244
aS'Yasiel Puig'
p1246
aI432
aI382
aI66
aI122
aI21
aI2
aI19
aI42
aI11
aI8
aI36
aI97
aI204
asS'borbj001'
p1247
(lp1248
g1247
aS'Julio Borbon'
p1249
aI118
aI105
aI11
aI21
aI3
aI1
aI1
aI3
aI7
aI1
aI12
aI22
aI29
asS'wachm001'
p1250
(lp1251
g1250
aS'Michael Wacha'
p1252
aI22
aI21
aI0
aI3
aI0
aI0
aI0
aI3
aI0
aI0
aI0
aI10
aI3
asS'freef001'
p1253
(lp1254
g1253
aS'Freddie Freeman'
p1255
aI629
aI551
aI89
aI176
aI27
aI2
aI23
aI109
aI1
aI0
aI66
aI121
aI276
asS'baxtm001'
p1256
(lp1257
g1256
aS'Mike Baxter'
p1258
aI155
aI132
aI14
aI25
aI6
aI1
aI0
aI4
aI5
aI2
aI17
aI28
aI33
asS'diazm003'
p1259
(lp1260
g1259
aS'Matt Diaz'
p1261
aI19
aI18
aI1
aI3
aI1
aI0
aI0
aI1
aI0
aI0
aI1
aI3
aI4
asS'hawpb001'
p1262
(lp1263
g1262
aS'Brad Hawpe'
p1264
aI32
aI27
aI2
aI5
aI0
aI0
aI0
aI2
aI0
aI0
aI5
aI14
aI5
asS'roenj001'
p1265
(lp1266
g1265
aS'Josh Roenicke'
p1267
aI1
aI1
aI0
aI0
aI0
aI0
aI0
aI0
aI0
aI0
aI0
aI0
aI0
asS'carmf001'
p1268
(lp1269
g1268
aS'Roberto Hernandez'
p1270
aI4
aI4
aI0
aI0
aI0
aI0
aI0
aI0
aI0
aI0
aI0
aI3
aI0
asS'wertj001'
p1271
(lp1272
g1271
aS'Jayson Werth'
p1273
aI532
aI462
aI84
aI147
aI24
aI0
aI25
aI82
aI10
aI1
aI60
aI101
aI246
asS'escoe001'
p1274
(lp1275
g1274
aS'Eduardo Escobar'
p1276
aI179
aI165
aI23
aI39
aI5
aI2
aI3
aI10
aI0
aI2
aI11
aI34
aI57
asS'gomec002'
p1277
(lp1278
g1277
aS'Carlos Gomez'
p1279
aI590
aI536
aI79
aI152
aI27
aI10
aI24
aI73
aI40
aI7
aI37
aI146
aI271
asS'bloow001'
p1280
(lp1281
g1280
aS'Willie Bloomquist'
p1282
aI150
aI139
aI16
aI44
aI5
aI1
aI0
aI14
aI0
aI2
aI8
aI11
aI51
asS'ohler001'
p1283
(lp1284
g1283
aS'Ross Ohlendorf'
p1285
aI19
aI15
aI0
aI0
aI0
aI0
aI0
aI1
aI0
aI0
aI1
aI11
aI0
asS'weavj003'
p1286
(lp1287
g1286
aS'Jered Weaver'
p1288
aI4
aI4
aI0
aI0
aI0
aI0
aI0
aI0
aI0
aI0
aI0
aI4
aI0
asS'navad002'
p1289
(lp1290
g1289
aS'Daniel Nava'
p1291
aI536
aI458
aI77
aI139
aI29
aI0
aI12
aI66
aI0
aI2
aI51
aI93
aI204
asS'carsr001'
p1292
(lp1293
g1292
aS'Robert Carson'
p1294
aI1
aI0
aI1
aI0
aI0
aI0
aI0
aI0
aI0
aI0
aI1
aI0
aI0
asS'bassa001'
p1295
(lp1296
g1295
aS'Anthony Bass'
p1297
aI2
aI2
aI0
aI0
aI0
aI0
aI0
aI1
aI0
aI0
aI0
aI1
aI0
asS'clarc001'
p1298
(lp1299
g1298
aS'Cody Clark'
p1300
aI40
aI38
aI1
aI4
aI1
aI0
aI0
aI0
aI0
aI0
aI1
aI15
aI5
asS'raleb001'
p1301
(lp1302
g1301
aS'Brooks Raley'
p1303
aI4
aI3
aI0
aI0
aI0
aI0
aI0
aI0
aI0
aI0
aI0
aI1
aI0
asS'headc001'
p1304
(lp1305
g1304
aS'Chase Headley'
p1306
aI600
aI520
aI59
aI130
aI35
aI2
aI13
aI50
aI8
aI4
aI67
aI142
aI208
asS'gorzt001'
p1307
(lp1308
g1307
aS'Tom Gorzelanny'
p1309
aI18
aI17
aI0
aI1
aI0
aI0
aI0
aI0
aI0
aI0
aI0
aI9
aI1
asS'bedae001'
p1310
(lp1311
g1310
aS'Erik Bedard'
p1312
aI4
aI3
aI0
aI0
aI0
aI0
aI0
aI0
aI0
aI0
aI0
aI1
aI0
asS'jennd002'
p1313
(lp1314
g1313
aS'Desmond Jennings'
p1315
aI602
aI527
aI82
aI133
aI31
aI6
aI14
aI54
aI20
aI8
aI64
aI115
aI218
asS'reddj001'
p1316
(lp1317
g1316
aS'Josh Reddick'
p1318
aI441
aI385
aI54
aI87
aI19
aI2
aI12
aI56
aI9
aI2
aI46
aI86
aI146
asS'casia001'
p1319
(lp1320
g1319
aS'Alexi Casilla'
p1321
aI125
aI112
aI15
aI24
aI4
aI1
aI1
aI10
aI9
aI2
aI9
aI20
aI33
asS'almoa001'
p1322
(lp1323
g1322
aS'Abraham Almonte'
p1324
aI82
aI72
aI10
aI19
aI4
aI0
aI2
aI9
aI1
aI0
aI6
aI21
aI29
asS'mcalz001'
p1325
(lp1326
g1325
aS'Zach McAllister'
p1327
aI4
aI4
aI0
aI0
aI0
aI0
aI0
aI0
aI0
aI0
aI0
aI2
aI0
asS'carre001'
p1328
(lp1329
g1328
aS'Ezequiel Carrera'
p1330
aI21
aI17
aI3
aI3
aI0
aI0
aI0
aI1
aI0
aI0
aI1
aI5
aI3
asS'hared001'
p1331
(lp1332
g1331
aS'Dan Haren'
p1333
aI55
aI47
aI2
aI8
aI3
aI0
aI0
aI2
aI0
aI0
aI1
aI17
aI11
asS'uggld001'
p1334
(lp1335
g1334
aS'Dan Uggla'
p1336
aI537
aI448
aI60
aI80
aI10
aI3
aI22
aI55
aI2
aI0
aI77
aI171
aI162
asS'gordd002'
p1337
(lp1338
g1337
aS'Dee Gordon'
p1339
aI106
aI94
aI9
aI22
aI1
aI1
aI1
aI6
aI10
aI2
aI10
aI21
aI28
asS'hicka001'
p1340
(lp1341
g1340
aS'Aaron Hicks'
p1342
aI313
aI281
aI37
aI54
aI11
aI3
aI8
aI27
aI9
aI3
aI24
aI84
aI95
asS'peacb001'
p1343
(lp1344
g1343
aS'Brad Peacock'
p1345
aI1
aI0
aI0
aI0
aI0
aI0
aI0
aI0
aI0
aI0
aI0
aI0
aI0
asS'morak001'
p1346
(lp1347
g1346
aS'Kendrys Morales'
p1348
aI657
aI602
aI64
aI167
aI34
aI0
aI23
aI80
aI0
aI0
aI49
aI114
aI270
asS'leagb001'
p1349
(lp1350
g1349
aS'Brandon League'
p1351
aI1
aI0
aI0
aI0
aI0
aI0
aI0
aI0
aI0
aI0
aI1
aI0
aI0
asS'dysos001'
p1352
(lp1353
g1352
aS'Sam Dyson'
p1354
aI1
aI1
aI0
aI0
aI0
aI0
aI0
aI0
aI0
aI0
aI0
aI0
aI0
asS'santc002'
p1355
(lp1356
g1355
aS'Carlos Santana'
p1357
aI642
aI541
aI75
aI145
aI39
aI1
aI20
aI74
aI3
aI1
aI93
aI110
aI246
asS'lakej001'
p1358
(lp1359
g1358
aS'Junior Lake'
p1360
aI254
aI236
aI26
aI67
aI16
aI0
aI6
aI16
aI4
aI4
aI13
aI68
aI101
asS'floyg001'
p1361
(lp1362
g1361
aS'Gavin Floyd'
p1363
aI2
aI2
aI0
aI0
aI0
aI0
aI0
aI0
aI0
aI0
aI0
aI2
aI0
asS'gindc001'
p1364
(lp1365
g1364
aS'Caleb Gindl'
p1366
aI155
aI132
aI17
aI32
aI7
aI2
aI5
aI14
aI2
aI1
aI20
aI25
aI58
asS'rasmc001'
p1367
(lp1368
g1367
aS'Colby Rasmus'
p1369
aI458
aI417
aI56
aI115
aI26
aI1
aI22
aI66
aI0
aI1
aI37
aI135
aI209
asS'lillt001'
p1370
(lp1371
g1370
aS'Ted Lilly'
p1372
aI5
aI5
aI0
aI0
aI0
aI0
aI0
aI0
aI0
aI0
aI0
aI5
aI0
asS'campt001'
p1373
(lp1374
g1373
aS'Tony Campana'
p1375
aI54
aI46
aI10
aI12
aI0
aI1
aI0
aI0
aI8
aI2
aI8
aI14
aI14
asS'hosme001'
p1376
(lp1377
g1376
aS'Eric Hosmer'
p1378
aI680
aI623
aI86
aI188
aI34
aI3
aI17
aI79
aI11
aI4
aI51
aI100
aI279
asS'ziegb001'
p1379
(lp1380
g1379
aS'Brad Ziegler'
p1381
aI2
aI2
aI0
aI0
aI0
aI0
aI0
aI0
aI0
aI0
aI0
aI0
aI0
asS'cirip001'
p1382
(lp1383
g1382
aS'Pedro Ciriaco'
p1384
aI137
aI125
aI9
aI28
aI4
aI2
aI2
aI8
aI9
aI1
aI9
aI23
aI42
asS'cozaz001'
p1385
(lp1386
g1385
aS'Zack Cozart'
p1387
aI618
aI567
aI74
aI144
aI30
aI3
aI12
aI63
aI0
aI0
aI26
aI102
aI216
asS'joneg002'
p1388
(lp1389
g1388
aS'Garrett Jones'
p1390
aI440
aI403
aI41
aI94
aI26
aI2
aI15
aI51
aI2
aI0
aI31
aI101
aI169
asS'castn001'
p1391
(lp1392
g1391
aS'Nick Castellanos'
p1393
aI18
aI18
aI1
aI5
aI0
aI0
aI0
aI0
aI0
aI0
aI0
aI1
aI5
asS'morsm001'
p1394
(lp1395
g1394
aS'Michael Morse'
p1396
aI337
aI312
aI34
aI67
aI13
aI0
aI13
aI27
aI0
aI0
aI21
aI87
aI119
asS'younc004'
p1397
(lp1398
g1397
aS'Chris Young'
p1399
aI375
aI335
aI46
aI67
aI18
aI3
aI12
aI40
aI10
aI3
aI36
aI93
aI127
asS'buehm001'
p1400
(lp1401
g1400
aS'Mark Buehrle'
p1402
aI4
aI4
aI0
aI0
aI0
aI0
aI0
aI0
aI0
aI0
aI0
aI1
aI0
asS'fistd001'
p1403
(lp1404
g1403
aS'Doug Fister'
p1405
aI7
aI5
aI0
aI2
aI0
aI0
aI0
aI1
aI0
aI0
aI0
aI1
aI2
asS'ellim001'
p1406
(lp1407
g1406
aS'Mark Ellis'
p1408
aI480
aI433
aI46
aI117
aI13
aI2
aI6
aI48
aI4
aI1
aI26
aI74
aI152
asS'johnd004'
p1409
(lp1410
g1409
aS'Dan Johnson'
p1411
aI5
aI5
aI0
aI0
aI0
aI0
aI0
aI0
aI0
aI0
aI0
aI1
aI0
asS'rutlj001'
p1412
(lp1413
g1412
aS'Josh Rutledge'
p1414
aI314
aI285
aI45
aI67
aI6
aI1
aI7
aI19
aI12
aI0
aI22
aI62
aI96
asS'valdj002'
p1415
(lp1416
g1415
aS'Jordany Valdespin'
p1417
aI144
aI133
aI16
aI25
aI3
aI1
aI4
aI16
aI4
aI3
aI8
aI28
aI42
asS'kendh001'
p1418
(lp1419
g1418
aS'Howard Kendrick'
p1420
aI513
aI478
aI54
aI142
aI21
aI4
aI13
aI54
aI6
aI3
aI23
aI89
aI210
asS'polla001'
p1421
(lp1422
g1421
aS'A.J. Pollock'
p1423
aI482
aI443
aI64
aI119
aI28
aI5
aI8
aI38
aI12
aI3
aI33
aI82
aI181
asS'archc001'
p1424
(lp1425
g1424
aS'Chris Archer'
p1426
aI1
aI1
aI0
aI0
aI0
aI0
aI0
aI0
aI0
aI0
aI0
aI1
aI0
asS'marmc001'
p1427
(lp1428
g1427
aS'Carlos Marmol'
p1429
aI1
aI1
aI0
aI0
aI0
aI0
aI0
aI0
aI0
aI0
aI0
aI0
aI0
asS'hellj001'
p1430
(lp1431
g1430
aS'Jeremy Hellickson'
p1432
aI3
aI3
aI0
aI1
aI0
aI0
aI0
aI0
aI0
aI0
aI0
aI1
aI1
asS'minez001'
p1433
(lp1434
g1433
aS'Zach Miner'
p1435
aI6
aI6
aI0
aI2
aI0
aI0
aI0
aI0
aI0
aI0
aI0
aI3
aI2
asS'cumpb001'
p1436
(lp1437
g1436
aS'Brandon Cumpton'
p1438
aI12
aI9
aI0
aI0
aI0
aI0
aI0
aI0
aI0
aI0
aI1
aI4
aI0
asS'cabrm002'
p1439
(lp1440
g1439
aS'Melky Cabrera'
p1441
aI372
aI344
aI39
aI96
aI15
aI2
aI3
aI30
aI2
aI2
aI23
aI47
aI124
asS'cabrm001'
p1442
(lp1443
g1442
aS'Miguel Cabrera'
p1444
aI652
aI555
aI103
aI193
aI26
aI1
aI44
aI137
aI3
aI0
aI90
aI94
aI353
asS'schaj002'
p1445
(lp1446
g1445
aS'Jordan Schafer'
p1447
aI265
aI231
aI32
aI57
aI8
aI3
aI3
aI21
aI22
aI6
aI29
aI73
aI80
asS'sappd001'
p1448
(lp1449
g1448
aS'Dave Sappelt'
p1450
aI78
aI75
aI6
aI18
aI3
aI0
aI0
aI4
aI3
aI1
aI3
aI14
aI21
asS'rabur001'
p1451
(lp1452
g1451
aS'Ryan Raburn'
p1453
aI277
aI243
aI40
aI66
aI18
aI0
aI16
aI55
aI0
aI0
aI29
aI67
aI132
asS'wietm001'
p1454
(lp1455
g1454
aS'Matt Wieters'
p1456
aI579
aI523
aI59
aI123
aI29
aI0
aI22
aI79
aI2
aI0
aI43
aI104
aI218
asS'myerw001'
p1457
(lp1458
g1457
aS'Wil Myers'
p1459
aI373
aI335
aI50
aI98
aI23
aI0
aI13
aI53
aI5
aI2
aI33
aI91
aI160
asS'felds001'
p1460
(lp1461
g1460
aS'Scott Feldman'
p1462
aI38
aI37
aI2
aI6
aI2
aI0
aI1
aI8
aI0
aI0
aI0
aI13
aI11
asS'bonie001'
p1463
(lp1464
g1463
aS'Emilio Bonifacio'
p1465
aI461
aI420
aI53
aI102
aI22
aI3
aI3
aI31
aI28
aI8
aI30
aI103
aI139
asS'reyng001'
p1466
(lp1467
g1466
aS'Greg Reynolds'
p1468
aI9
aI7
aI1
aI1
aI1
aI0
aI0
aI0
aI0
aI0
aI0
aI4
aI2
asS'kazms001'
p1469
(lp1470
g1469
aS'Scott Kazmir'
p1471
aI4
aI4
aI0
aI1
aI0
aI0
aI0
aI0
aI0
aI0
aI0
aI1
aI1
asS'parmc001'
p1472
(lp1473
g1472
aS'Chris Parmelee'
p1474
aI333
aI294
aI21
aI67
aI13
aI0
aI8
aI24
aI1
aI1
aI33
aI81
aI104
asS'kotsm001'
p1475
(lp1476
g1475
aS'Mark Kotsay'
p1477
aI171
aI155
aI8
aI30
aI2
aI0
aI1
aI12
aI0
aI2
aI13
aI25
aI35
asS'vogts001'
p1478
(lp1479
g1478
aS'Stephen Vogt'
p1480
aI148
aI135
aI18
aI34
aI6
aI1
aI4
aI16
aI0
aI1
aI9
aI28
aI54
asS'volqe001'
p1481
(lp1482
g1481
aS'Edinson Volquez'
p1483
aI52
aI42
aI4
aI5
aI1
aI0
aI1
aI4
aI0
aI0
aI1
aI23
aI9
asS'porcr001'
p1484
(lp1485
g1484
aS'Rick Porcello'
p1486
aI3
aI3
aI0
aI1
aI0
aI0
aI0
aI0
aI0
aI0
aI0
aI0
aI1
asS'ellsj001'
p1487
(lp1488
g1487
aS'Jacoby Ellsbury'
p1489
aI636
aI577
aI92
aI172
aI31
aI8
aI9
aI53
aI52
aI4
aI47
aI92
aI246
asS'sante001'
p1490
(lp1491
g1490
aS'Ervin Santana'
p1492
aI4
aI4
aI0
aI1
aI0
aI0
aI0
aI0
aI0
aI0
aI0
aI2
aI1
asS'iwakh001'
p1493
(lp1494
g1493
aS'Hisashi Iwakuma'
p1495
aI3
aI3
aI0
aI0
aI0
aI0
aI0
aI0
aI0
aI0
aI0
aI2
aI0
asS'keppj001'
p1496
(lp1497
g1496
aS'Jeff Keppinger'
p1498
aI451
aI423
aI38
aI107
aI13
aI1
aI4
aI40
aI0
aI1
aI20
aI41
aI134
asS'klubc001'
p1499
(lp1500
g1499
aS'Corey Kluber'
p1501
aI3
aI2
aI1
aI0
aI0
aI0
aI0
aI0
aI0
aI0
aI1
aI1
aI0
asS'cruzn002'
p1502
(lp1503
g1502
aS'Nelson Cruz'
p1504
aI456
aI413
aI49
aI110
aI18
aI0
aI27
aI76
aI5
aI1
aI35
aI109
aI209
asS'ortid001'
p1505
(lp1506
g1505
aS'David Ortiz'
p1507
aI600
aI518
aI84
aI160
aI38
aI2
aI30
aI103
aI4
aI0
aI76
aI88
aI292
asS'cainl001'
p1508
(lp1509
g1508
aS'Lorenzo Cain'
p1510
aI442
aI399
aI54
aI100
aI21
aI3
aI4
aI46
aI14
aI6
aI33
aI90
aI139
asS'ryu-h001'
p1511
(lp1512
g1511
aS'Hyun-Jin Ryu'
p1513
aI66
aI58
aI5
aI12
aI3
aI1
aI0
aI5
aI0
aI0
aI2
aI23
aI17
asS'gonzg003'
p1514
(lp1515
g1514
aS'Gio Gonzalez'
p1516
aI66
aI56
aI2
aI5
aI1
aI0
aI1
aI1
aI0
aI0
aI1
aI16
aI9
asS'soton001'
p1517
(lp1518
g1517
aS'Neftali Soto'
p1519
aI13
aI12
aI0
aI0
aI0
aI0
aI0
aI0
aI0
aI0
aI0
aI6
aI0
asS'hafnt001'
p1520
(lp1521
g1520
aS'Travis Hafner'
p1522
aI299
aI262
aI31
aI53
aI8
aI1
aI12
aI37
aI2
aI0
aI32
aI79
aI99
asS'richc002'
p1523
(lp1524
g1523
aS'Clayton Richard'
p1525
aI15
aI14
aI1
aI3
aI0
aI0
aI0
aI1
aI0
aI0
aI0
aI5
aI3
asS'dedus001'
p1526
(lp1527
g1526
aS'Samuel Deduno'
p1528
aI2
aI1
aI0
aI0
aI0
aI0
aI0
aI0
aI0
aI0
aI0
aI1
aI0
asS'berrq001'
p1529
(lp1530
g1529
aS'Quintin Berry'
p1531
aI9
aI8
aI5
aI5
aI0
aI0
aI1
aI4
aI3
aI0
aI1
aI2
aI8
asS'brotr001'
p1532
(lp1533
g1532
aS'Rex Brothers'
p1534
aI1
aI1
aI0
aI0
aI0
aI0
aI0
aI0
aI0
aI0
aI0
aI1
aI0
asS'craia001'
p1535
(lp1536
g1535
aS'Allen Craig'
p1537
aI563
aI508
aI71
aI160
aI29
aI2
aI13
aI97
aI2
aI0
aI40
aI100
aI232
asS'beacb001'
p1538
(lp1539
g1538
aS'Brandon Beachy'
p1540
aI12
aI8
aI1
aI1
aI0
aI0
aI0
aI0
aI0
aI0
aI1
aI3
aI1
asS'ariaj001'
p1541
(lp1542
g1541
aS'Joaquin Arias'
p1543
aI236
aI225
aI17
aI61
aI9
aI2
aI1
aI19
aI1
aI0
aI4
aI33
aI77
asS'santr002'
p1544
(lp1545
g1544
aS'Ramon Santiago'
p1546
aI234
aI205
aI27
aI46
aI8
aI1
aI1
aI14
aI0
aI1
aI21
aI32
aI59
asS'avill001'
p1547
(lp1548
g1547
aS'Luis Avilan'
p1549
aI1
aI0
aI0
aI0
aI0
aI0
aI0
aI0
aI0
aI0
aI0
aI0
aI0
asS'skipk001'
p1550
(lp1551
g1550
aS'Kyle Skipworth'
p1552
aI4
aI3
aI0
aI0
aI0
aI0
aI0
aI0
aI0
aI0
aI1
aI1
aI0
asS'utlec001'
p1553
(lp1554
g1553
aS'Chase Utley'
p1555
aI531
aI476
aI73
aI135
aI25
aI6
aI18
aI69
aI8
aI3
aI45
aI79
aI226
asS'ramow001'
p1556
(lp1557
g1556
aS'Wilson Ramos'
p1558
aI303
aI287
aI29
aI78
aI9
aI0
aI16
aI59
aI0
aI1
aI15
aI42
aI135
asS'grimj002'
p1559
(lp1560
g1559
aS'Justin Grimm'
p1561
aI1
aI1
aI0
aI0
aI0
aI0
aI0
aI0
aI0
aI0
aI0
aI0
aI0
asS'stasm001'
p1562
(lp1563
g1562
aS'Max Stassi'
p1564
aI8
aI7
aI0
aI2
aI0
aI0
aI0
aI1
aI0
aI0
aI0
aI2
aI2
asS'cunnt001'
p1565
(lp1566
g1565
aS'Todd Cunningham'
p1567
aI8
aI8
aI2
aI2
aI0
aI0
aI0
aI0
aI0
aI0
aI0
aI3
aI2
asS'marcs001'
p1568
(lp1569
g1568
aS'Shaun Marcum'
p1570
aI27
aI22
aI0
aI3
aI1
aI0
aI0
aI0
aI0
aI0
aI0
aI5
aI4
asS'valed001'
p1571
(lp1572
g1571
aS'Danny Valencia'
p1573
aI170
aI161
aI20
aI49
aI14
aI1
aI8
aI23
aI0
aI2
aI8
aI33
aI89
asS'gonzm004'
p1574
(lp1575
g1574
aS'Miguel Gonzalez'
p1576
aI9
aI9
aI0
aI2
aI0
aI0
aI0
aI0
aI0
aI0
aI0
aI3
aI2
asS'rosaw001'
p1577
(lp1578
g1577
aS'Wilin Rosario'
p1579
aI466
aI449
aI63
aI131
aI22
aI1
aI21
aI79
aI4
aI1
aI15
aI109
aI218
asS'solaj002'
p1580
(lp1581
g1580
aS'Jhonatan Solano'
p1582
aI50
aI48
aI2
aI7
aI2
aI0
aI0
aI2
aI0
aI1
aI2
aI7
aI9
asS'novai001'
p1583
(lp1584
g1583
aS'Ivan Nova'
p1585
aI3
aI3
aI0
aI0
aI0
aI0
aI0
aI0
aI0
aI0
aI0
aI3
aI0
asS'manes001'
p1586
(lp1587
g1586
aS'Seth Maness'
p1588
aI5
aI5
aI0
aI1
aI0
aI0
aI0
aI0
aI0
aI0
aI0
aI3
aI1
asS'consj001'
p1589
(lp1590
g1589
aS'Jose Constanza'
p1591
aI31
aI31
aI2
aI8
aI0
aI0
aI0
aI3
aI0
aI3
aI0
aI5
aI8
asS'watkl001'
p1592
(lp1593
g1592
aS'Logan Watkins'
p1594
aI42
aI38
aI2
aI8
aI1
aI0
aI0
aI0
aI0
aI0
aI3
aI14
aI9
asS'mahoj001'
p1595
(lp1596
g1595
aS'Joe Mahoney'
p1597
aI29
aI29
aI2
aI8
aI1
aI0
aI1
aI4
aI0
aI0
aI0
aI4
aI12
asS'schoj001'
p1598
(lp1599
g1598
aS'Jonathan Schoop'
p1600
aI15
aI14
aI5
aI4
aI0
aI0
aI1
aI1
aI0
aI0
aI1
aI2
aI7
asS'seagk001'
p1601
(lp1602
g1601
aS'Kyle Seager'
p1603
aI695
aI615
aI79
aI160
aI32
aI2
aI22
aI69
aI9
aI3
aI68
aI122
aI262
asS'laffa001'
p1604
(lp1605
g1604
aS'Aaron Laffey'
p1606
aI3
aI3
aI0
aI0
aI0
aI0
aI0
aI0
aI0
aI0
aI0
aI1
aI0
asS'montm001'
p1607
(lp1608
g1607
aS'Miguel Montero'
p1609
aI475
aI413
aI44
aI95
aI14
aI0
aI11
aI42
aI0
aI0
aI51
aI110
aI142
asS'giamj001'
p1610
(lp1611
g1610
aS'Jason Giambi'
p1612
aI216
aI186
aI21
aI34
aI8
aI0
aI9
aI31
aI0
aI1
aI23
aI56
aI69
asS'marsl001'
p1613
(lp1614
g1613
aS'Lou Marson'
p1615
aI5
aI3
aI0
aI0
aI0
aI0
aI0
aI0
aI0
aI0
aI2
aI0
aI0
asS'brucj001'
p1616
(lp1617
g1616
aS'Jay Bruce'
p1618
aI697
aI626
aI89
aI164
aI43
aI1
aI30
aI109
aI7
aI3
aI63
aI185
aI299
asS'youkk001'
p1619
(lp1620
g1619
aS'Kevin Youkilis'
p1621
aI118
aI105
aI12
aI23
aI7
aI0
aI2
aI8
aI0
aI0
aI8
aI31
aI36
asS'ogana001'
p1622
(lp1623
g1622
aS'Alexi Ogando'
p1624
aI1
aI1
aI0
aI0
aI0
aI0
aI0
aI0
aI0
aI0
aI0
aI1
aI0
asS'zunim001'
p1625
(lp1626
g1625
aS'Mike Zunino'
p1627
aI193
aI173
aI22
aI37
aI5
aI0
aI5
aI14
aI1
aI0
aI16
aI49
aI57
asS'parrm001'
p1628
(lp1629
g1628
aS'Manny Parra'
p1630
aI2
aI2
aI1
aI1
aI0
aI0
aI0
aI0
aI0
aI0
aI0
aI0
aI1
asS'fryee001'
p1631
(lp1632
g1631
aS'Eric Fryer'
p1633
aI16
aI13
aI2
aI5
aI1
aI0
aI1
aI4
aI0
aI0
aI3
aI3
aI9
asS'fifes001'
p1634
(lp1635
g1634
aS'Stephen Fife'
p1636
aI18
aI17
aI0
aI1
aI0
aI0
aI0
aI0
aI0
aI0
aI1
aI12
aI1
asS'blacc001'
p1637
(lp1638
g1637
aS'Charlie Blackmon'
p1639
aI258
aI246
aI35
aI76
aI17
aI2
aI6
aI22
aI7
aI0
aI7
aI49
aI115
asS'lemad001'
p1640
(lp1641
g1640
aS'DJ LeMahieu'
p1642
aI434
aI404
aI39
aI113
aI21
aI3
aI2
aI28
aI18
aI7
aI19
aI67
aI146
asS'heltt001'
p1643
(lp1644
g1643
aS'Todd Helton'
p1645
aI442
aI397
aI41
aI99
aI22
aI1
aI15
aI61
aI0
aI0
aI40
aI87
aI168
asS'couss001'
p1646
(lp1647
g1646
aS'Scott Cousins'
p1648
aI5
aI4
aI1
aI0
aI0
aI0
aI0
aI0
aI0
aI0
aI1
aI3
aI0
asS'schus001'
p1649
(lp1650
g1649
aS'Skip Schumaker'
p1651
aI356
aI319
aI31
aI84
aI16
aI0
aI2
aI30
aI2
aI2
aI28
aI54
aI106
asS'belte002'
p1652
(lp1653
g1652
aS'Engel Beltre'
p1654
aI42
aI40
aI7
aI10
aI1
aI0
aI0
aI2
aI1
aI2
aI0
aI5
aI11
asS'pench001'
p1655
(lp1656
g1655
aS'Hunter Pence'
p1657
aI687
aI629
aI91
aI178
aI35
aI5
aI27
aI99
aI22
aI3
aI52
aI115
aI304
asS'gonza005'
p1658
(lp1659
g1658
aS'Alberto Gonzalez'
p1660
aI60
aI57
aI6
aI11
aI2
aI0
aI1
aI6
aI0
aI0
aI2
aI12
aI16
asS'pillb001'
p1661
(lp1662
g1661
aS'Brett Pill'
p1663
aI92
aI85
aI11
aI19
aI4
aI0
aI3
aI12
aI0
aI0
aI5
aI17
aI32
asS'lucae001'
p1664
(lp1665
g1664
aS'Ed Lucas'
p1666
aI384
aI351
aI43
aI90
aI14
aI1
aI4
aI28
aI1
aI1
aI26
aI78
aI118
asS'harrl002'
p1667
(lp1668
g1667
aS'Lucas Harrell'
p1669
aI6
aI4
aI0
aI1
aI0
aI0
aI0
aI0
aI0
aI0
aI2
aI2
aI1
asS'morem001'
p1670
(lp1671
g1670
aS'Mitch Moreland'
p1672
aI518
aI462
aI60
aI107
aI24
aI1
aI23
aI60
aI0
aI0
aI45
aI117
aI202
asS'gonza003'
p1673
(lp1674
g1673
aS'Adrian Gonzalez'
p1675
aI641
aI583
aI69
aI171
aI32
aI0
aI22
aI100
aI1
aI0
aI47
aI98
aI269
asS'gonza002'
p1676
(lp1677
g1676
aS'Alex Gonzalez'
p1678
aI118
aI113
aI14
aI20
aI3
aI0
aI1
aI8
aI0
aI0
aI3
aI26
aI26
asS'stutm001'
p1679
(lp1680
g1679
aS'Michael Stutes'
p1681
aI1
aI1
aI0
aI0
aI0
aI0
aI0
aI0
aI0
aI0
aI0
aI0
aI0
asS'jonea003'
p1682
(lp1683
g1682
aS'Adam Jones'
p1684
aI689
aI653
aI100
aI186
aI35
aI1
aI33
aI108
aI14
aI3
aI25
aI136
aI322
asS'nelsc001'
p1685
(lp1686
g1685
aS'Chris Nelson'
p1687
aI227
aI211
aI19
aI48
aI4
aI4
aI3
aI24
aI2
aI1
aI13
aI66
aI69
asS'bailh001'
p1688
(lp1689
g1688
aS'Homer Bailey'
p1690
aI73
aI58
aI3
aI9
aI1
aI0
aI0
aI1
aI0
aI0
aI3
aI18
aI10
asS'waltz001'
p1691
(lp1692
g1691
aS'Zach Walters'
p1693
aI9
aI8
aI2
aI3
aI0
aI1
aI0
aI1
aI0
aI0
aI1
aI0
aI5
asS'belim001'
p1694
(lp1695
g1694
aS'Matt Belisle'
p1696
aI1
aI1
aI0
aI0
aI0
aI0
aI0
aI0
aI0
aI0
aI0
aI1
aI0
asS'dozib001'
p1697
(lp1698
g1697
aS'Brian Dozier'
p1699
aI623
aI558
aI72
aI136
aI33
aI4
aI18
aI66
aI14
aI7
aI51
aI120
aI231
asS'wellc001'
p1700
(lp1701
g1700
aS'Casper Wells'
p1702
aI102
aI95
aI6
aI12
aI2
aI0
aI0
aI1
aI0
aI1
aI7
aI31
aI14
asS'kotcc001'
p1703
(lp1704
g1703
aS'Casey Kotchman'
p1705
aI21
aI20
aI0
aI0
aI0
aI0
aI0
aI1
aI0
aI0
aI1
aI1
aI0
asS'kawam001'
p1706
(lp1707
g1706
aS'Munenori Kawasaki'
p1708
aI289
aI240
aI27
aI55
aI6
aI5
aI1
aI24
aI7
aI1
aI32
aI41
aI74
asS'bantb001'
p1709
(lp1710
g1709
aS'Brandon Bantz'
p1711
aI2
aI2
aI0
aI0
aI0
aI0
aI0
aI0
aI0
aI0
aI0
aI1
aI0
asS'freed001'
p1712
(lp1713
g1712
aS'David Freese'
p1714
aI521
aI462
aI53
aI121
aI26
aI1
aI9
aI60
aI1
aI2
aI47
aI106
aI176
asS'spruz001'
p1715
(lp1716
g1715
aS'Zeke Spruill'
p1717
aI1
aI1
aI0
aI0
aI0
aI0
aI0
aI0
aI0
aI0
aI0
aI1
aI0
asS'linda001'
p1718
(lp1719
g1718
aS'Adam Lind'
p1720
aI521
aI465
aI67
aI134
aI26
aI1
aI23
aI67
aI1
aI0
aI51
aI103
aI231
asS'villc001'
p1721
(lp1722
g1721
aS'Carlos Villanueva'
p1723
aI34
aI32
aI2
aI5
aI0
aI0
aI0
aI1
aI0
aI0
aI0
aI15
aI5
asS'konep001'
p1724
(lp1725
g1724
aS'Paul Konerko'
p1726
aI520
aI467
aI41
aI114
aI16
aI0
aI12
aI54
aI0
aI0
aI45
aI74
aI166
asS'denoc001'
p1727
(lp1728
g1727
aS'Chris Denorfia'
p1729
aI520
aI473
aI67
aI132
aI21
aI2
aI10
aI47
aI11
aI0
aI42
aI84
aI187
asS'coloa001'
p1730
(lp1731
g1730
aS'Alex Colome'
p1732
aI2
aI2
aI0
aI0
aI0
aI0
aI0
aI0
aI0
aI0
aI0
aI1
aI0
asS'lougd001'
p1733
(lp1734
g1733
aS'David Lough'
p1735
aI335
aI315
aI35
aI90
aI17
aI4
aI5
aI33
aI5
aI2
aI10
aI52
aI130
asS'sweer001'
p1736
(lp1737
g1736
aS'Ryan Sweeney'
p1738
aI212
aI192
aI18
aI51
aI13
aI2
aI6
aI19
aI1
aI0
aI17
aI31
aI86
asS'dunna001'
p1739
(lp1740
g1739
aS'Adam Dunn'
p1741
aI607
aI525
aI60
aI115
aI15
aI0
aI34
aI86
aI1
aI1
aI76
aI189
aI232
asS'browj006'
p1742
(lp1743
g1742
aS'Jordan Brown'
p1744
aI17
aI15
aI0
aI3
aI1
aI0
aI0
aI5
aI0
aI0
aI1
aI1
aI4
asS'mendl001'
p1745
(lp1746
g1745
aS'Luis Mendoza'
p1747
aI5
aI5
aI0
aI2
aI0
aI0
aI0
aI1
aI0
aI0
aI0
aI2
aI2
asS'philb001'
p1748
(lp1749
g1748
aS'Brandon Phillips'
p1750
aI666
aI606
aI80
aI158
aI24
aI2
aI18
aI103
aI5
aI3
aI39
aI98
aI240
asS'canor001'
p1751
(lp1752
g1751
aS'Robinson Cano'
p1753
aI681
aI605
aI81
aI190
aI41
aI0
aI27
aI107
aI7
aI1
aI65
aI85
aI312
asS'quinj001'
p1754
(lp1755
g1754
aS'Jose Quintana'
p1756
aI2
aI2
aI0
aI0
aI0
aI0
aI0
aI0
aI0
aI0
aI0
aI1
aI0
asS'ceder002'
p1757
(lp1758
g1757
aS'Ronny Cedeno'
p1759
aI288
aI264
aI24
aI64
aI8
aI3
aI3
aI21
aI5
aI4
aI14
aI73
aI87
asS'gee-d001'
p1760
(lp1761
g1760
aS'Dillon Gee'
p1762
aI71
aI60
aI0
aI8
aI0
aI1
aI0
aI4
aI0
aI0
aI3
aI30
aI10
asS'robid002'
p1763
(lp1764
g1763
aS'Derrick Robinson'
p1765
aI216
aI192
aI21
aI49
aI7
aI3
aI0
aI8
aI4
aI5
aI18
aI44
aI62
asS'ramia003'
p1766
(lp1767
g1766
aS'Alexei Ramirez'
p1768
aI674
aI637
aI68
aI181
aI39
aI2
aI6
aI48
aI30
aI9
aI26
aI68
aI242
asS'lirif001'
p1769
(lp1770
g1769
aS'Francisco Liriano'
p1771
aI56
aI47
aI0
aI3
aI0
aI0
aI0
aI1
aI0
aI0
aI4
aI18
aI3
asS'gomej002'
p1772
(lp1773
g1772
aS'Jeanmar Gomez'
p1774
aI13
aI13
aI0
aI1
aI0
aI0
aI0
aI0
aI0
aI0
aI0
aI9
aI1
asS'getzc001'
p1775
(lp1776
g1775
aS'Chris Getz'
p1777
aI237
aI209
aI29
aI46
aI6
aI1
aI1
aI18
aI16
aI3
aI20
aI24
aI57
asS'pagaa001'
p1778
(lp1779
g1778
aS'Angel Pagan'
p1780
aI305
aI280
aI44
aI79
aI16
aI3
aI5
aI30
aI9
aI4
aI23
aI36
aI116
asS'hairj002'
p1781
(lp1782
g1781
aS'Jerry Hairston'
p1783
aI226
aI204
aI17
aI43
aI7
aI0
aI2
aI22
aI0
aI0
aI14
aI22
aI56
asS'osuls001'
p1784
(lp1785
g1784
aS"Sean O'Sullivan"
p1786
aI6
aI6
aI0
aI1
aI1
aI0
aI0
aI0
aI0
aI0
aI0
aI4
aI2
asS'urruh001'
p1787
(lp1788
g1787
aS'Henry Urrutia'
p1789
aI58
aI58
aI5
aI16
aI0
aI1
aI0
aI2
aI0
aI0
aI0
aI11
aI18
asS'phelc001'
p1790
(lp1791
g1790
aS'Cord Phelps'
p1792
aI9
aI9
aI0
aI0
aI0
aI0
aI0
aI0
aI0
aI0
aI0
aI2
aI0
asS'swara001'
p1793
(lp1794
g1793
aS'Anthony Swarzak'
p1795
aI1
aI1
aI0
aI0
aI0
aI0
aI0
aI0
aI0
aI0
aI0
aI1
aI0
asS'recka001'
p1796
(lp1797
g1796
aS'Anthony Recker'
p1798
aI151
aI135
aI17
aI29
aI7
aI0
aI6
aI19
aI0
aI1
aI13
aI49
aI54
asS'descd001'
p1799
(lp1800
g1799
aS'Daniel Descalso'
p1801
aI358
aI328
aI43
aI78
aI25
aI1
aI5
aI43
aI6
aI3
aI22
aI56
aI120
asS'kobej001'
p1802
(lp1803
g1802
aS'Jeff Kobernus'
p1804
aI36
aI30
aI8
aI5
aI0
aI0
aI1
aI1
aI3
aI2
aI5
aI6
aI8
asS'badeb001'
p1805
(lp1806
g1805
aS'Burke Badenhop'
p1807
aI1
aI1
aI0
aI0
aI0
aI0
aI0
aI0
aI0
aI0
aI0
aI1
aI0
asS'marqj001'
p1808
(lp1809
g1808
aS'Jason Marquis'
p1810
aI43
aI42
aI0
aI5
aI1
aI0
aI0
aI2
aI0
aI0
aI0
aI12
aI6
asS'salaf001'
p1811
(lp1812
g1811
aS'Fernando Salas'
p1813
aI2
aI2
aI0
aI0
aI0
aI0
aI0
aI0
aI0
aI0
aI0
aI1
aI0
asS'bogax001'
p1814
(lp1815
g1814
aS'Xander Bogaerts'
p1816
aI50
aI44
aI7
aI11
aI2
aI0
aI1
aI5
aI1
aI0
aI5
aI13
aI16
asS'kempm001'
p1817
(lp1818
g1817
aS'Matt Kemp'
p1819
aI290
aI263
aI35
aI71
aI15
aI0
aI6
aI33
aI9
aI0
aI22
aI76
aI104
asS'garcl004'
p1820
(lp1821
g1820
aS'Leury Garcia'
p1822
aI111
aI101
aI10
aI20
aI1
aI1
aI0
aI2
aI7
aI2
aI7
aI34
aI23
asS'darvy001'
p1823
(lp1824
g1823
aS'Yu Darvish'
p1825
aI3
aI3
aI0
aI0
aI0
aI0
aI0
aI0
aI0
aI0
aI0
aI2
aI0
asS'fernj003'
p1826
(lp1827
g1826
aS'Jose Fernandez'
p1828
aI58
aI50
aI5
aI11
aI1
aI1
aI1
aI5
aI0
aI0
aI0
aI20
aI17
asS'victs001'
p1829
(lp1830
g1829
aS'Shane Victorino'
p1831
aI532
aI477
aI82
aI140
aI26
aI2
aI15
aI61
aI21
aI3
aI25
aI75
aI215
asS'hefnj001'
p1832
(lp1833
g1832
aS'Jeremy Hefner'
p1834
aI39
aI32
aI0
aI0
aI0
aI0
aI0
aI1
aI0
aI0
aI1
aI21
aI0
asS'shucj001'
p1835
(lp1836
g1835
aS'J.B. Shuck'
p1837
aI478
aI437
aI60
aI128
aI20
aI3
aI2
aI39
aI8
aI4
aI27
aI54
aI160
asS'overl001'
p1838
(lp1839
g1838
aS'Lyle Overbay'
p1840
aI486
aI445
aI43
aI107
aI24
aI1
aI14
aI59
aI2
aI0
aI36
aI111
aI175
asS'haraa001'
p1841
(lp1842
g1841
aS'Aaron Harang'
p1843
aI11
aI11
aI1
aI2
aI0
aI0
aI0
aI0
aI0
aI0
aI0
aI6
aI2
asS'casts001'
p1844
(lp1845
g1844
aS'Starlin Castro'
p1846
aI705
aI666
aI59
aI163
aI34
aI2
aI10
aI44
aI9
aI6
aI30
aI129
aI231
asS'fielt001'
p1847
(lp1848
g1847
aS'Tommy Field'
p1849
aI27
aI26
aI4
aI4
aI0
aI0
aI0
aI0
aI0
aI0
aI1
aI7
aI4
asS'seguj002'
p1850
(lp1851
g1850
aS'Jean Segura'
p1852
aI623
aI588
aI73
aI173
aI20
aI10
aI12
aI49
aI44
aI13
aI25
aI84
aI249
asS'petiy001'
p1853
(lp1854
g1853
aS'Yusmeiro Petit'
p1855
aI17
aI16
aI0
aI1
aI0
aI0
aI0
aI2
aI0
aI0
aI1
aI5
aI1
asS'pricd001'
p1856
(lp1857
g1856
aS'David Price'
p1858
aI6
aI6
aI0
aI0
aI0
aI0
aI0
aI0
aI0
aI0
aI0
aI2
aI0
asS'maybj001'
p1859
(lp1860
g1859
aS'John Mayberry'
p1861
aI384
aI353
aI47
aI80
aI23
aI1
aI11
aI39
aI5
aI3
aI27
aI90
aI138
asS'rusic001'
p1862
(lp1863
g1862
aS'Chris Rusin'
p1864
aI21
aI19
aI1
aI2
aI0
aI0
aI0
aI2
aI0
aI0
aI0
aI3
aI2
asS'poseb001'
p1865
(lp1866
g1865
aS'Buster Posey'
p1867
aI595
aI520
aI61
aI153
aI34
aI1
aI15
aI72
aI2
aI1
aI60
aI70
aI234
asS'turnj002'
p1868
(lp1869
g1868
aS'Jacob Turner'
p1870
aI38
aI35
aI0
aI3
aI0
aI1
aI0
aI0
aI0
aI0
aI0
aI16
aI5
asS'marrc001'
p1871
(lp1872
g1871
aS'Chris Marrero'
p1873
aI16
aI16
aI0
aI2
aI0
aI0
aI0
aI1
aI0
aI0
aI0
aI4
aI2
asS'barmc001'
p1874
(lp1875
g1874
aS'Clint Barmes'
p1876
aI330
aI304
aI22
aI64
aI15
aI0
aI5
aI23
aI0
aI0
aI14
aI70
aI94
asS'owinc001'
p1877
(lp1878
g1877
aS'Chris Owings'
p1879
aI61
aI55
aI5
aI16
aI5
aI0
aI0
aI5
aI2
aI0
aI6
aI10
aI21
asS'leroc001'
p1880
(lp1881
g1880
aS'Chris Leroux'
p1882
aI1
aI1
aI0
aI0
aI0
aI0
aI0
aI0
aI0
aI0
aI0
aI0
aI0
asS'scahr001'
p1883
(lp1884
g1883
aS'Rob Scahill'
p1885
aI1
aI1
aI0
aI0
aI0
aI0
aI0
aI0
aI0
aI0
aI0
aI0
aI0
asS'medit001'
p1886
(lp1887
g1886
aS'Tommy Medica'
p1888
aI79
aI69
aI9
aI20
aI2
aI0
aI3
aI10
aI0
aI0
aI10
aI23
aI31
asS'cruzl001'
p1889
(lp1890
g1889
aS'Luis Cruz'
p1891
aI187
aI173
aI18
aI25
aI3
aI0
aI1
aI11
aI1
aI0
aI6
aI33
aI31
asS'vottj001'
p1892
(lp1893
g1892
aS'Joey Votto'
p1894
aI726
aI581
aI101
aI177
aI30
aI3
aI24
aI73
aI6
aI3
aI135
aI138
aI285
asS'rossd001'
p1895
(lp1896
g1895
aS'David Ross'
p1897
aI116
aI102
aI11
aI22
aI5
aI0
aI4
aI10
aI1
aI0
aI11
aI42
aI39
asS'teixm001'
p1898
(lp1899
g1898
aS'Mark Teixeira'
p1900
aI63
aI53
aI5
aI8
aI1
aI0
aI3
aI12
aI0
aI0
aI8
aI19
aI18
asS'deaza001'
p1901
(lp1902
g1901
aS'Alejandro de Aza'
p1903
aI675
aI607
aI84
aI160
aI27
aI4
aI17
aI62
aI20
aI8
aI50
aI147
aI246
asS'iztuc001'
p1904
(lp1905
g1904
aS'Cesar Izturis'
p1906
aI142
aI129
aI6
aI27
aI8
aI0
aI0
aI11
aI0
aI0
aI9
aI13
aI35
asS'robis001'
p1907
(lp1908
g1907
aS'Shane Robinson'
p1909
aI171
aI144
aI22
aI36
aI2
aI1
aI2
aI16
aI5
aI1
aI23
aI17
aI46
asS'skagt001'
p1910
(lp1911
g1910
aS'Tyler Skaggs'
p1912
aI13
aI10
aI0
aI2
aI0
aI0
aI0
aI1
aI0
aI0
aI0
aI5
aI2
asS'martf002'
p1913
(lp1914
g1913
aS'Fernando Martinez'
p1915
aI35
aI33
aI1
aI6
aI0
aI0
aI1
aI3
aI0
aI0
aI1
aI12
aI9
asS'drews001'
p1916
(lp1917
g1916
aS'Stephen Drew'
p1918
aI501
aI442
aI57
aI112
aI29
aI8
aI13
aI67
aI6
aI0
aI54
aI124
aI196
asS'troum001'
p1919
(lp1920
g1919
aS'Mike Trout'
p1921
aI716
aI589
aI109
aI190
aI39
aI9
aI27
aI97
aI33
aI7
aI110
aI136
aI328
asS'navae001'
p1922
(lp1923
g1922
aS'Efren Navarro'
p1924
aI6
aI4
aI0
aI1
aI0
aI0
aI0
aI1
aI1
aI0
aI2
aI1
aI1
asS'abret001'
p1925
(lp1926
g1925
aS'Tony Abreu'
p1927
aI147
aI138
aI21
aI37
aI12
aI3
aI2
aI14
aI0
aI2
aI6
aI33
aI61
asS'pettj001'
p1928
(lp1929
g1928
aS'Jonathan Pettibone'
p1930
aI32
aI29
aI4
aI3
aI1
aI0
aI0
aI0
aI0
aI0
aI3
aI14
aI4
asS'murpd005'
p1931
(lp1932
g1931
aS'David Murphy'
p1933
aI476
aI436
aI51
aI96
aI26
aI1
aI13
aI45
aI1
aI4
aI37
aI59
aI163
asS'gaudc001'
p1934
(lp1935
g1934
aS'Chad Gaudin'
p1936
aI29
aI25
aI0
aI1
aI0
aI0
aI0
aI1
aI0
aI0
aI2
aI14
aI1
asS'minom001'
p1937
(lp1938
g1937
aS'Mike Minor'
p1939
aI70
aI61
aI3
aI10
aI1
aI0
aI1
aI6
aI0
aI0
aI2
aI25
aI14
asS'woodt004'
p1940
(lp1941
g1940
aS'Travis Wood'
p1942
aI67
aI63
aI8
aI14
aI1
aI0
aI3
aI8
aI1
aI0
aI3
aI21
aI24
asS'lairg001'
p1943
(lp1944
g1943
aS'Gerald Laird'
p1945
aI141
aI121
aI12
aI34
aI8
aI0
aI1
aI13
aI1
aI1
aI14
aI23
aI45
asS'hallr001'
p1946
(lp1947
g1946
aS'Roy Halladay'
p1948
aI20
aI18
aI0
aI0
aI0
aI0
aI0
aI1
aI0
aI0
aI1
aI17
aI0
asS'uptoj001'
p1949
(lp1950
g1949
aS'Justin Upton'
p1951
aI643
aI558
aI94
aI147
aI27
aI2
aI27
aI70
aI8
aI1
aI75
aI161
aI259
asS'jasoj001'
p1952
(lp1953
g1952
aS'John Jaso'
p1954
aI249
aI207
aI31
aI56
aI12
aI0
aI3
aI21
aI2
aI1
aI38
aI45
aI77
asS'sandp001'
p1955
(lp1956
g1955
aS'Pablo Sandoval'
p1957
aI584
aI525
aI52
aI146
aI27
aI2
aI14
aI79
aI0
aI0
aI47
aI79
aI219
asS'franj005'
p1958
(lp1959
g1958
aS'Juan Francisco'
p1960
aI385
aI348
aI36
aI79
aI12
aI1
aI18
aI48
aI0
aI2
aI32
aI138
aI147
asS'moorm003'
p1961
(lp1962
g1961
aS'Matt Moore'
p1963
aI2
aI2
aI0
aI0
aI0
aI0
aI0
aI0
aI0
aI0
aI0
aI0
aI0
asS'franj003'
p1964
(lp1965
g1964
aS'Jeff Francis'
p1966
aI20
aI14
aI0
aI1
aI1
aI0
aI0
aI1
aI0
aI0
aI2
aI3
aI2
asS'bianj001'
p1967
(lp1968
g1967
aS'Jeff Bianchi'
p1969
aI252
aI236
aI22
aI56
aI8
aI1
aI1
aI25
aI4
aI4
aI11
aI46
aI69
asS'penab002'
p1970
(lp1971
g1970
aS'Brayan Pena'
p1972
aI243
aI229
aI19
aI68
aI11
aI0
aI4
aI22
aI0
aI2
aI6
aI26
aI91
asS'goldp001'
p1973
(lp1974
g1973
aS'Paul Goldschmidt'
p1975
aI710
aI602
aI103
aI182
aI36
aI3
aI36
aI125
aI15
aI7
aI99
aI145
aI332
asS'gillc001'
p1976
(lp1977
g1976
aS'Conor Gillaspie'
p1978
aI452
aI408
aI46
aI100
aI14
aI3
aI13
aI40
aI0
aI1
aI37
aI79
aI159
asS'hernc005'
p1979
(lp1980
g1979
aS'Cesar Hernandez'
p1981
aI131
aI121
aI17
aI35
aI5
aI0
aI0
aI10
aI0
aI3
aI9
aI26
aI40
asS'berkl001'
p1982
(lp1983
g1982
aS'Lance Berkman'
p1984
aI294
aI256
aI27
aI62
aI10
aI1
aI6
aI34
aI0
aI0
aI38
aI52
aI92
asS'dysoj001'
p1985
(lp1986
g1985
aS'Jarrod Dyson'
p1987
aI239
aI213
aI30
aI55
aI9
aI4
aI2
aI17
aI34
aI6
aI21
aI45
aI78
asS'shiej002'
p1988
(lp1989
g1988
aS'James Shields'
p1990
aI3
aI3
aI1
aI1
aI0
aI0
aI0
aI0
aI0
aI0
aI0
aI1
aI1
asS'lutzz001'
p1991
(lp1992
g1991
aS'Zach Lutz'
p1993
aI26
aI20
aI2
aI6
aI2
aI0
aI0
aI2
aI0
aI0
aI6
aI6
aI8
asS'reyej001'
p1994
(lp1995
g1994
aS'Jose Reyes'
p1996
aI419
aI382
aI58
aI113
aI20
aI0
aI10
aI37
aI15
aI6
aI34
aI47
aI163
asS'voger001'
p1997
(lp1998
g1997
aS'Ryan Vogelsong'
p1999
aI36
aI29
aI2
aI2
aI0
aI0
aI0
aI2
aI0
aI0
aI3
aI17
aI2
asS'garcj004'
p2000
(lp2001
g2000
aS'Jaime Garcia'
p2002
aI21
aI21
aI0
aI0
aI0
aI0
aI0
aI0
aI0
aI0
aI0
aI10
aI0
asS'mesam001'
p2003
(lp2004
g2003
aS'Melky Mesa'
p2005
aI14
aI13
aI2
aI5
aI2
aI0
aI0
aI1
aI0
aI1
aI1
aI2
aI7
asS'coghc001'
p2006
(lp2007
g2006
aS'Chris Coghlan'
p2008
aI214
aI195
aI10
aI50
aI10
aI3
aI1
aI10
aI2
aI0
aI17
aI43
aI69
asS'herre001'
p2009
(lp2010
g2009
aS'Elian Herrera'
p2011
aI8
aI8
aI0
aI2
aI0
aI0
aI0
aI0
aI0
aI0
aI0
aI2
aI2
asS'pennc001'
p2012
(lp2013
g2012
aS'Cliff Pennington'
p2014
aI299
aI269
aI25
aI65
aI13
aI1
aI1
aI18
aI2
aI0
aI26
aI54
aI83
asS'lannj001'
p2015
(lp2016
g2015
aS'John Lannan'
p2017
aI25
aI21
aI2
aI4
aI1
aI0
aI0
aI1
aI0
aI0
aI2
aI11
aI5
asS'burgh001'
p2018
(lp2019
g2018
aS'Hiram Burgos'
p2020
aI10
aI8
aI0
aI1
aI0
aI0
aI0
aI0
aI0
aI0
aI0
aI6
aI1
asS'johnk003'
p2021
(lp2022
g2021
aS'Kelly Johnson'
p2023
aI407
aI366
aI41
aI86
aI12
aI2
aI16
aI52
aI7
aI4
aI35
aI99
aI150
asS'martl004'
p2024
(lp2025
g2024
aS'Leonys Martin'
p2026
aI508
aI457
aI66
aI119
aI21
aI6
aI8
aI49
aI36
aI9
aI28
aI104
aI176
asS'johnk004'
p2027
(lp2028
g2027
aS'Kris Johnson'
p2029
aI3
aI2
aI0
aI0
aI0
aI0
aI0
aI0
aI0
aI0
aI0
aI1
aI0
asS'detwr001'
p2030
(lp2031
g2030
aS'Ross Detwiler'
p2032
aI25
aI22
aI1
aI2
aI0
aI0
aI0
aI0
aI0
aI0
aI1
aI17
aI2
asS'infao001'
p2033
(lp2034
g2033
aS'Omar Infante'
p2035
aI476
aI453
aI54
aI144
aI24
aI3
aI10
aI51
aI5
aI2
aI20
aI44
aI204
asS'pereh001'
p2036
(lp2037
g2036
aS'Hernan Perez'
p2038
aI71
aI66
aI12
aI13
aI0
aI1
aI0
aI5
aI1
aI0
aI2
aI15
aI15
asS'almoz001'
p2039
(lp2040
g2039
aS'Zoilo Almonte'
p2041
aI113
aI106
aI9
aI25
aI4
aI0
aI1
aI9
aI3
aI1
aI6
aI19
aI32
asS'garcf002'
p2042
(lp2043
g2042
aS'Freddy Garcia'
p2044
aI10
aI8
aI0
aI0
aI0
aI0
aI0
aI0
aI0
aI0
aI0
aI5
aI0
asS'mercj002'
p2045
(lp2046
g2045
aS'Jordy Mercer'
p2047
aI365
aI333
aI33
aI95
aI22
aI2
aI8
aI27
aI3
aI2
aI22
aI62
aI145
asS'cingt001'
p2048
(lp2049
g2048
aS'Tony Cingrani'
p2050
aI35
aI28
aI4
aI7
aI1
aI0
aI0
aI1
aI1
aI0
aI0
aI9
aI8
asS'hamec001'
p2051
(lp2052
g2051
aS'Cole Hamels'
p2053
aI71
aI56
aI4
aI10
aI1
aI1
aI0
aI5
aI0
aI1
aI1
aI24
aI13
asS'mansj001'
p2054
(lp2055
g2054
aS'Jeff Manship'
p2056
aI7
aI7
aI0
aI0
aI0
aI0
aI0
aI0
aI0
aI0
aI0
aI2
aI0
asS'bourm001'
p2057
(lp2058
g2057
aS'Michael Bourn'
p2059
aI575
aI525
aI75
aI138
aI21
aI6
aI6
aI51
aI23
aI12
aI40
aI132
aI189
asS'jacka001'
p2060
(lp2061
g2060
aS'Austin Jackson'
p2062
aI614
aI552
aI99
aI150
aI30
aI7
aI12
aI49
aI8
aI4
aI52
aI129
aI230
asS'holld003'
p2063
(lp2064
g2063
aS'Derek Holland'
p2065
aI8
aI5
aI1
aI0
aI0
aI0
aI0
aI0
aI0
aI0
aI2
aI3
aI0
asS'moscg001'
p2066
(lp2067
g2066
aS'Guillermo Moscoso'
p2068
aI3
aI2
aI0
aI0
aI0
aI0
aI0
aI0
aI0
aI0
aI0
aI1
aI0
asS'uribj002'
p2069
(lp2070
g2069
aS'Juan Uribe'
p2071
aI426
aI388
aI47
aI108
aI22
aI2
aI12
aI50
aI5
aI0
aI30
aI81
aI170
asS'ruggj001'
p2072
(lp2073
g2072
aS'Justin Ruggiano'
p2074
aI472
aI424
aI49
aI94
aI18
aI1
aI18
aI50
aI15
aI8
aI41
aI114
aI168
asS'chavj001'
p2075
(lp2076
g2075
aS'Jesse Chavez'
p2077
aI1
aI1
aI0
aI0
aI0
aI0
aI0
aI0
aI0
aI0
aI0
aI1
aI0
asS'laroa002'
p2078
(lp2079
g2078
aS'Andy LaRoche'
p2080
aI4
aI4
aI0
aI0
aI0
aI0
aI0
aI0
aI0
aI0
aI0
aI1
aI0
asS'laroa001'
p2081
(lp2082
g2081
aS'Adam LaRoche'
p2083
aI590
aI511
aI70
aI121
aI19
aI3
aI20
aI62
aI4
aI1
aI72
aI131
aI206
asS'ryanb002'
p2084
(lp2085
g2084
aS'Brendan Ryan'
p2086
aI349
aI319
aI30
aI63
aI12
aI0
aI4
aI22
aI4
aI2
aI23
aI73
aI87
asS'paulx001'
p2087
(lp2088
g2087
aS'Xavier Paul'
p2089
aI239
aI209
aI24
aI51
aI12
aI0
aI7
aI32
aI0
aI1
aI27
aI53
aI84
asS'norrd001'
p2090
(lp2091
g2090
aS'Derek Norris'
p2092
aI308
aI264
aI41
aI65
aI16
aI0
aI9
aI30
aI5
aI0
aI37
aI71
aI108
asS'weekr001'
p2093
(lp2094
g2093
aS'Rickie Weeks'
p2095
aI399
aI350
aI40
aI73
aI20
aI1
aI10
aI24
aI7
aI3
aI40
aI105
aI125
asS'savej001'
p2096
(lp2097
g2096
aS'Joe Savery'
p2098
aI1
aI0
aI0
aI0
aI0
aI0
aI0
aI0
aI0
aI0
aI0
aI0
aI0
asS'perej002'
p2099
(lp2100
g2099
aS'Juan Perez'
p2101
aI97
aI89
aI8
aI23
aI5
aI0
aI1
aI8
aI2
aI0
aI6
aI21
aI31
asS'janip001'
p2102
(lp2103
g2102
aS'Paul Janish'
p2104
aI45
aI41
aI7
aI7
aI2
aI0
aI0
aI2
aI0
aI0
aI3
aI11
aI9
asS'zitob001'
p2105
(lp2106
g2105
aS'Barry Zito'
p2107
aI43
aI34
aI3
aI5
aI0
aI0
aI0
aI2
aI0
aI0
aI0
aI8
aI5
asS'hannj001'
p2108
(lp2109
g2108
aS'Jack Hannahan'
p2110
aI162
aI139
aI12
aI30
aI5
aI1
aI1
aI14
aI0
aI0
aI19
aI38
aI40
asS'longe001'
p2111
(lp2112
g2111
aS'Evan Longoria'
p2113
aI693
aI614
aI91
aI165
aI39
aI3
aI32
aI88
aI1
aI0
aI70
aI162
aI306
asS'figaa001'
p2114
(lp2115
g2114
aS'Alfredo Figaro'
p2116
aI12
aI12
aI1
aI3
aI0
aI0
aI0
aI2
aI0
aI0
aI0
aI5
aI3
asS'saunj001'
p2117
(lp2118
g2117
aS'Joe Saunders'
p2119
aI6
aI5
aI0
aI0
aI0
aI0
aI0
aI0
aI0
aI0
aI0
aI2
aI0
asS'peavj001'
p2120
(lp2121
g2120
aS'Jake Peavy'
p2122
aI15
aI15
aI1
aI1
aI1
aI0
aI0
aI0
aI0
aI0
aI0
aI0
aI2
asS'shopk001'
p2123
(lp2124
g2123
aS'Kelly Shoppach'
p2125
aI127
aI109
aI11
aI21
aI7
aI0
aI3
aI9
aI0
aI0
aI12
aI46
aI37
asS'gomej001'
p2126
(lp2127
g2126
aS'Jonny Gomes'
p2128
aI366
aI312
aI49
aI77
aI17
aI0
aI13
aI52
aI1
aI0
aI43
aI89
aI133
asS'chapa001'
p2129
(lp2130
g2129
aS'Aroldis Chapman'
p2131
aI1
aI1
aI0
aI0
aI0
aI0
aI0
aI0
aI0
aI0
aI0
aI1
aI0
asS'jay-j001'
p2132
(lp2133
g2132
aS'Jon Jay'
p2134
aI628
aI548
aI75
aI151
aI27
aI2
aI7
aI67
aI10
aI5
aI52
aI103
aI203
asS'gastj001'
p2135
(lp2136
g2135
aS'John Gast'
p2137
aI6
aI5
aI1
aI0
aI0
aI0
aI0
aI0
aI0
aI0
aI1
aI3
aI0
asS'gimeh001'
p2138
(lp2139
g2138
aS'Hector Gimenez'
p2140
aI80
aI68
aI8
aI13
aI4
aI0
aI2
aI10
aI0
aI0
aI7
aI22
aI23
asS'hillk002'
p2141
(lp2142
g2141
aS'Koyie Hill'
p2143
aI61
aI58
aI3
aI9
aI2
aI0
aI0
aI0
aI0
aI0
aI2
aI18
aI11
asS'greet004'
p2144
(lp2145
g2144
aS'Tyler Greene'
p2146
aI57
aI54
aI7
aI12
aI2
aI1
aI1
aI3
aI0
aI0
aI3
aI19
aI19
asS'fielp001'
p2147
(lp2148
g2147
aS'Prince Fielder'
p2149
aI712
aI624
aI82
aI174
aI36
aI0
aI25
aI106
aI1
aI1
aI75
aI117
aI285
asS'encae001'
p2150
(lp2151
g2150
aS'Edwin Encarnacion'
p2152
aI621
aI530
aI90
aI144
aI29
aI1
aI36
aI104
aI7
aI1
aI82
aI62
aI283
asS'burna001'
p2153
(lp2154
g2153
aS'A.J. Burnett'
p2155
aI67
aI59
aI1
aI4
aI0
aI0
aI0
aI2
aI0
aI0
aI2
aI33
aI4
asS'dirka001'
p2156
(lp2157
g2156
aS'Andy Dirks'
p2158
aI484
aI438
aI60
aI112
aI16
aI2
aI9
aI37
aI7
aI1
aI42
aI84
aI159
asS'saunm001'
p2159
(lp2160
g2159
aS'Michael Saunders'
p2161
aI468
aI406
aI59
aI96
aI23
aI3
aI12
aI46
aI13
aI5
aI54
aI118
aI161
asS'lockj001'
p2162
(lp2163
g2162
aS'Jeff Locke'
p2164
aI54
aI47
aI3
aI5
aI0
aI0
aI0
aI0
aI0
aI0
aI2
aI19
aI5
asS'grany001'
p2165
(lp2166
g2165
aS'Yasmani Grandal'
p2167
aI108
aI88
aI13
aI19
aI8
aI0
aI1
aI9
aI0
aI0
aI18
aI18
aI30
asS'blanh001'
p2168
(lp2169
g2168
aS'Henry Blanco'
p2170
aI150
aI134
aI11
aI19
aI5
aI0
aI3
aI14
aI0
aI0
aI14
aI36
aI33
asS'villj001'
p2171
(lp2172
g2171
aS'Jonathan Villar'
p2173
aI241
aI210
aI26
aI51
aI9
aI2
aI1
aI8
aI18
aI8
aI24
aI71
aI67
asS'cabre001'
p2174
(lp2175
g2174
aS'Everth Cabrera'
p2176
aI435
aI381
aI54
aI108
aI15
aI5
aI4
aI31
aI37
aI12
aI41
aI69
aI145
asS'johnc003'
p2177
(lp2178
g2177
aS'Chris Johnson'
p2179
aI547
aI514
aI54
aI165
aI34
aI0
aI12
aI68
aI0
aI0
aI29
aI116
aI235
asS'gomey001'
p2180
(lp2181
g2180
aS'Yan Gomes'
p2182
aI322
aI293
aI45
aI86
aI18
aI2
aI11
aI38
aI2
aI0
aI18
aI67
aI141
asS'ozunm001'
p2183
(lp2184
g2183
aS'Marcell Ozuna'
p2185
aI291
aI275
aI31
aI73
aI17
aI4
aI3
aI32
aI5
aI1
aI13
aI57
aI107
asS'ethia001'
p2186
(lp2187
g2186
aS'Andre Ethier'
p2188
aI553
aI482
aI54
aI131
aI33
aI2
aI12
aI52
aI4
aI3
aI61
aI95
aI204
asS'mesod001'
p2189
(lp2190
g2189
aS'Devin Mesoraco'
p2191
aI352
aI323
aI31
aI77
aI13
aI0
aI9
aI42
aI0
aI2
aI24
aI61
aI117
asS'orr-p001'
p2192
(lp2193
g2192
aS'Pete Orr'
p2194
aI22
aI20
aI1
aI4
aI0
aI0
aI0
aI0
aI0
aI0
aI2
aI8
aI4
asS'machm001'
p2195
(lp2196
g2195
aS'Manny Machado'
p2197
aI710
aI667
aI88
aI189
aI51
aI3
aI14
aI71
aI6
aI7
aI29
aI113
aI288
asS'kenni001'
p2198
(lp2199
g2198
aS'Ian Kennedy'
p2200
aI64
aI53
aI1
aI7
aI3
aI0
aI0
aI1
aI0
aI0
aI5
aI28
aI10
asS'garlj001'
p2201
(lp2202
g2201
aS'Jon Garland'
p2203
aI21
aI19
aI0
aI3
aI1
aI0
aI0
aI0
aI0
aI0
aI0
aI5
aI4
asS'zobrb001'
p2204
(lp2205
g2204
aS'Ben Zobrist'
p2206
aI698
aI612
aI77
aI168
aI36
aI3
aI12
aI71
aI11
aI3
aI72
aI91
aI246
asS'wellv001'
p2207
(lp2208
g2207
aS'Vernon Wells'
p2209
aI458
aI424
aI45
aI99
aI16
aI0
aI11
aI50
aI7
aI3
aI30
aI73
aI148
asS'pattt001'
p2210
(lp2211
g2210
aS'Troy Patton'
p2212
aI1
aI1
aI0
aI0
aI0
aI0
aI0
aI0
aI0
aI0
aI0
aI0
aI0
asS'penar002'
p2213
(lp2214
g2213
aS'Ramiro Pena'
p2215
aI107
aI97
aI14
aI27
aI5
aI1
aI3
aI12
aI0
aI2
aI8
aI18
aI43
asS'hammj002'
p2216
(lp2217
g2216
aS'Jason Hammel'
p2218
aI4
aI3
aI0
aI0
aI0
aI0
aI0
aI0
aI0
aI0
aI0
aI2
aI0
asS'rogee002'
p2219
(lp2220
g2219
aS'Esmil Rogers'
p2221
aI6
aI3
aI0
aI0
aI0
aI0
aI0
aI0
aI0
aI0
aI0
aI1
aI0
asS'ramij002'
p2222
(lp2223
g2222
aS'J.C. Ramirez'
p2224
aI1
aI1
aI0
aI0
aI0
aI0
aI0
aI0
aI0
aI0
aI0
aI0
aI0
asS'huntt001'
p2225
(lp2226
g2225
aS'Torii Hunter'
p2227
aI652
aI606
aI90
aI184
aI37
aI5
aI17
aI84
aI3
aI2
aI26
aI113
aI282
asS'bakes002'
p2228
(lp2229
g2228
aS'Scott Baker'
p2230
aI4
aI3
aI0
aI0
aI0
aI0
aI0
aI0
aI0
aI0
aI0
aI2
aI0
asS'schem001'
p2231
(lp2232
g2231
aS'Max Scherzer'
p2233
aI3
aI3
aI0
aI1
aI1
aI0
aI0
aI1
aI0
aI0
aI0
aI0
aI2
asS'verlj001'
p2234
(lp2235
g2234
aS'Justin Verlander'
p2236
aI2
aI2
aI0
aI0
aI0
aI0
aI0
aI0
aI0
aI0
aI0
aI1
aI0
asS'hanir001'
p2237
(lp2238
g2237
aS'Ryan Hanigan'
p2239
aI260
aI222
aI17
aI44
aI8
aI0
aI2
aI21
aI0
aI1
aI29
aI27
aI58
asS'kozmp001'
p2240
(lp2241
g2240
aS'Pete Kozma'
p2242
aI448
aI410
aI44
aI89
aI20
aI0
aI1
aI35
aI3
aI1
aI34
aI91
aI112
asS'varva001'
p2243
(lp2244
g2243
aS'Anthony Varvaro'
p2245
aI1
aI1
aI0
aI0
aI0
aI0
aI0
aI0
aI0
aI0
aI0
aI1
aI0
asS'brigr001'
p2246
(lp2247
g2246
aS'Reid Brignac'
p2248
aI98
aI92
aI5
aI17
aI4
aI0
aI1
aI6
aI0
aI0
aI4
aI30
aI24
asS'calla001'
p2249
(lp2250
g2249
aS'Alberto Callaspo'
p2251
aI516
aI453
aI52
aI117
aI20
aI0
aI10
aI58
aI0
aI2
aI53
aI47
aI167
asS'medlk001'
p2252
(lp2253
g2252
aS'Kris Medlen'
p2254
aI67
aI55
aI3
aI9
aI2
aI0
aI1
aI4
aI1
aI0
aI4
aI23
aI14
asS'murpd004'
p2255
(lp2256
g2255
aS'Donnie Murphy'
p2257
aI163
aI149
aI23
aI38
aI8
aI0
aI11
aI23
aI2
aI0
aI8
aI48
aI79
asS'burkg001'
p2258
(lp2259
g2258
aS'Greg Burke'
p2260
aI2
aI2
aI0
aI0
aI0
aI0
aI0
aI0
aI0
aI0
aI0
aI1
aI0
asS'plout001'
p2261
(lp2262
g2261
aS'Trevor Plouffe'
p2263
aI522
aI477
aI44
aI121
aI22
aI1
aI14
aI52
aI2
aI1
aI34
aI112
aI187
asS'youne003'
p2264
(lp2265
g2264
aS'Eric Young'
p2266
aI598
aI539
aI70
aI134
aI27
aI7
aI2
aI32
aI46
aI11
aI46
aI100
aI181
asS'moliy001'
p2267
(lp2268
g2267
aS'Yadier Molina'
p2269
aI541
aI505
aI68
aI161
aI44
aI0
aI12
aI80
aI3
aI2
aI30
aI55
aI241
asS'dickr001'
p2270
(lp2271
g2270
aS'R.A. Dickey'
p2272
aI6
aI6
aI2
aI2
aI1
aI0
aI0
aI1
aI0
aI0
aI0
aI0
aI3
asS'herrj002'
p2273
(lp2274
g2273
aS'Jonathan Herrera'
p2275
aI215
aI195
aI16
aI57
aI7
aI2
aI1
aI16
aI3
aI2
aI14
aI24
aI71
asS'jackr005'
p2276
(lp2277
g2276
aS'Ryan Jackson'
p2278
aI7
aI7
aI0
aI0
aI0
aI0
aI0
aI0
aI0
aI0
aI0
aI2
aI0
asS'mornj001'
p2279
(lp2280
g2279
aS'Justin Morneau'
p2281
aI635
aI572
aI62
aI148
aI36
aI0
aI17
aI77
aI0
aI0
aI50
aI110
aI235
asS'presa001'
p2282
(lp2283
g2282
aS'Alex Presley'
p2284
aI195
aI185
aI17
aI51
aI5
aI2
aI3
aI15
aI1
aI4
aI9
aI39
aI69
asS'mccua001'
p2285
(lp2286
g2285
aS'Andrew McCutchen'
p2287
aI674
aI583
aI97
aI185
aI38
aI5
aI21
aI84
aI27
aI10
aI78
aI101
aI296
asS'bumgm001'
p2288
(lp2289
g2288
aS'Madison Bumgarner'
p2290
aI69
aI56
aI3
aI6
aI0
aI0
aI0
aI4
aI0
aI0
aI5
aI30
aI6
asS'dukez001'
p2291
(lp2292
g2291
aS'Zach Duke'
p2293
aI2
aI2
aI0
aI2
aI0
aI0
aI0
aI0
aI0
aI0
aI0
aI0
aI2
asS'congh001'
p2294
(lp2295
g2294
aS'Hank Conger'
p2296
aI255
aI233
aI23
aI58
aI13
aI1
aI7
aI21
aI0
aI1
aI17
aI61
aI94
asS'turnj001'
p2297
(lp2298
g2297
aS'Justin Turner'
p2299
aI214
aI200
aI12
aI56
aI13
aI1
aI2
aI16
aI0
aI1
aI11
aI34
aI77
asS'beltb001'
p2300
(lp2301
g2300
aS'Brandon Belt'
p2302
aI571
aI509
aI76
aI147
aI39
aI4
aI17
aI67
aI5
aI2
aI52
aI125
aI245
asS'siegk001'
p2303
(lp2304
g2303
aS'Kevin Siegrist'
p2305
aI1
aI1
aI0
aI0
aI0
aI0
aI0
aI0
aI0
aI0
aI0
aI1
aI0
asS'zimmj003'
p2306
(lp2307
g2306
aS'Jordan Zimmermann'
p2308
aI73
aI65
aI4
aI8
aI1
aI0
aI0
aI2
aI0
aI0
aI1
aI20
aI9
asS'butlb003'
p2309
(lp2310
g2309
aS'Billy Butler'
p2311
aI668
aI582
aI62
aI168
aI27
aI0
aI15
aI82
aI0
aI0
aI79
aI102
aI240
asS'ankir001'
p2312
(lp2313
g2312
aS'Rick Ankiel'
p2314
aI136
aI128
aI13
aI24
aI7
aI1
aI7
aI18
aI0
aI1
aI8
aI60
aI54
asS'ludwr001'
p2315
(lp2316
g2315
aS'Ryan Ludwick'
p2317
aI140
aI129
aI7
aI31
aI5
aI0
aI2
aI12
aI0
aI0
aI10
aI29
aI42
asS'martv001'
p2318
(lp2319
g2318
aS'Victor Martinez'
p2320
aI668
aI605
aI68
aI182
aI36
aI0
aI14
aI83
aI0
aI2
aI54
aI62
aI260
asS'crowt001'
p2321
(lp2322
g2321
aS'Trevor Crowe'
p2323
aI181
aI165
aI18
aI36
aI7
aI1
aI1
aI13
aI6
aI1
aI16
aI39
aI48
asS'irwip001'
p2324
(lp2325
g2324
aS'Phil Irwin'
p2326
aI1
aI1
aI0
aI0
aI0
aI0
aI0
aI0
aI0
aI0
aI0
aI1
aI0
asS'wallb001'
p2327
(lp2328
g2327
aS'Brett Wallace'
p2329
aI285
aI262
aI35
aI58
aI14
aI1
aI13
aI36
aI1
aI1
aI18
aI104
aI113
asS'cloyt001'
p2330
(lp2331
g2330
aS'Tyler Cloyd'
p2332
aI22
aI18
aI1
aI2
aI1
aI0
aI0
aI1
aI0
aI0
aI2
aI4
aI3
asS'lobaj001'
p2333
(lp2334
g2333
aS'Jose Lobaton'
p2335
aI311
aI277
aI38
aI69
aI15
aI2
aI7
aI32
aI0
aI1
aI30
aI65
aI109
asS'pintj001'
p2336
(lp2337
g2336
aS'Josmil Pinto'
p2338
aI83
aI76
aI10
aI26
aI5
aI0
aI4
aI12
aI0
aI0
aI6
aI22
aI43
asS'outmj001'
p2339
(lp2340
g2339
aS'Josh Outman'
p2341
aI5
aI5
aI0
aI0
aI0
aI0
aI0
aI0
aI0
aI0
aI0
aI2
aI0
asS'haled001'
p2342
(lp2343
g2342
aS'David Hale'
p2344
aI4
aI4
aI0
aI0
aI0
aI0
aI0
aI0
aI0
aI0
aI0
aI3
aI0
asS'browd004'
p2345
(lp2346
g2345
aS'Domonic Brown'
p2347
aI540
aI496
aI65
aI135
aI21
aI4
aI27
aI83
aI8
aI3
aI39
aI97
aI245
asS'jeted001'
p2348
(lp2349
g2348
aS'Derek Jeter'
p2350
aI73
aI63
aI8
aI12
aI1
aI0
aI1
aI7
aI0
aI0
aI8
aI10
aI16
asS'blank002'
p2351
(lp2352
g2351
aS'Kyle Blanks'
p2353
aI308
aI280
aI31
aI68
aI14
aI0
aI8
aI35
aI1
aI1
aI21
aI85
aI106
asS'schal001'
p2354
(lp2355
g2354
aS'Logan Schafer'
p2356
aI337
aI298
aI29
aI63
aI15
aI3
aI4
aI33
aI7
aI1
aI25
aI60
aI96
asS'sanaa001'
p2357
(lp2358
g2357
aS'Alejandro Sanabia'
p2359
aI18
aI16
aI1
aI1
aI0
aI0
aI0
aI0
aI0
aI0
aI1
aI7
aI1
asS'curtj002'
p2360
(lp2361
g2360
aS'Jermaine Curtis'
p2362
aI5
aI3
aI0
aI0
aI0
aI0
aI0
aI0
aI0
aI0
aI1
aI1
aI0
asS'blang001'
p2363
(lp2364
g2363
aS'Gregor Blanco'
p2365
aI511
aI452
aI50
aI120
aI17
aI6
aI3
aI41
aI14
aI9
aI52
aI95
aI158
asS'adamd001'
p2366
(lp2367
g2366
aS'David Adams'
p2368
aI152
aI140
aI10
aI27
aI5
aI1
aI2
aI13
aI0
aI0
aI9
aI43
aI40
asS'tanak001'
p2369
(lp2370
g2369
aS'Kensuke Tanaka'
p2371
aI34
aI30
aI4
aI8
aI0
aI0
aI0
aI2
aI2
aI0
aI4
aI3
aI8
asS'marij002'
p2372
(lp2373
g2372
aS'Jake Marisnick'
p2374
aI118
aI109
aI6
aI20
aI2
aI1
aI1
aI5
aI3
aI1
aI6
aI27
aI27
asS'stanm004'
p2375
(lp2376
g2375
aS'Giancarlo Stanton'
p2377
aI504
aI425
aI62
aI106
aI26
aI0
aI24
aI62
aI1
aI0
aI74
aI140
aI204
asS'cletm001'
p2378
(lp2379
g2378
aS'Maikel Cleto'
p2380
aI1
aI1
aI0
aI0
aI0
aI0
aI0
aI0
aI0
aI0
aI0
aI1
aI0
asS'hamij003'
p2381
(lp2382
g2381
aS'Josh Hamilton'
p2383
aI636
aI576
aI72
aI144
aI32
aI5
aI21
aI79
aI4
aI0
aI47
aI158
aI249
asS'bourp001'
p2384
(lp2385
g2384
aS'Peter Bourjos'
p2386
aI196
aI175
aI26
aI48
aI3
aI3
aI3
aI12
aI6
aI0
aI10
aI43
aI66
asS'peree003'
p2387
(lp2388
g2387
aS'Eury Perez'
p2389
aI8
aI8
aI1
aI1
aI0
aI0
aI0
aI0
aI1
aI0
aI0
aI3
aI1
asS'lylej001'
p2390
(lp2391
g2390
aS'Jordan Lyles'
p2392
aI7
aI6
aI0
aI0
aI0
aI0
aI0
aI0
aI0
aI0
aI0
aI5
aI0
asS'peguf001'
p2393
(lp2394
g2393
aS'Francisco Peguero'
p2395
aI30
aI29
aI4
aI6
aI1
aI0
aI1
aI1
aI2
aI0
aI1
aI2
aI10
asS'jansk001'
p2396
(lp2397
g2396
aS'Kenley Jansen'
p2398
aI1
aI1
aI0
aI0
aI0
aI0
aI0
aI0
aI0
aI0
aI0
aI0
aI0
asS'stamc001'
p2399
(lp2400
g2399
aS'Craig Stammen'
p2401
aI6
aI5
aI0
aI0
aI0
aI0
aI0
aI0
aI0
aI0
aI1
aI2
aI0
asS'duncs001'
p2402
(lp2403
g2402
aS'Shelley Duncan'
p2404
aI64
aI55
aI6
aI10
aI1
aI0
aI2
aI6
aI0
aI0
aI9
aI14
aI17
asS'pie-f001'
p2405
(lp2406
g2405
aS'Felix Pie'
p2407
aI31
aI29
aI5
aI4
aI1
aI0
aI0
aI2
aI1
aI2
aI2
aI13
aI5
asS'grifa002'
p2408
(lp2409
g2408
aS'A.J. Griffin'
p2410
aI5
aI4
aI0
aI0
aI0
aI0
aI0
aI0
aI0
aI0
aI1
aI3
aI0
asS'gyorj001'
p2411
(lp2412
g2411
aS'Jedd Gyorko'
p2413
aI525
aI486
aI61
aI121
aI26
aI0
aI23
aI63
aI1
aI1
aI33
aI123
aI216
asS'oswar001'
p2414
(lp2415
g2414
aS'Roy Oswalt'
p2416
aI7
aI6
aI0
aI2
aI0
aI0
aI0
aI0
aI0
aI0
aI0
aI2
aI2
asS'valdr002'
p2417
(lp2418
g2417
aS'Raul Valdes'
p2419
aI4
aI3
aI0
aI1
aI1
aI0
aI0
aI0
aI0
aI0
aI0
aI0
aI2
asS'domij002'
p2420
(lp2421
g2420
aS'Jose Dominguez'
p2422
aI1
aI1
aI0
aI0
aI0
aI0
aI0
aI0
aI0
aI0
aI0
aI1
aI0
asS'colac001'
p2423
(lp2424
g2423
aS'Chris Colabello'
p2425
aI181
aI160
aI14
aI31
aI3
aI0
aI7
aI17
aI0
aI1
aI20
aI58
aI55
asS'langm002'
p2426
(lp2427
g2426
aS'Matt Langwell'
p2428
aI1
aI1
aI0
aI0
aI0
aI0
aI0
aI0
aI0
aI0
aI0
aI0
aI0
asS'alony001'
p2429
(lp2430
g2429
aS'Yonder Alonso'
p2431
aI375
aI334
aI34
aI94
aI11
aI0
aI6
aI45
aI6
aI0
aI32
aI47
aI123
asS'dobbg001'
p2432
(lp2433
g2432
aS'Greg Dobbs'
p2434
aI267
aI237
aI21
aI54
aI11
aI0
aI2
aI22
aI1
aI1
aI22
aI40
aI71
asS'kraum001'
p2435
(lp2436
g2435
aS'Marc Krauss'
p2437
aI146
aI134
aI11
aI28
aI9
aI0
aI4
aI13
aI2
aI0
aI10
aI45
aI49
asS'walkn001'
p2438
(lp2439
g2438
aS'Neil Walker'
p2440
aI551
aI478
aI62
aI120
aI24
aI4
aI16
aI53
aI1
aI2
aI50
aI85
aI200
asS'torra001'
p2441
(lp2442
g2441
aS'Andres Torres'
p2443
aI300
aI272
aI33
aI68
aI17
aI1
aI2
aI21
aI4
aI3
aI22
aI61
aI93
asS'arcio001'
p2444
(lp2445
g2444
aS'Oswaldo Arcia'
p2446
aI378
aI351
aI34
aI88
aI17
aI2
aI14
aI43
aI1
aI2
aI23
aI117
aI151
asS'zimmr001'
p2447
(lp2448
g2447
aS'Ryan Zimmerman'
p2449
aI633
aI568
aI84
aI156
aI26
aI2
aI26
aI79
aI6
aI0
aI60
aI133
aI264
asS'branr002'
p2450
(lp2451
g2450
aS'Rob Brantly'
p2452
aI243
aI223
aI11
aI47
aI9
aI0
aI1
aI18
aI0
aI0
aI15
aI53
aI59
asS'millc001'
p2453
(lp2454
g2453
aS'Corky Miller'
p2455
aI41
aI35
aI2
aI9
aI5
aI0
aI0
aI8
aI0
aI0
aI5
aI6
aI14
asS'lonej001'
p2456
(lp2457
g2456
aS'James Loney'
p2458
aI598
aI549
aI54
aI164
aI33
aI0
aI13
aI75
aI3
aI1
aI44
aI77
aI236
asS'dickc002'
p2459
(lp2460
g2459
aS'Corey Dickerson'
p2461
aI213
aI194
aI32
aI51
aI13
aI5
aI5
aI17
aI2
aI2
aI16
aI41
aI89
asS'staut001'
p2462
(lp2463
g2462
aS'Tim Stauffer'
p2464
aI8
aI8
aI0
aI0
aI0
aI0
aI0
aI0
aI0
aI0
aI0
aI4
aI0
asS'dickc001'
p2465
(lp2466
g2465
aS'Chris Dickerson'
p2467
aI109
aI105
aI17
aI25
aI5
aI0
aI4
aI13
aI5
aI1
aI4
aI36
aI42
asS'lackj001'
p2468
(lp2469
g2468
aS'John Lackey'
p2470
aI6
aI5
aI0
aI0
aI0
aI0
aI0
aI0
aI0
aI0
aI0
aI3
aI0
asS'martr004'
p2471
(lp2472
g2471
aS'Russell Martin'
p2473
aI506
aI438
aI51
aI99
aI21
aI0
aI15
aI55
aI9
aI5
aI58
aI108
aI165
asS'ruizc001'
p2474
(lp2475
g2474
aS'Carlos Ruiz'
p2476
aI341
aI310
aI30
aI83
aI16
aI0
aI5
aI37
aI1
aI0
aI18
aI39
aI114
asS'alvah001'
p2477
(lp2478
g2477
aS'Henderson Alvarez'
p2479
aI35
aI30
aI2
aI9
aI3
aI0
aI1
aI6
aI0
aI0
aI0
aI12
aI15
asS'romia001'
p2480
(lp2481
g2480
aS'Andrew Romine'
p2482
aI123
aI108
aI9
aI28
aI3
aI0
aI0
aI10
aI1
aI0
aI7
aI24
aI31
asS'romia002'
p2483
(lp2484
g2483
aS'Austin Romine'
p2485
aI148
aI135
aI15
aI28
aI9
aI0
aI1
aI10
aI1
aI0
aI8
aI37
aI40
asS'ottaa001'
p2486
(lp2487
g2486
aS'Adam Ottavino'
p2488
aI9
aI9
aI0
aI1
aI0
aI0
aI0
aI0
aI0
aI0
aI0
aI5
aI1
asS'maybc001'
p2489
(lp2490
g2489
aS'Cameron Maybin'
p2491
aI57
aI51
aI7
aI8
aI1
aI0
aI1
aI5
aI4
aI1
aI4
aI9
aI12
asS'mazzv001'
p2492
(lp2493
g2492
aS'Vin Mazzaro'
p2494
aI6
aI6
aI0
aI1
aI0
aI0
aI0
aI0
aI0
aI0
aI0
aI4
aI1
asS'corpc001'
p2495
(lp2496
g2495
aS'Carlos Corporan'
p2497
aI210
aI191
aI16
aI43
aI5
aI0
aI7
aI20
aI0
aI0
aI10
aI60
aI69
asS'grosr001'
p2498
(lp2499
g2498
aS'Robbie Grossman'
p2500
aI288
aI257
aI29
aI69
aI14
aI0
aI4
aI21
aI6
aI7
aI23
aI70
aI95
asS'hellj002'
p2501
(lp2502
g2501
aS'Johnny Hellweg'
p2503
aI11
aI10
aI0
aI0
aI0
aI0
aI0
aI0
aI0
aI0
aI0
aI4
aI0
asS'estrm001'
p2504
(lp2505
g2504
aS'Marco Estrada'
p2506
aI40
aI34
aI1
aI7
aI1
aI0
aI0
aI2
aI0
aI0
aI1
aI16
aI8
asS'hollm001'
p2507
(lp2508
g2507
aS'Matt Holliday'
p2509
aI602
aI520
aI103
aI156
aI31
aI1
aI22
aI94
aI6
aI1
aI69
aI86
aI255
asS'lagaj001'
p2510
(lp2511
g2510
aS'Juan Lagares'
p2512
aI421
aI392
aI35
aI95
aI21
aI5
aI4
aI34
aI6
aI3
aI20
aI96
aI138
asS'dankj002'
p2513
(lp2514
g2513
aS'Jordan Danks'
p2515
aI179
aI160
aI15
aI37
aI7
aI0
aI5
aI12
aI7
aI2
aI18
aI57
aI59
asS'dankj001'
p2516
(lp2517
g2516
aS'John Danks'
p2518
aI4
aI2
aI0
aI0
aI0
aI0
aI0
aI0
aI0
aI0
aI0
aI1
aI0
asS'florw001'
p2519
(lp2520
g2519
aS'Wilmer Flores'
p2521
aI101
aI95
aI8
aI20
aI5
aI0
aI1
aI13
aI0
aI0
aI5
aI23
aI28
asS'gentc001'
p2522
(lp2523
g2522
aS'Craig Gentry'
p2524
aI287
aI246
aI39
aI69
aI12
aI4
aI2
aI22
aI24
aI3
aI29
aI46
aI95
asS'tholj001'
p2525
(lp2526
g2525
aS'Josh Thole'
p2527
aI135
aI120
aI11
aI21
aI3
aI1
aI1
aI8
aI0
aI0
aI12
aI25
aI29
asS'molij001'
p2528
(lp2529
g2528
aS'Jose Molina'
p2530
aI313
aI283
aI26
aI66
aI14
aI0
aI2
aI18
aI2
aI1
aI22
aI63
aI86
asS'tovaw001'
p2531
(lp2532
g2531
aS'Wilfredo Tovar'
p2533
aI19
aI15
aI1
aI3
aI0
aI0
aI0
aI2
aI1
aI0
aI1
aI3
aI3
asS'ruppc001'
p2534
(lp2535
g2534
aS'Cameron Rupp'
p2536
aI14
aI13
aI1
aI4
aI1
aI0
aI0
aI2
aI0
aI0
aI1
aI4
aI5
asS'bakej001'
p2537
(lp2538
g2537
aS'Jeff Baker'
p2539
aI175
aI154
aI21
aI43
aI8
aI0
aI11
aI21
aI1
aI0
aI18
aI48
aI84
asS'ruf-d001'
p2540
(lp2541
g2540
aS'Darin Ruf'
p2542
aI293
aI251
aI36
aI62
aI11
aI0
aI14
aI30
aI0
aI0
aI33
aI91
aI115
asS'hecha001'
p2543
(lp2544
g2543
aS'Adeiny Hechavarria'
p2545
aI578
aI543
aI30
aI123
aI14
aI8
aI3
aI42
aI11
aI10
aI30
aI96
aI162
asS'tulot001'
p2546
(lp2547
g2546
aS'Troy Tulowitzki'
p2548
aI512
aI446
aI72
aI139
aI27
aI0
aI25
aI82
aI1
aI0
aI57
aI85
aI241
asS'velag002'
p2549
(lp2550
g2549
aS'Gil Velazquez'
p2551
aI1
aI1
aI0
aI0
aI0
aI0
aI0
aI0
aI0
aI0
aI0
aI0
aI0
asS'doumr001'
p2552
(lp2553
g2552
aS'Ryan Doumit'
p2554
aI538
aI485
aI49
aI120
aI28
aI1
aI14
aI55
aI1
aI0
aI48
aI99
aI192
asS'snydc002'
p2555
(lp2556
g2555
aS'Chris Snyder'
p2557
aI24
aI20
aI0
aI2
aI0
aI0
aI0
aI1
aI0
aI0
aI4
aI7
aI2
asS'howej003'
p2558
(lp2559
g2558
aS'J.P. Howell'
p2560
aI1
aI1
aI0
aI0
aI0
aI0
aI0
aI0
aI0
aI0
aI0
aI1
aI0
asS'lawrb002'
p2561
(lp2562
g2561
aS'Brett Lawrie'
p2563
aI442
aI401
aI41
aI102
aI18
aI3
aI11
aI46
aI9
aI5
aI30
aI68
aI159
asS'hayeb001'
p2564
(lp2565
g2564
aS'Brett Hayes'
p2566
aI18
aI18
aI2
aI5
aI3
aI0
aI1
aI2
aI0
aI0
aI0
aI3
aI11
asS'ramih003'
p2567
(lp2568
g2567
aS'Hanley Ramirez'
p2569
aI336
aI304
aI62
aI105
aI25
aI2
aI20
aI57
aI10
aI2
aI27
aI52
aI194
asS'delaj001'
p2570
(lp2571
g2570
aS'Jorge de la Rosa'
p2572
aI59
aI52
aI2
aI2
aI0
aI0
aI0
aI0
aI0
aI0
aI2
aI21
aI2
asS'reynm001'
p2573
(lp2574
g2573
aS'Mark Reynolds'
p2575
aI504
aI445
aI55
aI98
aI14
aI0
aI21
aI67
aI3
aI1
aI51
aI154
aI175
asS'wrigd002'
p2576
(lp2577
g2576
aS'David Wright'
p2578
aI492
aI430
aI63
aI132
aI23
aI6
aI18
aI58
aI17
aI3
aI55
aI79
aI221
asS'mejij001'
p2579
(lp2580
g2579
aS'Jenrry Mejia'
p2581
aI11
aI11
aI0
aI0
aI0
aI0
aI0
aI0
aI0
aI0
aI0
aI6
aI0
asS'lynnl001'
p2582
(lp2583
g2582
aS'Lance Lynn'
p2584
aI69
aI54
aI1
aI4
aI0
aI0
aI0
aI2
aI0
aI0
aI4
aI30
aI4
asS'nix-l001'
p2585
(lp2586
g2585
aS'Laynce Nix'
p2587
aI136
aI128
aI11
aI23
aI4
aI0
aI2
aI7
aI1
aI0
aI8
aI44
aI33
asS'quinh001'
p2588
(lp2589
g2588
aS'Humberto Quintero'
p2590
aI140
aI131
aI8
aI31
aI5
aI0
aI4
aI13
aI0
aI0
aI6
aI30
aI48
asS'johne002'
p2591
(lp2592
g2591
aS'Elliot Johnson'
p2593
aI275
aI254
aI27
aI53
aI7
aI3
aI2
aI19
aI22
aI2
aI16
aI67
aI72
asS'nicaj001'
p2594
(lp2595
g2594
aS'Juan Nicasio'
p2596
aI50
aI36
aI4
aI5
aI0
aI0
aI0
aI3
aI0
aI0
aI4
aI20
aI5
asS'iztum001'
p2597
(lp2598
g2597
aS'Maicer Izturis'
p2599
aI399
aI365
aI33
aI86
aI12
aI0
aI5
aI32
aI1
aI5
aI27
aI38
aI113
asS'peteb002'
p2600
(lp2601
g2600
aS'Brock Peterson'
p2602
aI28
aI26
aI0
aI2
aI0
aI0
aI0
aI2
aI0
aI0
aI2
aI11
aI2
asS'nix-j001'
p2603
(lp2604
g2603
aS'Jayson Nix'
p2605
aI303
aI267
aI32
aI63
aI9
aI1
aI3
aI24
aI13
aI1
aI24
aI80
aI83
asS'surke001'
p2606
(lp2607
g2606
aS'Eric Surkamp'
p2608
aI1
aI1
aI0
aI0
aI0
aI0
aI0
aI0
aI0
aI0
aI0
aI0
aI0
asS'deckj001'
p2609
(lp2610
g2609
aS'Jaff Decker'
p2611
aI31
aI26
aI3
aI4
aI0
aI0
aI1
aI2
aI0
aI1
aI3
aI4
aI7
asS'tabaj002'
p2612
(lp2613
g2612
aS'Jose Tabata'
p2614
aI341
aI308
aI35
aI87
aI17
aI5
aI6
aI33
aI3
aI1
aI23
aI45
aI132
asS'frein001'
p2615
(lp2616
g2615
aS'Nate Freiman'
p2617
aI208
aI190
aI10
aI52
aI8
aI1
aI4
aI24
aI0
aI0
aI14
aI31
aI74
asS'avila001'
p2618
(lp2619
g2618
aS'Alex Avila'
p2620
aI379
aI330
aI39
aI75
aI14
aI1
aI11
aI47
aI0
aI0
aI44
aI112
aI124
asS'ortir002'
p2621
(lp2622
g2621
aS'Ramon Ortiz'
p2623
aI1
aI1
aI0
aI0
aI0
aI0
aI0
aI0
aI0
aI0
aI0
aI1
aI0
asS'kuroh001'
p2624
(lp2625
g2624
aS'Hiroki Kuroda'
p2626
aI6
aI6
aI0
aI0
aI0
aI0
aI0
aI0
aI0
aI0
aI0
aI3
aI0
asS'germg001'
p2627
(lp2628
g2627
aS'Gonzalez Germen'
p2629
aI1
aI1
aI0
aI0
aI0
aI0
aI0
aI0
aI0
aI0
aI0
aI1
aI0
asS'frank001'
p2630
(lp2631
g2630
aS'Kevin Frandsen'
p2632
aI278
aI252
aI27
aI59
aI10
aI1
aI5
aI26
aI1
aI0
aI12
aI29
aI86
asS'casha001'
p2633
(lp2634
g2633
aS'Andrew Cashner'
p2635
aI60
aI53
aI7
aI13
aI1
aI0
aI1
aI3
aI2
aI0
aI1
aI25
aI17
asS'aschc001'
p2636
(lp2637
g2636
aS'Cody Asche'
p2638
aI179
aI162
aI18
aI38
aI8
aI1
aI5
aI22
aI1
aI0
aI15
aI43
aI63
asS'lowrj001'
p2639
(lp2640
g2639
aS'Jed Lowrie'
p2641
aI662
aI603
aI80
aI175
aI45
aI2
aI15
aI75
aI1
aI0
aI50
aI91
aI269
asS'yound003'
p2642
(lp2643
g2642
aS'Delmon Young'
p2644
aI361
aI334
aI30
aI87
aI16
aI0
aI11
aI38
aI0
aI0
aI20
aI78
aI136
asS'ransc001'
p2645
(lp2646
g2645
aS'Cody Ransom'
p2647
aI193
aI169
aI21
aI32
aI10
aI1
aI9
aI20
aI0
aI0
aI22
aI62
aI71
asS'nunee002'
p2648
(lp2649
g2648
aS'Eduardo Nunez'
p2650
aI336
aI304
aI38
aI79
aI17
aI4
aI3
aI28
aI10
aI3
aI20
aI51
aI113
asS'capuc001'
p2651
(lp2652
g2651
aS'Chris Capuano'
p2653
aI29
aI24
aI1
aI1
aI0
aI0
aI0
aI0
aI0
aI0
aI1
aI8
aI1
asS'napom001'
p2654
(lp2655
g2654
aS'Mike Napoli'
p2656
aI578
aI498
aI79
aI129
aI38
aI2
aI23
aI92
aI1
aI1
aI73
aI187
aI240
asS'stras001'
p2657
(lp2658
g2657
aS'Stephen Strasburg'
p2659
aI61
aI49
aI2
aI7
aI2
aI0
aI0
aI2
aI0
aI0
aI2
aI23
aI9
asS'lillb001'
p2660
(lp2661
g2660
aS'Brent Lillibridge'
p2662
aI61
aI59
aI2
aI7
aI1
aI0
aI0
aI5
aI1
aI0
aI1
aI17
aI8
asS'tepen001'
p2663
(lp2664
g2663
aS'Nick Tepesch'
p2665
aI3
aI3
aI0
aI0
aI0
aI0
aI0
aI0
aI0
aI0
aI0
aI1
aI0
asS'koeht001'
p2666
(lp2667
g2666
aS'Tom Koehler'
p2668
aI41
aI39
aI1
aI3
aI0
aI0
aI0
aI0
aI0
aI0
aI0
aI17
aI3
asS'rollj001'
p2669
(lp2670
g2669
aS'Jimmy Rollins'
p2671
aI666
aI600
aI65
aI151
aI36
aI2
aI6
aI39
aI22
aI6
aI59
aI93
aI209
asS'wongk001'
p2672
(lp2673
g2672
aS'Kolten Wong'
p2674
aI62
aI59
aI6
aI9
aI1
aI0
aI0
aI0
aI3
aI0
aI3
aI12
aI10
asS'centj001'
p2675
(lp2676
g2675
aS'Juan Centeno'
p2677
aI10
aI10
aI0
aI3
aI0
aI0
aI0
aI1
aI0
aI0
aI0
aI1
aI3
asS'cervf001'
p2678
(lp2679
g2678
aS'Francisco Cervelli'
p2680
aI61
aI52
aI12
aI14
aI3
aI0
aI3
aI8
aI0
aI0
aI8
aI9
aI26
asS'salad001'
p2681
(lp2682
g2681
aS'Danny Salazar'
p2683
aI2
aI2
aI0
aI0
aI0
aI0
aI0
aI0
aI0
aI0
aI0
aI2
aI0
asS'castj006'
p2684
(lp2685
g2684
aS'Jason Castro'
p2686
aI491
aI435
aI63
aI120
aI35
aI1
aI18
aI56
aI2
aI1
aI50
aI130
aI211
asS'mills001'
p2687
(lp2688
g2687
aS'Shelby Miller'
p2689
aI63
aI53
aI3
aI4
aI1
aI0
aI1
aI2
aI0
aI0
aI1
aI29
aI8
asS'thort001'
p2690
(lp2691
g2690
aS'Tyler Thornburg'
p2692
aI18
aI16
aI0
aI0
aI0
aI0
aI0
aI0
aI0
aI0
aI0
aI8
aI0
asS'holtb002'
p2693
(lp2694
g2693
aS'Brock Holt'
p2695
aI72
aI59
aI9
aI12
aI2
aI0
aI0
aI11
aI1
aI0
aI7
aI4
aI14
asS'holmd002'
p2696
(lp2697
g2696
aS'David Holmberg'
p2698
aI1
aI1
aI0
aI0
aI0
aI0
aI0
aI0
aI0
aI0
aI0
aI1
aI0
asS'greiz001'
p2699
(lp2700
g2699
aS'Zack Greinke'
p2701
aI72
aI58
aI5
aI19
aI3
aI0
aI0
aI4
aI2
aI0
aI7
aI10
aI22
asS'florp001'
p2702
(lp2703
g2702
aS'Pedro Florimon'
p2704
aI446
aI403
aI44
aI89
aI17
aI0
aI9
aI44
aI15
aI6
aI33
aI115
aI133
asS'noonn001'
p2705
(lp2706
g2705
aS'Nick Noonan'
p2707
aI111
aI105
aI12
aI23
aI2
aI0
aI0
aI5
aI0
aI0
aI6
aI24
aI25
asS'byrdm001'
p2708
(lp2709
g2708
aS'Marlon Byrd'
p2710
aI579
aI532
aI75
aI155
aI35
aI5
aI24
aI88
aI2
aI4
aI31
aI144
aI272
asS'johnr009'
p2711
(lp2712
g2711
aS'Rob Johnson'
p2713
aI38
aI35
aI2
aI6
aI1
aI1
aI0
aI2
aI0
aI0
aI3
aI6
aI9
asS'franb001'
p2714
(lp2715
g2714
aS'Ben Francisco'
p2716
aI50
aI44
aI4
aI5
aI0
aI0
aI1
aI1
aI0
aI0
aI5
aI11
aI8
asS'rodrh003'
p2717
(lp2718
g2717
aS'Henry Rodriguez'
p2719
aI10
aI9
aI0
aI1
aI0
aI0
aI0
aI0
aI0
aI0
aI1
aI4
aI1
asS'perea002'
p2720
(lp2721
g2720
aS'Audry Perez'
p2722
aI1
aI1
aI0
aI0
aI0
aI0
aI0
aI0
aI0
aI0
aI0
aI1
aI0
asS'lamba001'
p2723
(lp2724
g2723
aS'Andrew Lambo'
p2725
aI33
aI30
aI4
aI7
aI2
aI0
aI1
aI2
aI0
aI1
aI3
aI11
aI12
asS'browc003'
p2726
(lp2727
g2726
aS'Corey Brown'
p2728
aI15
aI12
aI2
aI2
aI1
aI0
aI1
aI1
aI1
aI0
aI3
aI4
aI6
asS'gimec001'
p2729
(lp2730
g2729
aS'Chris Gimenez'
p2731
aI4
aI3
aI0
aI1
aI1
aI0
aI0
aI0
aI0
aI0
aI1
aI1
aI2
asS'leblw001'
p2732
(lp2733
g2732
aS'Wade LeBlanc'
p2734
aI13
aI12
aI1
aI2
aI0
aI0
aI0
aI0
aI0
aI0
aI0
aI2
aI2
asS'rosas001'
p2735
(lp2736
g2735
aS'Sandy Rosario'
p2737
aI1
aI1
aI0
aI0
aI0
aI0
aI0
aI0
aI0
aI0
aI0
aI1
aI0
asS'beckt001'
p2738
(lp2739
g2738
aS'Tim Beckham'
p2740
aI8
aI7
aI1
aI3
aI0
aI0
aI0
aI1
aI0
aI0
aI0
aI0
aI3
asS'peraj001'
p2741
(lp2742
g2741
aS'Jhonny Peralta'
p2743
aI448
aI409
aI50
aI124
aI30
aI0
aI11
aI55
aI3
aI3
aI35
aI98
aI187
asS'webbr001'
p2744
(lp2745
g2744
aS'Ryan Webb'
p2746
aI3
aI3
aI1
aI1
aI0
aI0
aI0
aI0
aI0
aI0
aI0
aI2
aI1
asS'spand001'
p2747
(lp2748
g2747
aS'Denard Span'
p2749
aI662
aI610
aI75
aI170
aI28
aI11
aI4
aI47
aI20
aI6
aI42
aI77
aI232
asS'dejed001'
p2750
(lp2751
g2750
aS'David DeJesus'
p2752
aI439
aI391
aI52
aI98
aI29
aI3
aI8
aI38
aI5
aI3
aI39
aI79
aI157
asS'hernf002'
p2753
(lp2754
g2753
aS'Felix Hernandez'
p2755
aI6
aI5
aI1
aI0
aI0
aI0
aI0
aI0
aI0
aI0
aI1
aI3
aI0
asS'crisc001'
p2756
(lp2757
g2756
aS'Coco Crisp'
p2758
aI584
aI513
aI93
aI134
aI22
aI3
aI22
aI66
aI21
aI5
aI61
aI65
aI228
asS'montl002'
p2759
(lp2760
g2759
aS'Luke Montz'
p2761
aI30
aI28
aI2
aI5
aI3
aI0
aI1
aI5
aI0
aI0
aI1
aI8
aI11
asS'mastd002'
p2762
(lp2763
g2762
aS'Darin Mastroianni'
p2764
aI73
aI65
aI5
aI12
aI2
aI0
aI0
aI5
aI2
aI1
aI3
aI23
aI14
asS'pujoa001'
p2765
(lp2766
g2765
aS'Albert Pujols'
p2767
aI443
aI391
aI49
aI101
aI19
aI0
aI17
aI64
aI1
aI1
aI40
aI55
aI171
asS'desmi001'
p2768
(lp2769
g2768
aS'Ian Desmond'
p2770
aI655
aI600
aI77
aI168
aI38
aI3
aI20
aI80
aI21
aI6
aI43
aI145
aI272
asS'colob001'
p2771
(lp2772
g2771
aS'Bartolo Colon'
p2773
aI6
aI6
aI0
aI0
aI0
aI0
aI0
aI0
aI0
aI0
aI0
aI3
aI0
asS'pedrd001'
p2774
(lp2775
g2774
aS'Dustin Pedroia'
p2776
aI724
aI641
aI91
aI193
aI42
aI2
aI9
aI84
aI17
aI5
aI73
aI75
aI266
asS'coleg001'
p2777
(lp2778
g2777
aS'Gerrit Cole'
p2779
aI36
aI34
aI3
aI7
aI0
aI0
aI0
aI5
aI0
aI0
aI1
aI14
aI7
asS'roart001'
p2780
(lp2781
g2780
aS'Tanner Roark'
p2782
aI15
aI14
aI0
aI4
aI1
aI0
aI0
aI1
aI0
aI0
aI0
aI5
aI5
asS'harrb001'
p2783
(lp2784
g2783
aS'Brendan Harris'
p2785
aI117
aI107
aI14
aI22
aI4
aI0
aI4
aI9
aI0
aI1
aI6
aI29
aI38
asS'smitb005'
p2786
(lp2787
g2786
aS'Burch Smith'
p2788
aI10
aI9
aI0
aI1
aI0
aI0
aI0
aI0
aI0
aI0
aI1
aI2
aI1
asS'jenkc001'
p2789
(lp2790
g2789
aS'Chad Jenkins'
p2791
aI2
aI2
aI0
aI0
aI0
aI0
aI0
aI0
aI0
aI0
aI0
aI2
aI0
asS'smoaj001'
p2792
(lp2793
g2792
aS'Justin Smoak'
p2794
aI521
aI454
aI53
aI108
aI19
aI0
aI20
aI50
aI0
aI0
aI64
aI119
aI187
asS'clevs001'
p2795
(lp2796
g2795
aS'Steve Clevenger'
p2797
aI24
aI23
aI2
aI5
aI1
aI0
aI0
aI2
aI0
aI0
aI1
aI5
aI6
asS'moort002'
p2798
(lp2799
g2798
aS'Tyler Moore'
p2800
aI178
aI167
aI16
aI37
aI9
aI0
aI4
aI21
aI0
aI0
aI8
aI58
aI58
asS'keara001'
p2801
(lp2802
g2801
aS'Austin Kearns'
p2803
aI31
aI27
aI3
aI5
aI0
aI0
aI0
aI0
aI0
aI0
aI4
aI8
aI5
asS'partc001'
p2804
(lp2805
g2804
aS'Curtis Partch'
p2806
aI1
aI1
aI0
aI0
aI0
aI0
aI0
aI0
aI0
aI0
aI0
aI0
aI0
asS'milot001'
p2807
(lp2808
g2807
aS'Tom Milone'
p2809
aI8
aI8
aI2
aI2
aI0
aI0
aI0
aI1
aI0
aI0
aI0
aI1
aI2
asS'pagnm001'
p2810
(lp2811
g2810
aS'Matt Pagnozzi'
p2812
aI22
aI21
aI1
aI3
aI0
aI0
aI0
aI0
aI0
aI0
aI1
aI3
aI3
asS'chenb001'
p2813
(lp2814
g2813
aS'Bruce Chen'
p2815
aI2
aI2
aI1
aI1
aI0
aI0
aI0
aI0
aI0
aI0
aI0
aI1
aI1
asS'lidda001'
p2816
(lp2817
g2816
aS'Alex Liddi'
p2818
aI18
aI17
aI0
aI1
aI1
aI0
aI0
aI0
aI0
aI0
aI1
aI7
aI2
asS'bernr001'
p2819
(lp2820
g2819
aS'Roger Bernadina'
p2821
aI250
aI227
aI26
aI41
aI10
aI2
aI4
aI11
aI4
aI0
aI16
aI65
aI67
asS'cobba001'
p2822
(lp2823
g2822
aS'Alex Cobb'
p2824
aI3
aI3
aI0
aI0
aI0
aI0
aI0
aI0
aI0
aI0
aI0
aI0
aI0
asS'wiggt001'
p2825
(lp2826
g2825
aS'Ty Wigginton'
p2827
aI63
aI57
aI9
aI9
aI2
aI0
aI0
aI3
aI0
aI1
aI5
aI19
aI11
asS'petta001'
p2828
(lp2829
g2828
aS'Andy Pettitte'
p2830
aI2
aI2
aI0
aI0
aI0
aI0
aI0
aI0
aI0
aI0
aI0
aI1
aI0
asS'profj001'
p2831
(lp2832
g2831
aS'Jurickson Profar'
p2833
aI324
aI286
aI30
aI67
aI11
aI0
aI6
aI26
aI2
aI4
aI26
aI63
aI96
asS'blanj001'
p2834
(lp2835
g2834
aS'Joe Blanton'
p2836
aI6
aI6
aI0
aI1
aI0
aI0
aI0
aI0
aI0
aI0
aI0
aI2
aI1
asS'mahop002'
p2837
(lp2838
g2837
aS'Paul Maholm'
p2839
aI57
aI52
aI2
aI7
aI2
aI0
aI0
aI2
aI0
aI0
aI1
aI25
aI9
asS'chacj001'
p2840
(lp2841
g2840
aS'Jhoulys Chacin'
p2842
aI70
aI63
aI2
aI12
aI1
aI0
aI1
aI7
aI0
aI0
aI3
aI15
aI16
asS'doubf001'
p2843
(lp2844
g2843
aS'Felix Doubront'
p2845
aI4
aI3
aI0
aI0
aI0
aI0
aI0
aI0
aI0
aI0
aI0
aI1
aI0
asa(dp2846
g5
(lp2847
g5
ag7
aS'208.1'
p2848
aI189
aI81
aI79
aI19
aI54
aI1
aI178
asS'boggm001'
p2849
(lp2850
g2849
aS'Mitchell Boggs'
p2851
aS'23.0'
p2852
aI28
aI23
aI21
aI5
aI20
aI4
aI16
asg11
(lp2853
g11
ag13
aS'86.0'
p2854
aI79
aI34
aI33
aI15
aI17
aI1
aI75
asg29
(lp2855
g29
ag31
aS'48.2'
p2856
aI82
aI43
aI39
aI9
aI15
aI1
aI25
asS'perel001'
p2857
(lp2858
g2857
aS'Luis Perez'
p2859
aS'4.2'
p2860
aI4
aI3
aI3
aI0
aI2
aI0
aI6
asS'basta001'
p2861
(lp2862
g2861
aS'Antonio Bastardo'
p2863
aS'42.2'
p2864
aI33
aI12
aI11
aI2
aI21
aI1
aI47
asg41
(lp2865
g41
ag43
aS'202.0'
p2866
aI199
aI88
aI85
aI32
aI34
aI2
aI124
asS'furbc001'
p2867
(lp2868
g2867
aS'Charlie Furbush'
p2869
aS'65.0'
p2870
aI48
aI33
aI27
aI5
aI29
aI2
aI80
asg47
(lp2871
g47
ag49
aS'123.2'
p2872
aI124
aI42
aI37
aI10
aI44
aI4
aI79
asS'kimbc001'
p2873
(lp2874
g2873
aS'Craig Kimbrel'
p2875
aS'67.0'
p2876
aI39
aI10
aI9
aI4
aI20
aI2
aI98
asS'teafe001'
p2877
(lp2878
g2877
aS'Everett Teaford'
p2879
aS'0.2'
p2880
aI1
aI0
aI0
aI0
aI0
aI0
aI0
asg59
(lp2881
g59
ag61
aS'184.1'
p2882
aI158
aI85
aI82
aI23
aI55
aI3
aI158
asS'wrigj001'
p2883
(lp2884
g2883
aS'Jamey Wright'
p2885
aS'70.0'
p2886
aI61
aI25
aI24
aI4
aI23
aI3
aI65
asg62
(lp2887
g62
ag64
aS'169.1'
p2888
aI181
aI93
aI86
aI23
aI55
aI2
aI107
asg65
(lp2889
g65
ag67
aS'142.2'
p2890
aI158
aI68
aI59
aI10
aI48
aI1
aI105
asS'jurrj001'
p2891
(lp2892
g2891
aS'Jair Jurrjens'
p2893
aS'7.0'
p2894
aI9
aI4
aI4
aI1
aI1
aI0
aI6
asS'delar003'
p2895
(lp2896
g2895
aS'Rubby de la Rosa'
p2897
aS'11.1'
p2898
aI15
aI7
aI7
aI2
aI2
aI0
aI6
asg2828
(lp2899
g2828
ag2830
aS'185.1'
p2900
aI198
aI85
aI77
aI17
aI48
aI1
aI128
asS'maurb001'
p2901
(lp2902
g2901
aS'Brandon Maurer'
p2903
aS'89.2'
p2904
aI114
aI66
aI63
aI16
aI27
aI0
aI70
asg1121
(lp2905
g1121
ag1123
aS'27.1'
p2906
aI27
aI25
aI21
aI6
aI28
aI1
aI26
asS'wilsa001'
p2907
(lp2908
g2907
aS'Alex Wilson'
p2909
aS'27.1'
p2910
aI34
aI16
aI15
aI0
aI14
aI1
aI22
asg89
(lp2911
g89
ag91
aS'182.0'
p2912
aI156
aI56
aI52
aI9
aI54
aI1
aI202
asS'scrie001'
p2913
(lp2914
g2913
aS'Evan Scribner'
p2915
aS'26.1'
p2916
aI26
aI13
aI13
aI3
aI7
aI0
aI19
asS'lecus001'
p2917
(lp2918
g2917
aS'Sam LeCure'
p2919
aS'61.0'
p2920
aI50
aI18
aI18
aI4
aI24
aI0
aI66
asS'mcgod001'
p2921
(lp2922
g2921
aS'Dustin McGowan'
p2923
aS'25.1'
p2924
aI19
aI11
aI7
aI2
aI12
aI1
aI26
asg95
(lp2925
g95
ag97
aS'180.2'
p2926
aI180
aI92
aI84
aI18
aI66
aI1
aI144
asg98
(lp2927
g98
ag100
aS'42.2'
p2928
aI43
aI22
aI19
aI3
aI17
aI2
aI30
asg629
(lp2929
g629
ag631
aS'1.0'
p2930
aI0
aI0
aI0
aI0
aI0
aI0
aI0
asS'laynt001'
p2931
(lp2932
g2931
aS'Tom Layne'
p2933
aS'8.1'
p2934
aI10
aI4
aI2
aI1
aI5
aI0
aI6
asg1523
(lp2935
g1523
ag1525
aS'52.2'
p2936
aI65
aI44
aI41
aI13
aI21
aI1
aI24
asg119
(lp2937
g119
ag121
aS'47.2'
p2938
aI51
aI30
aI30
aI8
aI13
aI2
aI49
asg125
(lp2939
g125
ag127
aS'0.1'
p2940
aI0
aI0
aI0
aI0
aI0
aI0
aI0
asg128
(lp2941
g128
ag130
aS'73.2'
p2942
aI50
aI17
aI17
aI4
aI28
aI1
aI59
asg2414
(lp2943
g2414
ag2416
aS'32.0'
p2944
aI49
aI31
aI31
aI3
aI9
aI0
aI34
asg1964
(lp2945
g1964
ag1966
aS'70.1'
p2946
aI89
aI54
aI49
aI12
aI24
aI2
aI63
asS'rapac001'
p2947
(lp2948
g2947
aS'Clay Rapada'
p2949
aS'1.2'
p2950
aI1
aI0
aI0
aI0
aI2
aI0
aI0
asg2417
(lp2951
g2417
ag2419
aS'34.2'
p2952
aI42
aI29
aI29
aI7
aI8
aI0
aI37
asg149
(lp2953
g149
ag151
aS'176.2'
p2954
aI196
aI89
aI82
aI17
aI67
aI0
aI147
asS'buchc001'
p2955
(lp2956
g2955
aS'Clay Buchholz'
p2957
aS'108.0'
p2958
aI75
aI23
aI21
aI4
aI36
aI0
aI96
asg155
(lp2959
g155
ag157
aS'75.1'
p2960
aI88
aI35
aI34
aI6
aI18
aI4
aI48
asg158
(lp2961
g158
ag160
aS'182.2'
p2962
aI163
aI75
aI67
aI16
aI80
aI0
aI194
asS'huffd001'
p2963
(lp2964
g2963
aS'David Huff'
p2965
aS'37.1'
p2966
aI33
aI23
aI23
aI7
aI9
aI1
aI31
asS'johnj010'
p2967
(lp2968
g2967
aS'Jim Johnson'
p2969
aS'70.1'
p2970
aI72
aI26
aI23
aI5
aI18
aI4
aI56
asS'adamm001'
p2971
(lp2972
g2971
aS'Mike Adams'
p2973
aS'24.2'
p2974
aI23
aI11
aI11
aI5
aI11
aI0
aI23
asg164
(lp2975
g164
ag166
aS'62.2'
p2976
aI58
aI26
aI25
aI10
aI12
aI1
aI46
asS'romos001'
p2977
(lp2978
g2977
aS'Sergio Romo'
p2979
aS'60.1'
p2980
aI53
aI20
aI17
aI5
aI12
aI3
aI58
asS'pryos001'
p2981
(lp2982
g2981
aS'Stephen Pryor'
p2983
aS'7.0'
p2984
aI3
aI0
aI0
aI0
aI1
aI0
aI7
asS'hendl001'
p2985
(lp2986
g2985
aS'Liam Hendriks'
p2987
aS'47.1'
p2988
aI67
aI39
aI36
aI10
aI14
aI1
aI34
asS'gregk001'
p2989
(lp2990
g2989
aS'Kevin Gregg'
p2991
aS'62.0'
p2992
aI53
aI26
aI24
aI6
aI32
aI2
aI56
asg179
(lp2993
g179
ag181
aS'106.0'
p2994
aI100
aI44
aI40
aI7
aI40
aI3
aI78
asS'hanst001'
p2995
(lp2996
g2995
aS'Tommy Hanson'
p2997
aS'73.0'
p2998
aI83
aI47
aI44
aI10
aI30
aI3
aI56
asS'rodrh002'
p2999
(lp3000
g2999
aS'Henry Rodriguez'
p3001
aS'21.2'
p3002
aI20
aI12
aI10
aI2
aI20
aI1
aI12
asS'kohnm001'
p3003
(lp3004
g3003
aS'Michael Kohn'
p3005
aS'53.0'
p3006
aI42
aI22
aI22
aI7
aI28
aI3
aI52
asg203
(lp3007
g203
ag205
aS'152.0'
p3008
aI132
aI74
aI67
aI16
aI57
aI0
aI124
asS'schet001'
p3009
(lp3010
g3009
aS'Tanner Scheppers'
p3011
aS'76.2'
p3012
aI58
aI21
aI15
aI6
aI24
aI4
aI59
asS'smitj002'
p3013
(lp3014
g3013
aS'Joe Smith'
p3015
aS'63.0'
p3016
aI54
aI17
aI16
aI5
aI23
aI2
aI54
asS'volsc001'
p3017
(lp3018
g3017
aS'Chris Volstad'
p3019
aS'8.0'
p3020
aI19
aI10
aI10
aI1
aI1
aI0
aI3
asg206
(lp3021
g206
ag208
aS'15.0'
p3022
aI12
aI5
aI4
aI2
aI8
aI0
aI10
asg209
(lp3023
g209
ag211
aS'198.2'
p3024
aI196
aI78
aI74
aI26
aI36
aI1
aI125
asg212
(lp3025
g212
ag214
aS'40.0'
p3026
aI42
aI27
aI27
aI9
aI26
aI2
aI47
asg1403
(lp3027
g1403
ag1405
aS'208.2'
p3028
aI229
aI91
aI85
aI14
aI44
aI2
aI159
asS'riena001'
p3029
(lp3030
g3029
aS'Andre Rienzo'
p3031
aS'56.0'
p3032
aI55
aI34
aI30
aI11
aI28
aI0
aI38
asS'bowdm001'
p3033
(lp3034
g3033
aS'Michael Bowden'
p3035
aS'37.1'
p3036
aI32
aI18
aI18
aI3
aI15
aI2
aI23
asS'resoc001'
p3037
(lp3038
g3037
aS'Chris Resop'
p3039
aS'18.0'
p3040
aI22
aI13
aI12
aI3
aI10
aI1
aI13
asg1667
(lp3041
g1667
ag1669
aS'153.1'
p3042
aI174
aI111
aI101
aI20
aI88
aI5
aI89
asS'reede002'
p3043
(lp3044
g3043
aS'Evan Reed'
p3045
aS'23.0'
p3046
aI28
aI16
aI11
aI2
aI8
aI0
aI17
asg1988
(lp3047
g1988
ag1990
aS'228.2'
p3048
aI215
aI82
aI80
aI20
aI68
aI0
aI196
asg254
(lp3049
g254
ag256
aS'77.1'
p3050
aI76
aI29
aI27
aI3
aI27
aI1
aI77
asS'cishs001'
p3051
(lp3052
g3051
aS'Steve Cishek'
p3053
aS'69.2'
p3054
aI53
aI19
aI18
aI3
aI22
aI6
aI74
asS'uehak001'
p3055
(lp3056
g3055
aS'Koji Uehara'
p3057
aS'74.1'
p3058
aI33
aI10
aI9
aI5
aI9
aI2
aI101
asg275
(lp3059
g275
ag277
aS'25.1'
p3060
aI11
aI5
aI5
aI1
aI4
aI2
aI28
asg278
(lp3061
g278
ag280
aS'1.0'
p3062
aI0
aI0
aI0
aI0
aI0
aI0
aI0
asS'gonzm001'
p3063
(lp3064
g3063
aS'Michael Gonzalez'
p3065
aS'50.0'
p3066
aI58
aI28
aI26
aI10
aI25
aI2
aI60
asg293
(lp3067
g293
ag295
aS'171.1'
p3068
aI157
aI81
aI73
aI24
aI53
aI3
aI120
asg302
(lp3069
g302
ag304
aS'197.2'
p3070
aI184
aI102
aI96
aI21
aI76
aI8
aI193
asg311
(lp3071
g311
ag313
aS'31.0'
p3072
aI27
aI15
aI11
aI3
aI23
aI0
aI23
asg314
(lp3073
g314
ag316
aS'222.2'
p3074
aI193
aI76
aI71
aI22
aI32
aI0
aI222
asS'davie002'
p3075
(lp3076
g3075
aS'Erik Davis'
p3077
aS'8.1'
p3078
aI10
aI3
aI3
aI0
aI1
aI0
aI12
asS'lee-c004'
p3079
(lp3080
g3079
aS'C.C. Lee'
p3081
aS'4.0'
p3082
aI4
aI3
aI2
aI0
aI3
aI0
aI4
asg836
(lp3083
g836
ag838
aS'25.0'
p3084
aI24
aI13
aI13
aI2
aI15
aI2
aI21
asg332
(lp3085
g332
ag334
aS'12.0'
p3086
aI17
aI11
aI10
aI5
aI6
aI0
aI11
asS'ramir003'
p3087
(lp3088
g3087
aS'Ramon Ramirez'
p3089
aS'5.1'
p3090
aI9
aI8
aI7
aI2
aI5
aI0
aI0
asg338
(lp3091
g338
ag340
aS'25.2'
p3092
aI45
aI29
aI29
aI6
aI5
aI0
aI11
asg341
(lp3093
g341
ag343
aS'10.0'
p3094
aI2
aI1
aI1
aI0
aI5
aI0
aI8
asS'blact001'
p3095
(lp3096
g3095
aS'Travis Blackley'
p3097
aS'50.1'
p3098
aI46
aI27
aI27
aI12
aI22
aI4
aI40
asS'jimec002'
p3099
(lp3100
g3099
aS'Cesar Jimenez'
p3101
aS'17.0'
p3102
aI14
aI7
aI7
aI1
aI10
aI0
aI11
asg353
(lp3103
g353
ag355
aS'20.1'
p3104
aI13
aI7
aI7
aI2
aI8
aI0
aI15
asS'clemp002'
p3105
(lp3106
g3105
aS'Paul Clemens'
p3107
aS'73.1'
p3108
aI82
aI48
aI44
aI16
aI26
aI1
aI49
asS'mcfat001'
p3109
(lp3110
g3109
aS'T.J. McFarland'
p3111
aS'74.2'
p3112
aI83
aI37
aI35
aI7
aI28
aI5
aI58
asg356
(lp3113
g356
ag358
aS'153.1'
p3114
aI184
aI96
aI88
aI20
aI52
aI3
aI123
asS'bresc001'
p3115
(lp3116
g3115
aS'Craig Breslow'
p3117
aS'59.2'
p3118
aI49
aI16
aI12
aI3
aI18
aI0
aI33
asg2606
(lp3119
g2606
ag2608
aS'2.1'
p3120
aI9
aI7
aI7
aI2
aI0
aI0
aI0
asg371
(lp3121
g371
ag373
aS'41.2'
p3122
aI40
aI21
aI21
aI5
aI16
aI3
aI30
asg374
(lp3123
g374
ag376
aS'31.1'
p3124
aI28
aI17
aI14
aI4
aI22
aI0
aI25
asg380
(lp3125
g380
ag382
aS'130.2'
p3126
aI163
aI88
aI79
aI21
aI36
aI4
aI52
asS'kirkm001'
p3127
(lp3128
g3127
aS'Michael Kirkman'
p3129
aS'21.2'
p3130
aI36
aI20
aI20
aI2
aI15
aI4
aI25
asg389
(lp3131
g389
ag391
aS'21.1'
p3132
aI25
aI15
aI15
aI4
aI19
aI1
aI19
asS'craij001'
p3133
(lp3134
g3133
aS'Jesse Crain'
p3135
aS'36.1'
p3136
aI31
aI6
aI3
aI0
aI11
aI1
aI46
asg395
(lp3137
g395
ag397
aS'22.0'
p3138
aI28
aI20
aI18
aI8
aI6
aI0
aI15
asg398
(lp3139
g398
ag400
aS'38.1'
p3140
aI42
aI26
aI25
aI7
aI16
aI1
aI31
asS'chapk002'
p3141
(lp3142
g3141
aS'Kevin Chapman'
p3143
aS'20.0'
p3144
aI13
aI6
aI5
aI1
aI13
aI2
aI15
asg407
(lp3145
g407
ag409
aS'87.1'
p3146
aI68
aI31
aI28
aI8
aI26
aI2
aI63
asS'downs001'
p3147
(lp3148
g3147
aS'Scott Downs'
p3149
aS'43.1'
p3150
aI45
aI13
aI12
aI1
aI19
aI2
aI37
asS'veald001'
p3151
(lp3152
g3151
aS'Donnie Veal'
p3153
aS'29.0'
p3154
aI26
aI16
aI15
aI3
aI16
aI1
aI29
asS'websa001'
p3155
(lp3156
g3155
aS'Allen Webster'
p3157
aS'30.0'
p3158
aI37
aI30
aI29
aI7
aI18
aI0
aI23
asS'philz001'
p3159
(lp3160
g3159
aS'Zach Phillips'
p3161
aS'1.1'
p3162
aI3
aI1
aI1
aI0
aI3
aI0
aI1
asS'petrj001'
p3163
(lp3164
g3163
aS'Jake Petricka'
p3165
aS'19.1'
p3166
aI20
aI7
aI7
aI0
aI10
aI1
aI10
asS'romee002'
p3167
(lp3168
g3167
aS'Enny Romero'
p3169
aS'4.1'
p3170
aI1
aI0
aI0
aI0
aI4
aI0
aI0
asS'betad001'
p3171
(lp3172
g3171
aS'Dellin Betances'
p3173
aS'4.2'
p3174
aI9
aI6
aI6
aI1
aI2
aI0
aI10
asg428
(lp3175
g428
ag430
aS'146.1'
p3176
aI143
aI70
aI65
aI13
aI65
aI2
aI102
asS'parnb001'
p3177
(lp3178
g3177
aS'Bobby Parnell'
p3179
aS'50.0'
p3180
aI38
aI17
aI13
aI1
aI12
aI3
aI44
asg437
(lp3181
g437
ag439
aS'17.0'
p3182
aI15
aI11
aI10
aI3
aI16
aI0
aI11
asg2735
(lp3183
g2735
ag2737
aS'41.2'
p3184
aI38
aI15
aI14
aI1
aI20
aI5
aI24
asg446
(lp3185
g446
ag448
aS'27.1'
p3186
aI27
aI12
aI12
aI1
aI8
aI2
aI18
asS'freej001'
p3187
(lp3188
g3187
aS'Justin Freeman'
p3189
aS'1.0'
p3190
aI2
aI2
aI2
aI1
aI0
aI0
aI0
asS'richg002'
p3191
(lp3192
g3191
aS'Garrett Richards'
p3193
aS'144.2'
p3194
aI151
aI73
aI67
aI12
aI44
aI4
aI101
asg449
(lp3195
g449
ag451
aS'152.1'
p3196
aI184
aI92
aI88
aI13
aI53
aI0
aI101
asS'rossr002'
p3197
(lp3198
g3197
aS'Robbie Ross'
p3199
aS'62.1'
p3200
aI63
aI21
aI21
aI4
aI19
aI2
aI58
asS'brewc001'
p3201
(lp3202
g3201
aS'Charles Brewer'
p3203
aS'5.2'
p3204
aI8
aI2
aI2
aI0
aI2
aI0
aI5
asg464
(lp3205
g464
ag466
aS'192.1'
p3206
aI193
aI78
aI72
aI21
aI48
aI4
aI122
asg1583
(lp3207
g1583
ag1585
aS'139.0'
p3208
aI135
aI49
aI48
aI9
aI44
aI3
aI116
asS'crowa001'
p3209
(lp3210
g3209
aS'Aaron Crow'
p3211
aS'48.0'
p3212
aI49
aI19
aI18
aI6
aI22
aI3
aI44
asS'rothm001'
p3213
(lp3214
g3213
aS'Michael Roth'
p3215
aS'19.2'
p3216
aI24
aI16
aI16
aI0
aI6
aI0
aI17
asg2711
(lp3217
g2711
ag2713
aS'0.1'
p3218
aI0
aI0
aI0
aI0
aI0
aI0
aI1
asg479
(lp3219
g479
ag481
aS'116.1'
p3220
aI132
aI69
aI61
aI7
aI50
aI3
aI44
asg2732
(lp3221
g2732
ag2734
aS'55.0'
p3222
aI72
aI40
aI33
aI7
aI20
aI3
aI33
asS'coelr001'
p3223
(lp3224
g3223
aS'Robert Coello'
p3225
aS'17.0'
p3226
aI14
aI7
aI7
aI1
aI8
aI0
aI23
asg491
(lp3227
g491
ag493
aS'34.1'
p3228
aI20
aI10
aI10
aI5
aI13
aI0
aI43
asS'cabrc001'
p3229
(lp3230
g3229
aS'Cesar Cabral'
p3231
aS'3.2'
p3232
aI3
aI1
aI1
aI0
aI1
aI0
aI6
asS'dolir001'
p3233
(lp3234
g3233
aS'Rafael Dolis'
p3235
aS'4.2'
p3236
aI3
aI2
aI0
aI0
aI2
aI0
aI0
asS'pestv001'
p3237
(lp3238
g3237
aS'Vinnie Pestano'
p3239
aS'35.0'
p3240
aI37
aI18
aI17
aI6
aI21
aI1
aI37
asg503
(lp3241
g503
ag505
aS'31.2'
p3242
aI37
aI17
aI17
aI2
aI16
aI1
aI23
asg506
(lp3243
g506
ag508
aS'53.0'
p3244
aI46
aI15
aI14
aI2
aI12
aI3
aI51
asS'martj004'
p3245
(lp3246
g3245
aS'Joe Martinez'
p3247
aS'4.2'
p3248
aI4
aI1
aI1
aI0
aI0
aI0
aI3
asg524
(lp3249
g524
ag526
aS'241.2'
p3250
aI223
aI83
aI79
aI15
aI35
aI2
aI219
asS'cedex001'
p3251
(lp3252
g3251
aS'Xavier Cedeno'
p3253
aS'12.1'
p3254
aI15
aI12
aI9
aI0
aI8
aI0
aI9
asg269
(lp3255
g269
ag271
aS'115.2'
p3256
aI113
aI51
aI42
aI6
aI36
aI1
aI85
asg1310
(lp3257
g1310
ag1312
aS'150.2'
p3258
aI149
aI83
aI77
aI18
aI75
aI0
aI138
asg554
(lp3259
g554
ag556
aS'77.0'
p3260
aI70
aI38
aI37
aI13
aI23
aI2
aI76
asg566
(lp3261
g566
ag568
aS'14.2'
p3262
aI13
aI13
aI12
aI5
aI5
aI0
aI16
asS'mijaj001'
p3263
(lp3264
g3263
aS'Jose Mijares'
p3265
aS'49.0'
p3266
aI67
aI24
aI23
aI3
aI20
aI4
aI54
asg572
(lp3267
g572
ag574
aS'193.0'
p3268
aI156
aI75
aI74
aI13
aI76
aI0
aI195
asS'oberb001'
p3269
(lp3270
g3269
aS'Brett Oberholtzer'
p3271
aS'71.2'
p3272
aI66
aI26
aI22
aI7
aI13
aI0
aI45
asS'gonze001'
p3273
(lp3274
g3273
aS'Edgar Gonzalez'
p3275
aS'18.0'
p3276
aI26
aI16
aI15
aI6
aI8
aI0
aI11
asg590
(lp3277
g590
ag592
aS'53.2'
p3278
aI54
aI24
aI22
aI7
aI19
aI2
aI55
asg593
(lp3279
g593
ag595
aS'72.1'
p3280
aI79
aI44
aI40
aI12
aI26
aI0
aI57
asg596
(lp3281
g596
ag598
aS'65.0'
p3282
aI57
aI25
aI25
aI8
aI28
aI5
aI37
asg599
(lp3283
g599
ag601
aS'13.2'
p3284
aI25
aI18
aI18
aI7
aI8
aI0
aI15
asS'morrb001'
p3285
(lp3286
g3285
aS'Brandon Morrow'
p3287
aS'54.1'
p3288
aI63
aI39
aI34
aI12
aI18
aI1
aI42
asS'andeb004'
p3289
(lp3290
g3289
aS'Brett Anderson'
p3291
aS'44.2'
p3292
aI51
aI32
aI30
aI5
aI21
aI1
aI46
asS'fujik001'
p3293
(lp3294
g3293
aS'Kyuji Fujikawa'
p3295
aS'12.0'
p3296
aI11
aI7
aI7
aI1
aI2
aI0
aI14
asg611
(lp3297
g611
ag613
aS'12.0'
p3298
aI12
aI4
aI4
aI1
aI5
aI0
aI6
asg617
(lp3299
g617
ag619
aS'148.2'
p3300
aI137
aI68
aI59
aI17
aI72
aI2
aI137
asS'gregl001'
p3301
(lp3302
g3301
aS'Luke Gregerson'
p3303
aS'66.1'
p3304
aI49
aI24
aI20
aI3
aI18
aI2
aI64
asS'villb002'
p3305
(lp3306
g3305
aS'Brayan Villarreal'
p3307
aS'4.0'
p3308
aI8
aI10
aI10
aI1
aI9
aI0
aI6
asS'marts001'
p3309
(lp3310
g3309
aS'Shairon Martis'
p3311
aS'9.1'
p3312
aI6
aI6
aI6
aI3
aI4
aI0
aI7
asg635
(lp3313
g635
ag637
aS'7.0'
p3314
aI15
aI10
aI10
aI2
aI5
aI1
aI7
asS'streh001'
p3315
(lp3316
g3315
aS'Huston Street'
p3317
aS'56.2'
p3318
aI44
aI17
aI17
aI12
aI14
aI1
aI46
asg656
(lp3319
g656
ag658
aS'202.2'
p3320
aI201
aI88
aI81
aI21
aI66
aI4
aI147
asg1604
(lp3321
g1604
ag1606
aS'12.2'
p3322
aI18
aI10
aI10
aI1
aI10
aI0
aI9
asg668
(lp3323
g668
ag670
aS'54.2'
p3324
aI53
aI26
aI25
aI6
aI15
aI0
aI40
asS'wagnn001'
p3325
(lp3326
g3325
aS'Neil Wagner'
p3327
aS'37.2'
p3328
aI39
aI17
aI16
aI5
aI13
aI1
aI33
asg1286
(lp3329
g1286
ag1288
aS'154.1'
p3330
aI139
aI58
aI56
aI17
aI37
aI0
aI117
asS'fontw001'
p3331
(lp3332
g3331
aS'Wilmer Font'
p3333
aS'1.0'
p3334
aI1
aI0
aI0
aI0
aI2
aI0
aI0
asS'cabra003'
p3335
(lp3336
g3335
aS'Alberto Cabrera'
p3337
aS'5.2'
p3338
aI7
aI3
aI3
aI0
aI5
aI0
aI4
asg683
(lp3339
g683
ag685
aS'0.1'
p3340
aI2
aI0
aI0
aI0
aI0
aI0
aI1
asg713
(lp3341
g713
ag715
aS'0.1'
p3342
aI0
aI0
aI0
aI0
aI0
aI0
aI0
asS'lindj004'
p3343
(lp3344
g3343
aS'Josh Lindblom'
p3345
aS'31.0'
p3346
aI35
aI19
aI19
aI4
aI11
aI2
aI21
asg719
(lp3347
g719
ag721
aS'28.0'
p3348
aI46
aI34
aI32
aI8
aI10
aI2
aI29
asS'enrib001'
p3349
(lp3350
g3349
aS'Barry Enright'
p3351
aS'8.0'
p3352
aI12
aI12
aI12
aI2
aI7
aI0
aI6
asS'lim-c001'
p3353
(lp3354
g3353
aS'Chang-Yong Lim'
p3355
aS'5.0'
p3356
aI6
aI3
aI3
aI0
aI7
aI1
aI5
asg1361
(lp3357
g1361
ag1363
aS'24.0'
p3358
aI27
aI15
aI14
aI4
aI12
aI1
aI25
asg743
(lp3359
g743
ag745
aS'91.2'
p3360
aI106
aI44
aI42
aI12
aI18
aI0
aI76
asS'humbp001'
p3361
(lp3362
g3361
aS'Philip Humber'
p3363
aS'54.2'
p3364
aI75
aI48
aI48
aI9
aI20
aI1
aI36
asS'aceva001'
p3365
(lp3366
g3365
aS'Alfredo Aceves'
p3367
aS'36.2'
p3368
aI42
aI21
aI20
aI8
aI22
aI0
aI24
asS'ondrl001'
p3369
(lp3370
g3369
aS'Logan Ondrusek'
p3371
aS'55.0'
p3372
aI53
aI26
aI25
aI8
aI16
aI1
aI53
asS'roseb003'
p3373
(lp3374
g3373
aS'B.J. Rosenberg'
p3375
aS'19.1'
p3376
aI20
aI10
aI10
aI0
aI9
aI1
aI19
asg755
(lp3377
g755
ag757
aS'64.2'
p3378
aI60
aI20
aI20
aI9
aI5
aI1
aI46
asg758
(lp3379
g758
ag760
aS'55.0'
p3380
aI58
aI36
aI33
aI7
aI27
aI3
aI32
asS'lyonb003'
p3381
(lp3382
g3381
aS'Brandon Lyon'
p3383
aS'34.0'
p3384
aI43
aI20
aI19
aI3
aI13
aI3
aI23
asg764
(lp3385
g764
ag766
aS'75.1'
p3386
aI59
aI41
aI40
aI9
aI41
aI1
aI60
asg767
(lp3387
g767
ag769
aS'54.1'
p3388
aI30
aI15
aI14
aI5
aI19
aI4
aI63
asg770
(lp3389
g770
ag772
aS'91.2'
p3390
aI79
aI34
aI32
aI8
aI33
aI8
aI85
asS'thatj001'
p3391
(lp3392
g3391
aS'Joe Thatcher'
p3393
aS'39.1'
p3394
aI40
aI14
aI14
aI4
aI10
aI0
aI36
asg776
(lp3395
g776
ag778
aS'206.1'
p3396
aI184
aI87
aI85
aI33
aI68
aI2
aI179
asg2822
(lp3397
g2822
ag2824
aS'143.0'
p3398
aI120
aI46
aI44
aI13
aI45
aI4
aI134
asS'odorj001'
p3399
(lp3400
g3399
aS'Jake Odorizzi'
p3401
aS'29.1'
p3402
aI28
aI13
aI13
aI3
aI8
aI0
aI22
asS'hernd002'
p3403
(lp3404
g3403
aS'David Hernandez'
p3405
aS'62.1'
p3406
aI50
aI33
aI31
aI10
aI24
aI4
aI66
asS'waldj001'
p3407
(lp3408
g3407
aS'Jordan Walden'
p3409
aS'47.0'
p3410
aI39
aI19
aI18
aI4
aI14
aI4
aI54
asg797
(lp3411
g797
ag799
aS'68.1'
p3412
aI71
aI29
aI28
aI10
aI21
aI1
aI37
asg1760
(lp3413
g1760
ag1762
aS'199.0'
p3414
aI208
aI84
aI80
aI24
aI47
aI0
aI142
asg809
(lp3415
g809
ag811
aS'185.2'
p3416
aI173
aI69
aI67
aI22
aI45
aI4
aI170
asS'nunov001'
p3417
(lp3418
g3417
aS'Vidal Nuno'
p3419
aS'20.0'
p3420
aI16
aI5
aI5
aI2
aI6
aI0
aI9
asS'belfm001'
p3421
(lp3422
g3421
aS'Mike Belfiore'
p3423
aS'1.0'
p3424
aI3
aI2
aI2
aI2
aI1
aI0
aI0
asS'workb001'
p3425
(lp3426
g3425
aS'Brandon Workman'
p3427
aS'41.2'
p3428
aI44
aI23
aI23
aI5
aI15
aI1
aI47
asS'lo--c001'
p3429
(lp3430
g3429
aS'Chia-Jen Lo'
p3431
aS'19.0'
p3432
aI14
aI9
aI9
aI2
aI13
aI0
aI16
asS'russj003'
p3433
(lp3434
g3433
aS'James Russell'
p3435
aS'52.2'
p3436
aI46
aI21
aI21
aI7
aI18
aI6
aI37
asg821
(lp3437
g821
ag823
aS'99.2'
p3438
aI90
aI42
aI38
aI10
aI46
aI2
aI84
asS'neshp001'
p3439
(lp3440
g3439
aS'Pat Neshek'
p3441
aS'40.1'
p3442
aI40
aI17
aI15
aI6
aI15
aI2
aI29
asS'rondh001'
p3443
(lp3444
g3443
aS'Hector Rondon'
p3445
aS'54.2'
p3446
aI52
aI29
aI29
aI6
aI25
aI5
aI44
asS'carpd002'
p3447
(lp3448
g3447
aS'David Carpenter'
p3449
aS'0.1'
p3450
aI2
aI4
aI4
aI1
aI2
aI0
aI1
asg839
(lp3451
g839
ag841
aS'26.1'
p3452
aI40
aI21
aI21
aI11
aI10
aI2
aI15
asS'shawb001'
p3453
(lp3454
g3453
aS'Bryan Shaw'
p3455
aS'75.0'
p3456
aI60
aI31
aI27
aI4
aI28
aI2
aI73
asg842
(lp3457
g842
ag844
aS'65.2'
p3458
aI45
aI13
aI13
aI5
aI20
aI3
aI74
asS'jeffj001'
p3459
(lp3460
g3459
aS'Jeremy Jeffress'
p3461
aS'10.1'
p3462
aI8
aI1
aI1
aI1
aI5
aI0
aI12
asS'dools001'
p3463
(lp3464
g3463
aS'Sean Doolittle'
p3465
aS'69.0'
p3466
aI53
aI24
aI24
aI4
aI13
aI1
aI60
asg851
(lp3467
g851
ag853
aS'9.0'
p3468
aI6
aI4
aI2
aI0
aI2
aI0
aI9
asS'fienc001'
p3469
(lp3470
g3469
aS'Casey Fien'
p3471
aS'62.0'
p3472
aI51
aI28
aI27
aI9
aI12
aI3
aI73
asg863
(lp3473
g863
ag865
aS'211.0'
p3474
aI224
aI122
aI113
aI28
aI65
aI5
aI175
asS'aardd001'
p3475
(lp3476
g3475
aS'David Aardsma'
p3477
aS'39.2'
p3478
aI39
aI20
aI19
aI7
aI19
aI6
aI36
asg878
(lp3479
g878
ag880
aS'124.2'
p3480
aI100
aI51
aI44
aI8
aI44
aI4
aI119
asg887
(lp3481
g887
ag889
aS'145.1'
p3482
aI170
aI91
aI84
aI24
aI42
aI4
aI121
asg647
(lp3483
g647
ag649
aS'134.2'
p3484
aI161
aI71
aI68
aI13
aI21
aI3
aI76
asg890
(lp3485
g890
ag892
aS'128.0'
p3486
aI170
aI89
aI81
aI24
aI43
aI2
aI73
asS'cokep001'
p3487
(lp3488
g3487
aS'Phil Coke'
p3489
aS'38.0'
p3490
aI43
aI24
aI23
aI3
aI21
aI7
aI30
asg899
(lp3491
g899
ag901
aS'211.2'
p3492
aI236
aI99
aI95
aI30
aI59
aI1
aI111
asS'rodnf001'
p3493
(lp3494
g3493
aS'Fernando Rodney'
p3495
aS'66.2'
p3496
aI53
aI27
aI25
aI3
aI36
aI3
aI82
asS'lowem002'
p3497
(lp3498
g3497
aS'Mark Lowe'
p3499
aS'11.2'
p3500
aI11
aI12
aI12
aI1
aI11
aI1
aI7
asg920
(lp3501
g920
ag922
aS'210.2'
p3502
aI197
aI82
aI74
aI14
aI58
aI5
aI187
asS'dempr002'
p3503
(lp3504
g3503
aS'Ryan Dempster'
p3505
aS'171.1'
p3506
aI170
aI97
aI87
aI26
aI79
aI1
aI157
asS'bushd001'
p3507
(lp3508
g3507
aS'Dave Bush'
p3509
aS'3.0'
p3510
aI5
aI5
aI5
aI4
aI1
aI0
aI1
asg944
(lp3511
g944
ag946
aS'62.0'
p3512
aI47
aI16
aI15
aI7
aI15
aI1
aI59
asg950
(lp3513
g950
ag952
aS'30.1'
p3514
aI27
aI13
aI10
aI2
aI10
aI3
aI29
asS'tomlj001'
p3515
(lp3516
g3515
aS'Josh Tomlin'
p3517
aS'1.2'
p3518
aI2
aI0
aI0
aI0
aI0
aI0
aI0
asS'germj001'
p3519
(lp3520
g3519
aS'Justin Germano'
p3521
aS'1.2'
p3522
aI6
aI2
aI2
aI1
aI0
aI0
aI1
asS'papej001'
p3523
(lp3524
g3523
aS'Jonathan Papelbon'
p3525
aS'61.2'
p3526
aI59
aI23
aI20
aI6
aI11
aI1
aI57
asg980
(lp3527
g980
ag982
aS'135.0'
p3528
aI169
aI89
aI81
aI15
aI58
aI2
aI114
asg2789
(lp3529
g2789
ag2791
aS'33.0'
p3530
aI31
aI12
aI10
aI3
aI6
aI2
aI15
asS'thiec001'
p3531
(lp3532
g3531
aS'Caleb Thielbar'
p3533
aS'46.0'
p3534
aI24
aI11
aI9
aI4
aI14
aI4
aI39
asg1001
(lp3535
g1001
ag1003
aS'21.2'
p3536
aI19
aI9
aI7
aI3
aI13
aI0
aI24
asS'walkt004'
p3537
(lp3538
g3537
aS'Taijuan Walker'
p3539
aS'15.0'
p3540
aI11
aI7
aI6
aI0
aI4
aI0
aI12
asS'famij001'
p3541
(lp3542
g3541
aS'Jeurys Familia'
p3543
aS'10.2'
p3544
aI12
aI5
aI5
aI2
aI9
aI1
aI8
asg77
(lp3545
g77
ag79
aS'203.2'
p3546
aI219
aI97
aI89
aI18
aI40
aI2
aI131
asg1025
(lp3547
g1025
ag1027
aS'155.0'
p3548
aI150
aI73
aI66
aI20
aI42
aI3
aI136
asg674
(lp3549
g674
ag676
aS'29.1'
p3550
aI29
aI24
aI19
aI1
aI20
aI1
aI25
asg1028
(lp3551
g1028
ag1030
aS'16.2'
p3552
aI23
aI14
aI14
aI1
aI7
aI3
aI15
asg1031
(lp3553
g1031
ag1033
aS'213.2'
p3554
aI210
aI109
aI103
aI25
aI78
aI3
aI214
asg1037
(lp3555
g1037
ag1039
aS'53.0'
p3556
aI49
aI29
aI28
aI5
aI16
aI0
aI43
asg1040
(lp3557
g1040
ag1042
aS'81.0'
p3558
aI105
aI64
aI57
aI15
aI30
aI3
aI83
asS'clipt001'
p3559
(lp3560
g3559
aS'Tyler Clippard'
p3561
aS'71.0'
p3562
aI37
aI19
aI19
aI9
aI24
aI1
aI73
asg1052
(lp3563
g1052
ag1054
aS'65.0'
p3564
aI59
aI25
aI24
aI8
aI22
aI2
aI64
asS'mediy001'
p3565
(lp3566
g3565
aS'Yoervis Medina'
p3567
aS'68.0'
p3568
aI49
aI22
aI22
aI5
aI40
aI7
aI71
asg1064
(lp3569
g1064
ag1066
aS'111.0'
p3570
aI118
aI44
aI39
aI5
aI41
aI5
aI66
asg1067
(lp3571
g1067
ag1069
aS'5.1'
p3572
aI13
aI8
aI8
aI4
aI3
aI0
aI4
asg377
(lp3573
g377
ag379
aS'18.0'
p3574
aI27
aI17
aI17
aI4
aI13
aI0
aI15
asg410
(lp3575
g410
ag412
aS'199.1'
p3576
aI195
aI90
aI82
aI17
aI46
aI1
aI165
asg1091
(lp3577
g1091
ag1093
aS'60.2'
p3578
aI46
aI20
aI19
aI7
aI18
aI1
aI51
asg1094
(lp3579
g1094
ag1096
aS'183.1'
p3580
aI187
aI107
aI90
aI19
aI73
aI3
aI129
asS'cappc001'
p3581
(lp3582
g3581
aS'Carter Capps'
p3583
aS'59.0'
p3584
aI73
aI37
aI36
aI12
aI23
aI4
aI66
asS'roblm001'
p3585
(lp3586
g3585
aS'Mauricio Robles'
p3587
aS'4.1'
p3588
aI7
aI3
aI1
aI0
aI3
aI0
aI6
asg494
(lp3589
g494
ag496
aS'11.0'
p3590
aI9
aI2
aI2
aI1
aI3
aI1
aI7
asg533
(lp3591
g533
ag535
aS'182.0'
p3592
aI207
aI104
aI95
aI18
aI47
aI4
aI110
asS'valdl001'
p3593
(lp3594
g3593
aS'Jairo Asencio'
p3595
aS'2.0'
p3596
aI3
aI2
aI2
aI1
aI2
aI1
aI4
asg1112
(lp3597
g1112
ag1114
aS'212.1'
p3598
aI200
aI92
aI80
aI15
aI85
aI3
aI188
asS'noesh001'
p3599
(lp3600
g3599
aS'Hector Noesi'
p3601
aS'27.0'
p3602
aI42
aI21
aI20
aI3
aI12
aI4
aI21
asg2198
(lp3603
g2198
ag2200
aS'181.1'
p3604
aI180
aI108
aI100
aI27
aI73
aI1
aI163
asS'grilj001'
p3605
(lp3606
g3605
aS'Jason Grilli'
p3607
aS'50.0'
p3608
aI40
aI15
aI15
aI4
aI13
aI0
aI74
asS'camps002'
p3609
(lp3610
g3609
aS'Shawn Camp'
p3611
aS'22.2'
p3612
aI34
aI18
aI18
aI7
aI9
aI2
aI13
asS'smitw002'
p3613
(lp3614
g3613
aS'Will Smith'
p3615
aS'33.0'
p3616
aI24
aI16
aI12
aI6
aI7
aI0
aI43
asS'oflae001'
p3617
(lp3618
g3617
aS"Eric O'Flaherty"
p3619
aS'18.0'
p3620
aI12
aI5
aI5
aI2
aI5
aI1
aI11
asS'ramoa001'
p3621
(lp3622
g3621
aS'A.J. Ramos'
p3623
aS'79.2'
p3624
aI58
aI32
aI28
aI4
aI43
aI3
aI86
asg1139
(lp3625
g1139
ag1141
aS'44.2'
p3626
aI55
aI34
aI28
aI6
aI20
aI2
aI30
asg1700
(lp3627
g1700
ag1702
aS'1.1'
p3628
aI3
aI5
aI5
aI0
aI4
aI1
aI1
asS'ortij004'
p3629
(lp3630
g3629
aS'Joe Ortiz'
p3631
aS'44.2'
p3632
aI46
aI26
aI21
aI5
aI10
aI2
aI27
asS'betar001'
p3633
(lp3634
g3633
aS'Rafael Betancourt'
p3635
aS'28.1'
p3636
aI26
aI15
aI13
aI2
aI11
aI2
aI27
asg1160
(lp3637
g1160
ag1162
aS'43.2'
p3638
aI49
aI22
aI20
aI5
aI22
aI5
aI41
asS'omogb001'
p3639
(lp3640
g3639
aS'Brian Omogrosso'
p3641
aS'16.1'
p3642
aI28
aI18
aI17
aI2
aI9
aI1
aI16
asS'burnc001'
p3643
(lp3644
g3643
aS'Cory Burns'
p3645
aS'11.1'
p3646
aI12
aI4
aI4
aI1
aI7
aI2
aI5
asg1181
(lp3647
g1181
ag1183
aS'213.1'
p3648
aI209
aI93
aI89
aI19
aI67
aI0
aI177
asg1184
(lp3649
g1184
ag1186
aS'86.1'
p3650
aI88
aI50
aI48
aI8
aI35
aI1
aI79
asS'dalem002'
p3651
(lp3652
g3651
aS'Matt Daley'
p3653
aS'5.2'
p3654
aI2
aI0
aI0
aI0
aI0
aI0
aI8
asS'lopej002'
p3655
(lp3656
g3655
aS'Javier Lopez'
p3657
aS'39.1'
p3658
aI30
aI10
aI8
aI1
aI12
aI5
aI37
asg1196
(lp3659
g1196
ag1198
aS'38.1'
p3660
aI32
aI21
aI19
aI4
aI16
aI0
aI33
asS'camia001'
p3661
(lp3662
g3661
aS'Arquimedes Caminero'
p3663
aS'13.0'
p3664
aI10
aI4
aI4
aI2
aI3
aI0
aI12
asS'melam001'
p3665
(lp3666
g3665
aS'Mark Melancon'
p3667
aS'71.0'
p3668
aI60
aI15
aI11
aI1
aI8
aI0
aI70
asg1205
(lp3669
g1205
ag1207
aS'22.0'
p3670
aI18
aI10
aI10
aI3
aI13
aI3
aI24
asg1214
(lp3671
g1214
ag1216
aS'236.0'
p3672
aI164
aI55
aI48
aI11
aI52
aI2
aI232
asg1226
(lp3673
g1226
ag1228
aS'60.0'
p3674
aI47
aI23
aI21
aI7
aI17
aI2
aI52
asS'albua001'
p3675
(lp3676
g3675
aS'Al Alburquerque'
p3677
aS'49.0'
p3678
aI39
aI25
aI25
aI5
aI34
aI5
aI70
asg1349
(lp3679
g1349
ag1351
aS'54.1'
p3680
aI69
aI37
aI32
aI8
aI15
aI1
aI28
asg1238
(lp3681
g1238
ag1240
aS'136.2'
p3682
aI142
aI62
aI62
aI17
aI39
aI2
aI104
asS'dunnj001'
p3683
(lp3684
g3683
aS'Jake Dunning'
p3685
aS'25.0'
p3686
aI20
aI8
aI8
aI2
aI11
aI1
aI16
asg1250
(lp3687
g1250
ag1252
aS'64.2'
p3688
aI52
aI20
aI20
aI5
aI19
aI0
aI65
asg1133
(lp3689
g1133
ag1135
aS'124.0'
p3690
aI129
aI55
aI50
aI15
aI37
aI0
aI84
asg1265
(lp3691
g1265
ag1267
aS'62.0'
p3692
aI63
aI31
aI30
aI6
aI36
aI5
aI45
asg1268
(lp3693
g1268
ag1270
aS'150.2'
p3694
aI164
aI87
aI82
aI24
aI38
aI8
aI113
asS'lafrb001'
p3695
(lp3696
g3695
aS'Bobby LaFromboise'
p3697
aS'10.2'
p3698
aI12
aI8
aI7
aI0
aI4
aI1
aI11
asS'purcd001'
p3699
(lp3700
g3699
aS'David Purcey'
p3701
aS'25.0'
p3702
aI19
aI7
aI4
aI2
aI17
aI4
aI23
asS'kroli001'
p3703
(lp3704
g3703
aS'Ian Krol'
p3705
aS'27.0'
p3706
aI28
aI12
aI12
aI5
aI8
aI1
aI22
asS'pereo002'
p3707
(lp3708
g3707
aS'Oliver Perez'
p3709
aS'53.0'
p3710
aI50
aI23
aI22
aI6
aI26
aI3
aI74
asg1283
(lp3711
g1283
ag1285
aS'60.1'
p3712
aI56
aI22
aI22
aI8
aI14
aI1
aI45
asS'barns002'
p3713
(lp3714
g3713
aS'Scott Barnes'
p3715
aS'8.1'
p3716
aI8
aI7
aI7
aI3
aI3
aI0
aI10
asg1292
(lp3717
g1292
ag1294
aS'19.1'
p3718
aI21
aI19
aI18
aI9
aI7
aI0
aI8
asg1295
(lp3719
g1295
ag1297
aS'42.0'
p3720
aI51
aI26
aI25
aI4
aI20
aI4
aI31
asg1301
(lp3721
g1301
ag1303
aS'14.0'
p3722
aI11
aI9
aI8
aI2
aI8
aI0
aI14
asS'hawkl001'
p3723
(lp3724
g3723
aS'LaTroy Hawkins'
p3725
aS'70.2'
p3726
aI71
aI27
aI23
aI6
aI10
aI2
aI55
asg1307
(lp3727
g1307
ag1309
aS'85.0'
p3728
aI77
aI41
aI37
aI11
aI31
aI1
aI83
asS'jennd003'
p3729
(lp3730
g3729
aS'Dan Jennings'
p3731
aS'40.1'
p3732
aI39
aI17
aI17
aI1
aI16
aI2
aI38
asS'choar001'
p3733
(lp3734
g3733
aS'Randy Choate'
p3735
aS'35.0'
p3736
aI26
aI9
aI9
aI0
aI11
aI0
aI28
asg857
(lp3737
g857
ag859
aS'23.2'
p3738
aI15
aI5
aI4
aI2
aI7
aI2
aI21
asg1325
(lp3739
g1325
ag1327
aS'134.0'
p3740
aI134
aI65
aI56
aI13
aI49
aI2
aI101
asg1331
(lp3741
g1331
ag1333
aS'169.2'
p3742
aI179
aI92
aI89
aI28
aI31
aI0
aI151
asS'parkb001'
p3743
(lp3744
g3743
aS'Blake Parker'
p3745
aS'46.1'
p3746
aI39
aI17
aI14
aI4
aI15
aI1
aI55
asS'stand001'
p3747
(lp3748
g3747
aS'Daniel Stange'
p3749
aS'1.1'
p3750
aI2
aI3
aI3
aI1
aI2
aI0
aI1
asg1343
(lp3751
g1343
ag1345
aS'83.0'
p3752
aI78
aI51
aI48
aI15
aI37
aI0
aI77
asS'ayall001'
p3753
(lp3754
g3753
aS'Luis Ayala'
p3755
aS'32.2'
p3756
aI38
aI12
aI12
aI2
aI13
aI2
aI22
asS'kensl001'
p3757
(lp3758
g3757
aS'Logan Kensing'
p3759
aS'0.2'
p3760
aI0
aI0
aI0
aI0
aI1
aI0
aI1
asS'shoem001'
p3761
(lp3762
g3761
aS'Matt Shoemaker'
p3763
aS'4.2'
p3764
aI2
aI0
aI0
aI0
aI2
aI0
aI5
asg1514
(lp3765
g1514
ag1516
aS'195.2'
p3766
aI169
aI79
aI73
aI17
aI76
aI1
aI192
asg1370
(lp3767
g1370
ag1372
aS'22.2'
p3768
aI27
aI16
aI13
aI4
aI10
aI0
aI18
asS'hembh001'
p3769
(lp3770
g3769
aS'Heath Hembree'
p3771
aS'7.1'
p3772
aI4
aI0
aI0
aI0
aI2
aI0
aI12
asS'rodrf003'
p3773
(lp3774
g3773
aS'Francisco Rodriguez'
p3775
aS'46.2'
p3776
aI42
aI14
aI14
aI7
aI14
aI4
aI54
asg1379
(lp3777
g1379
ag1381
aS'73.0'
p3778
aI61
aI20
aI18
aI3
aI22
aI6
aI44
asg2162
(lp3779
g2162
ag2164
aS'166.1'
p3780
aI146
aI69
aI65
aI11
aI84
aI4
aI125
asg134
(lp3781
g134
ag136
aS'68.0'
p3782
aI72
aI34
aI30
aI3
aI28
aI10
aI49
asS'collt001'
p3783
(lp3784
g3783
aS'Tim Collins'
p3785
aS'53.1'
p3786
aI49
aI26
aI21
aI3
aI28
aI1
aI52
asS'hollg001'
p3787
(lp3788
g3787
aS'Greg Holland'
p3789
aS'67.0'
p3790
aI40
aI11
aI9
aI3
aI18
aI1
aI103
asS'josed001'
p3791
(lp3792
g3791
aS'Donnie Joseph'
p3793
aS'5.1'
p3794
aI4
aI0
aI0
aI0
aI4
aI0
aI7
asS'delej002'
p3795
(lp3796
g3795
aS'Jorge De Leon'
p3797
aS'10.0'
p3798
aI12
aI7
aI6
aI1
aI7
aI1
aI6
asg1400
(lp3799
g1400
ag1402
aS'203.2'
p3800
aI223
aI100
aI94
aI24
aI51
aI3
aI139
asg2306
(lp3801
g2306
ag2308
aS'213.1'
p3802
aI192
aI81
aI77
aI19
aI40
aI0
aI161
asS'rondb001'
p3803
(lp3804
g3803
aS'Bruce Rondon'
p3805
aS'28.1'
p3806
aI28
aI11
aI11
aI2
aI11
aI0
aI30
asS'lindm001'
p3807
(lp3808
g3807
aS'Matt Lindstrom'
p3809
aS'60.2'
p3810
aI64
aI23
aI21
aI2
aI23
aI1
aI46
asS'millj005'
p3811
(lp3812
g3811
aS'Jim Miller'
p3813
aS'1.0'
p3814
aI3
aI3
aI3
aI1
aI1
aI0
aI0
asS'putkl001'
p3815
(lp3816
g3815
aS'Luke Putkonen'
p3817
aS'29.1'
p3818
aI30
aI11
aI10
aI4
aI9
aI0
aI28
asg1424
(lp3819
g1424
ag1426
aS'128.1'
p3820
aI107
aI49
aI46
aI15
aI38
aI2
aI101
asS'blazm001'
p3821
(lp3822
g3821
aS'Michael Blazek'
p3823
aS'17.1'
p3824
aI16
aI12
aI11
aI3
aI13
aI0
aI14
asS'takah001'
p3825
(lp3826
g3825
aS'Hisanori Takahashi'
p3827
aS'3.0'
p3828
aI3
aI2
aI2
aI1
aI2
aI0
aI3
asg1427
(lp3829
g1427
ag1429
aS'49.0'
p3830
aI40
aI26
aI24
aI7
aI40
aI3
aI59
asg1430
(lp3831
g1430
ag1432
aS'174.0'
p3832
aI185
aI103
aI100
aI24
aI50
aI0
aI135
asg1436
(lp3833
g1436
ag1438
aS'30.1'
p3834
aI26
aI8
aI7
aI1
aI5
aI0
aI22
asg2558
(lp3835
g2558
ag2560
aS'62.0'
p3836
aI42
aI14
aI14
aI2
aI23
aI3
aI54
asg2570
(lp3837
g2570
ag2572
aS'167.2'
p3838
aI170
aI70
aI65
aI11
aI62
aI5
aI112
asg1451
(lp3839
g1451
ag1453
aS'1.0'
p3840
aI0
aI0
aI0
aI0
aI0
aI0
aI1
asg1460
(lp3841
g1460
ag1462
aS'181.2'
p3842
aI159
aI87
aI79
aI19
aI56
aI1
aI132
asg2624
(lp3843
g2624
ag2626
aS'201.1'
p3844
aI191
aI79
aI74
aI20
aI43
aI2
aI150
asg1466
(lp3845
g1466
ag1468
aS'29.0'
p3846
aI38
aI19
aI18
aI5
aI6
aI1
aI13
asg1469
(lp3847
g1469
ag1471
aS'158.0'
p3848
aI162
aI76
aI71
aI19
aI47
aI1
aI162
asg2657
(lp3849
g2657
ag2659
aS'183.0'
p3850
aI136
aI71
aI62
aI16
aI56
aI1
aI191
asg1481
(lp3851
g1481
ag1483
aS'170.1'
p3852
aI193
aI114
aI108
aI19
aI77
aI2
aI142
asg1484
(lp3853
g1484
ag1486
aS'177.0'
p3854
aI185
aI87
aI85
aI18
aI42
aI4
aI142
asg1490
(lp3855
g1490
ag1492
aS'211.0'
p3856
aI190
aI85
aI77
aI26
aI51
aI3
aI161
asg1493
(lp3857
g1493
ag1495
aS'219.2'
p3858
aI179
aI68
aI64
aI25
aI42
aI4
aI185
asS'olmoe001'
p3859
(lp3860
g3859
aS'Edgar Olmos'
p3861
aS'4.2'
p3862
aI7
aI8
aI5
aI2
aI3
aI1
aI2
asS'ramoc001'
p3863
(lp3864
g3863
aS'Cesar Ramos'
p3865
aS'67.1'
p3866
aI66
aI31
aI31
aI6
aI22
aI6
aI53
asg1499
(lp3867
g1499
ag1501
aS'147.0'
p3868
aI153
aI67
aI64
aI15
aI33
aI0
aI136
asS'hagan001'
p3869
(lp3870
g3869
aS'Nick Hagadone'
p3871
aS'31.0'
p3872
aI24
aI21
aI19
aI4
aI21
aI1
aI30
asg1511
(lp3873
g1511
ag1513
aS'192.0'
p3874
aI182
aI67
aI64
aI15
aI49
aI4
aI154
asg2621
(lp3875
g2621
ag2623
aS'25.0'
p3876
aI34
aI17
aI17
aI7
aI11
aI2
aI8
asS'smyld001'
p3877
(lp3878
g3877
aS'Drew Smyly'
p3879
aS'76.0'
p3880
aI62
aI20
aI20
aI4
aI17
aI1
aI81
asS'perkg001'
p3881
(lp3882
g3881
aS'Glen Perkins'
p3883
aS'62.2'
p3884
aI43
aI16
aI16
aI5
aI15
aI0
aI77
asS'aumop001'
p3885
(lp3886
g3885
aS'Phillippe Aumont'
p3887
aS'19.0'
p3888
aI24
aI11
aI9
aI0
aI13
aI1
aI19
asS'cottn001'
p3889
(lp3890
g3889
aS'Neal Cotts'
p3891
aS'57.0'
p3892
aI36
aI8
aI7
aI2
aI18
aI1
aI65
asg1526
(lp3893
g1526
ag1528
aS'107.2'
p3894
aI105
aI48
aI46
aI7
aI41
aI0
aI67
asS'belij001'
p3895
(lp3896
g3895
aS'Jeff Beliveau'
p3897
aS'0.2'
p3898
aI1
aI0
aI0
aI0
aI1
aI0
aI0
asS'okajh001'
p3899
(lp3900
g3899
aS'Hideki Okajima'
p3901
aS'4.0'
p3902
aI7
aI1
aI1
aI1
aI2
aI2
aI1
asS'martd005'
p3903
(lp3904
g3903
aS'David Martinez'
p3905
aS'11.1'
p3906
aI16
aI11
aI9
aI1
aI3
aI0
aI6
asg1538
(lp3907
g1538
ag1540
aS'29.2'
p3908
aI27
aI17
aI15
aI5
aI4
aI0
aI23
asS'balfg001'
p3909
(lp3910
g3909
aS'Grant Balfour'
p3911
aS'62.2'
p3912
aI48
aI20
aI18
aI7
aI27
aI2
aI72
asg1547
(lp3913
g1547
ag1549
aS'65.0'
p3914
aI40
aI12
aI11
aI1
aI22
aI2
aI38
asg1559
(lp3915
g1559
ag1561
aS'97.2'
p3916
aI120
aI70
aI65
aI15
aI34
aI1
aI76
asg1568
(lp3917
g1568
ag1570
aS'78.0'
p3918
aI85
aI48
aI46
aI7
aI21
aI2
aI60
asS'henns001'
p3919
(lp3920
g3919
aS'Sean Henn'
p3921
aS'2.1'
p3922
aI3
aI1
aI1
aI1
aI3
aI0
aI1
asS'marss002'
p3923
(lp3924
g3923
aS'Sean Marshall'
p3925
aS'10.1'
p3926
aI4
aI3
aI2
aI0
aI2
aI0
aI10
asS'felip002'
p3927
(lp3928
g3927
aS'Pedro Feliciano'
p3929
aS'11.1'
p3930
aI11
aI5
aI5
aI1
aI6
aI2
aI9
asg1586
(lp3931
g1586
ag1588
aS'62.0'
p3932
aI65
aI17
aI16
aI4
aI13
aI7
aI35
asS'jepsk001'
p3933
(lp3934
g3933
aS'Kevin Jepsen'
p3935
aS'35.2'
p3936
aI41
aI21
aI18
aI3
aI14
aI4
aI36
asg659
(lp3937
g659
ag661
aS'175.1'
p3938
aI197
aI110
aI97
aI16
aI59
aI7
aI135
asS'ruffc001'
p3939
(lp3940
g3939
aS'Chance Ruffin'
p3941
aS'9.1'
p3942
aI14
aI10
aI9
aI3
aI5
aI1
aI15
asS'robed002'
p3943
(lp3944
g3943
aS'David Robertson'
p3945
aS'66.1'
p3946
aI51
aI15
aI15
aI5
aI18
aI1
aI77
asg1622
(lp3947
g1622
ag1624
aS'104.0'
p3948
aI87
aI38
aI36
aI11
aI41
aI1
aI72
asg1628
(lp3949
g1628
ag1630
aS'46.0'
p3950
aI40
aI18
aI17
aI5
aI15
aI0
aI56
asg1634
(lp3951
g1634
ag1636
aS'58.1'
p3952
aI69
aI29
aI25
aI7
aI20
aI2
aI45
asS'kintb001'
p3953
(lp3954
g3953
aS'Brandon Kintzler'
p3955
aS'77.0'
p3956
aI66
aI26
aI23
aI2
aI16
aI2
aI58
asS'sorir001'
p3957
(lp3958
g3957
aS'Rafael Soriano'
p3959
aS'66.2'
p3960
aI65
aI24
aI23
aI7
aI17
aI2
aI51
asS'mcgej001'
p3961
(lp3962
g3961
aS'Jake McGee'
p3963
aS'62.2'
p3964
aI52
aI28
aI28
aI8
aI22
aI5
aI75
asS'narvc001'
p3965
(lp3966
g3965
aS'Chris Narveson'
p3967
aS'1.2'
p3968
aI1
aI0
aI0
aI0
aI1
aI0
aI0
asS'hendj001'
p3969
(lp3970
g3969
aS'Jim Henderson'
p3971
aS'60.0'
p3972
aI44
aI18
aI18
aI8
aI24
aI2
aI75
asg1658
(lp3973
g1658
ag1660
aS'0.1'
p3974
aI0
aI0
aI0
aI0
aI0
aI0
aI0
asg536
(lp3975
g536
ag538
aS'30.0'
p3976
aI32
aI19
aI18
aI3
aI16
aI1
aI21
asS'mikom001'
p3977
(lp3978
g3977
aS'Miles Mikolas'
p3979
aS'1.1'
p3980
aI0
aI0
aI0
aI0
aI1
aI0
aI1
asg2633
(lp3981
g2633
ag2635
aS'175.0'
p3982
aI151
aI67
aI60
aI12
aI47
aI3
aI128
asS'grays001'
p3983
(lp3984
g3983
aS'Sonny Gray'
p3985
aS'64.0'
p3986
aI51
aI22
aI19
aI4
aI20
aI0
aI67
asg1679
(lp3987
g1679
ag1681
aS'17.2'
p3988
aI14
aI11
aI9
aI1
aI8
aI1
aI9
asS'tronr001'
p3989
(lp3990
g3989
aS'Ramon Troncoso'
p3991
aS'29.2'
p3992
aI30
aI22
aI15
aI4
aI16
aI1
aI18
asS'martc005'
p3993
(lp3994
g3993
aS'Cristhian Martinez'
p3995
aS'2.0'
p3996
aI5
aI2
aI2
aI0
aI0
aI0
aI0
asg1688
(lp3997
g1688
ag1690
aS'209.0'
p3998
aI181
aI85
aI82
aI20
aI54
aI2
aI199
asg665
(lp3999
g665
ag667
aS'28.0'
p4000
aI31
aI16
aI16
aI1
aI9
aI1
aI24
asg1694
(lp4001
g1694
ag1696
aS'73.0'
p4002
aI76
aI37
aI35
aI6
aI15
aI2
aI62
asS'cosaj001'
p4003
(lp4004
g4003
aS'Jarred Cosart'
p4005
aS'60.0'
p4006
aI46
aI15
aI13
aI3
aI35
aI0
aI33
asS'wallj002'
p4007
(lp4008
g4007
aS'Josh Wall'
p4009
aS'6.2'
p4010
aI17
aI14
aI14
aI2
aI6
aI3
aI7
asg1772
(lp4011
g1772
ag1774
aS'80.1'
p4012
aI65
aI35
aI29
aI6
aI28
aI3
aI53
asg1715
(lp4013
g1715
ag1717
aS'11.1'
p4014
aI17
aI11
aI7
aI3
aI5
aI0
aI9
asS'broxj001'
p4015
(lp4016
g4015
aS'Jonathan Broxton'
p4017
aS'30.1'
p4018
aI27
aI17
aI14
aI4
aI12
aI2
aI25
asS'ambrh001'
p4019
(lp4020
g4019
aS'Hector Ambriz'
p4021
aS'36.0'
p4022
aI50
aI28
aI23
aI8
aI14
aI1
aI27
asS'byrdt001'
p4023
(lp4024
g4023
aS'Tim Byrdak'
p4025
aS'4.1'
p4026
aI5
aI4
aI4
aI2
aI2
aI0
aI3
asS'herrk001'
p4027
(lp4028
g4027
aS'Kelvin Herrera'
p4029
aS'58.1'
p4030
aI48
aI27
aI25
aI9
aI21
aI2
aI74
asS'albem001'
p4031
(lp4032
g4031
aS'Matt Albers'
p4033
aS'63.0'
p4034
aI57
aI25
aI22
aI2
aI23
aI3
aI35
asg1721
(lp4035
g1721
ag1723
aS'128.1'
p4036
aI117
aI58
aI58
aI14
aI40
aI4
aI103
asg1076
(lp4037
g1076
ag1078
aS'75.0'
p4038
aI63
aI25
aI22
aI4
aI20
aI0
aI108
asg1730
(lp4039
g1730
ag1732
aS'16.0'
p4040
aI14
aI8
aI4
aI2
aI9
aI0
aI12
asg2222
(lp4041
g2222
ag2224
aS'23.2'
p4042
aI30
aI22
aI20
aI6
aI15
aI1
aI16
asS'storm001'
p4043
(lp4044
g4043
aS'Mickey Storey'
p4045
aS'4.0'
p4046
aI6
aI3
aI3
aI0
aI1
aI0
aI6
asS'heatd001'
p4047
(lp4048
g4047
aS'Deunte Heath'
p4049
aS'7.1'
p4050
aI8
aI10
aI10
aI2
aI12
aI1
aI3
asS'harrm001'
p4051
(lp4052
g4051
aS'Matt Harrison'
p4053
aS'10.2'
p4054
aI14
aI11
aI10
aI2
aI7
aI2
aI12
asS'tonkm001'
p4055
(lp4056
g4055
aS'Michael Tonkin'
p4057
aS'11.1'
p4058
aI9
aI6
aI1
aI0
aI3
aI0
aI10
asS'garco001'
p4059
(lp4060
g4059
aS'Onelki Garcia'
p4061
aS'1.0'
p4062
aI1
aI2
aI2
aI1
aI4
aI0
aI1
asS'felin001'
p4063
(lp4064
g4063
aS'Neftali Feliz'
p4065
aS'4.1'
p4066
aI5
aI0
aI0
aI0
aI2
aI0
aI4
asg1532
(lp4067
g1532
ag1534
aS'67.1'
p4068
aI51
aI16
aI13
aI5
aI36
aI2
aI76
asS'salec001'
p4069
(lp4070
g4069
aS'Chris Sale'
p4071
aS'214.1'
p4072
aI184
aI81
aI73
aI23
aI46
aI2
aI226
asg1754
(lp4073
g1754
ag1756
aS'200.0'
p4074
aI188
aI83
aI78
aI23
aI56
aI2
aI164
asS'abadf001'
p4075
(lp4076
g4075
aS'Fernando Abad'
p4077
aS'37.1'
p4078
aI42
aI14
aI14
aI3
aI10
aI0
aI32
asg1649
(lp4079
g1649
ag1651
aS'1.2'
p4080
aI3
aI0
aI0
aI0
aI3
aI0
aI1
asS'delas001'
p4081
(lp4082
g4081
aS'Steve Delabar'
p4083
aS'58.2'
p4084
aI50
aI25
aI21
aI4
aI29
aI5
aI82
asS'oterd001'
p4085
(lp4086
g4085
aS'Dan Otero'
p4087
aS'38.2'
p4088
aI42
aI7
aI6
aI0
aI6
aI1
aI27
asg1769
(lp4089
g1769
ag1771
aS'161.0'
p4090
aI134
aI54
aI54
aI9
aI63
aI0
aI163
asS'bootc001'
p4091
(lp4092
g4091
aS'Chris Bootcheck'
p4093
aS'1.0'
p4094
aI2
aI1
aI1
aI0
aI2
aI0
aI1
asS'webbd001'
p4095
(lp4096
g4095
aS'Daniel Webb'
p4097
aS'11.0'
p4098
aI9
aI4
aI4
aI0
aI4
aI0
aI10
asS'franf001'
p4099
(lp4100
g4099
aS'Frank Francisco'
p4101
aS'6.0'
p4102
aI4
aI3
aI3
aI0
aI3
aI0
aI6
asS'johns001'
p4103
(lp4104
g4103
aS'Steve Johnson'
p4105
aS'15.2'
p4106
aI14
aI13
aI13
aI2
aI13
aI1
aI20
asg2231
(lp4107
g2231
ag2233
aS'214.1'
p4108
aI152
aI72
aI69
aI18
aI56
aI0
aI240
asg1784
(lp4109
g1784
ag1786
aS'24.2'
p4110
aI31
aI12
aI11
aI0
aI14
aI1
aI12
asS'harrw002'
p4111
(lp4112
g4111
aS'Will Harris'
p4113
aS'52.2'
p4114
aI50
aI17
aI17
aI3
aI15
aI1
aI53
asg1931
(lp4115
g1931
ag1933
aS'1.0'
p4116
aI1
aI0
aI0
aI0
aI0
aI0
aI1
asg1793
(lp4117
g1793
ag1795
aS'95.2'
p4118
aI89
aI33
aI31
aI7
aI22
aI1
aI69
asg1796
(lp4119
g1796
ag1798
aS'1.0'
p4120
aI1
aI2
aI2
aI1
aI1
aI0
aI0
asg1805
(lp4121
g1805
ag1807
aS'62.1'
p4122
aI62
aI32
aI24
aI6
aI12
aI4
aI42
asg1808
(lp4123
g1808
ag1810
aS'117.1'
p4124
aI111
aI61
aI53
aI18
aI68
aI2
aI72
asS'britd001'
p4125
(lp4126
g4125
aS'Drake Britton'
p4127
aS'20.2'
p4128
aI21
aI9
aI9
aI1
aI7
aI1
aI17
asS'axfoj001'
p4129
(lp4130
g4129
aS'John Axford'
p4131
aS'65.0'
p4132
aI73
aI32
aI29
aI10
aI26
aI3
aI65
asg1811
(lp4133
g1811
ag1813
aS'27.2'
p4134
aI27
aI15
aI14
aI3
aI6
aI1
aI22
asg1823
(lp4135
g1823
ag1825
aS'209.2'
p4136
aI145
aI67
aI66
aI26
aI80
aI1
aI277
asg1826
(lp4137
g1826
ag1828
aS'172.2'
p4138
aI111
aI47
aI43
aI10
aI58
aI5
aI187
asg1832
(lp4139
g1832
ag1834
aS'130.1'
p4140
aI132
aI75
aI64
aI20
aI37
aI4
aI99
asg1841
(lp4141
g1841
ag1843
aS'143.0'
p4142
aI153
aI91
aI87
aI26
aI40
aI1
aI113
asS'thorm001'
p4143
(lp4144
g4143
aS'Matt Thornton'
p4145
aS'43.1'
p4146
aI47
aI20
aI18
aI4
aI15
aI1
aI30
asS'casts002'
p4147
(lp4148
g4147
aS'Simon Castro'
p4149
aS'6.1'
p4150
aI5
aI2
aI2
aI1
aI3
aI0
aI6
asS'delad001'
p4151
(lp4152
g4151
aS'Dane DeLaRosa'
p4153
aS'72.1'
p4154
aI56
aI25
aI23
aI3
aI28
aI2
aI65
asg1853
(lp4155
g1853
ag1855
aS'48.0'
p4156
aI46
aI19
aI19
aI4
aI11
aI1
aI47
asg1856
(lp4157
g1856
ag1858
aS'186.2'
p4158
aI178
aI78
aI70
aI16
aI27
aI0
aI151
asg2807
(lp4159
g2807
ag2809
aS'156.1'
p4160
aI160
aI83
aI72
aI25
aI39
aI2
aI126
asg1862
(lp4161
g1862
ag1864
aS'66.1'
p4162
aI66
aI30
aI29
aI8
aI24
aI3
aI36
asg1868
(lp4163
g1868
ag1870
aS'117.2'
p4164
aI116
aI55
aI49
aI11
aI54
aI5
aI77
asS'qualc001'
p4165
(lp4166
g4165
aS'Chad Qualls'
p4167
aS'62.0'
p4168
aI57
aI18
aI18
aI4
aI19
aI7
aI49
asS'jonen001'
p4169
(lp4170
g4169
aS'Nate Jones'
p4171
aS'77.2'
p4172
aI69
aI40
aI36
aI5
aI26
aI1
aI89
asS'duenb001'
p4173
(lp4174
g4173
aS'Brian Duensing'
p4175
aS'61.0'
p4176
aI68
aI28
aI27
aI4
aI22
aI4
aI56
asg1880
(lp4177
g1880
ag1882
aS'4.0'
p4178
aI4
aI3
aI3
aI1
aI6
aI0
aI3
asg1883
(lp4179
g1883
ag1885
aS'33.0'
p4180
aI40
aI19
aI19
aI5
aI9
aI1
aI20
asS'mattr001'
p4181
(lp4182
g4181
aS'Ryan Mattheus'
p4183
aS'35.0'
p4184
aI52
aI26
aI25
aI1
aI15
aI0
aI22
asS'warra001'
p4185
(lp4186
g4185
aS'Adam Warren'
p4187
aS'77.0'
p4188
aI80
aI29
aI29
aI10
aI30
aI2
aI64
asS'hillr001'
p4189
(lp4190
g4189
aS'Rich Hill'
p4191
aS'38.1'
p4192
aI38
aI30
aI27
aI3
aI29
aI6
aI51
asS'duffd001'
p4193
(lp4194
g4193
aS'Danny Duffy'
p4195
aS'24.0'
p4196
aI19
aI5
aI5
aI0
aI14
aI0
aI22
asS'kells001'
p4197
(lp4198
g4197
aS'Shawn Kelley'
p4199
aS'53.1'
p4200
aI47
aI28
aI26
aI8
aI23
aI2
aI71
asS'presr001'
p4201
(lp4202
g4201
aS'Ryan Pressly'
p4203
aS'76.1'
p4204
aI71
aI37
aI32
aI5
aI27
aI1
aI49
asS'wilsb001'
p4205
(lp4206
g4205
aS'Brian Wilson'
p4207
aS'13.2'
p4208
aI8
aI1
aI1
aI0
aI4
aI0
aI13
asS'colel001'
p4209
(lp4210
g4209
aS'Louis Coleman'
p4211
aS'29.1'
p4212
aI19
aI2
aI2
aI1
aI6
aI1
aI32
asS'clarz001'
p4213
(lp4214
g4213
aS'Zach Clark'
p4215
aS'1.1'
p4216
aI3
aI3
aI3
aI0
aI2
aI0
aI1
asg1910
(lp4217
g1910
ag1912
aS'38.2'
p4218
aI38
aI23
aI22
aI7
aI15
aI2
aI36
asS'logab001'
p4219
(lp4220
g4219
aS'Boone Logan'
p4221
aS'38.2'
p4222
aI33
aI15
aI14
aI7
aI13
aI4
aI50
asg1928
(lp4223
g1928
ag1930
aS'100.0'
p4224
aI109
aI50
aI45
aI9
aI38
aI3
aI66
asg1934
(lp4225
g1934
ag1936
aS'96.2'
p4226
aI81
aI34
aI33
aI6
aI40
aI3
aI88
asg1937
(lp4227
g1937
ag1939
aS'204.2'
p4228
aI177
aI79
aI73
aI22
aI46
aI2
aI181
asg1940
(lp4229
g1940
ag1942
aS'200.0'
p4230
aI163
aI73
aI69
aI18
aI66
aI2
aI144
asg1946
(lp4231
g1946
ag1948
aS'62.0'
p4232
aI55
aI48
aI47
aI12
aI36
aI1
aI51
asg1961
(lp4233
g1961
ag1963
aS'150.0'
p4234
aI119
aI58
aI55
aI14
aI76
aI1
aI143
asS'putnz001'
p4235
(lp4236
g4235
aS'Zach Putnam'
p4237
aS'3.1'
p4238
aI9
aI7
aI7
aI1
aI0
aI0
aI4
asS'patej001'
p4239
(lp4240
g4239
aS'Joe Paterson'
p4241
aS'2.0'
p4242
aI2
aI1
aI1
aI0
aI0
aI0
aI2
asg1151
(lp4243
g1151
ag1153
aS'55.1'
p4244
aI60
aI30
aI27
aI7
aI18
aI2
aI47
asS'burtj001'
p4245
(lp4246
g4245
aS'Jared Burton'
p4247
aS'66.0'
p4248
aI61
aI29
aI28
aI6
aI22
aI5
aI61
asS'rossz001'
p4249
(lp4250
g4249
aS'Zach Rosscup'
p4251
aS'6.1'
p4252
aI3
aI1
aI1
aI1
aI7
aI1
aI7
asS'garcj002'
p4253
(lp4254
g4253
aS'Santiago Casilla'
p4255
aS'50.0'
p4256
aI39
aI14
aI12
aI2
aI25
aI6
aI38
asS'chamj002'
p4257
(lp4258
g4257
aS'Joba Chamberlain'
p4259
aS'42.0'
p4260
aI47
aI23
aI23
aI8
aI26
aI1
aI38
asg1997
(lp4261
g1997
ag1999
aS'103.1'
p4262
aI124
aI73
aI67
aI15
aI38
aI2
aI67
asg2000
(lp4263
g2000
ag2002
aS'55.1'
p4264
aI57
aI26
aI22
aI6
aI15
aI0
aI43
asS'farnk001'
p4265
(lp4266
g4265
aS'Kyle Farnsworth'
p4267
aS'38.1'
p4268
aI43
aI20
aI20
aI5
aI10
aI0
aI28
asS'parkj001'
p4269
(lp4270
g4269
aS'Jarrod Parker'
p4271
aS'197.0'
p4272
aI178
aI92
aI87
aI25
aI63
aI2
aI134
asS'edgij001'
p4273
(lp4274
g4273
aS'Josh Edgin'
p4275
aS'28.1'
p4276
aI26
aI12
aI12
aI2
aI12
aI3
aI20
asS'horsj001'
p4277
(lp4278
g4277
aS'Jeremy Horst'
p4279
aS'25.2'
p4280
aI35
aI19
aI18
aI4
aI12
aI1
aI21
asS'beatp001'
p4281
(lp4282
g4281
aS'Pedro Beato'
p4283
aS'10.0'
p4284
aI12
aI5
aI4
aI1
aI2
aI0
aI5
asg2015
(lp4285
g2015
ag2017
aS'74.1'
p4286
aI86
aI48
aI44
aI6
aI27
aI1
aI38
asg2018
(lp4287
g2018
ag2020
aS'29.0'
p4288
aI38
aI23
aI21
aI5
aI11
aI0
aI18
asS'cruzr001'
p4289
(lp4290
g4289
aS'Rhiner Cruz'
p4291
aS'21.0'
p4292
aI25
aI9
aI8
aI2
aI11
aI0
aI10
asg2027
(lp4293
g2027
ag2029
aS'10.0'
p4294
aI12
aI7
aI7
aI0
aI4
aI1
aI9
asg2030
(lp4295
g2030
ag2032
aS'71.1'
p4296
aI92
aI37
aI32
aI5
aI14
aI2
aI39
asS'zeidj001'
p4297
(lp4298
g4297
aS'Josh Zeid'
p4299
aS'27.1'
p4300
aI26
aI12
aI12
aI3
aI12
aI1
aI24
asg2042
(lp4301
g2042
ag2044
aS'80.0'
p4302
aI83
aI40
aI39
aI18
aI17
aI0
aI46
asg2048
(lp4303
g2048
ag2050
aS'104.1'
p4304
aI72
aI37
aI34
aI14
aI43
aI1
aI120
asg2051
(lp4305
g2051
ag2053
aS'220.0'
p4306
aI205
aI94
aI88
aI21
aI50
aI5
aI202
asg2054
(lp4307
g2054
ag2056
aS'30.1'
p4308
aI37
aI25
aI24
aI6
aI12
aI1
aI18
asS'peraj002'
p4309
(lp4310
g4309
aS'Joel Peralta'
p4311
aS'71.1'
p4312
aI47
aI31
aI27
aI7
aI34
aI1
aI74
asg2063
(lp4313
g2063
ag2065
aS'213.0'
p4314
aI210
aI90
aI81
aI20
aI64
aI0
aI189
asg2066
(lp4315
g2066
ag2068
aS'29.2'
p4316
aI20
aI17
aI17
aI5
aI21
aI3
aI31
asg2075
(lp4317
g2075
ag2077
aS'57.1'
p4318
aI50
aI27
aI25
aI3
aI20
aI4
aI55
asS'myerb001'
p4319
(lp4320
g4319
aS'Brett Myers'
p4321
aS'21.0'
p4322
aI29
aI19
aI19
aI10
aI5
aI0
aI12
asS'gibsk002'
p4323
(lp4324
g4323
aS'Kyle Gibson'
p4325
aS'51.0'
p4326
aI69
aI38
aI37
aI7
aI20
aI0
aI29
asS'lowed001'
p4327
(lp4328
g4327
aS'Derek Lowe'
p4329
aS'13.0'
p4330
aI16
aI13
aI13
aI3
aI3
aI0
aI8
asg2096
(lp4331
g2096
ag2098
aS'19.2'
p4332
aI15
aI11
aI8
aI1
aI11
aI0
aI14
asg2105
(lp4333
g2105
ag2107
aS'133.0'
p4334
aI173
aI94
aI85
aI19
aI54
aI2
aI86
asg848
(lp4335
g848
ag850
aS'46.0'
p4336
aI52
aI32
aI29
aI8
aI14
aI2
aI34
asg2114
(lp4337
g2114
ag2116
aS'74.0'
p4338
aI77
aI41
aI35
aI15
aI15
aI2
aI54
asg2117
(lp4339
g2117
ag2119
aS'183.0'
p4340
aI232
aI117
aI107
aI25
aI61
aI5
aI107
asg2120
(lp4341
g2120
ag2122
aS'144.1'
p4342
aI130
aI70
aI68
aI20
aI36
aI0
aI121
asg2129
(lp4343
g2129
ag2131
aS'63.2'
p4344
aI37
aI18
aI18
aI7
aI29
aI0
aI112
asS'amess001'
p4345
(lp4346
g4345
aS'Steve Ames'
p4347
aS'4.0'
p4348
aI6
aI2
aI2
aI0
aI2
aI1
aI4
asS'romer002'
p4349
(lp4350
g4349
aS'Ricky Romero'
p4351
aS'7.0'
p4352
aI11
aI9
aI9
aI2
aI8
aI0
aI5
asg2135
(lp4353
g2135
ag2137
aS'12.1'
p4354
aI11
aI7
aI7
aI1
aI5
aI0
aI8
asS'reeda001'
p4355
(lp4356
g4355
aS'Addison Reed'
p4357
aS'71.1'
p4358
aI56
aI31
aI30
aI6
aI23
aI2
aI72
asS'guerj002'
p4359
(lp4360
g4359
aS'Javy Guerra'
p4361
aS'10.2'
p4362
aI15
aI9
aI8
aI1
aI6
aI0
aI12
asS'atchs001'
p4363
(lp4364
g4363
aS'Scott Atchison'
p4365
aS'45.1'
p4366
aI45
aI27
aI21
aI4
aI12
aI0
aI28
asg2153
(lp4367
g2153
ag2155
aS'191.0'
p4368
aI165
aI79
aI70
aI11
aI67
aI3
aI209
asS'burna002'
p4369
(lp4370
g4369
aS'Alex Burnett'
p4371
aS'2.0'
p4372
aI5
aI3
aI3
aI0
aI2
aI0
aI2
asS'rivem002'
p4373
(lp4374
g4373
aS'Mariano Rivera'
p4375
aS'64.0'
p4376
aI58
aI16
aI15
aI6
aI9
aI3
aI54
asS'wangc001'
p4377
(lp4378
g4377
aS'Chien-Ming Wang'
p4379
aS'26.2'
p4380
aI40
aI24
aI23
aI5
aI9
aI0
aI14
asS'loupa001'
p4381
(lp4382
g4381
aS'Aaron Loup'
p4383
aS'69.1'
p4384
aI66
aI23
aI18
aI5
aI13
aI4
aI53
asS'cookr001'
p4385
(lp4386
g4385
aS'Ryan Cook'
p4387
aS'67.1'
p4388
aI62
aI22
aI19
aI2
aI25
aI1
aI67
asS'farqd001'
p4389
(lp4390
g4389
aS'Danny Farquhar'
p4391
aS'55.2'
p4392
aI44
aI29
aI26
aI2
aI22
aI4
aI79
asS'stord001'
p4393
(lp4394
g4393
aS'Drew Storen'
p4395
aS'61.2'
p4396
aI65
aI34
aI31
aI7
aI19
aI2
aI58
asS'happj001'
p4397
(lp4398
g4397
aS'J.A. Happ'
p4399
aS'92.1'
p4400
aI91
aI53
aI47
aI10
aI45
aI0
aI77
asS'guilp001'
p4401
(lp4402
g4401
aS'Preston Guilmet'
p4403
aS'5.0'
p4404
aI8
aI6
aI6
aI0
aI3
aI0
aI1
asg2201
(lp4405
g2201
ag2203
aS'68.0'
p4406
aI85
aI45
aI44
aI9
aI23
aI3
aI32
asg2210
(lp4407
g2210
ag2212
aS'56.0'
p4408
aI57
aI25
aI23
aI8
aI16
aI1
aI42
asS'belod001'
p4409
(lp4410
g4409
aS'Duane Below'
p4411
aS'2.1'
p4412
aI6
aI3
aI3
aI0
aI2
aI1
aI2
asS'hanrj001'
p4413
(lp4414
g4413
aS'Joel Hanrahan'
p4415
aS'7.0'
p4416
aI10
aI8
aI8
aI4
aI6
aI0
aI5
asg2216
(lp4417
g2216
ag2218
aS'139.0'
p4418
aI155
aI81
aI77
aI22
aI48
aI1
aI96
asg2219
(lp4419
g2219
ag2221
aS'137.1'
p4420
aI152
aI75
aI73
aI21
aI44
aI2
aI96
asS'bardd001'
p4421
(lp4422
g4421
aS'Daniel Bard'
p4423
aS'1.0'
p4424
aI1
aI1
aI1
aI0
aI2
aI0
aI1
asg2228
(lp4425
g2228
ag2230
aS'15.0'
p4426
aI9
aI6
aI6
aI3
aI4
aI0
aI6
asg233
(lp4427
g233
ag235
aS'116.0'
p4428
aI116
aI59
aI55
aI24
aI23
aI2
aI79
asg2234
(lp4429
g2234
ag2236
aS'218.1'
p4430
aI212
aI94
aI85
aI19
aI75
aI1
aI217
asg2243
(lp4431
g2243
ag2245
aS'73.1'
p4432
aI68
aI25
aI23
aI3
aI25
aI3
aI43
asS'olivd001'
p4433
(lp4434
g4433
aS'Darren Oliver'
p4435
aS'49.0'
p4436
aI47
aI24
aI21
aI6
aI15
aI1
aI40
asg2252
(lp4437
g2252
ag2254
aS'197.0'
p4438
aI194
aI77
aI68
aI18
aI47
aI1
aI157
asg2258
(lp4439
g2258
ag2260
aS'31.1'
p4440
aI43
aI27
aI19
aI3
aI15
aI2
aI28
asS'bracb001'
p4441
(lp4442
g4441
aS'Brad Brach'
p4443
aS'30.2'
p4444
aI36
aI15
aI11
aI3
aI19
aI0
aI31
asS'hernp001'
p4445
(lp4446
g4445
aS'Pedro Hernandez'
p4447
aS'56.2'
p4448
aI80
aI43
aI43
aI10
aI23
aI1
aI29
asS'nolis001'
p4449
(lp4450
g4449
aS'Sean Nolin'
p4451
aS'1.0'
p4452
aI7
aI6
aI6
aI1
aI1
aI0
aI0
asS'stinj001'
p4453
(lp4454
g4453
aS'Josh Stinson'
p4455
aS'17.0'
p4456
aI10
aI7
aI6
aI4
aI3
aI0
aI12
asg2270
(lp4457
g2270
ag2272
aS'224.2'
p4458
aI207
aI113
aI105
aI35
aI71
aI0
aI177
asS'veraj001'
p4459
(lp4460
g4459
aS'Jose Veras'
p4461
aS'62.2'
p4462
aI45
aI23
aI21
aI6
aI22
aI1
aI60
asS'buenf001'
p4463
(lp4464
g4463
aS'Francisley Bueno'
p4465
aS'8.0'
p4466
aI4
aI0
aI0
aI0
aI2
aI1
aI5
asS'welkd001'
p4467
(lp4468
g4467
aS'Duke Welker'
p4469
aS'1.0'
p4470
aI0
aI0
aI0
aI0
aI0
aI0
aI1
asS'nathj001'
p4471
(lp4472
g4471
aS'Joe Nathan'
p4473
aS'64.2'
p4474
aI36
aI10
aI10
aI2
aI22
aI3
aI73
asg2288
(lp4475
g2288
ag2290
aS'201.1'
p4476
aI146
aI68
aI62
aI15
aI62
aI6
aI199
asg2291
(lp4477
g2291
ag2293
aS'31.0'
p4478
aI39
aI23
aI21
aI3
aI10
aI3
aI18
asS'burns001'
p4479
(lp4480
g4479
aS'Sean Burnett'
p4481
aS'9.2'
p4482
aI9
aI1
aI1
aI1
aI4
aI0
aI7
asS'wilht001'
p4483
(lp4484
g4483
aS'Tom Wilhelmsen'
p4485
aS'59.0'
p4486
aI45
aI28
aI27
aI2
aI33
aI5
aI45
asg2378
(lp4487
g2378
ag2380
aS'2.0'
p4488
aI5
aI5
aI5
aI1
aI1
aI0
aI5
asS'woodb004'
p4489
(lp4490
g4489
aS'Blake Wood'
p4491
aS'1.0'
p4492
aI1
aI0
aI0
aI0
aI3
aI0
aI1
asS'frasj002'
p4493
(lp4494
g4493
aS'Jason Frasor'
p4495
aS'49.0'
p4496
aI36
aI15
aI14
aI4
aI20
aI3
aI48
asg2303
(lp4497
g2303
ag2305
aS'39.2'
p4498
aI17
aI2
aI2
aI1
aI18
aI1
aI50
asg893
(lp4499
g893
ag895
aS'131.0'
p4500
aI120
aI60
aI58
aI10
aI36
aI3
aI95
asS'diekj001'
p4501
(lp4502
g4501
aS'Jake Diekman'
p4503
aS'38.1'
p4504
aI34
aI15
aI11
aI1
aI16
aI2
aI41
asg2753
(lp4505
g2753
ag2755
aS'204.1'
p4506
aI185
aI74
aI69
aI15
aI46
aI1
aI216
asS'martv002'
p4507
(lp4508
g4507
aS'Victor Marte'
p4509
aS'3.0'
p4510
aI4
aI2
aI2
aI0
aI3
aI1
aI2
asS'vincn001'
p4511
(lp4512
g4511
aS'Nick Vincent'
p4513
aS'46.1'
p4514
aI33
aI11
aI11
aI1
aI11
aI3
aI49
asg2324
(lp4515
g2324
ag2326
aS'4.1'
p4516
aI6
aI5
aI4
aI0
aI4
aI0
aI4
asg2330
(lp4517
g2330
ag2332
aS'60.1'
p4518
aI83
aI45
aI44
aI7
aI25
aI2
aI41
asg2339
(lp4519
g2339
ag2341
aS'54.0'
p4520
aI56
aI27
aI26
aI3
aI23
aI2
aI53
asS'robet001'
p4521
(lp4522
g4521
aS'Tyler Robertson'
p4523
aS'1.0'
p4524
aI1
aI1
aI1
aI1
aI0
aI0
aI2
asg2342
(lp4525
g2342
ag2344
aS'11.0'
p4526
aI11
aI1
aI1
aI0
aI1
aI0
aI14
asS'affej001'
p4527
(lp4528
g4527
aS'Jeremy Affeldt'
p4529
aS'33.1'
p4530
aI27
aI14
aI14
aI2
aI17
aI5
aI21
asS'putzj001'
p4531
(lp4532
g4531
aS'J.J. Putz'
p4533
aS'34.0'
p4534
aI26
aI9
aI9
aI4
aI17
aI1
aI38
asg2357
(lp4535
g2357
ag2359
aS'55.1'
p4536
aI69
aI33
aI30
aI10
aI25
aI3
aI31
asS'maron001'
p4537
(lp4538
g4537
aS'Nick Maronde'
p4539
aS'5.0'
p4540
aI4
aI6
aI4
aI1
aI8
aI1
aI5
asg2696
(lp4541
g2696
ag2698
aS'3.2'
p4542
aI6
aI3
aI3
aI0
aI3
aI0
aI0
asS'albea001'
p4543
(lp4544
g4543
aS'Andrew Albers'
p4545
aS'60.0'
p4546
aI64
aI34
aI27
aI6
aI7
aI0
aI25
asS'drabk001'
p4547
(lp4548
g4547
aS'Kyle Drabek'
p4549
aS'2.0'
p4550
aI4
aI2
aI2
aI1
aI2
aI0
aI3
asS'valvj001'
p4551
(lp4552
g4551
aS'Jose Valverde'
p4553
aS'19.1'
p4554
aI18
aI12
aI12
aI6
aI6
aI0
aI19
asS'luetl001'
p4555
(lp4556
g4555
aS'Lucas Luetge'
p4557
aS'36.2'
p4558
aI42
aI22
aI20
aI2
aI16
aI2
aI27
asS'ortej001'
p4559
(lp4560
g4559
aS'Jose Ortega'
p4561
aS'11.2'
p4562
aI10
aI5
aI5
aI2
aI6
aI1
aI10
asg2390
(lp4563
g2390
ag2392
aS'141.1'
p4564
aI165
aI98
aI88
aI17
aI49
aI1
aI93
asS'wolfr002'
p4565
(lp4566
g4565
aS'Ross Wolf'
p4567
aS'47.2'
p4568
aI58
aI24
aI22
aI5
aI15
aI1
aI21
asg2396
(lp4569
g2396
ag2398
aS'76.2'
p4570
aI48
aI16
aI16
aI6
aI18
aI1
aI111
asS'hochl001'
p4571
(lp4572
g4571
aS'Luke Hochevar'
p4573
aS'70.1'
p4574
aI41
aI15
aI15
aI8
aI17
aI1
aI82
asg2399
(lp4575
g2399
ag2401
aS'81.1'
p4576
aI78
aI30
aI25
aI4
aI27
aI3
aI79
asg2408
(lp4577
g2408
ag2410
aS'200.0'
p4578
aI171
aI91
aI85
aI36
aI54
aI2
aI171
asS'contj002'
p4579
(lp4580
g4579
aS'Jose Contreras'
p4581
aS'4.2'
p4582
aI7
aI5
aI5
aI1
aI6
aI0
aI5
asS'doteo001'
p4583
(lp4584
g4583
aS'Octavio Dotel'
p4585
aS'4.1'
p4586
aI10
aI7
aI7
aI0
aI4
aI0
aI4
asS'gomeb001'
p4587
(lp4588
g4587
aS'Brandon Gomes'
p4589
aS'19.0'
p4590
aI18
aI15
aI14
aI4
aI7
aI3
aI29
asS'hoovj002'
p4591
(lp4592
g4591
aS'J.J. Hoover'
p4593
aS'66.0'
p4594
aI47
aI21
aI21
aI6
aI26
aI6
aI67
asg2420
(lp4595
g2420
ag2422
aS'8.0'
p4596
aI11
aI3
aI2
aI0
aI3
aI0
aI4
asS'britz001'
p4597
(lp4598
g4597
aS'Zach Britton'
p4599
aS'40.0'
p4600
aI52
aI23
aI22
aI4
aI17
aI1
aI18
asg2426
(lp4601
g2426
ag2428
aS'14.0'
p4602
aI13
aI8
aI8
aI2
aI7
aI0
aI12
asg923
(lp4603
g923
ag925
aS'185.1'
p4604
aI218
aI89
aI86
aI24
aI45
aI1
aI101
asg173
(lp4605
g173
ag175
aS'51.2'
p4606
aI59
aI27
aI21
aI3
aI11
aI0
aI29
asg239
(lp4607
g239
ag241
aS'178.1'
p4608
aI135
aI46
aI45
aI7
aI31
aI1
aI191
asS'gutij002'
p4609
(lp4610
g4609
aS'Juan Gutierrez'
p4611
aS'55.1'
p4612
aI56
aI29
aI26
aI5
aI20
aI2
aI45
asS'devrc001'
p4613
(lp4614
g4613
aS'Cole De Vries'
p4615
aS'15.0'
p4616
aI22
aI18
aI18
aI6
aI9
aI0
aI12
asS'torra002'
p4617
(lp4618
g4617
aS'Alexander Torres'
p4619
aS'58.0'
p4620
aI32
aI12
aI11
aI1
aI20
aI1
aI62
asS'brasr001'
p4621
(lp4622
g4621
aS'Ryan Brasier'
p4623
aS'8.2'
p4624
aI7
aI2
aI2
aI1
aI4
aI0
aI7
asS'hatcc002'
p4625
(lp4626
g4625
aS'Chris Hatcher'
p4627
aS'8.1'
p4628
aI13
aI13
aI12
aI1
aI4
aI1
aI7
asg1352
(lp4629
g1352
ag1354
aS'11.0'
p4630
aI16
aI12
aI11
aI2
aI5
aI1
aI5
asS'rasmc002'
p4631
(lp4632
g4631
aS'Cory Rasmus'
p4633
aS'21.1'
p4634
aI24
aI15
aI13
aI6
aI13
aI2
aI20
asS'beavb001'
p4635
(lp4636
g4635
aS'Blake Beavan'
p4637
aS'39.2'
p4638
aI46
aI27
aI26
aI8
aI8
aI0
aI27
asg2462
(lp4639
g2462
ag2464
aS'69.2'
p4640
aI59
aI29
aI29
aI7
aI20
aI1
aI64
asg2468
(lp4641
g2468
ag2470
aS'189.1'
p4642
aI179
aI80
aI75
aI26
aI40
aI0
aI161
asS'allec002'
p4643
(lp4644
g4643
aS'Cody Allen'
p4645
aS'70.1'
p4646
aI62
aI22
aI19
aI7
aI26
aI2
aI88
asg2486
(lp4647
g2486
ag2488
aS'78.0'
p4648
aI73
aI27
aI24
aI5
aI31
aI5
aI78
asS'downd001'
p4649
(lp4650
g4649
aS'Darin Downs'
p4651
aS'35.0'
p4652
aI36
aI20
aI19
aI4
aI11
aI2
aI37
asS'matub001'
p4653
(lp4654
g4653
aS'Brian Matusz'
p4655
aS'51.0'
p4656
aI43
aI21
aI20
aI3
aI16
aI2
aI50
asg2492
(lp4657
g2492
ag2494
aS'73.2'
p4658
aI68
aI23
aI23
aI3
aI21
aI3
aI46
asS'strop001'
p4659
(lp4660
g4659
aS'Pedro Strop'
p4661
aS'57.1'
p4662
aI45
aI29
aI28
aI5
aI26
aI2
aI66
asg2501
(lp4663
g2501
ag2503
aS'30.1'
p4664
aI40
aI30
aI23
aI3
aI26
aI0
aI9
asg2504
(lp4665
g2504
ag2506
aS'127.2'
p4666
aI109
aI56
aI55
aI19
aI29
aI0
aI118
asS'vargj001'
p4667
(lp4668
g4667
aS'Jason Vargas'
p4669
aS'149.2'
p4670
aI162
aI68
aI67
aI17
aI46
aI2
aI109
asg2516
(lp4671
g2516
ag2518
aS'138.0'
p4672
aI151
aI81
aI73
aI28
aI27
aI0
aI89
asS'baila001'
p4673
(lp4674
g4673
aS'Andrew Bailey'
p4675
aS'28.1'
p4676
aI23
aI12
aI12
aI7
aI12
aI0
aI39
asS'cecib001'
p4677
(lp4678
g4677
aS'Brett Cecil'
p4679
aS'60.2'
p4680
aI44
aI20
aI18
aI4
aI23
aI3
aI70
asS'rices001'
p4681
(lp4682
g4681
aS'Scott Rice'
p4683
aS'51.0'
p4684
aI42
aI22
aI20
aI1
aI27
aI4
aI41
asS'delaj002'
p4685
(lp4686
g4685
aS'Jose de la Torre'
p4687
aS'11.1'
p4688
aI10
aI8
aI8
aI2
aI10
aI0
aI15
asS'mcclk001'
p4689
(lp4690
g4689
aS'Kyle McClellan'
p4691
aS'9.0'
p4692
aI7
aI8
aI8
aI2
aI5
aI0
aI3
asS'chrin001'
p4693
(lp4694
g4693
aS'Nick Christiani'
p4695
aS'4.0'
p4696
aI2
aI1
aI1
aI1
aI2
aI0
aI1
asS'mayay001'
p4697
(lp4698
g4697
aS'Yunesky Maya'
p4699
aS'0.1'
p4700
aI2
aI2
aI2
aI1
aI0
aI0
aI0
asS'hynec001'
p4701
(lp4702
g4701
aS'Colt Hynes'
p4703
aS'17.0'
p4704
aI25
aI17
aI17
aI3
aI9
aI2
aI13
asS'dunnm002'
p4705
(lp4706
g4705
aS'Michael Dunn'
p4707
aS'67.2'
p4708
aI53
aI21
aI20
aI5
aI28
aI4
aI72
asS'sorij001'
p4709
(lp4710
g4709
aS'Joakim Soria'
p4711
aS'23.1'
p4712
aI18
aI10
aI10
aI2
aI14
aI2
aI28
asg2579
(lp4713
g2579
ag2581
aS'27.0'
p4714
aI28
aI9
aI7
aI2
aI4
aI0
aI27
asS'reynm002'
p4715
(lp4716
g4715
aS'Matt Reynolds'
p4717
aS'27.0'
p4718
aI25
aI7
aI6
aI2
aI5
aI1
aI23
asg2582
(lp4719
g2582
ag2584
aS'201.2'
p4720
aI189
aI92
aI89
aI14
aI76
aI0
aI198
asS'venty001'
p4721
(lp4722
g4721
aS'Yordano Ventura'
p4723
aS'15.1'
p4724
aI13
aI6
aI6
aI3
aI6
aI0
aI11
asS'waltp001'
p4725
(lp4726
g4725
aS'P.J. Walters'
p4727
aS'39.1'
p4728
aI51
aI30
aI26
aI5
aI18
aI0
aI22
asS'johne003'
p4729
(lp4730
g4729
aS'Erik Johnson'
p4731
aS'27.1'
p4732
aI32
aI16
aI10
aI5
aI11
aI0
aI18
asg2594
(lp4733
g2594
ag2596
aS'157.2'
p4734
aI168
aI97
aI90
aI17
aI64
aI7
aI119
asS'claip001'
p4735
(lp4736
g4735
aS'Preston Claiborne'
p4737
aS'50.1'
p4738
aI51
aI23
aI23
aI7
aI14
aI4
aI42
asS'sance001'
p4739
(lp4740
g4739
aS'Eduardo Sanchez'
p4741
aS'6.0'
p4742
aI5
aI4
aI4
aI1
aI5
aI0
aI5
asS'frees001'
p4743
(lp4744
g4743
aS'Sam Freeman'
p4745
aS'12.1'
p4746
aI8
aI3
aI3
aI0
aI5
aI0
aI8
asS'tazaj001'
p4747
(lp4748
g4747
aS'Junichi Tazawa'
p4749
aS'68.1'
p4750
aI70
aI25
aI24
aI9
aI12
aI1
aI72
asS'durbc001'
p4751
(lp4752
g4751
aS'Chad Durbin'
p4753
aS'16.0'
p4754
aI25
aI17
aI16
aI4
aI9
aI1
aI16
asS'benoj001'
p4755
(lp4756
g4755
aS'Joaquin Benoit'
p4757
aS'67.0'
p4758
aI47
aI15
aI15
aI5
aI22
aI2
aI73
asS'moylp001'
p4759
(lp4760
g4759
aS'Peter Moylan'
p4761
aS'15.1'
p4762
aI23
aI11
aI11
aI3
aI7
aI1
aI6
asS'gearc001'
p4763
(lp4764
g4763
aS'Cory Gearrin'
p4765
aS'30.2'
p4766
aI30
aI13
aI13
aI2
aI16
aI2
aI23
asg2627
(lp4767
g2627
ag2629
aS'34.0'
p4768
aI32
aI15
aI15
aI1
aI16
aI1
aI33
asS'marsb001'
p4769
(lp4770
g4769
aS'Brett Marshall'
p4771
aS'12.0'
p4772
aI13
aI6
aI6
aI3
aI7
aI0
aI7
asS'dwyec001'
p4773
(lp4774
g4773
aS'Chris Dwyer'
p4775
aS'2.2'
p4776
aI2
aI0
aI0
aI0
aI1
aI0
aI2
asS'carrc003'
p4777
(lp4778
g4777
aS'Carlos Carrasco'
p4779
aS'46.2'
p4780
aI64
aI36
aI35
aI4
aI18
aI2
aI30
asS'wrigs001'
p4781
(lp4782
g4781
aS'Steven Wright'
p4783
aS'13.1'
p4784
aI12
aI8
aI8
aI0
aI9
aI0
aI10
asg1166
(lp4785
g1166
ag1168
aS'43.1'
p4786
aI50
aI30
aI26
aI8
aI15
aI2
aI41
asg1745
(lp4787
g1745
ag1747
aS'93.2'
p4788
aI106
aI59
aI55
aI10
aI43
aI0
aI54
asg2651
(lp4789
g2651
ag2653
aS'105.1'
p4790
aI125
aI57
aI50
aI11
aI24
aI5
aI81
asS'jansc001'
p4791
(lp4792
g4791
aS'Casey Janssen'
p4793
aS'52.2'
p4794
aI39
aI17
aI15
aI3
aI13
aI1
aI50
asg284
(lp4795
g284
ag286
aS'71.2'
p4796
aI51
aI19
aI19
aI5
aI12
aI1
aI54
asg2663
(lp4797
g2663
ag2665
aS'92.2'
p4798
aI100
aI53
aI50
aI12
aI27
aI3
aI76
asg2666
(lp4799
g2666
ag2668
aS'142.2'
p4800
aI140
aI72
aI70
aI14
aI54
aI2
aI92
asS'fielj002'
p4801
(lp4802
g4801
aS'Josh Fields'
p4803
aS'38.0'
p4804
aI31
aI21
aI21
aI8
aI18
aI4
aI40
asg2681
(lp4805
g2681
ag2683
aS'52.0'
p4806
aI44
aI18
aI18
aI7
aI15
aI0
aI65
asg2687
(lp4807
g2687
ag2689
aS'173.1'
p4808
aI152
aI65
aI59
aI20
aI57
aI0
aI169
asg2690
(lp4809
g2690
ag2692
aS'66.2'
p4810
aI53
aI17
aI15
aI1
aI26
aI2
aI48
asg2699
(lp4811
g2699
ag2701
aS'177.2'
p4812
aI152
aI54
aI52
aI13
aI46
aI1
aI148
asS'leesc001'
p4813
(lp4814
g4813
aS'Charlie Leesman'
p4815
aS'15.1'
p4816
aI16
aI14
aI12
aI2
aI16
aI0
aI13
asS'perej001'
p4817
(lp4818
g4817
aS'Juan Perez'
p4819
aS'31.1'
p4820
aI23
aI17
aI13
aI3
aI15
aI0
aI33
asS'bellh001'
p4821
(lp4822
g4821
aS'Heath Bell'
p4823
aS'65.2'
p4824
aI74
aI30
aI30
aI12
aI16
aI1
aI72
asS'buckb002'
p4825
(lp4826
g4825
aS'Billy Buckner'
p4827
aS'17.1'
p4828
aI17
aI9
aI9
aI5
aI7
aI0
aI7
asS'luekj001'
p4829
(lp4830
g4829
aS'Josh Lueke'
p4831
aS'21.0'
p4832
aI23
aI12
aI12
aI3
aI12
aI1
aI25
asS'blacv001'
p4833
(lp4834
g4833
aS'Vic Black'
p4835
aS'17.0'
p4836
aI17
aI7
aI6
aI1
aI6
aI0
aI15
asS'defrj001'
p4837
(lp4838
g4837
aS'Justin De Fratus'
p4839
aS'46.2'
p4840
aI45
aI21
aI20
aI3
aI25
aI3
aI42
asg2777
(lp4841
g2777
ag2779
aS'117.0'
p4842
aI109
aI43
aI42
aI7
aI28
aI0
aI100
asg2780
(lp4843
g2780
ag2782
aS'53.2'
p4844
aI38
aI11
aI9
aI1
aI11
aI0
aI40
asg2786
(lp4845
g2786
ag2788
aS'36.0'
p4846
aI39
aI26
aI26
aI9
aI21
aI1
aI46
asg1433
(lp4847
g1433
ag1435
aS'28.1'
p4848
aI33
aI14
aI14
aI4
aI17
aI1
aI20
asS'figup001'
p4849
(lp4850
g4849
aS'Pedro Figueroa'
p4851
aS'3.0'
p4852
aI6
aI4
aI4
aI2
aI3
aI0
aI3
asg2477
(lp4853
g2477
ag2479
aS'102.1'
p4854
aI90
aI42
aI41
aI2
aI27
aI1
aI57
asS'butlk001'
p4855
(lp4856
g4855
aS'Keith Butler'
p4857
aS'19.2'
p4858
aI13
aI9
aI9
aI0
aI11
aI0
aI16
asg2804
(lp4859
g2804
ag2806
aS'23.0'
p4860
aI17
aI16
aI16
aI8
aI17
aI1
aI16
asS'perec002'
p4861
(lp4862
g4861
aS'Chris Perez'
p4863
aS'54.0'
p4864
aI56
aI27
aI26
aI11
aI21
aI2
aI54
asS'boshb001'
p4865
(lp4866
g4865
aS'Buddy Boshers'
p4867
aS'15.1'
p4868
aI13
aI8
aI8
aI0
aI8
aI1
aI13
asg2813
(lp4869
g2813
ag2815
aS'120.2'
p4870
aI107
aI46
aI44
aI13
aI36
aI4
aI78
asS'milla002'
p4871
(lp4872
g4871
aS'Andrew Miller'
p4873
aS'30.1'
p4874
aI25
aI12
aI9
aI3
aI17
aI0
aI48
asS'huntt002'
p4875
(lp4876
g4875
aS'Tommy Hunter'
p4877
aS'86.0'
p4878
aI71
aI28
aI27
aI11
aI14
aI1
aI68
asS'epplc001'
p4879
(lp4880
g4879
aS'Cody Eppley'
p4881
aS'1.1'
p4882
aI4
aI4
aI4
aI0
aI0
aI0
aI1
asg2744
(lp4883
g2744
ag2746
aS'80.1'
p4884
aI70
aI30
aI26
aI5
aI27
aI5
aI54
asS'sippt001'
p4885
(lp4886
g4885
aS'Tony Sipp'
p4887
aS'37.1'
p4888
aI35
aI22
aI20
aI6
aI22
aI2
aI42
asg2771
(lp4889
g2771
ag2773
aS'190.1'
p4890
aI193
aI60
aI56
aI14
aI29
aI0
aI117
asg2834
(lp4891
g2834
ag2836
aS'132.1'
p4892
aI180
aI96
aI89
aI29
aI34
aI4
aI108
asg2837
(lp4893
g2837
ag2839
aS'153.0'
p4894
aI169
aI82
aI75
aI17
aI47
aI3
aI105
asS'friee001'
p4895
(lp4896
g4895
aS'Ernesto Frieri'
p4897
aS'68.2'
p4898
aI55
aI29
aI27
aI11
aI30
aI1
aI98
asS'zagum001'
p4899
(lp4900
g4899
aS'Mike Zagurski'
p4901
aS'6.0'
p4902
aI11
aI12
aI12
aI1
aI8
aI0
aI5
asg2840
(lp4903
g2840
ag2842
aS'197.1'
p4904
aI188
aI82
aI76
aI11
aI61
aI3
aI126
asg2843
(lp4905
g2843
ag2845
aS'162.1'
p4906
aI161
aI84
aI78
aI13
aI71
aI0
aI139
asa.