(lp0
(dp1
S'mcdod002'
p2
(lp3
g2
aS'Darnell McDonald'
p4
aI103
aI88
aI17
aI18
aI7
aI0
aI2
aI9
aI1
aI1
aI12
aI19
aI31
asS'corbp001'
p5
(lp6
g5
aS'Patrick Corbin'
p7
aI39
aI32
aI3
aI4
aI0
aI1
aI0
aI4
aI0
aI0
aI1
aI14
aI6
asS'tejar001'
p8
(lp9
g8
aS'Ruben Tejada'
p10
aI489
aI453
aI53
aI131
aI24
aI0
aI1
aI25
aI4
aI4
aI27
aI69
aI158
asS'torrc001'
p11
(lp12
g11
aS'Carlos Torres'
p13
aI13
aI9
aI1
aI2
aI0
aI0
aI0
aI1
aI0
aI0
aI1
aI4
aI2
asS'belta001'
p14
(lp15
g14
aS'Adrian Beltre'
p16
aI641
aI592
aI92
aI190
aI32
aI2
aI35
aI99
aI1
aI0
aI36
aI80
aI331
asS'tream001'
p17
(lp18
g17
aS'Matt Treanor'
p19
aI119
aI100
aI11
aI18
aI3
aI1
aI2
aI10
aI1
aI1
aI14
aI29
aI29
asS'woodt004'
p20
(lp21
g20
aS'Travis Wood'
p22
aI49
aI47
aI5
aI9
aI2
aI0
aI1
aI4
aI0
aI0
aI0
aI17
aI14
asS'expol001'
p23
(lp24
g23
aS'Luis Exposito'
p25
aI22
aI18
aI2
aI1
aI0
aI0
aI0
aI0
aI0
aI0
aI3
aI5
aI1
asS'scutm001'
p26
(lp27
g26
aS'Marco Scutaro'
p28
aI659
aI597
aI85
aI183
aI30
aI4
aI7
aI73
aI9
aI4
aI40
aI47
aI242
asS'gonzc001'
p29
(lp30
g29
aS'Carlos Gonzalez'
p31
aI566
aI505
aI88
aI154
aI29
aI5
aI22
aI85
aI20
aI5
aI56
aI112
aI259
asS'gally001'
p32
(lp33
g32
aS'Yovani Gallardo'
p34
aI69
aI63
aI3
aI10
aI3
aI0
aI1
aI8
aI0
aI0
aI0
aI24
aI16
asS'worlv001'
p35
(lp36
g35
aS'Vance Worley'
p37
aI44
aI37
aI0
aI3
aI1
aI0
aI0
aI2
aI0
aI0
aI0
aI13
aI4
asS'culbc001'
p38
(lp39
g38
aS'Charlie Culberson'
p40
aI23
aI22
aI0
aI3
aI0
aI0
aI0
aI1
aI0
aI0
aI0
aI7
aI3
asS'aybae001'
p41
(lp42
g41
aS'Erick Aybar'
p43
aI554
aI517
aI67
aI150
aI31
aI5
aI8
aI45
aI20
aI4
aI22
aI61
aI215
asS'arrob001'
p44
(lp45
g44
aS'Bronson Arroyo'
p46
aI67
aI59
aI3
aI8
aI1
aI0
aI1
aI3
aI0
aI0
aI1
aI27
aI12
asS'therr001'
p47
(lp48
g47
aS'Ryan Theriot'
p49
aI384
aI352
aI45
aI95
aI16
aI1
aI0
aI28
aI13
aI5
aI24
aI47
aI113
asS'garca003'
p50
(lp51
g50
aS'Avisail Garcia'
p52
aI51
aI47
aI7
aI15
aI0
aI0
aI0
aI3
aI0
aI2
aI3
aI10
aI15
asS'kellj001'
p53
(lp54
g53
aS'Joe Kelly'
p55
aI35
aI33
aI3
aI5
aI2
aI0
aI0
aI2
aI0
aI0
aI0
aI13
aI7
asS'herrc001'
p56
(lp57
g56
aS'Chris Herrmann'
p58
aI19
aI18
aI0
aI1
aI0
aI0
aI0
aI1
aI0
aI0
aI1
aI5
aI1
asS'kottg001'
p59
(lp60
g59
aS'George Kottaras'
p61
aI205
aI167
aI20
aI36
aI6
aI1
aI9
aI31
aI0
aI0
aI37
aI48
aI71
asS'cainm001'
p62
(lp63
g62
aS'Matt Cain'
p64
aI81
aI71
aI6
aI13
aI2
aI0
aI1
aI6
aI0
aI0
aI2
aI31
aI18
asS'wrigj001'
p65
(lp66
g65
aS'Jamey Wright'
p67
aI1
aI1
aI0
aI0
aI0
aI0
aI0
aI0
aI0
aI0
aI0
aI0
aI0
asS'willj003'
p68
(lp69
g68
aS'Jerome Williams'
p70
aI4
aI4
aI1
aI1
aI1
aI0
aI0
aI0
aI0
aI0
aI0
aI0
aI2
asS'niesj001'
p71
(lp72
g71
aS'Jon Niese'
p73
aI67
aI55
aI8
aI12
aI0
aI0
aI0
aI2
aI0
aI0
aI5
aI19
aI12
asS'burre001'
p74
(lp75
g74
aS'Emmanuel Burriss'
p76
aI150
aI136
aI15
aI29
aI1
aI0
aI0
aI7
aI5
aI3
aI10
aI25
aI30
asS'willj004'
p77
(lp78
g77
aS'Josh Willingham'
p79
aI615
aI519
aI85
aI135
aI30
aI1
aI35
aI110
aI3
aI2
aI76
aI141
aI272
asS'quenc001'
p80
(lp81
g80
aS'Carlos Quentin'
p82
aI321
aI269
aI42
aI69
aI20
aI0
aI16
aI44
aI0
aI1
aI33
aI40
aI137
asS'jurrj001'
p83
(lp84
g83
aS'Jair Jurrjens'
p85
aI17
aI13
aI1
aI1
aI0
aI0
aI0
aI0
aI0
aI0
aI1
aI6
aI1
asS'richg002'
p86
(lp87
g86
aS'Garrett Richards'
p88
aI2
aI2
aI0
aI0
aI0
aI0
aI0
aI0
aI0
aI0
aI0
aI1
aI0
asS'stamc001'
p89
(lp90
g89
aS'Craig Stammen'
p91
aI8
aI6
aI0
aI0
aI0
aI0
aI0
aI0
aI0
aI0
aI0
aI4
aI0
asS'maldm001'
p92
(lp93
g92
aS'Martin Maldonado'
p94
aI238
aI217
aI21
aI60
aI8
aI0
aI8
aI29
aI1
aI1
aI16
aI49
aI92
asS'heywj001'
p95
(lp96
g95
aS'Jason Heyward'
p97
aI642
aI578
aI90
aI154
aI30
aI6
aI26
aI80
aI20
aI8
aI58
aI150
aI274
asS'sellj002'
p98
(lp99
g98
aS'Justin Sellers'
p100
aI41
aI36
aI5
aI8
aI3
aI1
aI1
aI2
aI0
aI0
aI4
aI10
aI16
asS'sanca004'
p101
(lp102
g101
aS'Anibal Sanchez'
p103
aI33
aI29
aI1
aI3
aI0
aI1
aI0
aI0
aI0
aI0
aI1
aI17
aI5
asS'lecus001'
p104
(lp105
g104
aS'Sam LeCure'
p106
aI1
aI1
aI0
aI0
aI0
aI0
aI0
aI0
aI0
aI0
aI0
aI1
aI0
asS'pinam001'
p107
(lp108
g107
aS'Manuel Pina'
p109
aI2
aI2
aI0
aI0
aI0
aI0
aI0
aI0
aI0
aI0
aI0
aI0
aI0
asS'hernd003'
p110
(lp111
g110
aS'David Herndon'
p112
aI1
aI1
aI0
aI0
aI0
aI0
aI0
aI0
aI0
aI0
aI0
aI1
aI0
asS'hernd002'
p113
(lp114
g113
aS'David Hernandez'
p115
aI1
aI1
aI0
aI1
aI0
aI0
aI0
aI0
aI0
aI0
aI0
aI0
aI1
asS'crawc002'
p116
(lp117
g116
aS'Carl Crawford'
p118
aI125
aI117
aI23
aI33
aI10
aI2
aI3
aI19
aI5
aI0
aI3
aI22
aI56
asS'negrk001'
p119
(lp120
g119
aS'Kristopher Negron'
p121
aI5
aI4
aI2
aI1
aI0
aI0
aI0
aI0
aI0
aI0
aI1
aI2
aI1
asS'vicid001'
p122
(lp123
g122
aS'Dayan Viciedo'
p124
aI543
aI505
aI64
aI129
aI18
aI1
aI25
aI78
aI0
aI2
aI28
aI120
aI224
asS'valdw001'
p125
(lp126
g125
aS'Wilson Valdez'
p127
aI203
aI189
aI15
aI40
aI4
aI0
aI0
aI15
aI3
aI1
aI8
aI36
aI44
asS'rodra001'
p128
(lp129
g128
aS'Alex Rodriguez'
p130
aI529
aI463
aI74
aI126
aI17
aI1
aI18
aI57
aI13
aI1
aI51
aI116
aI199
asS'davir003'
p131
(lp132
g131
aS'Rajai Davis'
p133
aI487
aI447
aI64
aI115
aI24
aI3
aI8
aI43
aI46
aI13
aI29
aI102
aI169
asS'wilsj002'
p134
(lp135
g134
aS'Jack Wilson'
p136
aI73
aI68
aI4
aI12
aI1
aI1
aI0
aI3
aI0
aI0
aI2
aI12
aI15
asS'mikom001'
p137
(lp138
g137
aS'Miles Mikolas'
p139
aI3
aI3
aI0
aI0
aI0
aI0
aI0
aI0
aI0
aI0
aI0
aI1
aI0
asS'hanst001'
p140
(lp141
g140
aS'Tommy Hanson'
p142
aI59
aI47
aI0
aI0
aI0
aI0
aI0
aI0
aI0
aI0
aI2
aI29
aI0
asS'cespy001'
p143
(lp144
g143
aS'Yoenis Cespedes'
p145
aI540
aI487
aI70
aI142
aI25
aI5
aI23
aI82
aI16
aI4
aI43
aI102
aI246
asS'flowt001'
p146
(lp147
g146
aS'Tyler Flowers'
p148
aI153
aI136
aI19
aI29
aI6
aI0
aI7
aI13
aI2
aI1
aI12
aI56
aI56
asS'snidt001'
p149
(lp150
g149
aS'Travis Snider'
p151
aI183
aI162
aI23
aI41
aI7
aI1
aI4
aI17
aI2
aI0
aI17
aI47
aI62
asS'norrb001'
p152
(lp153
g152
aS'Bud Norris'
p154
aI36
aI29
aI1
aI2
aI0
aI0
aI0
aI2
aI0
aI0
aI1
aI12
aI2
asS'joycm001'
p155
(lp156
g155
aS'Matthew Joyce'
p157
aI462
aI399
aI55
aI96
aI18
aI3
aI17
aI59
aI4
aI3
aI55
aI102
aI171
asS'crawb001'
p158
(lp159
g158
aS'Brandon Crawford'
p160
aI469
aI428
aI44
aI108
aI26
aI3
aI4
aI45
aI1
aI4
aI33
aI93
aI152
asS'jimeu001'
p161
(lp162
g161
aS'Ubaldo Jimenez'
p163
aI3
aI3
aI0
aI0
aI0
aI0
aI0
aI0
aI0
aI0
aI0
aI3
aI0
asS'adamm002'
p164
(lp165
g164
aS'Matt Adams'
p166
aI83
aI78
aI6
aI19
aI6
aI0
aI1
aI10
aI0
aI0
aI5
aI21
aI28
asS'santj003'
p167
(lp168
g167
aS'Johan Santana'
p169
aI40
aI35
aI0
aI3
aI0
aI0
aI0
aI0
aI0
aI0
aI0
aI14
aI3
asS'rodrw002'
p170
(lp171
g170
aS'Wandy Rodriguez'
p172
aI41
aI38
aI1
aI4
aI0
aI0
aI0
aI1
aI0
aI0
aI0
aI9
aI4
asS'suzui001'
p173
(lp174
g173
aS'Ichiro Suzuki'
p175
aI663
aI629
aI77
aI178
aI28
aI6
aI9
aI55
aI29
aI7
aI22
aI61
aI245
asS'darnj001'
p176
(lp177
g176
aS'James Darnell'
p178
aI19
aI17
aI1
aI4
aI1
aI0
aI1
aI1
aI0
aI0
aI2
aI2
aI8
asS'hills004'
p179
(lp180
g179
aS'Steven Hill'
p181
aI8
aI8
aI1
aI2
aI1
aI0
aI0
aI0
aI0
aI0
aI0
aI2
aI3
asS'mcbrm002'
p182
(lp183
g182
aS'Matt McBride'
p184
aI81
aI78
aI8
aI16
aI2
aI0
aI2
aI11
aI0
aI0
aI1
aI17
aI24
asS'ingeb001'
p185
(lp186
g185
aS'Brandon Inge'
p187
aI331
aI303
aI33
aI66
aI14
aI0
aI12
aI54
aI0
aI1
aI24
aI91
aI116
asS'mosed001'
p188
(lp189
g188
aS'Dustin Moseley'
p190
aI1
aI1
aI0
aI0
aI0
aI0
aI0
aI0
aI0
aI0
aI0
aI0
aI0
asS'hendl001'
p191
(lp192
g191
aS'Liam Hendriks'
p193
aI2
aI2
aI0
aI0
aI0
aI0
aI0
aI0
aI0
aI0
aI0
aI1
aI0
asS'quirg001'
p194
(lp195
g194
aS'Guillermo Quiroz'
p196
aI2
aI2
aI0
aI0
aI0
aI0
aI0
aI0
aI0
aI0
aI0
aI1
aI0
asS'eovan001'
p197
(lp198
g197
aS'Nathan Eovaldi'
p199
aI36
aI32
aI2
aI3
aI0
aI0
aI0
aI0
aI0
aI0
aI1
aI20
aI3
asS'morrl001'
p200
(lp201
g200
aS'Logan Morrison'
p202
aI320
aI284
aI28
aI64
aI14
aI1
aI11
aI36
aI1
aI0
aI29
aI57
aI113
asS'markn001'
p203
(lp204
g203
aS'Nick Markakis'
p205
aI471
aI420
aI59
aI125
aI28
aI3
aI13
aI54
aI1
aI1
aI42
aI51
aI198
asS'franj004'
p206
(lp207
g206
aS'Jeff Francoeur'
p208
aI590
aI548
aI58
aI129
aI26
aI3
aI16
aI48
aI4
aI7
aI34
aI118
aI209
asS'hairs001'
p209
(lp210
g209
aS'Scott Hairston'
p211
aI389
aI369
aI51
aI97
aI24
aI3
aI20
aI56
aI8
aI2
aI18
aI81
aI187
asS'nievw001'
p212
(lp213
g212
aS'Wil Nieves'
p214
aI83
aI78
aI6
aI23
aI3
aI0
aI2
aI8
aI0
aI1
aI4
aI15
aI32
asS'barnd001'
p215
(lp216
g215
aS'Darwin Barney'
p217
aI568
aI529
aI72
aI135
aI26
aI4
aI7
aI44
aI6
aI1
aI32
aI56
aI190
asS'lohsk001'
p218
(lp219
g218
aS'Kyle Lohse'
p220
aI77
aI63
aI4
aI6
aI1
aI0
aI0
aI3
aI0
aI0
aI2
aI18
aI7
asS'sweer001'
p221
(lp222
g221
aS'Ryan Sweeney'
p223
aI219
aI204
aI22
aI53
aI19
aI2
aI0
aI16
aI0
aI0
aI12
aI43
aI76
asS'friec001'
p224
(lp225
g224
aS'Christian Friedrich'
p226
aI29
aI25
aI1
aI2
aI0
aI0
aI0
aI0
aI0
aI0
aI3
aI15
aI2
asS'parra001'
p227
(lp228
g227
aS'Andy Parrino'
p229
aI137
aI115
aI9
aI24
aI5
aI0
aI1
aI6
aI1
aI0
aI17
aI34
aI32
asS'jimel001'
p230
(lp231
g230
aS'Luis Antonio Jimenez'
p232
aI18
aI17
aI0
aI1
aI0
aI0
aI0
aI0
aI0
aI0
aI1
aI4
aI1
asS'eatoa002'
p233
(lp234
g233
aS'Adam Eaton'
p235
aI103
aI85
aI19
aI22
aI3
aI2
aI2
aI5
aI2
aI3
aI14
aI15
aI35
asS'delgr001'
p236
(lp237
g236
aS'Randall Delgado'
p238
aI26
aI23
aI3
aI6
aI0
aI0
aI0
aI1
aI0
aI0
aI0
aI8
aI6
asS'bowdm001'
p239
(lp240
g239
aS'Michael Bowden'
p241
aI2
aI2
aI0
aI0
aI0
aI0
aI0
aI0
aI0
aI0
aI0
aI2
aI0
asS'moyej001'
p242
(lp243
g242
aS'Jamie Moyer'
p244
aI16
aI12
aI1
aI2
aI0
aI0
aI0
aI2
aI0
aI0
aI1
aI9
aI2
asS'resoc001'
p245
(lp246
g245
aS'Chris Resop'
p247
aI5
aI3
aI0
aI0
aI0
aI0
aI0
aI0
aI0
aI0
aI1
aI2
aI0
asS'harrl002'
p248
(lp249
g248
aS'Lucas Harrell'
p250
aI37
aI34
aI3
aI5
aI0
aI0
aI0
aI1
aI0
aI0
aI1
aI15
aI5
asS'aokin001'
p251
(lp252
g251
aS'Norichika Aoki'
p253
aI557
aI493
aI77
aI139
aI35
aI4
aI9
aI46
aI27
aI7
aI40
aI54
aI209
asS'puntn001'
p254
(lp255
g254
aS'Nick Punto'
p256
aI191
aI160
aI20
aI35
aI7
aI0
aI1
aI10
aI6
aI0
aI25
aI42
aI45
asS'betay001'
p257
(lp258
g257
aS'Yuniesky Betancourt'
p259
aI215
aI202
aI19
aI45
aI14
aI0
aI7
aI33
aI0
aI1
aI9
aI23
aI80
asS'hundn001'
p260
(lp261
g260
aS'Nick Hundley'
p262
aI214
aI193
aI13
aI30
aI6
aI1
aI3
aI20
aI0
aI2
aI15
aI51
aI47
asS'cishs001'
p263
(lp264
g263
aS'Steve Cishek'
p265
aI1
aI1
aI0
aI0
aI0
aI0
aI0
aI0
aI0
aI0
aI0
aI0
aI0
asS'frazt001'
p266
(lp267
g266
aS'Todd Frazier'
p268
aI428
aI386
aI49
aI105
aI24
aI6
aI18
aI64
aI3
aI2
aI35
aI93
aI195
asS'mortc002'
p269
(lp270
g269
aS'Charlie Morton'
p271
aI15
aI13
aI0
aI0
aI0
aI0
aI0
aI0
aI0
aI0
aI0
aI8
aI0
asS'carrj002'
p272
(lp273
g272
aS'Joel Carreno'
p274
aI1
aI1
aI0
aI0
aI0
aI0
aI0
aI0
aI0
aI0
aI0
aI0
aI0
asS'navad001'
p275
(lp276
g275
aS'Dioner Navarro'
p277
aI68
aI64
aI4
aI18
aI2
aI1
aI2
aI12
aI0
aI0
aI2
aI12
aI28
asS'navad002'
p278
(lp279
g278
aS'Daniel Nava'
p280
aI317
aI267
aI38
aI65
aI21
aI0
aI6
aI33
aI3
aI0
aI37
aI63
aI104
asS'carrj001'
p281
(lp282
g281
aS'Jamey Carroll'
p283
aI537
aI470
aI65
aI126
aI18
aI1
aI1
aI40
aI9
aI5
aI52
aI65
aI149
asS'avilm001'
p284
(lp285
g284
aS'Mike Aviles'
p286
aI546
aI512
aI57
aI128
aI28
aI0
aI13
aI60
aI14
aI6
aI23
aI77
aI195
asS'watst001'
p287
(lp288
g287
aS'Tony Watson'
p289
aI1
aI1
aI0
aI0
aI0
aI0
aI0
aI0
aI0
aI0
aI0
aI1
aI0
asS'reyej001'
p290
(lp291
g290
aS'Jose Reyes'
p292
aI701
aI629
aI85
aI181
aI37
aI12
aI11
aI56
aI40
aI10
aI61
aI56
aI275
asS'gonzm002'
p293
(lp294
g293
aS'Marwin Gonzalez'
p295
aI109
aI102
aI8
aI24
aI6
aI0
aI1
aI3
aI2
aI2
aI6
aI13
aI33
asS'guzmj005'
p296
(lp297
g296
aS'Jesus Guzman'
p298
aI310
aI277
aI30
aI69
aI18
aI2
aI8
aI46
aI3
aI3
aI28
aI69
aI115
asS'linct001'
p299
(lp300
g299
aS'Tim Lincecum'
p301
aI61
aI45
aI2
aI4
aI0
aI0
aI0
aI3
aI0
aI0
aI6
aI26
aI4
asS'murpd006'
p302
(lp303
g302
aS'Daniel Murphy'
p304
aI603
aI562
aI62
aI166
aI40
aI3
aI6
aI65
aI10
aI2
aI36
aI81
aI230
asS'lee-c003'
p305
(lp306
g305
aS'Cliff Lee'
p307
aI71
aI64
aI3
aI10
aI2
aI0
aI0
aI4
aI1
aI0
aI1
aI23
aI12
asS'parej002'
p308
(lp309
g308
aS'Jimmy Paredes'
p310
aI33
aI31
aI3
aI7
aI1
aI0
aI0
aI0
aI0
aI0
aI2
aI10
aI8
asS'lee-c001'
p311
(lp312
g311
aS'Carlos Lee'
p313
aI466
aI417
aI36
aI107
aI21
aI0
aI4
aI57
aI3
aI0
aI42
aI38
aI140
asS'phipd001'
p314
(lp315
g314
aS'Denis Phipps'
p316
aI11
aI10
aI4
aI3
aI1
aI0
aI1
aI2
aI0
aI0
aI1
aI4
aI7
asS'carsm001'
p317
(lp318
g317
aS'Matt Carson'
p319
aI69
aI66
aI3
aI15
aI1
aI0
aI0
aI4
aI0
aI0
aI2
aI21
aI16
asS'batim001'
p320
(lp321
g320
aS'Miguel Batista'
p322
aI6
aI5
aI0
aI0
aI0
aI0
aI0
aI0
aI0
aI0
aI0
aI4
aI0
asS'gutif001'
p323
(lp324
g323
aS'Franklin Gutierrez'
p325
aI163
aI150
aI18
aI39
aI10
aI1
aI4
aI17
aI3
aI1
aI9
aI31
aI63
asS'olmer001'
p326
(lp327
g326
aS'Ray Olmedo'
p328
aI42
aI41
aI8
aI10
aI2
aI0
aI0
aI1
aI0
aI0
aI0
aI9
aI12
asS'quino001'
p329
(lp330
g329
aS'Omar Quintanilla'
p331
aI190
aI169
aI25
aI41
aI8
aI0
aI4
aI16
aI0
aI1
aI16
aI42
aI61
asS'orter001'
p332
(lp333
g332
aS'Rafael Ortega'
p334
aI6
aI4
aI0
aI2
aI0
aI0
aI0
aI0
aI1
aI0
aI1
aI2
aI2
asS'blact001'
p335
(lp336
g335
aS'Travis Blackley'
p337
aI2
aI2
aI0
aI0
aI0
aI0
aI0
aI0
aI0
aI0
aI0
aI2
aI0
asS'blank002'
p338
(lp339
g338
aS'Kyle Blanks'
p340
aI6
aI5
aI0
aI1
aI0
aI0
aI0
aI0
aI0
aI0
aI1
aI2
aI1
asS'rottv001'
p341
(lp342
g341
aS'Vinny Rottino'
p343
aI71
aI61
aI12
aI9
aI2
aI0
aI3
aI7
aI4
aI0
aI7
aI17
aI20
asS'iglej001'
p344
(lp345
g344
aS'Jose Iglesias'
p346
aI77
aI68
aI5
aI8
aI2
aI0
aI1
aI2
aI1
aI0
aI4
aI16
aI13
asS'repkj001'
p347
(lp348
g347
aS'Jason Repko'
p349
aI11
aI11
aI0
aI1
aI0
aI0
aI0
aI0
aI0
aI0
aI0
aI4
aI1
asS'handb001'
p350
(lp351
g350
aS'Brad Hand'
p352
aI1
aI1
aI0
aI0
aI0
aI0
aI0
aI0
aI0
aI0
aI0
aI0
aI0
asS'werna001'
p353
(lp354
g353
aS'Andrew Werner'
p355
aI14
aI12
aI0
aI1
aI0
aI0
aI0
aI0
aI0
aI0
aI0
aI4
aI1
asS'keucd001'
p356
(lp357
g356
aS'Dallas Keuchel'
p358
aI9
aI4
aI0
aI0
aI0
aI0
aI0
aI1
aI0
aI0
aI0
aI1
aI0
asS'bresc001'
p359
(lp360
g359
aS'Craig Breslow'
p361
aI3
aI3
aI0
aI0
aI0
aI0
aI0
aI0
aI0
aI0
aI0
aI2
aI0
asS'casta003'
p362
(lp363
g362
aS'Alex Castellanos'
p364
aI25
aI23
aI3
aI4
aI0
aI1
aI1
aI3
aI0
aI0
aI0
aI8
aI9
asS'robeb003'
p365
(lp366
g365
aS'Brian Roberts'
p367
aI74
aI66
aI2
aI12
aI0
aI0
aI0
aI5
aI1
aI1
aI5
aI12
aI12
asS'howar001'
p368
(lp369
g368
aS'Ryan Howard'
p370
aI273
aI244
aI27
aI53
aI9
aI0
aI14
aI50
aI0
aI0
aI23
aI95
aI104
asS'corpm001'
p371
(lp372
g371
aS'Manuel Corpas'
p373
aI1
aI1
aI0
aI0
aI0
aI0
aI0
aI0
aI0
aI0
aI0
aI1
aI0
asS'lincb001'
p374
(lp375
g374
aS'Brad Lincoln'
p376
aI10
aI10
aI2
aI2
aI0
aI0
aI0
aI0
aI0
aI0
aI0
aI6
aI2
asS'fielp001'
p377
(lp378
g377
aS'Prince Fielder'
p379
aI690
aI581
aI83
aI182
aI33
aI1
aI30
aI108
aI1
aI0
aI85
aI84
aI307
asS'diams001'
p380
(lp381
g380
aS'Scott Diamond'
p382
aI8
aI7
aI1
aI1
aI0
aI0
aI0
aI0
aI0
aI0
aI0
aI4
aI1
asS'smits002'
p383
(lp384
g383
aS'Seth Smith'
p385
aI441
aI383
aI55
aI92
aI23
aI2
aI14
aI52
aI2
aI2
aI50
aI98
aI161
asS'hilla001'
p386
(lp387
g386
aS'Aaron Hill'
p388
aI654
aI597
aI87
aI177
aI42
aI6
aI23
aI80
aI13
aI5
aI50
aI86
aI300
asS'pomed001'
p389
(lp390
g389
aS'Drew Pomeranz'
p391
aI31
aI26
aI2
aI6
aI2
aI0
aI1
aI1
aI0
aI0
aI1
aI15
aI11
asS'paulr001'
p392
(lp393
g392
aS'Ronny Paulino'
p394
aI64
aI63
aI5
aI16
aI3
aI0
aI0
aI5
aI0
aI0
aI1
aI9
aI19
asS'betew001'
p395
(lp396
g395
aS'Wilson Betemit'
p397
aI376
aI341
aI41
aI89
aI19
aI0
aI12
aI40
aI0
aI1
aI31
aI103
aI144
asS'fierm001'
p398
(lp399
g398
aS'Michael Fiers'
p400
aI38
aI32
aI0
aI3
aI0
aI0
aI0
aI2
aI0
aI0
aI0
aI17
aI3
asS'chenb001'
p401
(lp402
g401
aS'Bruce Chen'
p403
aI3
aI3
aI0
aI1
aI0
aI0
aI0
aI0
aI0
aI0
aI0
aI1
aI1
asS'mauej001'
p404
(lp405
g404
aS'Joe Mauer'
p406
aI641
aI545
aI81
aI174
aI31
aI4
aI10
aI85
aI8
aI4
aI90
aI88
aI243
asS'sogae001'
p407
(lp408
g407
aS'Eric Sogard'
p409
aI108
aI102
aI8
aI17
aI3
aI1
aI2
aI7
aI2
aI0
aI5
aI17
aI28
asS'simoa001'
p410
(lp411
g410
aS'Alfredo Simon'
p412
aI4
aI4
aI0
aI0
aI0
aI0
aI0
aI0
aI0
aI0
aI0
aI2
aI0
asS'nolar001'
p413
(lp414
g413
aS'Ricky Nolasco'
p415
aI70
aI56
aI4
aI9
aI3
aI0
aI0
aI8
aI0
aI0
aI4
aI27
aI12
asS'pachj001'
p416
(lp417
g416
aS'Jordan Pacheco'
p418
aI501
aI471
aI51
aI146
aI32
aI3
aI5
aI54
aI7
aI2
aI22
aI61
aI199
asS'jackb002'
p419
(lp420
g419
aS'Brett Jackson'
p421
aI142
aI120
aI14
aI21
aI6
aI1
aI4
aI9
aI0
aI3
aI22
aI59
aI41
asS'hoesl001'
p422
(lp423
g422
aS'L.J. Hoes'
p424
aI1
aI1
aI0
aI0
aI0
aI0
aI0
aI0
aI0
aI0
aI0
aI0
aI0
asS'mckem001'
p425
(lp426
g425
aS'Michael McKenry'
p427
aI260
aI227
aI23
aI51
aI13
aI0
aI11
aI37
aI0
aI0
aI27
aI71
aI97
asS'fowld001'
p428
(lp429
g428
aS'Dexter Fowler'
p430
aI521
aI447
aI70
aI135
aI18
aI11
aI13
aI53
aI11
aI5
aI67
aI127
aI214
asS'cahit001'
p431
(lp432
g431
aS'Trevor Cahill'
p433
aI73
aI67
aI2
aI8
aI0
aI0
aI0
aI4
aI0
aI0
aI1
aI24
aI8
asS'parnb001'
p434
(lp435
g434
aS'Bobby Parnell'
p436
aI1
aI0
aI0
aI0
aI0
aI0
aI0
aI0
aI0
aI0
aI0
aI0
aI0
asS'florj002'
p437
(lp438
g437
aS'Jesus Flores'
p439
aI291
aI272
aI22
aI58
aI11
aI1
aI6
aI26
aI1
aI2
aI13
aI58
aI89
asS'bauet001'
p440
(lp441
g440
aS'Trevor Bauer'
p442
aI5
aI4
aI0
aI0
aI0
aI0
aI0
aI0
aI0
aI0
aI0
aI1
aI0
asS'pastt001'
p443
(lp444
g443
aS'Tyler Pastornicky'
p445
aI180
aI162
aI20
aI39
aI6
aI1
aI1
aI11
aI2
aI0
aI9
aI31
aI50
asS'arenj001'
p446
(lp447
g446
aS'J.P. Arencibia'
p448
aI372
aI347
aI45
aI81
aI16
aI0
aI18
aI56
aI1
aI0
aI18
aI108
aI151
asS'nieuk001'
p449
(lp450
g449
aS'Kirk Nieuwenhuis'
p451
aI302
aI271
aI40
aI68
aI12
aI1
aI7
aI26
aI4
aI4
aI24
aI94
aI103
asS'cuetj001'
p452
(lp453
g452
aS'Johnny Cueto'
p454
aI84
aI67
aI3
aI6
aI1
aI0
aI0
aI2
aI0
aI0
aI0
aI24
aI7
asS'younm004'
p455
(lp456
g455
aS'Matt Young'
p457
aI11
aI10
aI2
aI1
aI1
aI0
aI0
aI1
aI0
aI0
aI0
aI9
aI2
asS'rossr002'
p458
(lp459
g458
aS'Robbie Ross'
p460
aI1
aI1
aI1
aI0
aI0
aI0
aI0
aI0
aI0
aI0
aI0
aI0
aI0
asS'carda001'
p461
(lp462
g461
aS'Adrian Cardenas'
p463
aI59
aI54
aI4
aI9
aI4
aI0
aI0
aI2
aI0
aI0
aI5
aI12
aI13
asS'younm003'
p464
(lp465
g464
aS'Michael Young'
p466
aI638
aI599
aI77
aI164
aI25
aI3
aI8
aI66
aI2
aI2
aI32
aI69
aI219
asS'hestj001'
p467
(lp468
g467
aS'John Hester'
p469
aI95
aI85
aI14
aI18
aI1
aI0
aI3
aI4
aI0
aI0
aI8
aI25
aI28
asS'pradm001'
p470
(lp471
g470
aS'Martin Prado'
p472
aI676
aI605
aI79
aI182
aI41
aI6
aI10
aI70
aI17
aI4
aI56
aI68
aI265
asS'browa003'
p473
(lp474
g473
aS'Andrew Brown'
p475
aI126
aI112
aI14
aI26
aI7
aI0
aI5
aI11
aI2
aI2
aI12
aI34
aI48
asS'leakm001'
p476
(lp477
g476
aS'Mike Leake'
p478
aI61
aI54
aI8
aI18
aI3
aI0
aI2
aI3
aI0
aI0
aI1
aI15
aI27
asS'maldc003'
p479
(lp480
g479
aS'Carlos Maldonado'
p481
aI12
aI9
aI0
aI0
aI0
aI0
aI0
aI1
aI0
aI0
aI2
aI4
aI0
asS'bardd001'
p482
(lp483
g482
aS'Daniel Bard'
p484
aI2
aI2
aI0
aI0
aI0
aI0
aI0
aI0
aI0
aI0
aI0
aI1
aI0
asS'rossc001'
p485
(lp486
g485
aS'Cody Ross'
p487
aI528
aI476
aI70
aI127
aI34
aI1
aI22
aI81
aI2
aI3
aI42
aI129
aI229
asS'lombs002'
p488
(lp489
g488
aS'Steve Lombardozzi'
p490
aI396
aI365
aI40
aI101
aI15
aI3
aI3
aI27
aI5
aI3
aI18
aI42
aI131
asS'johnr009'
p491
(lp492
g491
aS'Rob Johnson'
p493
aI58
aI52
aI3
aI13
aI2
aI0
aI0
aI4
aI0
aI0
aI4
aI10
aI15
asS'lairg001'
p494
(lp495
g494
aS'Gerald Laird'
p496
aI191
aI174
aI24
aI49
aI8
aI1
aI2
aI11
aI0
aI0
aI14
aI21
aI65
asS'westj001'
p497
(lp498
g497
aS'Jake Westbrook'
p499
aI58
aI49
aI2
aI6
aI1
aI0
aI0
aI0
aI1
aI0
aI4
aI24
aI7
asS'kinsi001'
p500
(lp501
g500
aS'Ian Kinsler'
p502
aI716
aI640
aI103
aI164
aI41
aI5
aI19
aI72
aI21
aI9
aI60
aI84
aI272
asS'donaj002'
p503
(lp504
g503
aS'Jason Donald'
p505
aI135
aI124
aI18
aI25
aI2
aI1
aI2
aI11
aI4
aI0
aI5
aI40
aI35
asS'donaj001'
p506
(lp507
g506
aS'Josh Donaldson'
p508
aI294
aI274
aI34
aI66
aI16
aI0
aI9
aI33
aI4
aI1
aI14
aI61
aI109
asS'uptob001'
p509
(lp510
g509
aS'B.J. Upton'
p511
aI633
aI573
aI79
aI141
aI29
aI3
aI28
aI78
aI31
aI6
aI45
aI169
aI260
asS'barnb002'
p512
(lp513
g512
aS'Brandon Barnes'
p514
aI47
aI44
aI5
aI9
aI2
aI0
aI1
aI5
aI0
aI1
aI2
aI11
aI14
asS'burrs001'
p515
(lp516
g515
aS'Sean Burroughs'
p517
aI18
aI17
aI0
aI2
aI1
aI0
aI0
aI1
aI0
aI0
aI1
aI3
aI3
asS'weekj001'
p518
(lp519
g518
aS'Jemile Weeks'
p520
aI511
aI444
aI54
aI98
aI15
aI8
aI2
aI20
aI16
aI5
aI50
aI70
aI135
asS'averx001'
p521
(lp522
g521
aS'Xavier Avery'
p523
aI107
aI94
aI14
aI21
aI6
aI1
aI1
aI6
aI6
aI3
aI11
aI23
aI32
asS'hughj001'
p524
(lp525
g524
aS'Jared Hughes'
p526
aI1
aI1
aI0
aI0
aI0
aI0
aI0
aI0
aI0
aI0
aI0
aI1
aI0
asS'pears001'
p527
(lp528
g527
aS'Steve Pearce'
p529
aI146
aI121
aI14
aI26
aI6
aI0
aI4
aI21
aI1
aI2
aI17
aI32
aI44
asS'wallb001'
p530
(lp531
g530
aS'Brett Wallace'
p532
aI140
aI128
aI15
aI32
aI3
aI0
aI8
aI15
aI0
aI0
aI8
aI36
aI59
asS'ruizc001'
p533
(lp534
g533
aS'Carlos Ruiz'
p535
aI409
aI362
aI53
aI120
aI32
aI0
aI16
aI68
aI3
aI0
aI28
aI48
aI200
asS'fordl001'
p536
(lp537
g536
aS'Lew Ford'
p538
aI79
aI71
aI7
aI13
aI3
aI0
aI3
aI4
aI1
aI0
aI7
aI13
aI25
asS'forsl001'
p539
(lp540
g539
aS'Logan Forsythe'
p541
aI332
aI297
aI43
aI82
aI13
aI3
aI6
aI24
aI8
aI2
aI28
aI56
aI119
asS'cruzt002'
p542
(lp543
g542
aS'Tony Cruz'
p544
aI124
aI119
aI10
aI29
aI9
aI1
aI1
aI11
aI0
aI0
aI3
aI18
aI43
asS'martj006'
p545
(lp546
g545
aS'J.D. Martinez'
p547
aI220
aI200
aI15
aI45
aI8
aI0
aI6
aI24
aI0
aI2
aI18
aI50
aI71
asS'waina001'
p548
(lp549
g548
aS'Adam Wainwright'
p550
aI67
aI61
aI5
aI8
aI2
aI0
aI1
aI4
aI0
aI0
aI3
aI30
aI13
asS'beckg001'
p551
(lp552
g551
aS'Gordon Beckham'
p553
aI582
aI525
aI62
aI123
aI24
aI0
aI16
aI60
aI5
aI4
aI40
aI89
aI195
asS'downm001'
p554
(lp555
g554
aS'Matt Downs'
p556
aI109
aI99
aI8
aI22
aI2
aI1
aI5
aI10
aI2
aI2
aI5
aI17
aI41
asS'kendk001'
p557
(lp558
g557
aS'Kyle Kendrick'
p559
aI43
aI35
aI2
aI4
aI2
aI0
aI0
aI0
aI0
aI0
aI3
aI19
aI6
asS'cedex001'
p560
(lp561
g560
aS'Xavier Cedeno'
p562
aI1
aI1
aI0
aI0
aI0
aI0
aI0
aI0
aI0
aI0
aI0
aI1
aI0
asS'wised001'
p563
(lp564
g563
aS'Dewayne Wise'
p565
aI239
aI224
aI31
aI58
aI10
aI2
aI8
aI30
aI19
aI4
aI11
aI52
aI96
asS'trumm001'
p566
(lp567
g566
aS'Mark Trumbo'
p568
aI586
aI544
aI66
aI146
aI19
aI3
aI32
aI95
aI4
aI5
aI36
aI153
aI267
asS'torry001'
p569
(lp570
g569
aS'Yorvit Torrealba'
p571
aI213
aI191
aI19
aI43
aI8
aI0
aI4
aI14
aI1
aI1
aI16
aI40
aI63
asS'suzuk001'
p572
(lp573
g572
aS'Kurt Suzuki'
p574
aI429
aI398
aI35
aI93
aI20
aI0
aI6
aI43
aI2
aI0
aI18
aI72
aI131
asS'valed001'
p575
(lp576
g575
aS'Danny Valencia'
p577
aI161
aI154
aI14
aI29
aI6
aI1
aI3
aI21
aI0
aI1
aI3
aI38
aI46
asS'hudso001'
p578
(lp579
g578
aS'Orlando Hudson'
p580
aI283
aI260
aI21
aI53
aI3
aI8
aI3
aI28
aI6
aI3
aI20
aI51
aI81
asS'redmt002'
p581
(lp582
g581
aS'Todd Redmond'
p583
aI1
aI1
aI0
aI0
aI0
aI0
aI0
aI0
aI0
aI0
aI0
aI1
aI0
asS'mossb001'
p584
(lp585
g584
aS'Brandon Moss'
p586
aI296
aI265
aI48
aI77
aI18
aI0
aI21
aI52
aI1
aI1
aI26
aI90
aI158
asS'ackld001'
p587
(lp588
g587
aS'Dustin Ackley'
p589
aI668
aI607
aI84
aI137
aI22
aI2
aI12
aI50
aI13
aI3
aI59
aI124
aI199
asS'noesh001'
p590
(lp591
g590
aS'Hector Noesi'
p592
aI4
aI4
aI0
aI2
aI0
aI0
aI0
aI0
aI0
aI0
aI0
aI2
aI2
asS'mijaj001'
p593
(lp594
g593
aS'Jose Mijares'
p595
aI1
aI1
aI0
aI0
aI0
aI0
aI0
aI0
aI0
aI0
aI0
aI1
aI0
asS'riosa002'
p596
(lp597
g596
aS'Alex Rios'
p598
aI640
aI605
aI93
aI184
aI37
aI8
aI25
aI91
aI23
aI6
aI26
aI92
aI312
asS'mastj001'
p599
(lp600
g599
aS'Justin Masterson'
p601
aI2
aI2
aI0
aI0
aI0
aI0
aI0
aI0
aI0
aI0
aI0
aI1
aI0
asS'lairb001'
p602
(lp603
g602
aS'Brandon Laird'
p604
aI18
aI17
aI1
aI5
aI1
aI0
aI1
aI4
aI0
aI0
aI1
aI4
aI9
asS'gonze001'
p605
(lp606
g605
aS'Edgar Gonzalez'
p607
aI11
aI8
aI0
aI1
aI0
aI0
aI0
aI1
aI0
aI0
aI2
aI4
aI1
asS'stubd001'
p608
(lp609
g608
aS'Drew Stubbs'
p610
aI505
aI456
aI66
aI92
aI10
aI2
aI12
aI31
aI27
aI6
aI40
aI156
aI142
asS'wrigw001'
p611
(lp612
g611
aS'Wesley Wright'
p613
aI1
aI1
aI0
aI0
aI0
aI0
aI0
aI0
aI0
aI0
aI0
aI1
aI0
asS'kaaik001'
p614
(lp615
g614
aS"Kila Ka'aihue"
p616
aI139
aI128
aI13
aI30
aI9
aI0
aI4
aI14
aI1
aI0
aI10
aI28
aI51
asS'sancj002'
p617
(lp618
g617
aS'Jonathan Sanchez'
p619
aI3
aI3
aI0
aI0
aI0
aI0
aI0
aI0
aI0
aI0
aI0
aI3
aI0
asS'ramie005'
p620
(lp621
g620
aS'Elvin Ramirez'
p622
aI1
aI1
aI0
aI0
aI0
aI0
aI0
aI0
aI0
aI0
aI0
aI1
aI0
asS'venaw001'
p623
(lp624
g623
aS'Will Venable'
p625
aI459
aI407
aI60
aI108
aI26
aI8
aI8
aI44
aI24
aI6
aI40
aI93
aI174
asS'zambc001'
p626
(lp627
g626
aS'Carlos Zambrano'
p628
aI33
aI31
aI3
aI6
aI0
aI0
aI1
aI2
aI0
aI0
aI0
aI7
aI9
asS'andeb005'
p629
(lp630
g629
aS'Bryan Anderson'
p631
aI13
aI12
aI2
aI3
aI1
aI0
aI0
aI0
aI1
aI0
aI1
aI6
aI4
asS'rober002'
p632
(lp633
g632
aS'Ryan Roberts'
p634
aI489
aI439
aI51
aI103
aI19
aI0
aI12
aI52
aI10
aI6
aI40
aI92
aI158
asS'billc001'
p635
(lp636
g635
aS'Chad Billingsley'
p637
aI47
aI41
aI1
aI8
aI1
aI0
aI0
aI2
aI0
aI0
aI0
aI18
aI9
asS'browb004'
p638
(lp639
g638
aS'Barret Browning'
p640
aI1
aI1
aI0
aI0
aI0
aI0
aI0
aI0
aI0
aI0
aI0
aI0
aI0
asS'wortd001'
p641
(lp642
g641
aS'Danny Worth'
p643
aI90
aI74
aI9
aI16
aI3
aI0
aI0
aI3
aI0
aI0
aI13
aI23
aI19
asS'rosaa001'
p644
(lp645
g644
aS'Adam Rosales'
p646
aI111
aI99
aI12
aI22
aI5
aI0
aI2
aI8
aI0
aI0
aI11
aI24
aI33
asS'hernl004'
p647
(lp648
g647
aS'Luis Hernandez'
p649
aI2
aI2
aI0
aI0
aI0
aI0
aI0
aI0
aI0
aI0
aI0
aI0
aI0
asS'gregl001'
p650
(lp651
g650
aS'Luke Gregerson'
p652
aI1
aI1
aI0
aI0
aI0
aI0
aI0
aI0
aI0
aI0
aI0
aI1
aI0
asS'gamem001'
p653
(lp654
g653
aS'Mat Gamel'
p655
aI75
aI69
aI10
aI17
aI2
aI1
aI1
aI6
aI3
aI0
aI4
aI15
aI24
asS'hernl003'
p656
(lp657
g656
aS'Livan Hernandez'
p658
aI4
aI3
aI0
aI0
aI0
aI0
aI0
aI0
aI0
aI0
aI1
aI1
aI0
asS'lerus001'
p659
(lp660
g659
aS'Steven Lerud'
p661
aI10
aI10
aI1
aI2
aI0
aI0
aI0
aI0
aI0
aI0
aI0
aI2
aI2
asS'valbl001'
p662
(lp663
g662
aS'Luis Valbuena'
p664
aI296
aI258
aI26
aI58
aI20
aI0
aI4
aI28
aI0
aI2
aI36
aI53
aI90
asS'elmoj001'
p665
(lp666
g665
aS'Jake Elmore'
p667
aI68
aI64
aI1
aI13
aI4
aI0
aI0
aI7
aI0
aI0
aI4
aI6
aI17
asS'green001'
p668
(lp669
g668
aS'Nick Green'
p670
aI24
aI23
aI1
aI4
aI3
aI0
aI0
aI1
aI0
aI0
aI0
aI6
aI7
asS'branm003'
p671
(lp672
g671
aS'Michael Brantley'
p673
aI597
aI541
aI63
aI157
aI37
aI4
aI6
aI59
aI12
aI9
aI52
aI56
aI220
asS'mccab002'
p674
(lp675
g674
aS'Brian McCann'
p676
aI478
aI431
aI43
aI99
aI14
aI0
aI20
aI66
aI3
aI0
aI43
aI76
aI173
asS'kelld001'
p677
(lp678
g677
aS'Don Kelly'
p679
aI127
aI113
aI14
aI21
aI2
aI1
aI1
aI7
aI2
aI0
aI14
aI22
aI28
asS'rizza001'
p680
(lp681
g680
aS'Anthony Rizzo'
p682
aI361
aI331
aI44
aI96
aI15
aI0
aI15
aI48
aI3
aI2
aI27
aI61
aI156
asS'milew001'
p683
(lp684
g683
aS'Wade Miley'
p685
aI73
aI64
aI4
aI11
aI2
aI0
aI0
aI1
aI0
aI0
aI2
aI20
aI13
asS'jacke001'
p686
(lp687
g686
aS'Edwin Jackson'
p688
aI62
aI54
aI5
aI12
aI0
aI0
aI0
aI0
aI0
aI0
aI3
aI20
aI12
asS'parrg001'
p689
(lp690
g689
aS'Gerardo Parra'
p691
aI415
aI371
aI56
aI101
aI18
aI2
aI7
aI35
aI15
aI9
aI33
aI75
aI144
asS'mcdoj004'
p692
(lp693
g692
aS'James McDonald'
p694
aI61
aI48
aI8
aI7
aI0
aI0
aI0
aI1
aI0
aI0
aI8
aI22
aI7
asS'schmk001'
p695
(lp696
g695
aS'Konrad Schmidt'
p697
aI8
aI7
aI1
aI0
aI0
aI0
aI0
aI2
aI0
aI0
aI1
aI2
aI0
asS'cabra002'
p698
(lp699
g698
aS'Asdrubal Cabrera'
p700
aI604
aI545
aI68
aI148
aI35
aI1
aI15
aI66
aI9
aI4
aI51
aI96
aI230
asS'mcdoj003'
p701
(lp702
g701
aS'John McDonald'
p703
aI213
aI197
aI16
aI49
aI9
aI0
aI6
aI22
aI0
aI1
aI12
aI33
aI76
asS'langr002'
p704
(lp705
g704
aS'Ryan Langerhans'
p706
aI2
aI1
aI0
aI0
aI0
aI0
aI0
aI0
aI0
aI0
aI0
aI1
aI0
asS'clemj001'
p707
(lp708
g707
aS'Jeff Clement'
p709
aI24
aI22
aI1
aI3
aI1
aI0
aI0
aI1
aI0
aI0
aI2
aI7
aI4
asS'mousm001'
p710
(lp711
g710
aS'Mike Moustakas'
p712
aI602
aI552
aI67
aI134
aI33
aI1
aI20
aI73
aI5
aI2
aI38
aI124
aI229
asS'mayse001'
p713
(lp714
g713
aS'Edwin Maysonet'
p715
aI64
aI58
aI7
aI15
aI1
aI1
aI1
aI4
aI1
aI0
aI3
aI9
aI21
asS'hickb002'
p716
(lp717
g716
aS'Brandon Hicks'
p718
aI70
aI64
aI8
aI11
aI5
aI0
aI3
aI7
aI1
aI0
aI6
aI31
aI25
asS'schin001'
p719
(lp720
g719
aS'Nate Schierholtz'
p721
aI266
aI238
aI20
aI61
aI7
aI5
aI6
aI21
aI3
aI2
aI23
aI45
aI96
asS'nealt001'
p722
(lp723
g722
aS'Thomas Neal'
p724
aI24
aI23
aI2
aI5
aI1
aI0
aI0
aI2
aI0
aI0
aI0
aI6
aI6
asS'buckj001'
p725
(lp726
g725
aS'John Buck'
p727
aI386
aI334
aI27
aI63
aI15
aI1
aI10
aI38
aI0
aI0
aI46
aI101
aI110
asS'peguc001'
p728
(lp729
g728
aS'Carlos Peguero'
p730
aI57
aI56
aI2
aI10
aI2
aI1
aI2
aI7
aI0
aI0
aI1
aI28
aI20
asS'harrj002'
p731
(lp732
g731
aS'Josh Harrison'
p733
aI267
aI241
aI30
aI52
aI8
aI5
aI3
aI15
aI7
aI3
aI10
aI36
aI79
asS'hinse001'
p734
(lp735
g734
aS'Eric Hinske'
p736
aI144
aI129
aI9
aI25
aI7
aI1
aI2
aI12
aI0
aI0
aI14
aI41
aI40
asS'chavj001'
p737
(lp738
g737
aS'Jesse Chavez'
p739
aI3
aI2
aI0
aI0
aI0
aI0
aI0
aI0
aI0
aI0
aI0
aI2
aI0
asS'escoy001'
p740
(lp741
g740
aS'Yunel Escobar'
p742
aI608
aI558
aI58
aI141
aI22
aI1
aI9
aI51
aI5
aI1
aI35
aI70
aI192
asS'olivm001'
p743
(lp744
g743
aS'Miguel Olivo'
p745
aI323
aI315
aI27
aI70
aI14
aI0
aI12
aI29
aI3
aI6
aI7
aI85
aI120
asS'rodrs002'
p746
(lp747
g746
aS'Sean Rodriguez'
p748
aI342
aI301
aI36
aI64
aI14
aI1
aI6
aI32
aI5
aI0
aI27
aI75
aI98
asS'krate001'
p749
(lp750
g749
aS'Erik Kratz'
p751
aI148
aI132
aI14
aI33
aI8
aI0
aI9
aI25
aI0
aI0
aI11
aI31
aI68
asS'fulds001'
p752
(lp753
g752
aS'Sam Fuld'
p754
aI107
aI98
aI14
aI25
aI3
aI2
aI0
aI5
aI7
aI2
aI8
aI14
aI32
asS'humbp001'
p755
(lp756
g755
aS'Philip Humber'
p757
aI5
aI5
aI0
aI1
aI0
aI0
aI0
aI1
aI0
aI0
aI0
aI2
aI1
asS'chrij003'
p758
(lp759
g758
aS'Justin Christian'
p760
aI61
aI56
aI6
aI7
aI1
aI0
aI0
aI2
aI2
aI1
aI5
aI3
aI8
asS'roseb003'
p761
(lp762
g761
aS'B.J. Rosenberg'
p763
aI4
aI3
aI0
aI1
aI0
aI0
aI0
aI1
aI0
aI0
aI0
aI1
aI1
asS'holab001'
p764
(lp765
g764
aS'Bryan Holaday'
p766
aI13
aI12
aI3
aI3
aI1
aI0
aI0
aI0
aI0
aI0
aI0
aI2
aI4
asS'escoa003'
p767
(lp768
g767
aS'Alcides Escobar'
p769
aI637
aI594
aI67
aI173
aI30
aI7
aI5
aI51
aI35
aI4
aI27
aI99
aI232
asS'barar001'
p770
(lp771
g770
aS'Rod Barajas'
p772
aI347
aI308
aI28
aI63
aI11
aI0
aI11
aI29
aI0
aI0
aI28
aI67
aI107
asS'davic003'
p773
(lp774
g773
aS'Chris Davis'
p775
aI562
aI515
aI75
aI139
aI20
aI0
aI33
aI85
aI2
aI3
aI37
aI169
aI258
asS'arrij001'
p776
(lp777
g776
aS'Jake Arrieta'
p778
aI4
aI3
aI0
aI0
aI0
aI0
aI0
aI0
aI0
aI0
aI1
aI2
aI0
asS'vargj001'
p779
(lp780
g779
aS'Jason Vargas'
p781
aI6
aI5
aI2
aI2
aI0
aI0
aI0
aI1
aI0
aI0
aI1
aI2
aI2
asS'bautj002'
p782
(lp783
g782
aS'Jose Bautista'
p784
aI399
aI332
aI64
aI80
aI14
aI0
aI27
aI65
aI5
aI2
aI59
aI63
aI175
asS'fontm001'
p785
(lp786
g785
aS'Mike Fontenot'
p787
aI105
aI97
aI13
aI28
aI2
aI0
aI1
aI5
aI0
aI1
aI7
aI23
aI33
asS'penac001'
p788
(lp789
g788
aS'Carlos Pena'
p790
aI600
aI497
aI72
aI98
aI17
aI2
aI19
aI61
aI2
aI3
aI87
aI182
aI176
asS'lidda001'
p791
(lp792
g791
aS'Alex Liddi'
p793
aI126
aI116
aI8
aI26
aI4
aI1
aI3
aI10
aI2
aI1
aI9
aI49
aI41
asS'ramia003'
p794
(lp795
g794
aS'Alexei Ramirez'
p796
aI621
aI593
aI59
aI157
aI24
aI4
aI9
aI73
aI20
aI7
aI16
aI77
aI216
asS'giavj001'
p797
(lp798
g797
aS'Johnny Giavotella'
p799
aI189
aI181
aI21
aI43
aI7
aI1
aI1
aI15
aI3
aI0
aI8
aI35
aI55
asS'calhk001'
p800
(lp801
g800
aS'Kole Calhoun'
p802
aI25
aI23
aI2
aI4
aI1
aI0
aI0
aI1
aI1
aI0
aI2
aI6
aI5
asS'cartc002'
p803
(lp804
g803
aS'Chris Carter'
p805
aI260
aI218
aI38
aI52
aI12
aI0
aI16
aI39
aI0
aI0
aI39
aI83
aI112
asS'marts002'
p806
(lp807
g806
aS'Starling Marte'
p808
aI155
aI141
aI16
aI36
aI3
aI6
aI4
aI15
aI11
aI3
aI8
aI46
aI63
asS'lavar001'
p809
(lp810
g809
aS'Ryan Lavarnway'
p811
aI166
aI153
aI11
aI24
aI8
aI0
aI2
aI12
aI0
aI0
aI11
aI41
aI38
asS'gee-d001'
p812
(lp813
g812
aS'Dillon Gee'
p814
aI34
aI27
aI4
aI4
aI2
aI0
aI0
aI1
aI0
aI0
aI2
aI7
aI6
asS'vanss001'
p815
(lp816
g815
aS'Scott Van Slyke'
p817
aI57
aI54
aI4
aI9
aI2
aI0
aI2
aI7
aI1
aI0
aI2
aI14
aI17
asS'tehej001'
p818
(lp819
g818
aS'Julio Teheran'
p820
aI2
aI1
aI0
aI0
aI0
aI0
aI0
aI0
aI0
aI0
aI1
aI0
aI0
asS'color001'
p821
(lp822
g821
aS'Roman Colon'
p823
aI1
aI1
aI0
aI0
aI0
aI0
aI0
aI0
aI0
aI0
aI0
aI0
aI0
asS'thomj002'
p824
(lp825
g824
aS'Jim Thome'
p826
aI186
aI163
aI17
aI41
aI7
aI0
aI8
aI25
aI0
aI0
aI22
aI61
aI72
asS'russj003'
p827
(lp828
g827
aS'James Russell'
p829
aI1
aI1
aI0
aI0
aI0
aI0
aI0
aI0
aI0
aI0
aI0
aI0
aI0
asS'soria001'
p830
(lp831
g830
aS'Alfonso Soriano'
p832
aI590
aI539
aI66
aI143
aI32
aI2
aI30
aI105
aI6
aI2
aI41
aI147
aI269
asS'sotog001'
p833
(lp834
g833
aS'Geovany Soto'
p835
aI361
aI324
aI45
aI64
aI12
aI1
aI11
aI39
aI1
aI0
aI30
aI76
aI111
asS'taylm001'
p836
(lp837
g836
aS'Michael Taylor'
p838
aI21
aI21
aI2
aI3
aI1
aI0
aI0
aI0
aI0
aI0
aI0
aI10
aI4
asS'choos001'
p839
(lp840
g839
aS'Shin-Soo Choo'
p841
aI674
aI586
aI87
aI167
aI42
aI1
aI16
aI67
aI21
aI7
aI73
aI146
aI259
asS'moraf001'
p842
(lp843
g842
aS'Franklin Morales'
p844
aI2
aI2
aI0
aI1
aI0
aI0
aI0
aI0
aI0
aI0
aI0
aI1
aI1
asS'solia001'
p845
(lp846
g845
aS'Ali Solis'
p847
aI4
aI4
aI0
aI0
aI0
aI0
aI0
aI0
aI0
aI0
aI0
aI2
aI0
asS'carpd001'
p848
(lp849
g848
aS'David Carpenter'
p850
aI1
aI1
aI0
aI0
aI0
aI0
aI0
aI0
aI0
aI0
aI0
aI0
aI0
asS'davii001'
p851
(lp852
g851
aS'Ike Davis'
p853
aI572
aI507
aI65
aI115
aI26
aI0
aI32
aI90
aI0
aI2
aI61
aI139
aI237
asS'wellv001'
p854
(lp855
g854
aS'Vernon Wells'
p856
aI262
aI243
aI36
aI56
aI9
aI0
aI11
aI29
aI3
aI1
aI16
aI35
aI98
asS'escae001'
p857
(lp858
g857
aS'Edgmer Escalona'
p859
aI1
aI0
aI0
aI0
aI0
aI0
aI0
aI0
aI0
aI0
aI0
aI0
aI0
asS'bellj004'
p860
(lp861
g860
aS'Josh Bell'
p862
aI56
aI52
aI3
aI9
aI2
aI0
aI1
aI4
aI0
aI0
aI4
aI14
aI14
asS'sabac001'
p863
(lp864
g863
aS'CC Sabathia'
p865
aI5
aI5
aI0
aI0
aI0
aI0
aI0
aI0
aI0
aI0
aI0
aI1
aI0
asS'triuc001'
p866
(lp867
g866
aS'Carlos Triunfel'
p868
aI24
aI22
aI2
aI5
aI2
aI0
aI0
aI3
aI0
aI0
aI1
aI4
aI7
asS'swisn001'
p869
(lp870
g869
aS'Nick Swisher'
p871
aI624
aI537
aI75
aI146
aI36
aI0
aI24
aI93
aI2
aI3
aI77
aI141
aI254
asS'herre001'
p872
(lp873
g872
aS'Elian Herrera'
p874
aI214
aI187
aI26
aI47
aI10
aI1
aI1
aI17
aI4
aI2
aI23
aI50
aI62
asS'boesb001'
p875
(lp876
g875
aS'Brennan Boesch'
p877
aI503
aI470
aI52
aI113
aI22
aI2
aI12
aI54
aI6
aI3
aI26
aI104
aI175
asS'lucrj001'
p878
(lp879
g878
aS'Jonathan Lucroy'
p880
aI333
aI304
aI45
aI96
aI16
aI3
aI12
aI55
aI4
aI1
aI22
aI41
aI154
asS'rosst001'
p881
(lp882
g881
aS'Tyson Ross'
p883
aI2
aI2
aI0
aI0
aI0
aI0
aI0
aI0
aI0
aI0
aI0
aI1
aI0
asS'galvf001'
p884
(lp885
g884
aS'Freddy Galvis'
p886
aI200
aI190
aI14
aI43
aI15
aI1
aI3
aI24
aI0
aI0
aI7
aI29
aI69
asS'whita001'
p887
(lp888
g887
aS'Alex White'
p889
aI33
aI28
aI2
aI5
aI1
aI0
aI2
aI5
aI0
aI0
aI0
aI12
aI12
asS'hughp001'
p890
(lp891
g890
aS'Phil Hughes'
p892
aI2
aI2
aI0
aI0
aI0
aI0
aI0
aI0
aI0
aI0
aI0
aI1
aI0
asS'fukuk001'
p893
(lp894
g893
aS'Kosuke Fukudome'
p895
aI51
aI41
aI2
aI7
aI1
aI0
aI0
aI4
aI0
aI1
aI8
aI9
aI8
asS'hudst001'
p896
(lp897
g896
aS'Tim Hudson'
p898
aI67
aI55
aI4
aI12
aI3
aI0
aI0
aI6
aI0
aI0
aI2
aI18
aI15
asS'darnc001'
p899
(lp900
g899
aS"Chase d'Arnaud"
p901
aI6
aI6
aI2
aI0
aI0
aI0
aI0
aI1
aI1
aI0
aI0
aI2
aI0
asS'guthj001'
p902
(lp903
g902
aS'Jeremy Guthrie'
p904
aI27
aI22
aI1
aI2
aI0
aI0
aI0
aI1
aI0
aI0
aI1
aI10
aI2
asS'mcgec001'
p905
(lp906
g905
aS'Casey McGehee'
p907
aI341
aI308
aI36
aI68
aI16
aI1
aI9
aI41
aI1
aI1
aI28
aI67
aI113
asS'chave002'
p908
(lp909
g908
aS'Endy Chavez'
p910
aI169
aI158
aI15
aI32
aI6
aI0
aI2
aI12
aI3
aI2
aI6
aI24
aI44
asS'chave001'
p911
(lp912
g911
aS'Eric Chavez'
p913
aI313
aI278
aI36
aI78
aI12
aI0
aI16
aI37
aI0
aI0
aI30
aI59
aI138
asS'bourp001'
p914
(lp915
g914
aS'Peter Bourjos'
p916
aI195
aI168
aI27
aI37
aI7
aI0
aI3
aI19
aI3
aI1
aI15
aI44
aI53
asS'pridj001'
p917
(lp918
g917
aS'Jason Pridie'
p919
aI10
aI10
aI1
aI3
aI1
aI0
aI1
aI3
aI0
aI0
aI0
aI0
aI7
asS'colec001'
p920
(lp921
g920
aS'Casey Coleman'
p922
aI3
aI3
aI0
aI1
aI0
aI0
aI0
aI0
aI0
aI0
aI0
aI1
aI1
asS'latom001'
p923
(lp924
g923
aS'Mat Latos'
p925
aI76
aI63
aI2
aI12
aI1
aI0
aI1
aI4
aI0
aI0
aI3
aI30
aI16
asS'dempr002'
p926
(lp927
g926
aS'Ryan Dempster'
p928
aI33
aI32
aI1
aI3
aI0
aI1
aI0
aI1
aI0
aI0
aI0
aI9
aI5
asS'alvap001'
p929
(lp930
g929
aS'Pedro Alvarez'
p931
aI557
aI498
aI62
aI121
aI25
aI1
aI30
aI84
aI1
aI0
aI55
aI169
aI238
asS'beltc001'
p932
(lp933
g932
aS'Carlos Beltran'
p934
aI589
aI521
aI80
aI142
aI25
aI1
aI31
aI94
aI13
aI6
aI62
aI117
aI262
asS'snydb003'
p935
(lp936
g935
aS'Brandon Snyder'
p937
aI68
aI64
aI11
aI17
aI2
aI0
aI3
aI9
aI0
aI0
aI3
aI26
aI28
asS'wheer001'
p938
(lp939
g938
aS'Ryan Wheeler'
p940
aI109
aI101
aI8
aI25
aI6
aI1
aI0
aI8
aI1
aI0
aI7
aI21
aI33
asS'graht001'
p941
(lp942
g941
aS'Tyler Graham'
p943
aI2
aI2
aI1
aI0
aI0
aI0
aI0
aI0
aI0
aI1
aI0
aI2
aI0
asS'bartd001'
p944
(lp945
g944
aS'Daric Barton'
p946
aI136
aI113
aI8
aI23
aI7
aI0
aI1
aI6
aI1
aI0
aI22
aI32
aI33
asS'hardj003'
p947
(lp948
g947
aS'J.J. Hardy'
p949
aI713
aI663
aI85
aI158
aI30
aI2
aI22
aI68
aI0
aI0
aI38
aI106
aI258
asS'tomlj001'
p950
(lp951
g950
aS'Josh Tomlin'
p952
aI5
aI5
aI0
aI2
aI0
aI0
aI0
aI0
aI0
aI0
aI0
aI3
aI2
asS'tulot001'
p953
(lp954
g953
aS'Troy Tulowitzki'
p955
aI190
aI171
aI31
aI50
aI8
aI1
aI7
aI24
aI2
aI1
aI18
aI19
aI81
asS'flahr001'
p956
(lp957
g956
aS'Ryan Flaherty'
p958
aI167
aI153
aI15
aI33
aI2
aI1
aI6
aI19
aI1
aI0
aI6
aI43
aI55
asS'castw002'
p959
(lp960
g959
aS'Welington Castillo'
p961
aI179
aI161
aI13
aI42
aI11
aI0
aI5
aI21
aI0
aI0
aI15
aI49
aI68
asS'navay001'
p962
(lp963
g962
aS'Yamaico Navarro'
p964
aI56
aI50
aI4
aI8
aI0
aI0
aI1
aI4
aI0
aI2
aI5
aI13
aI11
asS'germj001'
p965
(lp966
g965
aS'Justin Germano'
p967
aI22
aI15
aI1
aI1
aI0
aI0
aI0
aI0
aI0
aI0
aI1
aI10
aI1
asS'heisc001'
p968
(lp969
g968
aS'Chris Heisey'
p970
aI355
aI327
aI40
aI86
aI15
aI5
aI7
aI26
aI5
aI3
aI18
aI77
aI132
asS'herng001'
p971
(lp972
g971
aS'Gorkys Hernandez'
p973
aI173
aI156
aI18
aI30
aI2
aI3
aI3
aI13
aI7
aI2
aI13
aI42
aI47
asS'middw001'
p974
(lp975
g974
aS'Will Middlebrooks'
p976
aI286
aI267
aI34
aI77
aI14
aI0
aI15
aI54
aI4
aI1
aI13
aI70
aI136
asS'abreb001'
p977
(lp978
g977
aS'Bobby Abreu'
p979
aI257
aI219
aI29
aI53
aI11
aI1
aI3
aI24
aI6
aI2
aI37
aI56
aI75
asS'daviw001'
p980
(lp981
g980
aS'Wade Davis'
p982
aI2
aI2
aI0
aI1
aI0
aI0
aI0
aI0
aI0
aI0
aI0
aI1
aI1
asS'domim001'
p983
(lp984
g983
aS'Matt Dominguez'
p985
aI52
aI51
aI7
aI19
aI1
aI1
aI3
aI10
aI0
aI0
aI1
aI7
aI31
asS'mcphk001'
p986
(lp987
g986
aS'Kyle McPherson'
p988
aI6
aI5
aI0
aI0
aI0
aI0
aI0
aI0
aI0
aI0
aI1
aI3
aI0
asS'tracc001'
p989
(lp990
g989
aS'Chad Tracy'
p991
aI103
aI91
aI7
aI24
aI6
aI0
aI3
aI14
aI0
aI0
aI10
aI15
aI39
asS'mclon001'
p992
(lp993
g992
aS'Nate McLouth'
p994
aI298
aI266
aI39
aI64
aI14
aI1
aI7
aI20
aI12
aI1
aI27
aI61
aI101
asS'kipnj001'
p995
(lp996
g995
aS'Jason Kipnis'
p997
aI660
aI580
aI86
aI149
aI22
aI4
aI14
aI76
aI31
aI7
aI66
aI107
aI221
asS'lin-c001'
p998
(lp999
g998
aS'Che-Hsuan Lin'
p1000
aI12
aI12
aI1
aI3
aI0
aI0
aI0
aI0
aI0
aI0
aI0
aI5
aI3
asS'sanch002'
p1001
(lp1002
g1001
aS'Hector Sanchez'
p1003
aI225
aI216
aI22
aI60
aI15
aI0
aI3
aI33
aI0
aI0
aI5
aI52
aI84
asS'boxbb001'
p1004
(lp1005
g1004
aS'Brad Boxberger'
p1006
aI2
aI1
aI0
aI0
aI0
aI0
aI0
aI0
aI0
aI0
aI0
aI1
aI0
asS'altuj001'
p1007
(lp1008
g1007
aS'Jose Altuve'
p1009
aI312
aI291
aI38
aI86
aI22
aI3
aI3
aI22
aI16
aI4
aI15
aI36
aI123
asS'tekob001'
p1010
(lp1011
g1010
aS'Blake Tekotte'
p1012
aI15
aI15
aI0
aI2
aI0
aI0
aI0
aI0
aI1
aI0
aI0
aI4
aI2
asS'peres002'
p1013
(lp1014
g1013
aS'Salvador Perez'
p1015
aI305
aI289
aI38
aI87
aI16
aI0
aI11
aI39
aI0
aI0
aI12
aI27
aI136
asS'famij001'
p1016
(lp1017
g1016
aS'Jeurys Familia'
p1018
aI1
aI1
aI0
aI0
aI0
aI0
aI0
aI0
aI0
aI0
aI0
aI1
aI0
asS'martm003'
p1019
(lp1020
g1019
aS'Michael Martinez'
p1021
aI119
aI112
aI10
aI18
aI2
aI0
aI2
aI7
aI0
aI0
aI5
aI20
aI26
asS'hernr002'
p1022
(lp1023
g1022
aS'Ramon Hernandez'
p1024
aI188
aI176
aI16
aI38
aI10
aI0
aI5
aI28
aI0
aI1
aI6
aI31
aI63
asS'stule002'
p1025
(lp1026
g1025
aS'Eric Stults'
p1027
aI34
aI28
aI3
aI7
aI2
aI0
aI0
aI3
aI0
aI0
aI0
aI10
aI9
asS'garzm001'
p1028
(lp1029
g1028
aS'Matt Garza'
p1030
aI33
aI29
aI0
aI2
aI1
aI0
aI0
aI0
aI0
aI0
aI0
aI22
aI3
asS'samaj001'
p1031
(lp1032
g1031
aS'Jeff Samardzija'
p1033
aI59
aI48
aI0
aI4
aI0
aI0
aI0
aI3
aI0
aI0
aI3
aI15
aI4
asS'lewif001'
p1034
(lp1035
g1034
aS'Fred Lewis'
p1036
aI25
aI20
aI2
aI3
aI0
aI0
aI0
aI0
aI0
aI0
aI4
aI5
aI3
asS'carrb001'
p1037
(lp1038
g1037
aS'Brett Carroll'
p1039
aI2
aI2
aI2
aI0
aI0
aI0
aI0
aI0
aI0
aI0
aI0
aI0
aI0
asS'johnj009'
p1040
(lp1041
g1040
aS'Josh Johnson'
p1042
aI57
aI51
aI2
aI5
aI0
aI0
aI0
aI2
aI0
aI0
aI2
aI32
aI5
asS'thomc002'
p1043
(lp1044
g1043
aS'Clete Thomas'
p1045
aI29
aI28
aI3
aI4
aI1
aI0
aI1
aI4
aI0
aI0
aI0
aI16
aI8
asS'dudal001'
p1046
(lp1047
g1046
aS'Lucas Duda'
p1048
aI457
aI400
aI43
aI96
aI15
aI0
aI15
aI57
aI1
aI0
aI50
aI119
aI156
asS'andel002'
p1049
(lp1050
g1049
aS'Lars Anderson'
p1051
aI8
aI8
aI1
aI1
aI0
aI0
aI0
aI0
aI0
aI0
aI0
aI3
aI1
asS'braur002'
p1052
(lp1053
g1052
aS'Ryan Braun'
p1054
aI641
aI566
aI104
aI181
aI34
aI3
aI40
aI108
aI27
aI7
aI60
aI123
aI341
asS'luebc001'
p1055
(lp1056
g1055
aS'Cory Luebke'
p1057
aI12
aI11
aI0
aI0
aI0
aI0
aI0
aI0
aI0
aI0
aI0
aI6
aI0
asS'piera001'
p1058
(lp1059
g1058
aS'A.J. Pierzynski'
p1060
aI520
aI479
aI68
aI133
aI18
aI4
aI27
aI77
aI0
aI0
aI28
aI78
aI240
asS'granc001'
p1061
(lp1062
g1061
aS'Curtis Granderson'
p1063
aI684
aI596
aI102
aI138
aI18
aI4
aI43
aI106
aI10
aI3
aI75
aI195
aI293
asS'chatt001'
p1064
(lp1065
g1064
aS'Tyler Chatwood'
p1066
aI23
aI16
aI1
aI4
aI1
aI0
aI0
aI1
aI0
aI0
aI1
aI3
aI5
asS'martc005'
p1067
(lp1068
g1067
aS'Cristhian Martinez'
p1069
aI3
aI3
aI0
aI0
aI0
aI0
aI0
aI0
aI0
aI0
aI0
aI1
aI0
asS'falui001'
p1070
(lp1071
g1070
aS'Irving Falu'
p1072
aI91
aI85
aI14
aI29
aI6
aI1
aI0
aI7
aI0
aI2
aI4
aI9
aI37
asS'kubej002'
p1073
(lp1074
g1073
aS'Jason Kubel'
p1075
aI566
aI501
aI74
aI127
aI30
aI4
aI30
aI90
aI1
aI1
aI57
aI150
aI255
asS'johnc003'
p1076
(lp1077
g1076
aS'Chris Johnson'
p1078
aI323
aI303
aI20
aI78
aI16
aI3
aI7
aI47
aI3
aI1
aI14
aI78
aI121
asS'chama002'
p1079
(lp1080
g1079
aS'Adron Chambers'
p1081
aI51
aI45
aI3
aI11
aI0
aI1
aI0
aI2
aI2
aI1
aI4
aI16
aI13
asS'fedet001'
p1082
(lp1083
g1082
aS'Tim Federowicz'
p1084
aI4
aI3
aI0
aI1
aI0
aI0
aI0
aI0
aI0
aI0
aI1
aI2
aI1
asS'teagt001'
p1085
(lp1086
g1085
aS'Taylor Teagarden'
p1087
aI64
aI57
aI4
aI9
aI3
aI0
aI2
aI9
aI0
aI0
aI5
aI23
aI18
asS'peraw001'
p1088
(lp1089
g1088
aS'Wily Peralta'
p1090
aI11
aI11
aI0
aI1
aI1
aI0
aI0
aI0
aI0
aI0
aI0
aI5
aI2
asS'andir001'
p1091
(lp1092
g1091
aS'Robert Andino'
p1093
aI431
aI384
aI41
aI81
aI13
aI1
aI7
aI28
aI5
aI5
aI37
aI100
aI117
asS'montj003'
p1094
(lp1095
g1094
aS'Jesus Montero'
p1096
aI553
aI515
aI46
aI134
aI20
aI0
aI15
aI62
aI0
aI2
aI29
aI99
aI199
asS'sancg001'
p1097
(lp1098
g1097
aS'Gaby Sanchez'
p1099
aI309
aI285
aI27
aI62
aI15
aI0
aI6
aI28
aI1
aI0
aI23
aI54
aI95
asS'reveb001'
p1100
(lp1101
g1100
aS'Ben Revere'
p1102
aI553
aI511
aI70
aI150
aI13
aI6
aI0
aI32
aI40
aI9
aI29
aI54
aI175
asS'stewc001'
p1103
(lp1104
g1103
aS'Chris Stewart'
p1105
aI157
aI141
aI15
aI34
aI8
aI0
aI1
aI13
aI2
aI0
aI10
aI21
aI45
asS'wilsc004'
p1106
(lp1107
g1106
aS'C.J. Wilson'
p1108
aI6
aI5
aI0
aI0
aI0
aI0
aI0
aI0
aI0
aI0
aI1
aI1
aI0
asS'pierj002'
p1109
(lp1110
g1109
aS'Juan Pierre'
p1111
aI427
aI385
aI55
aI116
aI9
aI6
aI1
aI24
aI36
aI6
aI21
aI25
aI140
asS'gorda001'
p1112
(lp1113
g1112
aS'Alex Gordon'
p1114
aI708
aI629
aI90
aI185
aI50
aI4
aI14
aI72
aI10
aI5
aI73
aI137
aI285
asS'amara001'
p1115
(lp1116
g1115
aS'Alexi Amarista'
p1117
aI293
aI268
aI35
aI64
aI15
aI5
aI4
aI28
aI8
aI4
aI17
aI42
aI101
asS'cuddm001'
p1118
(lp1119
g1118
aS'Michael Cuddyer'
p1120
aI382
aI346
aI52
aI88
aI28
aI2
aI15
aI56
aI7
aI3
aI32
aI76
aI165
asS'hartc001'
p1121
(lp1122
g1121
aS'Corey Hart'
p1123
aI588
aI531
aI84
aI145
aI32
aI4
aI28
aI80
aI5
aI0
aI41
aI142
aI269
asS'gosea001'
p1124
(lp1125
g1124
aS'Anthony Gose'
p1126
aI189
aI166
aI25
aI37
aI7
aI3
aI1
aI11
aI15
aI3
aI17
aI59
aI53
asS'mathj001'
p1127
(lp1128
g1127
aS'Jeff Mathis'
p1129
aI227
aI211
aI25
aI46
aI13
aI0
aI8
aI27
aI1
aI0
aI9
aI68
aI83
asS'mathj002'
p1130
(lp1131
g1130
aS'Joe Mather'
p1132
aI223
aI206
aI18
aI42
aI10
aI0
aI5
aI19
aI4
aI2
aI13
aI43
aI67
asS'polap001'
p1133
(lp1134
g1133
aS'Placido Polanco'
p1135
aI328
aI303
aI28
aI78
aI15
aI0
aI2
aI19
aI0
aI0
aI18
aI25
aI99
asS'dewib001'
p1136
(lp1137
g1136
aS'Blake DeWitt'
p1138
aI30
aI29
aI1
aI4
aI1
aI0
aI0
aI1
aI0
aI0
aI0
aI2
aI5
asS'wielj001'
p1139
(lp1140
g1139
aS'Joe Wieland'
p1141
aI8
aI8
aI0
aI2
aI1
aI0
aI0
aI2
aI0
aI0
aI0
aI2
aI3
asS'andre001'
p1142
(lp1143
g1142
aS'Elvis Andrus'
p1144
aI696
aI616
aI82
aI175
aI31
aI8
aI3
aI62
aI20
aI10
aI56
aI94
aI231
asS'leons001'
p1145
(lp1146
g1145
aS'Sandy Leon'
p1147
aI36
aI30
aI2
aI8
aI2
aI0
aI0
aI2
aI0
aI0
aI4
aI11
aI10
asS'moors001'
p1148
(lp1149
g1148
aS'Scott Moore'
p1150
aI127
aI113
aI15
aI25
aI7
aI0
aI5
aI13
aI0
aI1
aI6
aI28
aI47
asS'ibanr001'
p1151
(lp1152
g1151
aS'Raul Ibanez'
p1153
aI425
aI384
aI50
aI92
aI19
aI3
aI19
aI62
aI3
aI0
aI35
aI67
aI174
asS'derom001'
p1154
(lp1155
g1154
aS'Mark DeRosa'
p1156
aI101
aI85
aI13
aI16
aI5
aI0
aI0
aI6
aI1
aI0
aI14
aI18
aI21
asS'burnc001'
p1157
(lp1158
g1157
aS'Cory Burns'
p1159
aI1
aI1
aI0
aI0
aI0
aI0
aI0
aI0
aI0
aI0
aI0
aI1
aI0
asS'ellia001'
p1160
(lp1161
g1160
aS'A.J. Ellis'
p1162
aI497
aI417
aI44
aI113
aI19
aI1
aI13
aI52
aI0
aI0
aI63
aI105
aI173
asS'lestj001'
p1163
(lp1164
g1163
aS'Jon Lester'
p1165
aI6
aI5
aI0
aI0
aI0
aI0
aI0
aI0
aI0
aI0
aI0
aI3
aI0
asS'gardb001'
p1166
(lp1167
g1166
aS'Brett Gardner'
p1168
aI37
aI31
aI7
aI10
aI2
aI0
aI0
aI3
aI2
aI2
aI5
aI7
aI12
asS'lopej003'
p1169
(lp1170
g1169
aS'Jose Lopez'
p1171
aI240
aI228
aI17
aI57
aI13
aI0
aI4
aI28
aI0
aI1
aI9
aI41
aI82
asS'matsd001'
p1172
(lp1173
g1172
aS'Daisuke Matsuzaka'
p1174
aI2
aI2
aI0
aI0
aI0
aI0
aI0
aI0
aI0
aI0
aI0
aI1
aI0
asS'lallb001'
p1175
(lp1176
g1175
aS'Blake Lalli'
p1177
aI11
aI10
aI1
aI1
aI0
aI0
aI0
aI0
aI0
aI0
aI1
aI2
aI1
asS'iannc001'
p1178
(lp1179
g1178
aS'Chris Iannetta'
p1180
aI253
aI221
aI27
aI53
aI6
aI1
aI9
aI26
aI1
aI3
aI29
aI60
aI88
asS'freed001'
p1181
(lp1182
g1181
aS'David Freese'
p1183
aI540
aI477
aI67
aI141
aI22
aI1
aI18
aI72
aI3
aI2
aI54
aI113
aI219
asS'farre001'
p1184
(lp1185
g1184
aS'Eric Farris'
p1186
aI9
aI8
aI1
aI1
aI0
aI0
aI0
aI0
aI1
aI0
aI1
aI2
aI1
asS'buted001'
p1187
(lp1188
g1187
aS'Drew Butera'
p1189
aI122
aI111
aI7
aI22
aI6
aI0
aI1
aI5
aI0
aI0
aI9
aI26
aI31
asS'kersc001'
p1190
(lp1191
g1190
aS'Clayton Kershaw'
p1192
aI72
aI55
aI2
aI11
aI1
aI0
aI0
aI2
aI0
aI0
aI2
aI18
aI12
asS'moora001'
p1193
(lp1194
g1193
aS'Adam Moore'
p1195
aI12
aI11
aI1
aI2
aI1
aI0
aI1
aI2
aI0
aI0
aI1
aI3
aI6
asS'hermj001'
p1196
(lp1197
g1196
aS'Jeremy Hermida'
p1198
aI27
aI24
aI2
aI6
aI1
aI1
aI0
aI2
aI1
aI0
aI3
aI7
aI9
asS'hayeb001'
p1199
(lp1200
g1199
aS'Brett Hayes'
p1201
aI118
aI114
aI7
aI23
aI6
aI0
aI0
aI3
aI1
aI0
aI4
aI49
aI29
asS'gregd001'
p1202
(lp1203
g1202
aS'Didi Gregorius'
p1204
aI21
aI20
aI1
aI6
aI0
aI0
aI0
aI2
aI0
aI0
aI0
aI5
aI6
asS'cairm001'
p1205
(lp1206
g1205
aS'Miguel Cairo'
p1207
aI146
aI140
aI9
aI26
aI6
aI2
aI1
aI11
aI4
aI0
aI4
aI20
aI39
asS'kellc001'
p1208
(lp1209
g1208
aS'Casey Kelly'
p1210
aI12
aI10
aI0
aI2
aI0
aI0
aI0
aI0
aI0
aI0
aI0
aI4
aI2
asS'santo001'
p1211
(lp1212
g1211
aS'Omir Santos'
p1213
aI10
aI8
aI0
aI1
aI0
aI0
aI0
aI1
aI0
aI0
aI0
aI1
aI1
asS'chenw001'
p1214
(lp1215
g1214
aS'Wei-Yin Chen'
p1216
aI4
aI3
aI0
aI0
aI0
aI0
aI0
aI0
aI0
aI0
aI0
aI2
aI0
asS'rodrh003'
p1217
(lp1218
g1217
aS'Henry Rodriguez'
p1219
aI15
aI13
aI0
aI3
aI1
aI0
aI0
aI2
aI0
aI0
aI2
aI1
aI4
asS'ariaj001'
p1220
(lp1221
g1220
aS'Joaquin Arias'
p1222
aI337
aI313
aI28
aI83
aI12
aI4
aI4
aI30
aI5
aI1
aI13
aI44
aI115
asS'freef001'
p1223
(lp1224
g1223
aS'Freddie Freeman'
p1225
aI606
aI526
aI91
aI137
aI32
aI2
aI23
aI93
aI2
aI0
aI64
aI122
aI242
asS'baxtm001'
p1226
(lp1227
g1226
aS'Mike Baxter'
p1228
aI208
aI176
aI26
aI46
aI14
aI2
aI3
aI17
aI5
aI3
aI25
aI45
aI73
asS'diazm003'
p1229
(lp1230
g1229
aS'Matt Diaz'
p1231
aI114
aI105
aI9
aI24
aI6
aI0
aI2
aI13
aI0
aI0
aI8
aI20
aI36
asS'roenj001'
p1232
(lp1233
g1232
aS'Josh Roenicke'
p1234
aI13
aI12
aI1
aI1
aI0
aI0
aI0
aI0
aI0
aI0
aI0
aI6
aI1
asS'wertj001'
p1235
(lp1236
g1235
aS'Jayson Werth'
p1237
aI330
aI287
aI42
aI86
aI20
aI3
aI5
aI31
aI8
aI2
aI41
aI55
aI127
asS'escoe001'
p1238
(lp1239
g1238
aS'Eduardo Escobar'
p1240
aI146
aI131
aI18
aI28
aI4
aI1
aI0
aI9
aI3
aI0
aI11
aI31
aI34
asS'gomec002'
p1241
(lp1242
g1241
aS'Carlos Gomez'
p1243
aI430
aI393
aI70
aI106
aI19
aI3
aI19
aI50
aI37
aI6
aI20
aI84
aI188
asS'bloow001'
p1244
(lp1245
g1244
aS'Willie Bloomquist'
p1246
aI338
aI324
aI47
aI98
aI21
aI5
aI0
aI23
aI7
aI10
aI12
aI55
aI129
asS'carpc002'
p1247
(lp1248
g1247
aS'Chris Carpenter'
p1249
aI4
aI4
aI0
aI0
aI0
aI0
aI0
aI0
aI0
aI0
aI0
aI1
aI0
asS'ohler001'
p1250
(lp1251
g1250
aS'Ross Ohlendorf'
p1252
aI15
aI14
aI2
aI1
aI0
aI0
aI0
aI0
aI0
aI0
aI0
aI7
aI1
asS'weavj003'
p1253
(lp1254
g1253
aS'Jered Weaver'
p1255
aI3
aI2
aI1
aI1
aI0
aI0
aI0
aI0
aI0
aI0
aI1
aI1
aI1
asS'lougd001'
p1256
(lp1257
g1256
aS'David Lough'
p1258
aI65
aI59
aI9
aI14
aI2
aI1
aI0
aI2
aI1
aI0
aI4
aI9
aI18
asS'bassa001'
p1259
(lp1260
g1259
aS'Anthony Bass'
p1261
aI31
aI31
aI3
aI4
aI0
aI1
aI0
aI5
aI1
aI0
aI0
aI13
aI6
asS'raleb001'
p1262
(lp1263
g1262
aS'Brooks Raley'
p1264
aI10
aI10
aI0
aI2
aI0
aI0
aI0
aI0
aI0
aI0
aI0
aI1
aI2
asS'headc001'
p1265
(lp1266
g1265
aS'Chase Headley'
p1267
aI683
aI589
aI92
aI168
aI31
aI2
aI30
aI112
aI16
aI6
aI85
aI154
aI293
asS'jennd003'
p1268
(lp1269
g1268
aS'Dan Jennings'
p1270
aI1
aI1
aI0
aI0
aI0
aI0
aI0
aI0
aI0
aI0
aI0
aI0
aI0
asS'jennd002'
p1271
(lp1272
g1271
aS'Desmond Jennings'
p1273
aI563
aI505
aI84
aI124
aI19
aI7
aI13
aI47
aI31
aI2
aI46
aI120
aI196
asS'reddj001'
p1274
(lp1275
g1274
aS'Josh Reddick'
p1276
aI673
aI611
aI85
aI148
aI29
aI5
aI32
aI85
aI11
aI1
aI55
aI151
aI283
asS'casia001'
p1277
(lp1278
g1277
aS'Alexi Casilla'
p1279
aI326
aI299
aI33
aI72
aI17
aI2
aI1
aI30
aI21
aI1
aI16
aI52
aI96
asS'hampj001'
p1280
(lp1281
g1280
aS'Justin Hampson'
p1282
aI1
aI1
aI0
aI0
aI0
aI0
aI0
aI0
aI0
aI0
aI0
aI0
aI0
asS'carre001'
p1283
(lp1284
g1283
aS'Ezequiel Carrera'
p1285
aI158
aI147
aI20
aI40
aI6
aI3
aI2
aI11
aI8
aI1
aI8
aI35
aI58
asS'duenb001'
p1286
(lp1287
g1286
aS'Brian Duensing'
p1288
aI1
aI1
aI0
aI0
aI0
aI0
aI0
aI0
aI0
aI0
aI0
aI1
aI0
asS'uggld001'
p1289
(lp1290
g1289
aS'Dan Uggla'
p1291
aI616
aI509
aI83
aI112
aI28
aI0
aI19
aI77
aI4
aI3
aI94
aI165
aI197
asS'gordd002'
p1292
(lp1293
g1292
aS'Dee Gordon'
p1294
aI322
aI295
aI36
aI66
aI8
aI2
aI1
aI17
aI32
aI9
aI20
aI60
aI81
asS'blumg001'
p1295
(lp1296
g1295
aS'Geoff Blum'
p1297
aI31
aI28
aI1
aI4
aI0
aI0
aI0
aI1
aI0
aI0
aI2
aI7
aI4
asS'bartj001'
p1298
(lp1299
g1298
aS'Jason Bartlett'
p1300
aI98
aI83
aI8
aI11
aI5
aI0
aI0
aI4
aI0
aI0
aI12
aI27
aI16
asS'morak001'
p1301
(lp1302
g1301
aS'Kendrys Morales'
p1303
aI522
aI484
aI61
aI132
aI26
aI1
aI22
aI73
aI0
aI1
aI31
aI116
aI226
asS'edles001'
p1304
(lp1305
g1304
aS'Steve Edlefsen'
p1306
aI1
aI1
aI0
aI0
aI0
aI0
aI0
aI0
aI0
aI0
aI0
aI0
aI0
asS'santc002'
p1307
(lp1308
g1307
aS'Carlos Santana'
p1309
aI601
aI501
aI72
aI127
aI27
aI2
aI18
aI76
aI3
aI5
aI89
aI98
aI212
asS'jonea003'
p1310
(lp1311
g1310
aS'Adam Jones'
p1312
aI697
aI648
aI103
aI186
aI39
aI3
aI32
aI82
aI16
aI7
aI34
aI126
aI327
asS'adcon001'
p1313
(lp1314
g1313
aS'Nathan Adcock'
p1315
aI1
aI1
aI0
aI0
aI0
aI0
aI0
aI0
aI0
aI0
aI0
aI1
aI0
asS'floyg001'
p1316
(lp1317
g1316
aS'Gavin Floyd'
p1318
aI1
aI1
aI0
aI0
aI0
aI0
aI0
aI0
aI0
aI0
aI0
aI0
aI0
asS'rasmc001'
p1319
(lp1320
g1319
aS'Colby Rasmus'
p1321
aI625
aI565
aI75
aI126
aI21
aI5
aI23
aI75
aI4
aI3
aI47
aI149
aI226
asS'lillt001'
p1322
(lp1323
g1322
aS'Ted Lilly'
p1324
aI17
aI14
aI0
aI1
aI0
aI0
aI0
aI0
aI0
aI0
aI0
aI6
aI1
asS'campt001'
p1325
(lp1326
g1325
aS'Tony Campana'
p1327
aI185
aI168
aI25
aI45
aI6
aI0
aI0
aI5
aI27
aI3
aI10
aI39
aI51
asS'hosme001'
p1328
(lp1329
g1328
aS'Eric Hosmer'
p1330
aI596
aI533
aI65
aI124
aI22
aI2
aI14
aI60
aI16
aI1
aI56
aI94
aI192
asS'hamij003'
p1331
(lp1332
g1331
aS'Josh Hamilton'
p1333
aI621
aI551
aI102
aI157
aI31
aI2
aI43
aI126
aI5
aI4
aI58
aI160
aI321
asS'ziegb001'
p1334
(lp1335
g1334
aS'Brad Ziegler'
p1336
aI4
aI4
aI1
aI1
aI0
aI0
aI0
aI0
aI0
aI0
aI0
aI2
aI1
asS'cirip001'
p1337
(lp1338
g1337
aS'Pedro Ciriaco'
p1339
aI272
aI259
aI33
aI76
aI15
aI2
aI2
aI19
aI16
aI3
aI8
aI47
aI101
asS'collt001'
p1340
(lp1341
g1340
aS'Tim Collins'
p1342
aI1
aI1
aI0
aI0
aI0
aI0
aI0
aI0
aI0
aI0
aI0
aI0
aI0
asS'cozaz001'
p1343
(lp1344
g1343
aS'Zack Cozart'
p1345
aI557
aI521
aI63
aI129
aI30
aI4
aI13
aI31
aI4
aI0
aI28
aI104
aI206
asS'jonea002'
p1346
(lp1347
g1346
aS'Andruw Jones'
p1348
aI269
aI233
aI27
aI46
aI7
aI0
aI14
aI34
aI0
aI0
aI28
aI71
aI95
asS'joneg002'
p1349
(lp1350
g1349
aS'Garrett Jones'
p1351
aI488
aI449
aI64
aI123
aI28
aI2
aI24
aI81
aI2
aI0
aI32
aI99
aI227
asS'sancb001'
p1352
(lp1353
g1352
aS'Brian Sanches'
p1354
aI1
aI1
aI0
aI0
aI0
aI0
aI0
aI0
aI0
aI0
aI0
aI1
aI0
asS'morsm001'
p1355
(lp1356
g1355
aS'Michael Morse'
p1357
aI411
aI388
aI51
aI112
aI16
aI1
aI16
aI58
aI0
aI1
aI16
aI92
aI178
asS'younc004'
p1358
(lp1359
g1358
aS'Chris Young'
p1360
aI349
aI311
aI33
aI68
aI22
aI0
aI13
aI36
aI7
aI3
aI36
aI78
aI129
asS'buehm001'
p1361
(lp1362
g1361
aS'Mark Buehrle'
p1363
aI71
aI67
aI2
aI3
aI1
aI0
aI0
aI1
aI0
aI0
aI0
aI29
aI4
asS'jacom001'
p1364
(lp1365
g1364
aS'Mike Jacobs'
p1366
aI23
aI19
aI4
aI4
aI1
aI0
aI0
aI2
aI0
aI0
aI4
aI6
aI5
asS'ellim001'
p1367
(lp1368
g1367
aS'Mark Ellis'
p1369
aI454
aI406
aI61
aI104
aI21
aI1
aI7
aI31
aI5
aI0
aI39
aI70
aI148
asS'johnd004'
p1370
(lp1371
g1370
aS'Dan Johnson'
p1372
aI31
aI22
aI8
aI8
aI1
aI0
aI3
aI6
aI0
aI0
aI9
aI3
aI18
asS'rutlj001'
p1373
(lp1374
g1373
aS'Josh Rutledge'
p1375
aI291
aI277
aI37
aI76
aI20
aI5
aI8
aI37
aI7
aI0
aI9
aI54
aI130
asS'valdj002'
p1376
(lp1377
g1376
aS'Jordany Valdespin'
p1378
aI204
aI189
aI28
aI46
aI9
aI1
aI8
aI26
aI10
aI3
aI10
aI44
aI81
asS'petta001'
p1379
(lp1380
g1379
aS'Andy Pettitte'
p1381
aI5
aI4
aI0
aI1
aI0
aI0
aI0
aI0
aI0
aI0
aI0
aI2
aI1
asS'mains001'
p1382
(lp1383
g1382
aS'Scott Maine'
p1384
aI2
aI2
aI0
aI0
aI0
aI0
aI0
aI0
aI0
aI0
aI0
aI1
aI0
asS'polla001'
p1385
(lp1386
g1385
aS'A.J. Pollock'
p1387
aI93
aI81
aI8
aI20
aI4
aI1
aI2
aI8
aI1
aI2
aI9
aI11
aI32
asS'archc001'
p1388
(lp1389
g1388
aS'Chris Archer'
p1390
aI3
aI3
aI1
aI0
aI0
aI0
aI0
aI0
aI0
aI1
aI0
aI1
aI0
asS'hellj001'
p1391
(lp1392
g1391
aS'Jeremy Hellickson'
p1393
aI2
aI1
aI0
aI0
aI0
aI0
aI0
aI0
aI0
aI0
aI0
aI0
aI0
asS'hanir001'
p1394
(lp1395
g1394
aS'Ryan Hanigan'
p1396
aI350
aI299
aI24
aI84
aI14
aI0
aI2
aI23
aI0
aI0
aI41
aI36
aI104
asS'cabrm002'
p1397
(lp1398
g1397
aS'Melky Cabrera'
p1399
aI501
aI459
aI84
aI159
aI25
aI10
aI11
aI60
aI13
aI5
aI36
aI63
aI237
asS'cabrm001'
p1400
(lp1401
g1400
aS'Miguel Cabrera'
p1402
aI697
aI622
aI108
aI205
aI40
aI0
aI44
aI139
aI4
aI1
aI66
aI98
aI377
asS'schaj002'
p1403
(lp1404
g1403
aS'Jordan Schafer'
p1405
aI197
aI173
aI20
aI36
aI6
aI1
aI0
aI9
aI13
aI6
aI20
aI55
aI44
asS'sappd001'
p1406
(lp1407
g1406
aS'Dave Sappelt'
p1408
aI67
aI59
aI6
aI13
aI2
aI0
aI2
aI5
aI0
aI0
aI6
aI8
aI21
asS'morgn001'
p1409
(lp1410
g1409
aS'Nyjer Morgan'
p1411
aI307
aI276
aI42
aI69
aI5
aI3
aI3
aI16
aI11
aI5
aI19
aI59
aI89
asS'rabur001'
p1412
(lp1413
g1412
aS'Ryan Raburn'
p1414
aI222
aI205
aI14
aI35
aI14
aI0
aI1
aI12
aI1
aI1
aI13
aI53
aI52
asS'wietm001'
p1415
(lp1416
g1415
aS'Matt Wieters'
p1417
aI593
aI526
aI67
aI131
aI27
aI1
aI23
aI83
aI3
aI0
aI60
aI112
aI229
asS'felds001'
p1418
(lp1419
g1418
aS'Scott Feldman'
p1420
aI5
aI4
aI0
aI1
aI0
aI0
aI0
aI1
aI0
aI0
aI0
aI2
aI1
asS'bonie001'
p1421
(lp1422
g1421
aS'Emilio Bonifacio'
p1423
aI260
aI231
aI29
aI61
aI2
aI4
aI1
aI11
aI29
aI3
aI24
aI50
aI74
asS'lowrj001'
p1424
(lp1425
g1424
aS'Jed Lowrie'
p1426
aI199
aI176
aI17
aI40
aI6
aI0
aI7
aI18
aI1
aI0
aI21
aI37
aI67
asS'parmc001'
p1427
(lp1428
g1427
aS'Chris Parmelee'
p1429
aI210
aI192
aI18
aI44
aI10
aI2
aI5
aI19
aI0
aI0
aI13
aI52
aI73
asS'kotsm001'
p1430
(lp1431
g1430
aS'Mark Kotsay'
p1432
aI150
aI138
aI9
aI34
aI8
aI0
aI2
aI14
aI0
aI2
aI10
aI14
aI48
asS'vogts001'
p1433
(lp1434
g1433
aS'Stephen Vogt'
p1435
aI27
aI25
aI0
aI0
aI0
aI0
aI0
aI0
aI0
aI0
aI2
aI2
aI0
asS'hacke001'
p1436
(lp1437
g1436
aS'Eric Hacker'
p1438
aI3
aI3
aI0
aI0
aI0
aI0
aI0
aI0
aI0
aI0
aI0
aI1
aI0
asS'volqe001'
p1439
(lp1440
g1439
aS'Edinson Volquez'
p1441
aI62
aI56
aI2
aI4
aI1
aI0
aI0
aI1
aI0
aI0
aI1
aI29
aI5
asS'porcr001'
p1442
(lp1443
g1442
aS'Rick Porcello'
p1444
aI3
aI2
aI0
aI0
aI0
aI0
aI0
aI0
aI0
aI0
aI0
aI1
aI0
asS'ellsj001'
p1445
(lp1446
g1445
aS'Jacoby Ellsbury'
p1447
aI323
aI303
aI43
aI82
aI18
aI0
aI4
aI26
aI14
aI3
aI19
aI43
aI112
asS'sante001'
p1448
(lp1449
g1448
aS'Ervin Santana'
p1450
aI5
aI4
aI0
aI0
aI0
aI0
aI0
aI0
aI0
aI0
aI0
aI4
aI0
asS'johnn001'
p1451
(lp1452
g1451
aS'Nick Johnson'
p1453
aI102
aI87
aI9
aI18
aI4
aI0
aI4
aI11
aI2
aI0
aI11
aI26
aI34
asS'nisht001'
p1454
(lp1455
g1454
aS'Tsuyoshi Nishioka'
p1456
aI14
aI12
aI0
aI0
aI0
aI0
aI0
aI1
aI0
aI0
aI1
aI1
aI0
asS'karsj001'
p1457
(lp1458
g1457
aS'Jeff Karstens'
p1459
aI27
aI26
aI3
aI3
aI0
aI0
aI0
aI2
aI0
aI0
aI0
aI14
aI3
asS'ortid001'
p1460
(lp1461
g1460
aS'David Ortiz'
p1462
aI383
aI324
aI65
aI103
aI26
aI0
aI23
aI60
aI0
aI1
aI56
aI51
aI198
asS'cainl001'
p1463
(lp1464
g1463
aS'Lorenzo Cain'
p1465
aI244
aI222
aI27
aI59
aI9
aI2
aI7
aI31
aI10
aI0
aI15
aI56
aI93
asS'smyld001'
p1466
(lp1467
g1466
aS'Drew Smyly'
p1468
aI1
aI1
aI0
aI0
aI0
aI0
aI0
aI0
aI0
aI0
aI0
aI0
aI0
asS'gonzg003'
p1469
(lp1470
g1469
aS'Gio Gonzalez'
p1471
aI71
aI60
aI1
aI5
aI1
aI0
aI0
aI2
aI0
aI0
aI1
aI23
aI6
asS'hafnt001'
p1472
(lp1473
g1472
aS'Travis Hafner'
p1474
aI263
aI219
aI23
aI50
aI6
aI2
aI12
aI34
aI0
aI0
aI32
aI47
aI96
asS'richc002'
p1475
(lp1476
g1475
aS'Clayton Richard'
p1477
aI77
aI67
aI5
aI5
aI2
aI0
aI1
aI7
aI0
aI0
aI1
aI39
aI10
asS'robic001'
p1478
(lp1479
g1478
aS'Clint Robinson'
p1480
aI4
aI4
aI0
aI0
aI0
aI0
aI0
aI0
aI0
aI0
aI0
aI2
aI0
asS'espid001'
p1481
(lp1482
g1481
aS'Danny Espinosa'
p1483
aI639
aI577
aI80
aI140
aI37
aI2
aI16
aI53
aI20
aI6
aI44
aI186
aI229
asS'berrq001'
p1484
(lp1485
g1484
aS'Quintin Berry'
p1486
aI330
aI291
aI44
aI75
aI10
aI6
aI2
aI29
aI21
aI0
aI25
aI80
aI103
asS'buchc001'
p1487
(lp1488
g1487
aS'Clay Buchholz'
p1489
aI3
aI2
aI0
aI0
aI0
aI0
aI0
aI0
aI0
aI0
aI0
aI1
aI0
asS'brotr001'
p1490
(lp1491
g1490
aS'Rex Brothers'
p1492
aI3
aI2
aI0
aI0
aI0
aI0
aI0
aI0
aI0
aI0
aI0
aI2
aI0
asS'craia001'
p1493
(lp1494
g1493
aS'Allen Craig'
p1495
aI477
aI434
aI70
aI133
aI34
aI0
aI20
aI84
aI2
aI1
aI36
aI83
aI227
asS'beacb001'
p1496
(lp1497
g1496
aS'Brandon Beachy'
p1498
aI29
aI25
aI3
aI4
aI1
aI0
aI0
aI3
aI0
aI0
aI2
aI16
aI5
asS'balfg001'
p1499
(lp1500
g1499
aS'Grant Balfour'
p1501
aI1
aI1
aI0
aI0
aI0
aI0
aI0
aI0
aI0
aI0
aI0
aI1
aI0
asS'santr002'
p1502
(lp1503
g1502
aS'Ramon Santiago'
p1504
aI259
aI228
aI19
aI47
aI7
aI1
aI2
aI17
aI1
aI0
aI20
aI39
aI62
asS'avill001'
p1505
(lp1506
g1505
aS'Luis Avilan'
p1507
aI3
aI3
aI0
aI1
aI0
aI0
aI0
aI0
aI0
aI0
aI0
aI0
aI1
asS'collj001'
p1508
(lp1509
g1508
aS'Josh Collmenter'
p1510
aI23
aI16
aI1
aI1
aI0
aI0
aI0
aI2
aI0
aI0
aI1
aI5
aI1
asS'utlec001'
p1511
(lp1512
g1511
aS'Chase Utley'
p1513
aI342
aI289
aI43
aI74
aI14
aI2
aI11
aI42
aI9
aI1
aI37
aI42
aI125
asS'ramow001'
p1514
(lp1515
g1514
aS'Wilson Ramos'
p1516
aI96
aI83
aI11
aI22
aI2
aI0
aI3
aI10
aI0
aI0
aI12
aI19
aI33
asS'maybc001'
p1517
(lp1518
g1517
aS'Cameron Maybin'
p1519
aI548
aI496
aI64
aI123
aI20
aI5
aI8
aI45
aI25
aI7
aI42
aI106
aI177
asS'hinsa001'
p1520
(lp1521
g1520
aS'Alex Hinshaw'
p1522
aI1
aI1
aI0
aI0
aI0
aI0
aI0
aI0
aI0
aI0
aI0
aI1
aI0
asS'marcs001'
p1523
(lp1524
g1523
aS'Shaun Marcum'
p1525
aI42
aI37
aI1
aI4
aI1
aI0
aI0
aI1
aI0
aI0
aI2
aI14
aI5
asS'bedae001'
p1526
(lp1527
g1526
aS'Erik Bedard'
p1528
aI44
aI37
aI2
aI4
aI1
aI0
aI0
aI0
aI0
aI0
aI1
aI14
aI5
asS'rosaw001'
p1529
(lp1530
g1529
aS'Wilin Rosario'
p1531
aI421
aI391
aI66
aI106
aI19
aI0
aI27
aI69
aI4
aI5
aI25
aI96
aI206
asS'solaj002'
p1532
(lp1533
g1532
aS'Jhonatan Solano'
p1534
aI37
aI35
aI6
aI11
aI3
aI0
aI2
aI6
aI1
aI0
aI2
aI5
aI20
asS'novai001'
p1535
(lp1536
g1535
aS'Ivan Nova'
p1537
aI9
aI7
aI0
aI1
aI0
aI0
aI0
aI0
aI0
aI0
aI0
aI6
aI1
asS'conrb001'
p1538
(lp1539
g1538
aS'Brooks Conrad'
p1540
aI101
aI94
aI6
aI13
aI5
aI0
aI4
aI15
aI0
aI0
aI6
aI41
aI30
asS'wellk001'
p1541
(lp1542
g1541
aS'Kip Wells'
p1543
aI12
aI10
aI1
aI1
aI0
aI0
aI0
aI0
aI0
aI0
aI0
aI4
aI1
asS'komae001'
p1544
(lp1545
g1544
aS'Erik Komatsu'
p1546
aI58
aI51
aI5
aI11
aI0
aI0
aI0
aI1
aI0
aI0
aI6
aI5
aI11
asS'consj001'
p1547
(lp1548
g1547
aS'Jose Constanza'
p1549
aI86
aI76
aI8
aI19
aI2
aI0
aI0
aI4
aI5
aI2
aI8
aI21
aI21
asS'happj001'
p1550
(lp1551
g1550
aS'J.A. Happ'
p1552
aI16
aI12
aI1
aI1
aI0
aI0
aI0
aI0
aI0
aI0
aI2
aI5
aI1
asS'romer002'
p1553
(lp1554
g1553
aS'Ricky Romero'
p1555
aI5
aI5
aI1
aI1
aI0
aI0
aI0
aI0
aI0
aI0
aI0
aI2
aI1
asS'mahoj001'
p1556
(lp1557
g1556
aS'Joe Mahoney'
p1558
aI4
aI4
aI0
aI0
aI0
aI0
aI0
aI0
aI0
aI0
aI0
aI0
aI0
asS'seagk001'
p1559
(lp1560
g1559
aS'Kyle Seager'
p1561
aI651
aI594
aI62
aI154
aI35
aI1
aI20
aI86
aI13
aI5
aI46
aI110
aI251
asS'laffa001'
p1562
(lp1563
g1562
aS'Aaron Laffey'
p1564
aI1
aI1
aI0
aI0
aI0
aI0
aI0
aI0
aI0
aI0
aI0
aI0
aI0
asS'montm001'
p1565
(lp1566
g1565
aS'Miguel Montero'
p1567
aI564
aI480
aI63
aI137
aI24
aI2
aI15
aI86
aI0
aI0
aI70
aI130
aI210
asS'giamj001'
p1568
(lp1569
g1568
aS'Jason Giambi'
p1570
aI109
aI88
aI6
aI20
aI4
aI0
aI1
aI8
aI0
aI0
aI17
aI24
aI27
asS'marsl001'
p1571
(lp1572
g1571
aS'Lou Marson'
p1573
aI232
aI192
aI27
aI44
aI8
aI2
aI0
aI13
aI4
aI2
aI36
aI43
aI56
asS'brucj001'
p1574
(lp1575
g1574
aS'Jay Bruce'
p1576
aI599
aI534
aI85
aI133
aI34
aI5
aI31
aI89
aI8
aI3
aI54
aI149
aI270
asS'youkk001'
p1577
(lp1578
g1577
aS'Kevin Youkilis'
p1579
aI509
aI438
aI72
aI103
aI15
aI2
aI19
aI60
aI0
aI0
aI51
aI108
aI179
asS'ogana001'
p1580
(lp1581
g1580
aS'Alexi Ogando'
p1582
aI2
aI2
aI0
aI1
aI0
aI0
aI0
aI0
aI0
aI0
aI0
aI1
aI1
asS'bay-j001'
p1583
(lp1584
g1583
aS'Jason Bay'
p1585
aI215
aI194
aI21
aI32
aI2
aI0
aI8
aI20
aI5
aI1
aI19
aI58
aI58
asS'parrm001'
p1586
(lp1587
g1586
aS'Manny Parra'
p1588
aI1
aI1
aI0
aI0
aI0
aI0
aI0
aI0
aI0
aI0
aI0
aI1
aI0
asS'satij001'
p1589
(lp1590
g1589
aS'Josh Satin'
p1591
aI1
aI1
aI0
aI0
aI0
aI0
aI0
aI0
aI0
aI0
aI0
aI1
aI0
asS'fryee001'
p1592
(lp1593
g1592
aS'Eric Fryer'
p1594
aI5
aI4
aI0
aI1
aI0
aI0
aI0
aI0
aI0
aI0
aI1
aI1
aI1
asS'fifes001'
p1595
(lp1596
g1595
aS'Stephen Fife'
p1597
aI8
aI7
aI1
aI2
aI1
aI0
aI0
aI0
aI0
aI0
aI0
aI2
aI3
asS'blacc001'
p1598
(lp1599
g1598
aS'Charlie Blackmon'
p1600
aI121
aI113
aI15
aI32
aI8
aI0
aI2
aI9
aI1
aI2
aI4
aI17
aI46
asS'mazzv001'
p1601
(lp1602
g1601
aS'Vin Mazzaro'
p1603
aI5
aI4
aI0
aI2
aI0
aI0
aI0
aI1
aI0
aI0
aI0
aI2
aI2
asS'lemad001'
p1604
(lp1605
g1604
aS'DJ LeMahieu'
p1606
aI247
aI229
aI26
aI68
aI12
aI4
aI2
aI22
aI1
aI2
aI13
aI42
aI94
asS'heltt001'
p1607
(lp1608
g1607
aS'Todd Helton'
p1609
aI273
aI232
aI30
aI56
aI15
aI1
aI7
aI35
aI1
aI1
aI37
aI44
aI94
asS'guyeb001'
p1610
(lp1611
g1610
aS'Brandon Guyer'
p1612
aI7
aI7
aI2
aI1
aI0
aI0
aI1
aI1
aI0
aI0
aI0
aI1
aI4
asS'couss001'
p1613
(lp1614
g1613
aS'Scott Cousins'
p1615
aI92
aI86
aI7
aI14
aI4
aI1
aI1
aI3
aI1
aI1
aI4
aI24
aI23
asS'narvc001'
p1616
(lp1617
g1616
aS'Chris Narveson'
p1618
aI3
aI3
aI0
aI0
aI0
aI0
aI0
aI0
aI0
aI0
aI0
aI2
aI0
asS'gonza005'
p1619
(lp1620
g1619
aS'Alberto Gonzalez'
p1621
aI55
aI54
aI7
aI13
aI2
aI1
aI0
aI4
aI0
aI0
aI0
aI9
aI17
asS'mortc003'
p1622
(lp1623
g1622
aS'Clayton Mortensen'
p1624
aI1
aI1
aI0
aI0
aI0
aI0
aI0
aI0
aI0
aI0
aI0
aI1
aI0
asS'pillb001'
p1625
(lp1626
g1625
aS'Brett Pill'
p1627
aI114
aI105
aI10
aI22
aI3
aI0
aI4
aI11
aI1
aI0
aI6
aI19
aI37
asS'thomr005'
p1628
(lp1629
g1628
aS'Rich Thompson'
p1630
aI24
aI22
aI5
aI2
aI0
aI0
aI0
aI1
aI6
aI2
aI0
aI5
aI2
asS'morem001'
p1631
(lp1632
g1631
aS'Mitch Moreland'
p1633
aI355
aI325
aI41
aI90
aI18
aI0
aI15
aI50
aI1
aI1
aI23
aI70
aI153
asS'gonza003'
p1634
(lp1635
g1634
aS'Adrian Gonzalez'
p1636
aI684
aI629
aI75
aI188
aI47
aI1
aI18
aI108
aI2
aI0
aI42
aI110
aI291
asS'gonza002'
p1637
(lp1638
g1637
aS'Alex Gonzalez'
p1639
aI89
aI81
aI8
aI21
aI4
aI0
aI4
aI15
aI1
aI1
aI6
aI15
aI37
asS'hensc002'
p1640
(lp1641
g1640
aS'Clay Hensley'
p1642
aI1
aI1
aI0
aI0
aI0
aI0
aI0
aI0
aI0
aI0
aI0
aI0
aI0
asS'nelsc001'
p1643
(lp1644
g1643
aS'Chris Nelson'
p1645
aI370
aI338
aI45
aI104
aI21
aI3
aI9
aI53
aI2
aI1
aI27
aI81
aI158
asS'bailh001'
p1646
(lp1647
g1646
aS'Homer Bailey'
p1648
aI70
aI65
aI1
aI8
aI1
aI0
aI0
aI5
aI0
aI0
aI1
aI28
aI9
asS'ramia001'
p1649
(lp1650
g1649
aS'Aramis Ramirez'
p1651
aI594
aI537
aI89
aI163
aI48
aI3
aI27
aI103
aI8
aI2
aI41
aI80
aI298
asS'belim001'
p1652
(lp1653
g1652
aS'Matt Belisle'
p1654
aI3
aI3
aI0
aI0
aI0
aI0
aI0
aI0
aI0
aI0
aI0
aI1
aI0
asS'dozib001'
p1655
(lp1656
g1655
aS'Brian Dozier'
p1657
aI340
aI316
aI33
aI74
aI11
aI1
aI6
aI33
aI9
aI2
aI16
aI58
aI105
asS'wellc001'
p1658
(lp1659
g1658
aS'Casper Wells'
p1660
aI316
aI285
aI42
aI65
aI12
aI3
aI10
aI36
aI3
aI0
aI26
aI80
aI113
asS'kotcc001'
p1661
(lp1662
g1661
aS'Casey Kotchman'
p1663
aI493
aI456
aI46
aI104
aI12
aI0
aI12
aI55
aI3
aI0
aI26
aI48
aI152
asS'kawam001'
p1664
(lp1665
g1664
aS'Munenori Kawasaki'
p1666
aI115
aI104
aI13
aI20
aI1
aI0
aI0
aI7
aI2
aI2
aI8
aI18
aI21
asS'canzr001'
p1667
(lp1668
g1667
aS'Russ Canzler'
p1669
aI97
aI93
aI9
aI25
aI3
aI0
aI3
aI11
aI0
aI0
aI4
aI22
aI37
asS'dickb001'
p1670
(lp1671
g1670
aS'Brandon Dickson'
p1672
aI2
aI2
aI0
aI1
aI0
aI0
aI0
aI0
aI0
aI0
aI0
aI1
aI1
asS'linda001'
p1673
(lp1674
g1673
aS'Adam Lind'
p1675
aI353
aI321
aI28
aI82
aI14
aI2
aI11
aI45
aI0
aI0
aI29
aI61
aI133
asS'villc001'
p1676
(lp1677
g1676
aS'Carlos Villanueva'
p1678
aI2
aI2
aI1
aI1
aI0
aI0
aI0
aI0
aI0
aI0
aI0
aI0
aI1
asS'konep001'
p1679
(lp1680
g1679
aS'Paul Konerko'
p1681
aI598
aI533
aI66
aI159
aI22
aI0
aI26
aI75
aI0
aI0
aI56
aI83
aI259
asS'denoc001'
p1682
(lp1683
g1682
aS'Chris Denorfia'
p1684
aI373
aI339
aI56
aI101
aI19
aI6
aI8
aI35
aI13
aI5
aI27
aI51
aI156
asS'gorzt001'
p1685
(lp1686
g1685
aS'Tom Gorzelanny'
p1687
aI7
aI6
aI0
aI2
aI0
aI0
aI0
aI1
aI0
aI0
aI1
aI1
aI2
asS'eldrb001'
p1688
(lp1689
g1688
aS'Brad Eldred'
p1690
aI17
aI16
aI1
aI3
aI1
aI1
aI0
aI1
aI0
aI0
aI1
aI6
aI6
asS'hudsd001'
p1691
(lp1692
g1691
aS'Daniel Hudson'
p1693
aI16
aI13
aI1
aI2
aI0
aI0
aI0
aI1
aI0
aI0
aI2
aI6
aI2
asS'dunna001'
p1694
(lp1695
g1694
aS'Adam Dunn'
p1696
aI649
aI539
aI87
aI110
aI19
aI0
aI41
aI96
aI2
aI1
aI105
aI222
aI252
asS'harrm001'
p1697
(lp1698
g1697
aS'Matt Harrison'
p1699
aI7
aI5
aI0
aI0
aI0
aI0
aI0
aI0
aI0
aI0
aI0
aI3
aI0
asS'mendl001'
p1700
(lp1701
g1700
aS'Luis Mendoza'
p1702
aI2
aI2
aI0
aI0
aI0
aI0
aI0
aI0
aI0
aI0
aI0
aI2
aI0
asS'philb001'
p1703
(lp1704
g1703
aS'Brandon Phillips'
p1705
aI584
aI544
aI80
aI150
aI25
aI1
aI18
aI72
aI13
aI2
aI25
aI73
aI231
asS'canor001'
p1706
(lp1707
g1706
aS'Robinson Cano'
p1708
aI697
aI627
aI104
aI196
aI48
aI1
aI33
aI94
aI3
aI2
aI61
aI96
aI345
asS'salec001'
p1709
(lp1710
g1709
aS'Chris Sale'
p1711
aI3
aI2
aI0
aI0
aI0
aI0
aI0
aI0
aI0
aI0
aI0
aI2
aI0
asS'quinj001'
p1712
(lp1713
g1712
aS'Jose Quintana'
p1714
aI5
aI3
aI0
aI0
aI0
aI0
aI0
aI0
aI0
aI0
aI1
aI3
aI0
asS'ceder002'
p1715
(lp1716
g1715
aS'Ronny Cedeno'
p1717
aI186
aI166
aI18
aI43
aI11
aI1
aI4
aI22
aI0
aI1
aI17
aI35
aI68
asS'abadf001'
p1718
(lp1719
g1718
aS'Fernando Abad'
p1720
aI4
aI4
aI0
aI0
aI0
aI0
aI0
aI0
aI0
aI0
aI0
aI2
aI0
asS'schus001'
p1721
(lp1722
g1721
aS'Skip Schumaker'
p1723
aI299
aI269
aI37
aI74
aI14
aI4
aI1
aI28
aI1
aI1
aI25
aI50
aI99
asS'oterd001'
p1724
(lp1725
g1724
aS'Dan Otero'
p1726
aI1
aI1
aI0
aI0
aI0
aI0
aI0
aI0
aI0
aI0
aI0
aI1
aI0
asS'lirif001'
p1727
(lp1728
g1727
aS'Francisco Liriano'
p1729
aI3
aI3
aI0
aI0
aI0
aI0
aI0
aI0
aI0
aI0
aI0
aI2
aI0
asS'gomej002'
p1730
(lp1731
g1730
aS'Jeanmar Gomez'
p1732
aI2
aI2
aI0
aI1
aI0
aI0
aI0
aI0
aI0
aI0
aI0
aI0
aI1
asS'getzc001'
p1733
(lp1734
g1733
aS'Chris Getz'
p1735
aI210
aI189
aI22
aI52
aI10
aI3
aI0
aI17
aI9
aI3
aI11
aI17
aI68
asS'pagaa001'
p1736
(lp1737
g1736
aS'Angel Pagan'
p1738
aI644
aI592
aI92
aI170
aI35
aI15
aI7
aI54
aI29
aI7
aI46
aI94
aI256
asS'hairj002'
p1739
(lp1740
g1739
aS'Jerry Hairston'
p1741
aI259
aI231
aI19
aI63
aI13
aI1
aI4
aI26
aI0
aI2
aI22
aI27
aI90
asS'murpd004'
p1742
(lp1743
g1742
aS'Donnie Murphy'
p1744
aI123
aI110
aI13
aI25
aI6
aI2
aI3
aI12
aI1
aI1
aI9
aI35
aI44
asS'harrw001'
p1745
(lp1746
g1745
aS'Willie Harris'
p1747
aI48
aI44
aI5
aI5
aI4
aI0
aI0
aI2
aI1
aI1
aI3
aI8
aI9
asS'phelc001'
p1748
(lp1749
g1748
aS'Cord Phelps'
p1750
aI34
aI33
aI2
aI7
aI0
aI0
aI1
aI5
aI0
aI0
aI1
aI10
aI10
asS'swara001'
p1751
(lp1752
g1751
aS'Anthony Swarzak'
p1753
aI2
aI2
aI0
aI0
aI0
aI0
aI0
aI0
aI0
aI0
aI0
aI1
aI0
asS'recka001'
p1754
(lp1755
g1754
aS'Anthony Recker'
p1756
aI54
aI45
aI4
aI6
aI1
aI0
aI1
aI3
aI0
aI0
aI6
aI15
aI10
asS'descd001'
p1757
(lp1758
g1757
aS'Daniel Descalso'
p1759
aI403
aI353
aI38
aI80
aI10
aI6
aI3
aI24
aI6
aI2
aI35
aI78
aI111
asS'badeb001'
p1760
(lp1761
g1760
aS'Burke Badenhop'
p1762
aI1
aI1
aI0
aI0
aI0
aI0
aI0
aI0
aI0
aI0
aI0
aI1
aI0
asS'marqj001'
p1763
(lp1764
g1763
aS'Jason Marquis'
p1765
aI36
aI32
aI3
aI9
aI3
aI0
aI0
aI1
aI0
aI0
aI0
aI12
aI12
asS'moreb001'
p1766
(lp1767
g1766
aS'Brent Morel'
p1768
aI125
aI113
aI14
aI20
aI2
aI0
aI0
aI5
aI4
aI1
aI7
aI39
aI22
asS'salaf001'
p1769
(lp1770
g1769
aS'Fernando Salas'
p1771
aI1
aI1
aI0
aI0
aI0
aI0
aI0
aI0
aI0
aI0
aI0
aI1
aI0
asS'weilk001'
p1772
(lp1773
g1772
aS'Kyle Weiland'
p1774
aI2
aI1
aI1
aI0
aI0
aI0
aI0
aI0
aI0
aI0
aI0
aI0
aI0
asS'gwynt002'
p1775
(lp1776
g1775
aS'Tony Jr Gwynn'
p1777
aI274
aI257
aI29
aI59
aI7
aI4
aI0
aI17
aI13
aI6
aI15
aI52
aI74
asS'pavac001'
p1778
(lp1779
g1778
aS'Carl Pavano'
p1780
aI2
aI2
aI0
aI0
aI0
aI0
aI0
aI0
aI0
aI0
aI0
aI1
aI0
asS'darvy001'
p1781
(lp1782
g1781
aS'Yu Darvish'
p1783
aI3
aI3
aI0
aI1
aI0
aI0
aI0
aI0
aI0
aI0
aI0
aI1
aI1
asS'victs001'
p1784
(lp1785
g1784
aS'Shane Victorino'
p1786
aI666
aI595
aI72
aI152
aI29
aI7
aI11
aI55
aI39
aI6
aI53
aI80
aI228
asS'hefnj001'
p1787
(lp1788
g1787
aS'Jeremy Hefner'
p1789
aI26
aI20
aI1
aI2
aI0
aI0
aI1
aI1
aI0
aI0
aI0
aI11
aI5
asS'reimn001'
p1790
(lp1791
g1790
aS'Nolan Reimold'
p1792
aI69
aI67
aI10
aI21
aI6
aI0
aI5
aI10
aI1
aI0
aI2
aI14
aI42
asS'overl001'
p1793
(lp1794
g1793
aS'Lyle Overbay'
p1795
aI131
aI116
aI12
aI30
aI10
aI0
aI2
aI10
aI0
aI0
aI13
aI34
aI46
asS'haraa001'
p1796
(lp1797
g1796
aS'Aaron Harang'
p1798
aI63
aI56
aI1
aI4
aI1
aI0
aI0
aI2
aI0
aI0
aI0
aI23
aI5
asS'casts001'
p1799
(lp1800
g1799
aS'Starlin Castro'
p1801
aI664
aI621
aI77
aI176
aI28
aI12
aI14
aI78
aI24
aI13
aI34
aI92
aI270
asS'fielt001'
p1802
(lp1803
g1802
aS'Tommy Field'
p1804
aI3
aI2
aI0
aI0
aI0
aI0
aI0
aI0
aI0
aI0
aI1
aI1
aI0
asS'seguj002'
p1805
(lp1806
g1805
aS'Jean Segura'
p1807
aI155
aI140
aI17
aI34
aI4
aI3
aI0
aI12
aI7
aI1
aI13
aI22
aI44
asS'petiy001'
p1808
(lp1809
g1808
aS'Yusmeiro Petit'
p1810
aI1
aI1
aI0
aI0
aI0
aI0
aI0
aI0
aI0
aI0
aI0
aI1
aI0
asS'pricd001'
p1811
(lp1812
g1811
aS'David Price'
p1813
aI5
aI4
aI0
aI0
aI0
aI0
aI0
aI0
aI0
aI0
aI1
aI2
aI0
asS'maybj001'
p1814
(lp1815
g1814
aS'John Mayberry'
p1816
aI461
aI425
aI50
aI102
aI23
aI0
aI14
aI42
aI1
aI0
aI32
aI107
aI167
asS'rusic001'
p1817
(lp1818
g1817
aS'Chris Rusin'
p1819
aI12
aI12
aI0
aI2
aI0
aI1
aI0
aI0
aI0
aI0
aI0
aI5
aI4
asS'poseb001'
p1820
(lp1821
g1820
aS'Buster Posey'
p1822
aI597
aI519
aI76
aI176
aI38
aI1
aI24
aI103
aI1
aI1
aI67
aI96
aI288
asS'turnj002'
p1823
(lp1824
g1823
aS'Jacob Turner'
p1825
aI16
aI14
aI0
aI0
aI0
aI0
aI0
aI0
aI0
aI0
aI0
aI8
aI0
asS'wellr001'
p1826
(lp1827
g1826
aS'Randy Wells'
p1828
aI3
aI3
aI0
aI1
aI0
aI0
aI0
aI0
aI0
aI0
aI0
aI1
aI1
asS'barmc001'
p1829
(lp1830
g1829
aS'Clint Barmes'
p1831
aI470
aI433
aI33
aI99
aI16
aI1
aI7
aI42
aI0
aI2
aI20
aI99
aI138
asS'hared001'
p1832
(lp1833
g1832
aS'Dan Haren'
p1834
aI7
aI4
aI0
aI0
aI0
aI0
aI0
aI0
aI0
aI0
aI0
aI2
aI0
asS'leroc001'
p1835
(lp1836
g1835
aS'Chris Leroux'
p1837
aI1
aI1
aI0
aI0
aI0
aI0
aI0
aI0
aI0
aI0
aI0
aI0
aI0
asS'scahr001'
p1838
(lp1839
g1838
aS'Rob Scahill'
p1840
aI3
aI1
aI0
aI0
aI0
aI0
aI0
aI0
aI0
aI0
aI1
aI0
aI0
asS'mattr001'
p1841
(lp1842
g1841
aS'Ryan Mattheus'
p1843
aI1
aI1
aI0
aI0
aI0
aI0
aI0
aI0
aI0
aI0
aI0
aI1
aI0
asS'damoj001'
p1844
(lp1845
g1844
aS'Johnny Damon'
p1846
aI218
aI201
aI25
aI45
aI6
aI2
aI4
aI19
aI4
aI0
aI17
aI26
aI67
asS'cruzl001'
p1847
(lp1848
g1847
aS'Luis Cruz'
p1849
aI296
aI283
aI25
aI84
aI20
aI0
aI6
aI40
aI2
aI1
aI9
aI34
aI122
asS'louxs001'
p1850
(lp1851
g1850
aS'Shane Loux'
p1852
aI1
aI1
aI0
aI0
aI0
aI0
aI0
aI0
aI0
aI0
aI0
aI0
aI0
asS'vottj001'
p1853
(lp1854
g1853
aS'Joey Votto'
p1855
aI462
aI364
aI55
aI119
aI44
aI0
aI13
aI52
aI5
aI1
aI92
aI83
aI202
asS'rossd001'
p1856
(lp1857
g1856
aS'David Ross'
p1858
aI192
aI172
aI18
aI43
aI6
aI0
aI9
aI21
aI1
aI0
aI18
aI59
aI76
asS'matsh001'
p1859
(lp1860
g1859
aS'Hideki Matsui'
p1861
aI103
aI95
aI7
aI14
aI1
aI0
aI2
aI7
aI0
aI0
aI8
aI22
aI21
asS'teixm001'
p1862
(lp1863
g1862
aS'Mark Teixeira'
p1864
aI524
aI451
aI66
aI113
aI27
aI1
aI24
aI84
aI2
aI1
aI54
aI83
aI214
asS'deaza001'
p1865
(lp1866
g1865
aS'Alejandro de Aza'
p1867
aI585
aI524
aI81
aI147
aI29
aI6
aI9
aI50
aI26
aI12
aI47
aI109
aI215
asS'iztuc001'
p1868
(lp1869
g1868
aS'Cesar Izturis'
p1870
aI156
aI149
aI11
aI35
aI7
aI2
aI2
aI11
aI1
aI1
aI3
aI12
aI52
asS'white004'
p1871
(lp1872
g1871
aS'Eli Whiteside'
p1873
aI14
aI11
aI3
aI1
aI1
aI0
aI0
aI2
aI0
aI0
aI1
aI4
aI2
asS'goldp001'
p1874
(lp1875
g1874
aS'Paul Goldschmidt'
p1876
aI573
aI503
aI79
aI144
aI42
aI1
aI20
aI80
aI16
aI3
aI57
aI126
aI248
asS'robis001'
p1877
(lp1878
g1877
aS'Shane Robinson'
p1879
aI168
aI154
aI17
aI38
aI8
aI0
aI2
aI14
aI1
aI0
aI13
aI30
aI52
asS'skagt001'
p1880
(lp1881
g1880
aS'Tyler Skaggs'
p1882
aI9
aI7
aI0
aI0
aI0
aI0
aI0
aI0
aI0
aI0
aI0
aI4
aI0
asS'wilsb002'
p1883
(lp1884
g1883
aS'Bobby Wilson'
p1885
aI201
aI171
aI19
aI36
aI5
aI0
aI3
aI13
aI0
aI0
aI15
aI33
aI50
asS'martf002'
p1886
(lp1887
g1886
aS'Fernando Martinez'
p1888
aI53
aI47
aI10
aI14
aI4
aI0
aI4
aI8
aI0
aI0
aI4
aI12
aI30
asS'drews001'
p1889
(lp1890
g1889
aS'Stephen Drew'
p1891
aI316
aI278
aI36
aI64
aI13
aI1
aI7
aI27
aI1
aI2
aI35
aI74
aI100
asS'mchuc001'
p1892
(lp1893
g1892
aS'Collin McHugh'
p1894
aI4
aI4
aI0
aI0
aI0
aI0
aI0
aI0
aI0
aI0
aI0
aI2
aI0
asS'troum001'
p1895
(lp1896
g1895
aS'Mike Trout'
p1897
aI639
aI559
aI129
aI182
aI27
aI8
aI30
aI83
aI49
aI5
aI67
aI139
aI315
asS'furcr001'
p1898
(lp1899
g1898
aS'Rafael Furcal'
p1900
aI503
aI451
aI63
aI117
aI18
aI3
aI4
aI44
aI11
aI4
aI42
aI55
aI153
asS'abret001'
p1901
(lp1902
g1901
aS'Tony Abreu'
p1903
aI74
aI70
aI5
aI18
aI2
aI1
aI1
aI15
aI0
aI0
aI2
aI13
aI25
asS'murpd005'
p1904
(lp1905
g1904
aS'David Murphy'
p1906
aI513
aI450
aI62
aI137
aI29
aI3
aI13
aI57
aI10
aI5
aI53
aI72
aI211
asS'gaudc001'
p1907
(lp1908
g1907
aS'Chad Gaudin'
p1909
aI8
aI8
aI0
aI0
aI0
aI0
aI0
aI0
aI0
aI0
aI0
aI4
aI0
asS'minom001'
p1910
(lp1911
g1910
aS'Mike Minor'
p1912
aI61
aI55
aI5
aI4
aI1
aI0
aI0
aI0
aI0
aI0
aI2
aI26
aI5
asS'cunna001'
p1913
(lp1914
g1913
aS'Aaron Cunningham'
p1915
aI108
aI96
aI5
aI17
aI4
aI0
aI1
aI7
aI0
aI3
aI9
aI24
aI24
asS'carpm001'
p1916
(lp1917
g1916
aS'Mike Carp'
p1918
aI189
aI164
aI17
aI35
aI6
aI0
aI5
aI20
aI1
aI0
aI21
aI46
aI56
asS'hallr001'
p1919
(lp1920
g1919
aS'Roy Halladay'
p1921
aI55
aI51
aI4
aI9
aI0
aI0
aI0
aI2
aI0
aI0
aI0
aI24
aI9
asS'uptoj001'
p1922
(lp1923
g1922
aS'Justin Upton'
p1924
aI618
aI545
aI106
aI153
aI24
aI4
aI17
aI66
aI18
aI8
aI62
aI119
aI236
asS'jasoj001'
p1925
(lp1926
g1925
aS'John Jaso'
p1927
aI361
aI294
aI41
aI81
aI19
aI2
aI10
aI50
aI5
aI0
aI56
aI51
aI134
asS'sandp001'
p1928
(lp1929
g1928
aS'Pablo Sandoval'
p1930
aI429
aI386
aI56
aI110
aI25
aI2
aI12
aI60
aI1
aI1
aI36
aI57
aI175
asS'franj005'
p1931
(lp1932
g1931
aS'Juan Francisco'
p1933
aI200
aI187
aI16
aI44
aI11
aI0
aI9
aI32
aI1
aI1
aI11
aI69
aI82
asS'moorm003'
p1934
(lp1935
g1934
aS'Matt Moore'
p1936
aI5
aI4
aI0
aI0
aI0
aI0
aI0
aI1
aI0
aI0
aI0
aI2
aI0
asS'franj003'
p1937
(lp1938
g1937
aS'Jeff Francis'
p1939
aI39
aI31
aI2
aI2
aI0
aI0
aI0
aI0
aI0
aI0
aI2
aI8
aI2
asS'bianj001'
p1940
(lp1941
g1940
aS'Jeff Bianchi'
p1942
aI76
aI69
aI8
aI13
aI2
aI0
aI3
aI9
aI0
aI0
aI4
aI13
aI24
asS'penab002'
p1943
(lp1944
g1943
aS'Brayan Pena'
p1945
aI223
aI209
aI16
aI49
aI10
aI1
aI2
aI24
aI0
aI1
aI9
aI24
aI67
asS'carll001'
p1946
(lp1947
g1946
aS'Luke Carlin'
p1948
aI14
aI14
aI2
aI3
aI1
aI0
aI0
aI1
aI1
aI0
aI0
aI3
aI4
asS'gillc001'
p1949
(lp1950
g1949
aS'Conor Gillaspie'
p1951
aI20
aI20
aI2
aI3
aI1
aI0
aI0
aI2
aI0
aI0
aI0
aI2
aI4
asS'volsc001'
p1952
(lp1953
g1952
aS'Chris Volstad'
p1954
aI32
aI26
aI0
aI4
aI0
aI0
aI0
aI0
aI0
aI0
aI0
aI10
aI4
asS'berkl001'
p1955
(lp1956
g1955
aS'Lance Berkman'
p1957
aI97
aI81
aI12
aI21
aI7
aI1
aI2
aI7
aI2
aI0
aI14
aI19
aI36
asS'dysoj001'
p1958
(lp1959
g1958
aS'Jarrod Dyson'
p1960
aI319
aI283
aI50
aI75
aI8
aI5
aI0
aI8
aI30
aI5
aI28
aI55
aI93
asS'garcj002'
p1961
(lp1962
g1961
aS'Santiago Casilla'
p1963
aI3
aI3
aI0
aI1
aI0
aI0
aI0
aI1
aI0
aI0
aI0
aI1
aI1
asS'shiej002'
p1964
(lp1965
g1964
aS'James Shields'
p1966
aI5
aI5
aI0
aI1
aI0
aI0
aI0
aI1
aI0
aI0
aI0
aI1
aI1
asS'lutzz001'
p1967
(lp1968
g1967
aS'Zach Lutz'
p1969
aI11
aI11
aI1
aI1
aI0
aI0
aI0
aI0
aI0
aI0
aI0
aI5
aI1
asS'voger001'
p1970
(lp1971
g1970
aS'Ryan Vogelsong'
p1972
aI64
aI52
aI4
aI4
aI1
aI0
aI0
aI0
aI0
aI0
aI3
aI31
aI5
asS'garcj004'
p1973
(lp1974
g1973
aS'Jaime Garcia'
p1975
aI40
aI34
aI6
aI8
aI0
aI1
aI1
aI3
aI0
aI0
aI2
aI14
aI13
asS'mesam001'
p1976
(lp1977
g1976
aS'Melky Mesa'
p1978
aI2
aI2
aI0
aI1
aI0
aI0
aI0
aI1
aI0
aI0
aI0
aI0
aI1
asS'coghc001'
p1979
(lp1980
g1979
aS'Chris Coghlan'
p1981
aI105
aI93
aI10
aI13
aI1
aI0
aI1
aI10
aI0
aI2
aI9
aI12
aI17
asS'parkj001'
p1982
(lp1983
g1982
aS'Jarrod Parker'
p1984
aI7
aI6
aI0
aI0
aI0
aI0
aI0
aI0
aI0
aI0
aI0
aI4
aI0
asS'pennc001'
p1985
(lp1986
g1985
aS'Cliff Pennington'
p1987
aI462
aI418
aI50
aI90
aI18
aI2
aI6
aI28
aI15
aI6
aI35
aI90
aI130
asS'lannj001'
p1988
(lp1989
g1988
aS'John Lannan'
p1990
aI11
aI9
aI0
aI1
aI0
aI0
aI0
aI0
aI0
aI0
aI1
aI4
aI1
asS'loe-k001'
p1991
(lp1992
g1991
aS'Kameron Loe'
p1993
aI1
aI0
aI0
aI0
aI0
aI0
aI0
aI0
aI0
aI0
aI0
aI0
aI0
asS'roles001'
p1994
(lp1995
g1994
aS'Scott Rolen'
p1996
aI308
aI276
aI25
aI68
aI15
aI2
aI8
aI37
aI2
aI1
aI26
aI60
aI111
asS'johnk003'
p1997
(lp1998
g1997
aS'Kelly Johnson'
p1999
aI581
aI507
aI61
aI114
aI19
aI2
aI16
aI55
aI14
aI2
aI62
aI159
aI185
asS'martl002'
p2000
(lp2001
g2000
aS'Luis Martinez'
p2002
aI19
aI18
aI1
aI2
aI0
aI0
aI0
aI0
aI0
aI0
aI0
aI4
aI2
asS'martl003'
p2003
(lp2004
g2003
aS'Luis Marte'
p2005
aI1
aI1
aI0
aI0
aI0
aI0
aI0
aI0
aI0
aI0
aI0
aI0
aI0
asS'martl004'
p2006
(lp2007
g2006
aS'Leonys Martin'
p2008
aI52
aI46
aI6
aI8
aI5
aI2
aI0
aI6
aI3
aI0
aI4
aI12
aI17
asS'detwr001'
p2009
(lp2010
g2009
aS'Ross Detwiler'
p2011
aI47
aI43
aI0
aI2
aI0
aI0
aI0
aI1
aI0
aI0
aI1
aI22
aI2
asS'infao001'
p2012
(lp2013
g2012
aS'Omar Infante'
p2014
aI578
aI544
aI68
aI150
aI30
aI7
aI11
aI50
aI17
aI3
aI21
aI62
aI227
asS'pereh001'
p2015
(lp2016
g2015
aS'Hernan Perez'
p2017
aI2
aI2
aI1
aI1
aI0
aI0
aI0
aI0
aI0
aI0
aI0
aI0
aI1
asS'garcf002'
p2018
(lp2019
g2018
aS'Freddy Garcia'
p2020
aI1
aI1
aI0
aI0
aI0
aI0
aI0
aI0
aI0
aI0
aI0
aI1
aI0
asS'mercj002'
p2021
(lp2022
g2021
aS'Jordy Mercer'
p2023
aI66
aI60
aI6
aI13
aI5
aI1
aI1
aI5
aI0
aI1
aI4
aI14
aI23
asS'cingt001'
p2024
(lp2025
g2024
aS'Tony Cingrani'
p2026
aI1
aI1
aI0
aI0
aI0
aI0
aI0
aI0
aI0
aI0
aI0
aI1
aI0
asS'hamec001'
p2027
(lp2028
g2027
aS'Cole Hamels'
p2029
aI78
aI66
aI5
aI14
aI2
aI0
aI1
aI5
aI0
aI1
aI4
aI26
aI19
asS'ishit001'
p2030
(lp2031
g2030
aS'Travis Ishikawa'
p2032
aI166
aI145
aI19
aI38
aI12
aI1
aI4
aI30
aI0
aI0
aI12
aI41
aI64
asS'bourm001'
p2033
(lp2034
g2033
aS'Michael Bourn'
p2035
aI689
aI611
aI95
aI170
aI26
aI10
aI9
aI57
aI41
aI12
aI69
aI154
aI243
asS'jacka001'
p2036
(lp2037
g2036
aS'Austin Jackson'
p2038
aI617
aI543
aI103
aI163
aI29
aI10
aI16
aI66
aI12
aI9
aI67
aI134
aI260
asS'chisl001'
p2039
(lp2040
g2039
aS'Lonnie Chisenhall'
p2041
aI148
aI139
aI16
aI38
aI6
aI1
aI5
aI16
aI2
aI1
aI8
aI26
aI61
asS'moscg001'
p2042
(lp2043
g2042
aS'Guillermo Moscoso'
p2044
aI12
aI11
aI0
aI2
aI1
aI0
aI0
aI1
aI0
aI0
aI0
aI5
aI3
asS'uribj002'
p2045
(lp2046
g2045
aS'Juan Uribe'
p2047
aI175
aI158
aI15
aI31
aI9
aI0
aI2
aI17
aI0
aI1
aI13
aI36
aI46
asS'blacn001'
p2048
(lp2049
g2048
aS'Nick Blackburn'
p2050
aI2
aI2
aI0
aI0
aI0
aI0
aI0
aI0
aI0
aI0
aI0
aI1
aI0
asS'ruggj001'
p2051
(lp2052
g2051
aS'Justin Ruggiano'
p2053
aI320
aI288
aI38
aI90
aI23
aI1
aI13
aI36
aI14
aI8
aI29
aI84
aI154
asS'stewi001'
p2054
(lp2055
g2054
aS'Ian Stewart'
p2056
aI198
aI176
aI16
aI36
aI5
aI2
aI5
aI17
aI0
aI3
aI20
aI46
aI60
asS'laroa001'
p2057
(lp2058
g2057
aS'Adam LaRoche'
p2059
aI627
aI552
aI76
aI153
aI35
aI1
aI33
aI98
aI1
aI1
aI66
aI136
aI289
asS'ryanb002'
p2060
(lp2061
g2060
aS'Brendan Ryan'
p2062
aI470
aI407
aI42
aI79
aI19
aI3
aI3
aI31
aI11
aI5
aI44
aI98
aI113
asS'paulx001'
p2063
(lp2064
g2063
aS'Xavier Paul'
p2065
aI87
aI77
aI7
aI21
aI4
aI1
aI2
aI5
aI2
aI2
aI9
aI17
aI33
asS'norrd001'
p2066
(lp2067
g2066
aS'Derek Norris'
p2068
aI232
aI209
aI19
aI42
aI8
aI1
aI7
aI34
aI5
aI1
aI21
aI66
aI73
asS'lowed001'
p2069
(lp2070
g2069
aS'Derek Lowe'
p2071
aI2
aI2
aI0
aI1
aI0
aI0
aI0
aI0
aI0
aI0
aI0
aI0
aI1
asS'weekr001'
p2072
(lp2073
g2072
aS'Rickie Weeks'
p2074
aI643
aI555
aI80
aI126
aI25
aI4
aI19
aI57
aI16
aI3
aI74
aI159
aI216
asS'savej001'
p2075
(lp2076
g2075
aS'Joe Savery'
p2077
aI2
aI2
aI0
aI0
aI0
aI0
aI0
aI0
aI0
aI0
aI0
aI1
aI0
asS'lunah001'
p2078
(lp2079
g2078
aS'Hector Luna'
p2080
aI66
aI62
aI5
aI14
aI2
aI0
aI2
aI10
aI0
aI0
aI4
aI14
aI22
asS'janip001'
p2081
(lp2082
g2081
aS'Paul Janish'
p2083
aI186
aI167
aI18
aI31
aI6
aI1
aI0
aI9
aI1
aI0
aI17
aI30
aI39
asS'mattk001'
p2084
(lp2085
g2084
aS'Kevin Mattison'
p2086
aI5
aI5
aI0
aI0
aI0
aI0
aI0
aI0
aI0
aI0
aI0
aI2
aI0
asS'zitob001'
p2087
(lp2088
g2087
aS'Barry Zito'
p2089
aI68
aI52
aI3
aI4
aI0
aI0
aI0
aI2
aI0
aI0
aI6
aI11
aI4
asS'hannj001'
p2090
(lp2091
g2090
aS'Jack Hannahan'
p2092
aI314
aI284
aI23
aI70
aI16
aI0
aI4
aI29
aI0
aI1
aI26
aI63
aI98
asS'longe001'
p2093
(lp2094
g2093
aS'Evan Longoria'
p2095
aI312
aI273
aI39
aI79
aI14
aI0
aI17
aI55
aI2
aI3
aI33
aI61
aI144
asS'mcclk001'
p2096
(lp2097
g2096
aS'Kyle McClellan'
p2098
aI1
aI1
aI0
aI0
aI0
aI0
aI0
aI0
aI0
aI0
aI0
aI1
aI0
asS'saunj001'
p2099
(lp2100
g2099
aS'Joe Saunders'
p2101
aI46
aI35
aI1
aI3
aI0
aI0
aI0
aI1
aI0
aI0
aI3
aI7
aI3
asS'peavj001'
p2102
(lp2103
g2102
aS'Jake Peavy'
p2104
aI5
aI5
aI1
aI0
aI0
aI0
aI0
aI1
aI0
aI0
aI0
aI3
aI0
asS'shopk001'
p2105
(lp2106
g2105
aS'Kelly Shoppach'
p2107
aI245
aI219
aI23
aI51
aI14
aI2
aI8
aI27
aI1
aI0
aI16
aI89
aI93
asS'diazj003'
p2108
(lp2109
g2108
aS'Juan Diaz'
p2110
aI17
aI15
aI4
aI4
aI0
aI0
aI0
aI0
aI0
aI0
aI1
aI5
aI4
asS'gomej001'
p2111
(lp2112
g2111
aS'Jonny Gomes'
p2113
aI333
aI279
aI46
aI73
aI10
aI0
aI18
aI47
aI3
aI1
aI44
aI104
aI137
asS'jay-j001'
p2114
(lp2115
g2114
aS'Jon Jay'
p2116
aI474
aI416
aI66
aI128
aI21
aI4
aI4
aI38
aI18
aI7
aI34
aI67
aI169
asS'millk004'
p2117
(lp2118
g2117
aS'Kevin Millwood'
p2119
aI5
aI5
aI0
aI0
aI0
aI0
aI0
aI0
aI0
aI0
aI0
aI4
aI0
asS'gimeh001'
p2120
(lp2121
g2120
aS'Hector Gimenez'
p2122
aI11
aI11
aI1
aI5
aI0
aI0
aI0
aI1
aI0
aI0
aI0
aI3
aI5
asS'hillk002'
p2123
(lp2124
g2123
aS'Koyie Hill'
p2125
aI31
aI31
aI2
aI5
aI1
aI0
aI0
aI1
aI0
aI0
aI0
aI6
aI6
asS'greet005'
p2126
(lp2127
g2126
aS'Taylor Green'
p2128
aI113
aI101
aI8
aI19
aI7
aI0
aI3
aI14
aI0
aI0
aI8
aI23
aI35
asS'greet004'
p2129
(lp2130
g2129
aS'Tyler Greene'
p2131
aI257
aI237
aI20
aI51
aI9
aI2
aI5
aI20
aI9
aI3
aI15
aI78
aI79
asS'encae001'
p2132
(lp2133
g2132
aS'Edwin Encarnacion'
p2134
aI644
aI542
aI92
aI152
aI24
aI0
aI42
aI110
aI13
aI3
aI84
aI94
aI302
asS'burna001'
p2135
(lp2136
g2135
aS'A.J. Burnett'
p2137
aI63
aI56
aI1
aI2
aI0
aI0
aI0
aI1
aI0
aI0
aI3
aI34
aI2
asS'pennb002'
p2138
(lp2139
g2138
aS'Brad Penny'
p2140
aI1
aI1
aI0
aI0
aI0
aI0
aI0
aI0
aI0
aI0
aI0
aI0
aI0
asS'dirka001'
p2141
(lp2142
g2141
aS'Andy Dirks'
p2143
aI344
aI314
aI56
aI101
aI18
aI5
aI8
aI35
aI1
aI1
aI23
aI53
aI153
asS'saunm001'
p2144
(lp2145
g2144
aS'Michael Saunders'
p2146
aI553
aI507
aI71
aI125
aI31
aI3
aI19
aI57
aI21
aI4
aI43
aI132
aI219
asS'lockj001'
p2147
(lp2148
g2147
aS'Jeff Locke'
p2149
aI9
aI9
aI0
aI1
aI0
aI0
aI0
aI0
aI0
aI0
aI0
aI5
aI1
asS'gomem001'
p2150
(lp2151
g2150
aS'Mauro Gomez'
p2152
aI111
aI102
aI14
aI28
aI5
aI2
aI2
aI17
aI0
aI0
aI8
aI26
aI43
asS'olt-m001'
p2153
(lp2154
g2153
aS'Mike Olt'
p2155
aI40
aI33
aI2
aI5
aI1
aI0
aI0
aI5
aI1
aI1
aI5
aI13
aI6
asS'grany001'
p2156
(lp2157
g2156
aS'Yasmani Grandal'
p2158
aI226
aI192
aI28
aI57
aI7
aI1
aI8
aI36
aI0
aI0
aI31
aI39
aI90
asS'blanh001'
p2159
(lp2160
g2159
aS'Henry Blanco'
p2161
aI67
aI64
aI6
aI12
aI3
aI0
aI1
aI7
aI1
aI0
aI3
aI18
aI18
asS'suttd002'
p2162
(lp2163
g2162
aS'Drew Sutton'
p2164
aI127
aI120
aI11
aI31
aI12
aI1
aI1
aI13
aI0
aI1
aI5
aI41
aI48
asS'cabre002'
p2165
(lp2166
g2165
aS'Edwar Cabrera'
p2167
aI1
aI1
aI0
aI0
aI0
aI0
aI0
aI0
aI0
aI0
aI0
aI1
aI0
asS'cabre001'
p2168
(lp2169
g2168
aS'Everth Cabrera'
p2170
aI432
aI385
aI48
aI96
aI19
aI3
aI2
aI23
aI43
aI4
aI40
aI106
aI127
asS'gomey001'
p2171
(lp2172
g2171
aS'Yan Gomes'
p2173
aI111
aI98
aI9
aI20
aI4
aI0
aI4
aI13
aI0
aI0
aI6
aI32
aI36
asS'wangc001'
p2174
(lp2175
g2174
aS'Chien-Ming Wang'
p2176
aI7
aI6
aI1
aI1
aI1
aI0
aI0
aI0
aI0
aI0
aI1
aI3
aI2
asS'nickm001'
p2177
(lp2178
g2177
aS'Mike Nickeas'
p2179
aI122
aI109
aI8
aI19
aI3
aI0
aI1
aI13
aI0
aI0
aI8
aI27
aI25
asS'hochl001'
p2180
(lp2181
g2180
aS'Luke Hochevar'
p2182
aI2
aI2
aI0
aI0
aI0
aI0
aI0
aI0
aI0
aI0
aI0
aI0
aI0
asS'loupa001'
p2183
(lp2184
g2183
aS'Aaron Loup'
p2185
aI1
aI1
aI0
aI0
aI0
aI0
aI0
aI0
aI0
aI0
aI0
aI0
aI0
asS'rhymw001'
p2186
(lp2187
g2186
aS'Will Rhymes'
p2188
aI137
aI123
aI11
aI28
aI2
aI1
aI1
aI8
aI1
aI2
aI10
aI17
aI35
asS'ethia001'
p2189
(lp2190
g2189
aS'Andre Ethier'
p2191
aI607
aI545
aI79
aI156
aI36
aI1
aI20
aI86
aI2
aI2
aI50
aI122
aI254
asS'mesod001'
p2192
(lp2193
g2192
aS'Devin Mesoraco'
p2194
aI175
aI156
aI16
aI33
aI7
aI0
aI5
aI14
aI1
aI1
aI17
aI32
aI55
asS'orr-p001'
p2195
(lp2196
g2195
aS'Pete Orr'
p2197
aI55
aI52
aI6
aI16
aI5
aI1
aI0
aI7
aI2
aI1
aI1
aI17
aI23
asS'hallb001'
p2198
(lp2199
g2198
aS'Bill Hall'
p2200
aI14
aI9
aI2
aI2
aI0
aI0
aI1
aI1
aI0
aI0
aI5
aI7
aI5
asS'schnb001'
p2201
(lp2202
g2201
aS'Brian Schneider'
p2203
aI98
aI89
aI9
aI20
aI5
aI0
aI2
aI7
aI0
aI0
aI5
aI15
aI31
asS'vizqo001'
p2204
(lp2205
g2204
aS'Omar Vizquel'
p2206
aI163
aI153
aI13
aI36
aI5
aI1
aI0
aI7
aI3
aI2
aI7
aI17
aI43
asS'machm001'
p2207
(lp2208
g2207
aS'Manny Machado'
p2209
aI202
aI191
aI24
aI50
aI8
aI3
aI7
aI26
aI2
aI0
aI9
aI38
aI85
asS'kenni001'
p2210
(lp2211
g2210
aS'Ian Kennedy'
p2212
aI70
aI49
aI4
aI4
aI0
aI1
aI0
aI5
aI0
aI0
aI11
aI28
aI6
asS'pench001'
p2213
(lp2214
g2213
aS'Hunter Pence'
p2215
aI675
aI606
aI84
aI152
aI25
aI4
aI23
aI99
aI5
aI2
aI54
aI141
aI254
asS'zobrb001'
p2216
(lp2217
g2216
aS'Ben Zobrist'
p2218
aI668
aI560
aI88
aI151
aI39
aI7
aI20
aI74
aI14
aI9
aI97
aI103
aI264
asS'rodre003'
p2219
(lp2220
g2219
aS'Eddy Rodriguez'
p2221
aI7
aI5
aI1
aI1
aI0
aI0
aI1
aI1
aI0
aI0
aI2
aI3
aI4
asS'belod001'
p2222
(lp2223
g2222
aS'Duane Below'
p2224
aI1
aI1
aI0
aI0
aI0
aI0
aI0
aI0
aI0
aI0
aI0
aI0
aI0
asS'penar002'
p2225
(lp2226
g2225
aS'Ramiro Pena'
p2227
aI4
aI4
aI0
aI1
aI0
aI0
aI0
aI0
aI0
aI0
aI0
aI0
aI1
asS'hammj002'
p2228
(lp2229
g2228
aS'Jason Hammel'
p2230
aI7
aI4
aI0
aI0
aI0
aI0
aI0
aI0
aI0
aI0
aI0
aI3
aI0
asS'rogee002'
p2231
(lp2232
g2231
aS'Esmil Rogers'
p2233
aI3
aI3
aI0
aI1
aI0
aI0
aI0
aI0
aI0
aI0
aI0
aI1
aI1
asS'huntt002'
p2234
(lp2235
g2234
aS'Tommy Hunter'
p2236
aI2
aI2
aI0
aI0
aI0
aI0
aI0
aI0
aI0
aI0
aI0
aI1
aI0
asS'huntt001'
p2237
(lp2238
g2237
aS'Torii Hunter'
p2239
aI584
aI534
aI81
aI167
aI24
aI1
aI16
aI92
aI9
aI1
aI38
aI133
aI241
asS'rivej001'
p2240
(lp2241
g2240
aS'Juan Rivera'
p2242
aI328
aI302
aI30
aI74
aI13
aI0
aI9
aI47
aI1
aI3
aI17
aI34
aI114
asS'padiv001'
p2243
(lp2244
g2243
aS'Vicente Padilla'
p2245
aI1
aI1
aI0
aI0
aI0
aI0
aI0
aI0
aI0
aI0
aI0
aI0
aI0
asS'lapom001'
p2246
(lp2247
g2246
aS'Matt LaPorta'
p2248
aI60
aI58
aI2
aI14
aI2
aI0
aI1
aI5
aI0
aI0
aI1
aI17
aI19
asS'schem001'
p2249
(lp2250
g2249
aS'Max Scherzer'
p2251
aI4
aI2
aI0
aI0
aI0
aI0
aI0
aI0
aI0
aI0
aI0
aI1
aI0
asS'verlj001'
p2252
(lp2253
g2252
aS'Justin Verlander'
p2254
aI8
aI4
aI0
aI0
aI0
aI0
aI0
aI0
aI0
aI0
aI0
aI1
aI0
asS'mcclm001'
p2255
(lp2256
g2255
aS'Mike McClendon'
p2257
aI2
aI2
aI0
aI0
aI0
aI0
aI0
aI0
aI0
aI0
aI0
aI1
aI0
asS'kozmp001'
p2258
(lp2259
g2258
aS'Pete Kozma'
p2260
aI71
aI62
aI8
aI21
aI4
aI3
aI1
aI11
aI2
aI0
aI6
aI16
aI34
asS'axfoj001'
p2261
(lp2262
g2261
aS'John Axford'
p2263
aI1
aI1
aI0
aI0
aI0
aI0
aI0
aI0
aI0
aI0
aI0
aI1
aI0
asS'brigr001'
p2264
(lp2265
g2264
aS'Reid Brignac'
p2266
aI22
aI21
aI1
aI2
aI0
aI0
aI0
aI1
aI0
aI0
aI1
aI5
aI2
asS'ramoc001'
p2267
(lp2268
g2267
aS'Cesar Ramos'
p2269
aI1
aI1
aI0
aI0
aI0
aI0
aI0
aI0
aI0
aI0
aI0
aI1
aI0
asS'calla001'
p2270
(lp2271
g2270
aS'Alberto Callaspo'
p2272
aI520
aI457
aI55
aI115
aI20
aI0
aI10
aI53
aI4
aI3
aI56
aI59
aI165
asS'medlk001'
p2273
(lp2274
g2273
aS'Kris Medlen'
p2275
aI39
aI33
aI3
aI4
aI1
aI0
aI0
aI2
aI0
aI0
aI4
aI15
aI5
asS'plout001'
p2276
(lp2277
g2276
aS'Trevor Plouffe'
p2278
aI465
aI422
aI56
aI99
aI19
aI1
aI24
aI55
aI1
aI3
aI37
aI92
aI192
asS'youne003'
p2279
(lp2280
g2279
aS'Eric Young'
p2281
aI196
aI174
aI35
aI55
aI7
aI2
aI4
aI15
aI13
aI2
aI13
aI31
aI78
asS'moliy001'
p2282
(lp2283
g2282
aS'Yadier Molina'
p2284
aI530
aI477
aI62
aI151
aI28
aI0
aI21
aI74
aI12
aI3
aI41
aI55
aI242
asS'dickr001'
p2285
(lp2286
g2285
aS'R.A. Dickey'
p2287
aI81
aI70
aI3
aI11
aI0
aI0
aI0
aI3
aI0
aI0
aI0
aI14
aI11
asS'boscj001'
p2288
(lp2289
g2288
aS'J.C. Boscan'
p2290
aI10
aI10
aI0
aI2
aI0
aI0
aI0
aI2
aI0
aI0
aI0
aI1
aI2
asS'herrj002'
p2291
(lp2292
g2291
aS'Jonathan Herrera'
p2293
aI247
aI221
aI29
aI59
aI9
aI1
aI3
aI12
aI4
aI1
aI16
aI39
aI79
asS'jackr005'
p2294
(lp2295
g2294
aS'Ryan Jackson'
p2296
aI18
aI17
aI2
aI2
aI0
aI0
aI0
aI0
aI0
aI0
aI1
aI3
aI2
asS'mornj001'
p2297
(lp2298
g2297
aS'Justin Morneau'
p2299
aI570
aI505
aI63
aI135
aI26
aI2
aI19
aI77
aI1
aI0
aI49
aI102
aI222
asS'presa001'
p2300
(lp2301
g2300
aS'Alex Presley'
p2302
aI349
aI326
aI43
aI76
aI14
aI6
aI8
aI23
aI9
aI7
aI17
aI67
aI126
asS'mccua001'
p2303
(lp2304
g2303
aS'Andrew McCutchen'
p2305
aI646
aI568
aI104
aI187
aI26
aI6
aI31
aI95
aI20
aI12
aI68
aI128
aI318
asS'bumgm001'
p2306
(lp2307
g2306
aS'Madison Bumgarner'
p2308
aI75
aI68
aI4
aI11
aI1
aI0
aI2
aI6
aI0
aI0
aI1
aI25
aI18
asS'dukez001'
p2309
(lp2310
g2309
aS'Zach Duke'
p2311
aI1
aI1
aI0
aI0
aI0
aI0
aI0
aI0
aI0
aI0
aI0
aI0
aI0
asS'congh001'
p2312
(lp2313
g2312
aS'Hank Conger'
p2314
aI22
aI18
aI0
aI3
aI0
aI0
aI0
aI1
aI0
aI0
aI1
aI0
aI3
asS'burns001'
p2315
(lp2316
g2315
aS'Sean Burnett'
p2317
aI1
aI0
aI0
aI0
aI0
aI0
aI0
aI0
aI0
aI0
aI1
aI0
aI0
asS'turnj001'
p2318
(lp2319
g2318
aS'Justin Turner'
p2320
aI180
aI167
aI18
aI45
aI12
aI1
aI2
aI19
aI0
aI1
aI8
aI24
aI65
asS'beltb001'
p2321
(lp2322
g2321
aS'Brandon Belt'
p2323
aI459
aI398
aI46
aI108
aI25
aI6
aI7
aI55
aI12
aI2
aI54
aI105
aI166
asS'sandj002'
p2324
(lp2325
g2324
aS'Jerry Sands'
p2326
aI24
aI23
aI2
aI4
aI2
aI0
aI0
aI1
aI0
aI0
aI1
aI9
aI6
asS'dejed001'
p2327
(lp2328
g2327
aS'David DeJesus'
p2329
aI561
aI489
aI74
aI127
aI28
aI8
aI9
aI49
aI7
aI8
aI59
aI87
aI198
asS'podss001'
p2330
(lp2331
g2330
aS'Scott Podsednik'
p2332
aI216
aI199
aI19
aI60
aI7
aI0
aI1
aI12
aI8
aI2
aI6
aI35
aI70
asS'maxwj002'
p2333
(lp2334
g2333
aS'Justin Maxwell'
p2335
aI173
aI157
aI21
aI36
aI9
aI0
aI8
aI27
aI3
aI3
aI13
aI60
aI69
asS'zimmj003'
p2336
(lp2337
g2336
aS'Jordan Zimmermann'
p2338
aI64
aI55
aI5
aI11
aI2
aI0
aI1
aI4
aI0
aI0
aI4
aI12
aI16
asS'butlb003'
p2339
(lp2340
g2339
aS'Billy Butler'
p2341
aI667
aI603
aI71
aI189
aI32
aI1
aI28
aI104
aI2
aI1
aI53
aI110
aI307
asS'fistd001'
p2342
(lp2343
g2342
aS'Doug Fister'
p2344
aI2
aI2
aI0
aI0
aI0
aI0
aI0
aI0
aI0
aI0
aI0
aI1
aI0
asS'ankir001'
p2345
(lp2346
g2345
aS'Rick Ankiel'
p2347
aI171
aI158
aI15
aI36
aI10
aI2
aI5
aI15
aI1
aI3
aI12
aI59
aI65
asS'hagum001'
p2348
(lp2349
g2348
aS'Matt Hague'
p2350
aI74
aI70
aI5
aI16
aI2
aI0
aI0
aI7
aI1
aI0
aI3
aI14
aI18
asS'vincn001'
p2351
(lp2352
g2351
aS'Nick Vincent'
p2353
aI1
aI1
aI0
aI0
aI0
aI0
aI0
aI0
aI0
aI0
aI0
aI1
aI0
asS'colvt001'
p2354
(lp2355
g2354
aS'Tyler Colvin'
p2356
aI446
aI414
aI62
aI120
aI27
aI10
aI18
aI72
aI7
aI3
aI21
aI115
aI221
asS'younc003'
p2357
(lp2358
g2357
aS'Chris Young'
p2359
aI36
aI31
aI0
aI4
aI2
aI0
aI0
aI2
aI0
aI0
aI1
aI11
aI6
asS'cloyt001'
p2360
(lp2361
g2360
aS'Tyler Cloyd'
p2362
aI12
aI9
aI2
aI1
aI0
aI0
aI0
aI0
aI0
aI0
aI3
aI2
aI1
asS'figgc001'
p2363
(lp2364
g2363
aS'Chone Figgins'
p2365
aI194
aI166
aI18
aI30
aI5
aI2
aI2
aI11
aI4
aI1
aI19
aI48
aI45
asS'lobaj001'
p2366
(lp2367
g2366
aS'Jose Lobaton'
p2368
aI197
aI167
aI16
aI37
aI10
aI0
aI2
aI20
aI0
aI1
aI24
aI46
aI53
asS'bixlb001'
p2369
(lp2370
g2369
aS'Brian Bixler'
p2371
aI57
aI53
aI4
aI10
aI3
aI0
aI0
aI3
aI3
aI0
aI4
aI22
aI13
asS'buckt001'
p2372
(lp2373
g2372
aS'Travis Buck'
p2374
aI35
aI33
aI3
aI7
aI1
aI0
aI0
aI2
aI0
aI0
aI1
aI6
aI8
asS'outmj001'
p2375
(lp2376
g2375
aS'Josh Outman'
p2377
aI13
aI12
aI0
aI1
aI0
aI0
aI0
aI1
aI0
aI0
aI1
aI8
aI1
asS'browd004'
p2378
(lp2379
g2378
aS'Domonic Brown'
p2380
aI194
aI174
aI19
aI42
aI10
aI2
aI4
aI22
aI0
aI0
aI16
aI33
aI68
asS'jeted001'
p2381
(lp2382
g2381
aS'Derek Jeter'
p2383
aI740
aI683
aI99
aI216
aI32
aI0
aI15
aI58
aI9
aI4
aI45
aI90
aI293
asS'affej001'
p2384
(lp2385
g2384
aS'Jeremy Affeldt'
p2386
aI1
aI1
aI0
aI0
aI0
aI0
aI0
aI0
aI0
aI0
aI0
aI0
aI0
asS'schal001'
p2387
(lp2388
g2387
aS'Logan Schafer'
p2389
aI25
aI23
aI3
aI7
aI1
aI2
aI0
aI5
aI0
aI1
aI1
aI3
aI12
asS'yound003'
p2390
(lp2391
g2390
aS'Delmon Young'
p2392
aI608
aI574
aI54
aI153
aI27
aI1
aI18
aI74
aI0
aI2
aI20
aI112
aI236
asS'kendh001'
p2393
(lp2394
g2393
aS'Howard Kendrick'
p2395
aI594
aI550
aI57
aI158
aI32
aI3
aI8
aI67
aI14
aI6
aI29
aI115
aI220
asS'berkj001'
p2396
(lp2397
g2396
aS'Jason Berken'
p2398
aI5
aI5
aI0
aI0
aI0
aI0
aI0
aI0
aI0
aI0
aI0
aI1
aI0
asS'schwc001'
p2399
(lp2400
g2399
aS'Chris Schwinden'
p2401
aI3
aI3
aI0
aI1
aI0
aI0
aI0
aI1
aI0
aI0
aI0
aI0
aI1
asS'stanm004'
p2402
(lp2403
g2402
aS'Giancarlo Stanton'
p2404
aI488
aI437
aI73
aI128
aI30
aI1
aI36
aI84
aI6
aI2
aI45
aI139
aI268
asS'nadyx001'
p2405
(lp2406
g2405
aS'Xavier Nady'
p2407
aI166
aI152
aI12
aI28
aI6
aI1
aI4
aI13
aI1
aI0
aI13
aI37
aI48
asS'peree003'
p2408
(lp2409
g2408
aS'Eury Perez'
p2410
aI5
aI5
aI3
aI1
aI0
aI0
aI0
aI0
aI3
aI0
aI0
aI0
aI1
asS'lylej001'
p2411
(lp2412
g2411
aS'Jordan Lyles'
p2413
aI23
aI19
aI2
aI4
aI1
aI0
aI1
aI3
aI0
aI0
aI1
aI6
aI8
asS'peguf001'
p2414
(lp2415
g2414
aS'Francisco Peguero'
p2416
aI12
aI12
aI6
aI3
aI0
aI0
aI0
aI0
aI3
aI0
aI0
aI6
aI3
asS'dejei002'
p2417
(lp2418
g2417
aS'Ivan De Jesus'
p2419
aI45
aI41
aI5
aI9
aI3
aI0
aI0
aI4
aI1
aI1
aI3
aI13
aI12
asS'wolfr001'
p2420
(lp2421
g2420
aS'Randy Wolf'
p2422
aI45
aI39
aI3
aI5
aI0
aI0
aI0
aI4
aI0
aI1
aI0
aI11
aI5
asS'coopd002'
p2423
(lp2424
g2423
aS'David Cooper'
p2425
aI145
aI140
aI16
aI42
aI11
aI0
aI4
aI11
aI0
aI1
aI4
aI22
aI65
asS'lahab001'
p2426
(lp2427
g2426
aS'Bryan LaHair'
p2428
aI372
aI332
aI42
aI87
aI17
aI0
aI16
aI40
aI4
aI2
aI39
aI119
aI152
asS'duncs001'
p2429
(lp2430
g2429
aS'Shelley Duncan'
p2431
aI259
aI229
aI29
aI47
aI10
aI0
aI11
aI31
aI1
aI2
aI26
aI58
aI90
asS'solad001'
p2432
(lp2433
g2432
aS'Donovan Solano'
p2434
aI316
aI285
aI29
aI84
aI11
aI3
aI2
aI28
aI7
aI0
aI21
aI58
aI107
asS'sierm001'
p2435
(lp2436
g2435
aS'Moises Sierra'
p2437
aI157
aI147
aI14
aI33
aI4
aI0
aI6
aI15
aI1
aI0
aI8
aI44
aI55
asS'desmi001'
p2438
(lp2439
g2438
aS'Ian Desmond'
p2440
aI547
aI513
aI72
aI150
aI33
aI2
aI25
aI73
aI21
aI6
aI30
aI113
aI262
asS'gomeb001'
p2441
(lp2442
g2441
aS'Brandon Gomes'
p2443
aI2
aI1
aI0
aI0
aI0
aI0
aI0
aI1
aI0
aI0
aI1
aI1
aI0
asS'ludwr001'
p2444
(lp2445
g2444
aS'Ryan Ludwick'
p2446
aI442
aI396
aI49
aI108
aI26
aI1
aI25
aI76
aI0
aI1
aI39
aI90
aI211
asS'alony001'
p2447
(lp2448
g2447
aS'Yonder Alonso'
p2449
aI610
aI542
aI47
aI146
aI39
aI0
aI9
aI62
aI3
aI0
aI60
aI100
aI212
asS'dobbg001'
p2450
(lp2451
g2450
aS'Greg Dobbs'
p2452
aI335
aI313
aI25
aI90
aI13
aI2
aI5
aI39
aI4
aI2
aI13
aI52
aI122
asS'corrk001'
p2453
(lp2454
g2453
aS'Kevin Correia'
p2455
aI53
aI45
aI1
aI5
aI0
aI0
aI0
aI0
aI0
aI1
aI0
aI20
aI5
asS'harvm001'
p2456
(lp2457
g2456
aS'Matt Harvey'
p2458
aI21
aI18
aI0
aI6
aI2
aI0
aI0
aI3
aI0
aI0
aI0
aI7
aI8
asS'walkn001'
p2459
(lp2460
g2459
aS'Neil Walker'
p2461
aI509
aI455
aI60
aI128
aI26
aI0
aI13
aI66
aI7
aI5
aI45
aI101
aI193
asS'thame001'
p2462
(lp2463
g2462
aS'Eric Thames'
p2464
aI290
aI271
aI27
aI63
aI12
aI3
aI9
aI25
aI1
aI1
aI15
aI87
aI108
asS'torra001'
p2465
(lp2466
g2465
aS'Andres Torres'
p2467
aI422
aI362
aI46
aI83
aI17
aI7
aI3
aI32
aI13
aI5
aI52
aI86
aI123
asS'sheeb001'
p2468
(lp2469
g2468
aS'Ben Sheets'
p2470
aI17
aI13
aI0
aI0
aI0
aI0
aI0
aI0
aI0
aI0
aI1
aI6
aI0
asS'johnr008'
p2471
(lp2472
g2471
aS'Reed Johnson'
p2473
aI278
aI261
aI28
aI74
aI14
aI3
aI2
aI18
aI2
aI2
aI12
aI59
aI100
asS'zimmr001'
p2474
(lp2475
g2474
aS'Ryan Zimmerman'
p2476
aI621
aI561
aI90
aI159
aI35
aI1
aI25
aI92
aI5
aI2
aI55
aI112
aI271
asS'branr002'
p2477
(lp2478
g2477
aS'Rob Brantly'
p2479
aI113
aI100
aI14
aI29
aI8
aI0
aI3
aI8
aI1
aI1
aI13
aI16
aI46
asS'hatcc002'
p2480
(lp2481
g2480
aS'Chris Hatcher'
p2482
aI1
aI1
aI0
aI0
aI0
aI0
aI0
aI0
aI0
aI0
aI0
aI1
aI0
asS'lonej001'
p2483
(lp2484
g2483
aS'James Loney'
p2485
aI456
aI426
aI36
aI105
aI19
aI0
aI5
aI40
aI0
aI3
aI27
aI50
aI139
asS'beavb001'
p2486
(lp2487
g2486
aS'Blake Beavan'
p2488
aI3
aI2
aI0
aI0
aI0
aI0
aI0
aI0
aI0
aI0
aI0
aI1
aI0
asS'staut001'
p2489
(lp2490
g2489
aS'Tim Stauffer'
p2491
aI2
aI1
aI0
aI0
aI0
aI0
aI0
aI1
aI0
aI0
aI0
aI0
aI0
asS'dickc001'
p2492
(lp2493
g2492
aS'Chris Dickerson'
p2494
aI17
aI14
aI5
aI4
aI0
aI0
aI2
aI5
aI3
aI0
aI3
aI5
aI10
asS'martr004'
p2495
(lp2496
g2495
aS'Russell Martin'
p2497
aI485
aI422
aI50
aI89
aI18
aI0
aI21
aI53
aI6
aI1
aI53
aI95
aI170
asS'keppj001'
p2498
(lp2499
g2498
aS'Jeff Keppinger'
p2500
aI418
aI385
aI46
aI125
aI15
aI1
aI9
aI40
aI1
aI0
aI24
aI31
aI169
asS'alvah001'
p2501
(lp2502
g2501
aS'Henderson Alvarez'
p2503
aI1
aI1
aI0
aI0
aI0
aI0
aI0
aI0
aI0
aI0
aI0
aI1
aI0
asS'romia001'
p2504
(lp2505
g2504
aS'Andrew Romine'
p2506
aI21
aI17
aI2
aI7
aI0
aI0
aI0
aI1
aI1
aI0
aI3
aI3
aI7
asS'scotl001'
p2507
(lp2508
g2507
aS'Luke Scott'
p2509
aI344
aI314
aI35
aI72
aI22
aI1
aI14
aI55
aI5
aI0
aI21
aI80
aI138
asS'ottaa001'
p2510
(lp2511
g2510
aS'Adam Ottavino'
p2512
aI12
aI9
aI1
aI1
aI0
aI0
aI0
aI0
aI0
aI0
aI0
aI7
aI1
asS'robit001'
p2513
(lp2514
g2513
aS'Trayvon Robinson'
p2515
aI164
aI145
aI16
aI32
aI4
aI1
aI3
aI12
aI6
aI3
aI14
aI43
aI47
asS'greea002'
p2516
(lp2517
g2516
aS'Adam Greenberg'
p2518
aI1
aI1
aI0
aI0
aI0
aI0
aI0
aI0
aI0
aI0
aI0
aI1
aI0
asS'matub001'
p2519
(lp2520
g2519
aS'Brian Matusz'
p2521
aI4
aI4
aI0
aI1
aI0
aI0
aI0
aI0
aI0
aI0
aI0
aI2
aI1
asS'pelfm001'
p2522
(lp2523
g2522
aS'Mike Pelfrey'
p2524
aI7
aI6
aI1
aI1
aI1
aI0
aI0
aI0
aI0
aI0
aI0
aI0
aI2
asS'corpc001'
p2525
(lp2526
g2525
aS'Carlos Corporan'
p2527
aI50
aI48
aI2
aI14
aI2
aI0
aI1
aI7
aI0
aI1
aI1
aI10
aI19
asS'estrm001'
p2528
(lp2529
g2528
aS'Marco Estrada'
p2530
aI43
aI38
aI1
aI4
aI2
aI0
aI0
aI3
aI0
aI0
aI2
aI20
aI6
asS'hollm001'
p2531
(lp2532
g2531
aS'Matt Holliday'
p2533
aI650
aI570
aI91
aI171
aI36
aI1
aI27
aI97
aI3
aI4
aI66
aI123
aI290
asS'dankj002'
p2534
(lp2535
g2534
aS'Jordan Danks'
p2536
aI75
aI67
aI12
aI15
aI1
aI0
aI1
aI4
aI3
aI1
aI6
aI16
aI19
asS'dankj001'
p2537
(lp2538
g2537
aS'John Danks'
p2539
aI3
aI3
aI0
aI0
aI0
aI0
aI0
aI0
aI0
aI0
aI0
aI0
aI0
asS'gentc001'
p2540
(lp2541
g2540
aS'Craig Gentry'
p2542
aI264
aI236
aI31
aI72
aI12
aI3
aI1
aI26
aI13
aI7
aI13
aI40
aI93
asS'cecib001'
p2543
(lp2544
g2543
aS'Brett Cecil'
p2545
aI2
aI2
aI0
aI0
aI0
aI0
aI0
aI0
aI0
aI0
aI0
aI2
aI0
asS'tholj001'
p2546
(lp2547
g2546
aS'Josh Thole'
p2548
aI342
aI309
aI24
aI73
aI15
aI0
aI1
aI20
aI0
aI0
aI27
aI49
aI91
asS'molij001'
p2549
(lp2550
g2549
aS'Jose Molina'
p2551
aI274
aI251
aI27
aI56
aI9
aI0
aI8
aI32
aI3
aI1
aI20
aI60
aI89
asS'mccom001'
p2552
(lp2553
g2552
aS'Mike McCoy'
p2554
aI56
aI52
aI10
aI9
aI1
aI0
aI1
aI7
aI2
aI1
aI4
aI6
aI13
asS'saltj001'
p2555
(lp2556
g2555
aS'Jarrod Saltalamacchia'
p2557
aI448
aI405
aI55
aI90
aI17
aI1
aI25
aI59
aI0
aI1
aI38
aI139
aI184
asS'kalir001'
p2558
(lp2559
g2558
aS'Ryan Kalish'
p2560
aI103
aI96
aI12
aI22
aI3
aI0
aI0
aI5
aI3
aI2
aI6
aI26
aI25
asS'bakej001'
p2561
(lp2562
g2561
aS'Jeff Baker'
p2563
aI193
aI180
aI18
aI42
aI11
aI1
aI4
aI25
aI4
aI0
aI11
aI46
aI67
asS'ruf-d001'
p2564
(lp2565
g2564
aS'Darin Ruf'
p2566
aI35
aI31
aI4
aI11
aI2
aI1
aI3
aI10
aI0
aI0
aI2
aI12
aI24
asS'hecha001'
p2567
(lp2568
g2567
aS'Adeiny Hechavarria'
p2569
aI137
aI126
aI10
aI32
aI8
aI0
aI2
aI15
aI0
aI0
aI4
aI32
aI46
asS'bakej002'
p2570
(lp2571
g2570
aS'John Baker'
p2572
aI208
aI188
aI16
aI44
aI7
aI0
aI0
aI14
aI2
aI1
aI19
aI40
aI51
asS'velag002'
p2573
(lp2574
g2573
aS'Gil Velazquez'
p2575
aI57
aI56
aI2
aI13
aI1
aI0
aI0
aI2
aI0
aI0
aI1
aI11
aI14
asS'doumr001'
p2576
(lp2577
g2576
aS'Ryan Doumit'
p2578
aI528
aI484
aI56
aI133
aI34
aI1
aI18
aI75
aI0
aI0
aI29
aI98
aI223
asS'snydc002'
p2579
(lp2580
g2579
aS'Chris Snyder'
p2581
aI131
aI112
aI11
aI19
aI5
aI0
aI4
aI11
aI0
aI0
aI17
aI35
aI36
asS'harpb003'
p2582
(lp2583
g2582
aS'Bryce Harper'
p2584
aI582
aI522
aI96
aI144
aI26
aI9
aI22
aI59
aI18
aI6
aI52
aI115
aI254
asS'lawrb002'
p2585
(lp2586
g2585
aS'Brett Lawrie'
p2587
aI536
aI494
aI73
aI135
aI26
aI3
aI11
aI48
aI13
aI8
aI33
aI86
aI200
asS'hughl001'
p2588
(lp2589
g2588
aS'Luke Hughes'
p2590
aI24
aI23
aI0
aI3
aI0
aI0
aI0
aI2
aI1
aI0
aI0
aI10
aI3
asS'dunnm002'
p2591
(lp2592
g2591
aS'Michael Dunn'
p2593
aI1
aI1
aI0
aI0
aI0
aI0
aI0
aI0
aI0
aI0
aI0
aI0
aI0
asS'ramih003'
p2594
(lp2595
g2594
aS'Hanley Ramirez'
p2596
aI653
aI591
aI78
aI152
aI28
aI4
aI23
aI91
aI21
aI7
aI54
aI130
aI257
asS'delaj001'
p2597
(lp2598
g2597
aS'Jorge de la Rosa'
p2599
aI5
aI5
aI0
aI2
aI0
aI0
aI0
aI1
aI0
aI0
aI0
aI1
aI2
asS'reynm001'
p2600
(lp2601
g2600
aS'Mark Reynolds'
p2602
aI538
aI457
aI65
aI101
aI26
aI0
aI23
aI69
aI1
aI3
aI73
aI159
aI196
asS'wrigd002'
p2603
(lp2604
g2603
aS'David Wright'
p2605
aI658
aI570
aI89
aI174
aI41
aI1
aI21
aI93
aI14
aI10
aI80
aI109
aI280
asS'mejij001'
p2606
(lp2607
g2606
aS'Jenrry Mejia'
p2608
aI5
aI3
aI0
aI0
aI0
aI0
aI0
aI1
aI0
aI0
aI0
aI2
aI0
asS'reynm002'
p2609
(lp2610
g2609
aS'Matt Reynolds'
p2611
aI4
aI3
aI0
aI0
aI0
aI0
aI0
aI0
aI0
aI0
aI0
aI2
aI0
asS'lynnl001'
p2612
(lp2613
g2612
aS'Lance Lynn'
p2614
aI57
aI47
aI3
aI3
aI0
aI0
aI0
aI1
aI0
aI0
aI2
aI33
aI3
asS'alleb001'
p2615
(lp2616
g2615
aS'Brandon Allen'
p2617
aI22
aI20
aI3
aI2
aI0
aI0
aI1
aI3
aI0
aI0
aI2
aI9
aI5
asS'nix-l001'
p2618
(lp2619
g2618
aS'Laynce Nix'
p2620
aI125
aI112
aI13
aI28
aI10
aI0
aI3
aI16
aI0
aI0
aI12
aI41
aI47
asS'quinh001'
p2621
(lp2622
g2621
aS'Humberto Quintero'
p2623
aI135
aI129
aI6
aI30
aI12
aI0
aI1
aI19
aI0
aI1
aI4
aI27
aI45
asS'johne002'
p2624
(lp2625
g2624
aS'Elliot Johnson'
p2626
aI331
aI297
aI32
aI72
aI10
aI2
aI6
aI33
aI18
aI6
aI24
aI84
aI104
asS'nicaj001'
p2627
(lp2628
g2627
aS'Juan Nicasio'
p2629
aI18
aI15
aI0
aI2
aI0
aI0
aI0
aI1
aI0
aI0
aI2
aI11
aI2
asS'iztum001'
p2630
(lp2631
g2630
aS'Maicer Izturis'
p2632
aI319
aI289
aI35
aI74
aI11
aI0
aI2
aI20
aI17
aI2
aI25
aI38
aI91
asS'kenna001'
p2633
(lp2634
g2633
aS'Adam Kennedy'
p2635
aI196
aI164
aI21
aI44
aI8
aI1
aI2
aI16
aI1
aI1
aI22
aI33
aI60
asS'peteb001'
p2636
(lp2637
g2636
aS'Bryan Petersen'
p2638
aI273
aI241
aI29
aI47
aI9
aI3
aI0
aI17
aI8
aI2
aI25
aI58
aI62
asS'nix-j001'
p2639
(lp2640
g2639
aS'Jayson Nix'
p2641
aI202
aI177
aI24
aI43
aI13
aI0
aI4
aI18
aI6
aI3
aI14
aI53
aI68
asS'tabaj002'
p2642
(lp2643
g2642
aS'Jose Tabata'
p2644
aI369
aI329
aI42
aI80
aI20
aI3
aI3
aI14
aI8
aI12
aI28
aI56
aI115
asS'bourj001'
p2645
(lp2646
g2645
aS'Jason Bourgeois'
p2647
aI66
aI62
aI10
aI16
aI2
aI1
aI0
aI5
aI5
aI4
aI4
aI4
aI20
asS'avila001'
p2648
(lp2649
g2648
aS'Alex Avila'
p2650
aI434
aI367
aI42
aI89
aI21
aI2
aI9
aI48
aI2
aI0
aI61
aI104
aI141
asS'kuroh001'
p2651
(lp2652
g2651
aS'Hiroki Kuroda'
p2653
aI2
aI2
aI0
aI0
aI0
aI0
aI0
aI0
aI0
aI0
aI0
aI1
aI0
asS'galaa002'
p2654
(lp2655
g2654
aS'Armando Galarraga'
p2656
aI3
aI3
aI0
aI0
aI0
aI0
aI0
aI0
aI0
aI0
aI0
aI0
aI0
asS'frank001'
p2657
(lp2658
g2657
aS'Kevin Frandsen'
p2659
aI196
aI181
aI24
aI61
aI9
aI3
aI2
aI12
aI0
aI1
aI9
aI16
aI82
asS'casha001'
p2660
(lp2661
g2660
aS'Andrew Cashner'
p2662
aI5
aI4
aI0
aI1
aI0
aI0
aI0
aI0
aI0
aI0
aI1
aI2
aI1
asS'beckj002'
p2663
(lp2664
g2663
aS'Josh Beckett'
p2665
aI22
aI21
aI0
aI1
aI0
aI0
aI0
aI0
aI0
aI0
aI0
aI12
aI1
asS'ransc001'
p2666
(lp2667
g2666
aS'Cody Ransom'
p2668
aI275
aI239
aI29
aI53
aI13
aI0
aI11
aI41
aI0
aI1
aI30
aI105
aI99
asS'nunee002'
p2669
(lp2670
g2669
aS'Eduardo Nunez'
p2671
aI100
aI89
aI14
aI26
aI4
aI1
aI1
aI11
aI11
aI2
aI6
aI12
aI35
asS'blang001'
p2672
(lp2673
g2672
aS'Gregor Blanco'
p2674
aI443
aI384
aI55
aI94
aI14
aI5
aI5
aI34
aI26
aI6
aI51
aI98
aI133
asS'capuc001'
p2675
(lp2676
g2675
aS'Chris Capuano'
p2677
aI69
aI54
aI3
aI5
aI2
aI0
aI0
aI3
aI0
aI0
aI1
aI27
aI7
asS'napom001'
p2678
(lp2679
g2678
aS'Mike Napoli'
p2680
aI409
aI345
aI53
aI79
aI9
aI2
aI24
aI56
aI1
aI0
aI55
aI122
aI164
asS'stras001'
p2681
(lp2682
g2681
aS'Stephen Strasburg'
p2683
aI53
aI47
aI4
aI13
aI4
aI0
aI1
aI7
aI0
aI0
aI3
aI13
aI20
asS'lillb001'
p2684
(lp2685
g2684
aS'Brent Lillibridge'
p2686
aI209
aI190
aI25
aI37
aI6
aI0
aI3
aI10
aI13
aI2
aI11
aI71
aI52
asS'koeht001'
p2687
(lp2688
g2687
aS'Tom Koehler'
p2689
aI1
aI1
aI0
aI0
aI0
aI0
aI0
aI0
aI0
aI0
aI0
aI1
aI0
asS'rollj001'
p2690
(lp2691
g2690
aS'Jimmy Rollins'
p2692
aI678
aI615
aI98
aI152
aI32
aI5
aI22
aI67
aI26
aI5
aI58
aI93
aI260
asS'kempm001'
p2693
(lp2694
g2693
aS'Matt Kemp'
p2695
aI438
aI394
aI72
aI118
aI22
aI2
aI21
aI65
aI9
aI4
aI38
aI100
aI207
asS'simma001'
p2696
(lp2697
g2696
aS'Andrelton Simmons'
p2698
aI182
aI166
aI17
aI48
aI8
aI2
aI3
aI19
aI1
aI0
aI12
aI21
aI69
asS'cervf001'
p2699
(lp2700
g2699
aS'Francisco Cervelli'
p2701
aI2
aI1
aI1
aI0
aI0
aI0
aI0
aI0
aI0
aI0
aI1
aI0
aI0
asS'castj006'
p2702
(lp2703
g2702
aS'Jason Castro'
p2704
aI147
aI134
aI11
aI32
aI7
aI1
aI3
aI14
aI0
aI0
aI11
aI37
aI50
asS'mills001'
p2705
(lp2706
g2705
aS'Shelby Miller'
p2707
aI3
aI3
aI0
aI2
aI1
aI0
aI0
aI0
aI0
aI0
aI0
aI0
aI3
asS'jonec004'
p2708
(lp2709
g2708
aS'Chipper Jones'
p2710
aI439
aI378
aI56
aI107
aI23
aI0
aI13
aI60
aI1
aI0
aI57
aI50
aI169
asS'thort001'
p2711
(lp2712
g2711
aS'Tyler Thornburg'
p2713
aI5
aI5
aI1
aI1
aI1
aI0
aI0
aI0
aI0
aI0
aI0
aI2
aI2
asS'holtb002'
p2714
(lp2715
g2714
aS'Brock Holt'
p2716
aI68
aI61
aI6
aI18
aI2
aI1
aI0
aI3
aI0
aI0
aI4
aI14
aI22
asS'greiz001'
p2717
(lp2718
g2717
aS'Zack Greinke'
p2719
aI37
aI32
aI3
aI6
aI2
aI0
aI1
aI2
aI0
aI0
aI0
aI8
aI11
asS'florp001'
p2720
(lp2721
g2720
aS'Pedro Florimon'
p2722
aI150
aI137
aI16
aI30
aI5
aI2
aI1
aI10
aI3
aI1
aI10
aI30
aI42
asS'byrdm001'
p2723
(lp2724
g2723
aS'Marlon Byrd'
p2725
aI153
aI143
aI10
aI30
aI2
aI0
aI1
aI9
aI0
aI3
aI5
aI31
aI35
asS'perej001'
p2726
(lp2727
g2726
aS'Juan Perez'
p2728
aI1
aI1
aI0
aI0
aI0
aI0
aI0
aI0
aI0
aI0
aI0
aI1
aI0
asS'franb001'
p2729
(lp2730
g2729
aS'Ben Francisco'
p2731
aI164
aI152
aI12
aI34
aI13
aI1
aI2
aI10
aI0
aI1
aI10
aI38
aI55
asS'carpm002'
p2732
(lp2733
g2732
aS'Matt Carpenter'
p2734
aI318
aI277
aI42
aI83
aI22
aI5
aI6
aI46
aI1
aI1
aI31
aI56
aI133
asS'cowgc001'
p2735
(lp2736
g2735
aS'Collin Cowgill'
p2737
aI116
aI104
aI10
aI28
aI2
aI0
aI1
aI9
aI3
aI4
aI11
aI27
aI33
asS'stinj001'
p2738
(lp2739
g2738
aS'Josh Stinson'
p2740
aI1
aI1
aI0
aI0
aI0
aI0
aI0
aI0
aI0
aI0
aI0
aI1
aI0
asS'costm001'
p2741
(lp2742
g2741
aS'Mike Costanzo'
p2743
aI19
aI16
aI0
aI1
aI0
aI0
aI0
aI2
aI0
aI0
aI1
aI9
aI1
asS'rogem001'
p2744
(lp2745
g2744
aS'Mark Rogers'
p2746
aI13
aI12
aI1
aI3
aI2
aI0
aI0
aI0
aI0
aI0
aI0
aI4
aI5
asS'browc003'
p2747
(lp2748
g2747
aS'Corey Brown'
p2749
aI27
aI25
aI4
aI5
aI2
aI0
aI1
aI3
aI0
aI0
aI1
aI9
aI10
asS'spean001'
p2750
(lp2751
g2750
aS'Nate Spears'
p2752
aI4
aI4
aI0
aI0
aI0
aI0
aI0
aI0
aI0
aI0
aI0
aI3
aI0
asS'gimec001'
p2753
(lp2754
g2753
aS'Chris Gimenez'
p2755
aI109
aI100
aI10
aI26
aI4
aI0
aI1
aI9
aI0
aI0
aI8
aI24
aI33
asS'leblw001'
p2756
(lp2757
g2756
aS'Wade LeBlanc'
p2758
aI16
aI12
aI0
aI1
aI1
aI0
aI0
aI0
aI0
aI0
aI0
aI1
aI2
asS'peraj001'
p2759
(lp2760
g2759
aS'Jhonny Peralta'
p2761
aI585
aI531
aI58
aI127
aI32
aI3
aI13
aI63
aI1
aI2
aI49
aI105
aI204
asS'maiem001'
p2762
(lp2763
g2762
aS'Mitch Maier'
p2764
aI73
aI64
aI8
aI11
aI1
aI1
aI2
aI6
aI2
aI0
aI8
aI24
aI20
asS'spand001'
p2765
(lp2766
g2765
aS'Denard Span'
p2767
aI568
aI516
aI71
aI146
aI38
aI4
aI4
aI41
aI17
aI6
aI47
aI62
aI204
asS'tolls001'
p2768
(lp2769
g2768
aS'Steven Tolleson'
p2770
aI76
aI71
aI4
aI13
aI3
aI0
aI2
aI6
aI1
aI0
aI4
aI17
aI22
asS'bergb002'
p2771
(lp2772
g2771
aS'Brad Bergesen'
p2773
aI2
aI1
aI0
aI0
aI0
aI0
aI0
aI0
aI0
aI0
aI0
aI0
aI0
asS'drabk001'
p2774
(lp2775
g2774
aS'Kyle Drabek'
p2776
aI2
aI2
aI0
aI0
aI0
aI0
aI0
aI0
aI0
aI0
aI0
aI1
aI0
asS'hernf002'
p2777
(lp2778
g2777
aS'Felix Hernandez'
p2779
aI3
aI3
aI0
aI1
aI1
aI0
aI0
aI2
aI0
aI0
aI0
aI1
aI2
asS'crisc001'
p2780
(lp2781
g2780
aS'Coco Crisp'
p2782
aI508
aI455
aI67
aI118
aI25
aI7
aI11
aI46
aI39
aI4
aI45
aI64
aI190
asS'woodk002'
p2783
(lp2784
g2783
aS'Kerry Wood'
p2785
aI1
aI1
aI0
aI0
aI0
aI0
aI0
aI0
aI0
aI0
aI0
aI1
aI0
asS'mastd002'
p2786
(lp2787
g2786
aS'Darin Mastroianni'
p2788
aI186
aI163
aI22
aI41
aI3
aI2
aI3
aI17
aI21
aI3
aI18
aI45
aI57
asS'pujoa001'
p2789
(lp2790
g2789
aS'Albert Pujols'
p2791
aI670
aI607
aI85
aI173
aI50
aI0
aI30
aI105
aI8
aI1
aI52
aI76
aI313
asS'huffa001'
p2792
(lp2793
g2792
aS'Aubrey Huff'
p2794
aI95
aI78
aI7
aI15
aI4
aI0
aI1
aI7
aI0
aI0
aI16
aI12
aI22
asS'colob001'
p2795
(lp2796
g2795
aS'Bartolo Colon'
p2797
aI4
aI4
aI0
aI0
aI0
aI0
aI0
aI0
aI0
aI0
aI0
aI3
aI0
asS'pedrd001'
p2798
(lp2799
g2798
aS'Dustin Pedroia'
p2800
aI623
aI563
aI81
aI163
aI39
aI3
aI15
aI65
aI20
aI6
aI48
aI60
aI253
asS'bogub001'
p2801
(lp2802
g2801
aS'Brian Bogusevic'
p2803
aI209
aI186
aI24
aI44
aI3
aI2
aI3
aI15
aI7
aI0
aI19
aI52
aI60
asS'smoaj001'
p2804
(lp2805
g2804
aS'Justin Smoak'
p2806
aI535
aI483
aI49
aI105
aI14
aI0
aI19
aI51
aI1
aI0
aI49
aI111
aI176
asS'clevs001'
p2807
(lp2808
g2807
aS'Steve Clevenger'
p2809
aI211
aI196
aI16
aI40
aI12
aI0
aI1
aI16
aI0
aI1
aI15
aI36
aI55
asS'moort002'
p2810
(lp2811
g2810
aS'Tyler Moore'
p2812
aI168
aI154
aI20
aI41
aI9
aI0
aI10
aI29
aI3
aI0
aI14
aI45
aI80
asS'keara001'
p2813
(lp2814
g2813
aS'Austin Kearns'
p2815
aI174
aI146
aI21
aI35
aI6
aI0
aI4
aI16
aI2
aI1
aI22
aI44
aI53
asS'milot001'
p2816
(lp2817
g2816
aS'Tom Milone'
p2818
aI5
aI5
aI1
aI1
aI0
aI0
aI0
aI2
aI0
aI0
aI0
aI1
aI1
asS'ramie004'
p2819
(lp2820
g2819
aS'Erasmo Ramirez'
p2821
aI3
aI3
aI0
aI0
aI0
aI0
aI0
aI0
aI0
aI0
aI0
aI1
aI0
asS'suppj001'
p2822
(lp2823
g2822
aS'Jeff Suppan'
p2824
aI14
aI10
aI0
aI1
aI0
aI0
aI0
aI0
aI0
aI0
aI1
aI1
aI1
asS'bernr001'
p2825
(lp2826
g2825
aS'Roger Bernadina'
p2827
aI250
aI220
aI22
aI62
aI11
aI0
aI5
aI25
aI13
aI3
aI25
aI52
aI88
asS'owinm001'
p2828
(lp2829
g2828
aS'Micah Owings'
p2830
aI2
aI2
aI0
aI0
aI0
aI0
aI0
aI0
aI0
aI0
aI0
aI2
aI0
asS'vittj001'
p2831
(lp2832
g2831
aS'Josh Vitters'
p2833
aI101
aI92
aI7
aI10
aI2
aI0
aI2
aI5
aI2
aI0
aI7
aI30
aI18
asS'wiggt001'
p2834
(lp2835
g2834
aS'Ty Wigginton'
p2836
aI356
aI312
aI40
aI73
aI10
aI0
aI11
aI43
aI1
aI0
aI37
aI81
aI116
asS'cruzn002'
p2837
(lp2838
g2837
aS'Nelson Cruz'
p2839
aI629
aI572
aI85
aI147
aI45
aI0
aI24
aI87
aI8
aI4
aI48
aI137
aI264
asS'profj001'
p2840
(lp2841
g2840
aS'Jurickson Profar'
p2842
aI17
aI17
aI2
aI3
aI2
aI0
aI1
aI2
aI0
aI0
aI0
aI4
aI8
asS'hutcd001'
p2843
(lp2844
g2843
aS'Drew Hutchison'
p2845
aI2
aI2
aI0
aI0
aI0
aI0
aI0
aI0
aI0
aI0
aI0
aI0
aI0
asS'blanj001'
p2846
(lp2847
g2846
aS'Joe Blanton'
p2848
aI66
aI55
aI0
aI4
aI0
aI0
aI0
aI1
aI0
aI0
aI3
aI26
aI4
asS'mahop002'
p2849
(lp2850
g2849
aS'Paul Maholm'
p2851
aI68
aI63
aI2
aI4
aI0
aI0
aI1
aI3
aI0
aI0
aI2
aI38
aI7
asS'chacj001'
p2852
(lp2853
g2852
aS'Jhoulys Chacin'
p2854
aI26
aI24
aI4
aI7
aI2
aI0
aI0
aI3
aI0
aI0
aI1
aI3
aI9
asS'doubf001'
p2855
(lp2856
g2855
aS'Felix Doubront'
p2857
aI2
aI1
aI0
aI0
aI0
aI0
aI0
aI0
aI0
aI0
aI0
aI0
aI0
asa(dp2858
g2
(lp2859
g2
ag4
aS'1.0'
p2860
aI2
aI3
aI3
aI1
aI2
aI0
aI0
asg5
(lp2861
g5
ag7
aS'99.2'
p2862
aI110
aI52
aI50
aI12
aI24
aI2
aI81
asS'boggm001'
p2863
(lp2864
g2863
aS'Mitchell Boggs'
p2865
aS'69.2'
p2866
aI52
aI20
aI18
aI5
aI21
aI3
aI56
asg11
(lp2867
g11
ag13
aS'53.0'
p2868
aI49
aI31
aI31
aI2
aI26
aI1
aI42
asg35
(lp2869
g35
ag37
aS'132.2'
p2870
aI154
aI69
aI62
aI12
aI47
aI4
aI107
asS'perel001'
p2871
(lp2872
g2871
aS'Luis Perez'
p2873
aS'42.0'
p2874
aI38
aI16
aI16
aI3
aI16
aI0
aI39
asS'basta001'
p2875
(lp2876
g2875
aS'Antonio Bastardo'
p2877
aS'50.2'
p2878
aI39
aI24
aI24
aI7
aI25
aI3
aI79
asg44
(lp2879
g44
ag46
aS'189.2'
p2880
aI198
aI80
aI78
aI25
aI33
aI1
aI123
asS'furbc001'
p2881
(lp2882
g2881
aS'Charlie Furbush'
p2883
aS'46.1'
p2884
aI28
aI15
aI14
aI3
aI16
aI4
aI53
asg53
(lp2885
g53
ag55
aS'105.2'
p2886
aI112
aI50
aI42
aI10
aI36
aI2
aI74
asS'kimbc001'
p2887
(lp2888
g2887
aS'Craig Kimbrel'
p2889
aS'60.2'
p2890
aI25
aI7
aI7
aI3
aI12
aI0
aI113
asS'teafe001'
p2891
(lp2892
g2891
aS'Everett Teaford'
p2893
aS'61.1'
p2894
aI68
aI34
aI34
aI11
aI21
aI0
aI35
asg62
(lp2895
g62
ag64
aS'212.0'
p2896
aI171
aI71
aI66
aI20
aI48
aI1
aI188
asg65
(lp2897
g65
ag67
aS'64.0'
p2898
aI70
aI34
aI27
aI2
aI29
aI7
aI52
asg68
(lp2899
g68
ag70
aS'137.1'
p2900
aI139
aI73
aI70
aI17
aI35
aI1
aI98
asg71
(lp2901
g71
ag73
aS'187.1'
p2902
aI168
aI72
aI68
aI20
aI47
aI2
aI154
asg83
(lp2903
g83
ag85
aS'48.1'
p2904
aI72
aI40
aI37
aI8
aI18
aI0
aI19
asS'delar003'
p2905
(lp2906
g2905
aS'Rubby de la Rosa'
p2907
aS'0.2'
p2908
aI0
aI2
aI2
aI0
aI2
aI0
aI0
asg1025
(lp2909
g1025
ag1027
aS'98.2'
p2910
aI92
aI38
aI33
aI7
aI27
aI0
aI55
asS'dolir001'
p2911
(lp2912
g2911
aS'Rafael Dolis'
p2913
aS'37.1'
p2914
aI37
aI26
aI24
aI5
aI21
aI1
aI23
asg101
(lp2915
g101
ag103
aS'188.2'
p2916
aI195
aI93
aI84
aI20
aI46
aI3
aI159
asS'scrie001'
p2917
(lp2918
g2917
aS'Evan Scribner'
p2919
aS'35.0'
p2920
aI30
aI11
aI10
aI2
aI12
aI0
aI30
asg104
(lp2921
g104
ag106
aS'53.1'
p2922
aI42
aI21
aI19
aI3
aI19
aI2
aI56
asg110
(lp2923
g110
ag112
aS'7.1'
p2924
aI10
aI4
aI4
aI1
aI1
aI0
aI8
asS'guerm001'
p2925
(lp2926
g2925
aS'Matt Guerrier'
p2927
aS'14.0'
p2928
aI8
aI6
aI6
aI3
aI7
aI1
aI9
asS'laynt001'
p2929
(lp2930
g2929
aS'Tom Layne'
p2931
aS'16.2'
p2932
aI9
aI6
aI6
aI0
aI3
aI0
aI25
asS'crosc001'
p2933
(lp2934
g2933
aS'Casey Crosby'
p2935
aS'12.1'
p2936
aI15
aI13
aI13
aI2
aI11
aI0
aI9
asS'wilsj004'
p2937
(lp2938
g2937
aS'Justin Wilson'
p2939
aS'3.2'
p2940
aI10
aI1
aI1
aI0
aI1
aI0
aI5
asS'oswar001'
p2941
(lp2942
g2941
aS'Roy Oswalt'
p2943
aS'59.0'
p2944
aI79
aI41
aI38
aI11
aI11
aI0
aI59
asg1937
(lp2945
g1937
ag1939
aS'112.2'
p2946
aI145
aI71
aI70
aI15
aI22
aI5
aI76
asS'rapac001'
p2947
(lp2948
g2947
aS'Clay Rapada'
p2949
aS'38.0'
p2950
aI29
aI14
aI12
aI2
aI17
aI1
aI38
asS'valdr002'
p2951
(lp2952
g2951
aS'Raul Valdes'
p2953
aS'30.2'
p2954
aI18
aI10
aI10
aI3
aI5
aI1
aI35
asg152
(lp2955
g152
ag154
aS'94.1'
p2956
aI111
aI74
aI73
aI18
aI49
aI2
aI83
asS'meeke001'
p2957
(lp2958
g2957
aS'Evan Meek'
p2959
aS'12.0'
p2960
aI14
aI9
aI9
aI1
aI6
aI0
aI8
asS'crawe001'
p2961
(lp2962
g2961
aS'Evan Crawford'
p2963
aS'7.2'
p2964
aI10
aI6
aI6
aI3
aI4
aI1
aI5
asS'lewic001'
p2965
(lp2966
g2965
aS'Colby Lewis'
p2967
aS'96.2'
p2968
aI95
aI47
aI39
aI15
aI13
aI0
aI87
asS'lopew001'
p2969
(lp2970
g2969
aS'Wilton Lopez'
p2971
aS'27.1'
p2972
aI28
aI9
aI8
aI4
aI4
aI1
aI19
asg161
(lp2973
g161
ag163
aS'170.0'
p2974
aI186
aI116
aI106
aI25
aI91
aI3
aI135
asS'huffd001'
p2975
(lp2976
g2975
aS'David Huff'
p2977
aS'26.1'
p2978
aI30
aI14
aI12
aI5
aI5
aI0
aI19
asS'johnj010'
p2979
(lp2980
g2979
aS'Jim Johnson'
p2981
aS'68.2'
p2982
aI55
aI21
aI19
aI3
aI15
aI1
aI41
asg167
(lp2983
g167
ag169
aS'116.2'
p2984
aI117
aI65
aI63
aI17
aI39
aI1
aI111
asg170
(lp2985
g170
ag172
aS'123.0'
p2986
aI120
aI59
aI55
aI12
aI30
aI3
aI82
asS'romos001'
p2987
(lp2988
g2987
aS'Sergio Romo'
p2989
aS'54.0'
p2990
aI37
aI11
aI11
aI5
aI10
aI1
aI61
asS'hills003'
p2991
(lp2992
g2991
aS'Shawn Hill'
p2993
aS'3.0'
p2994
aI0
aI0
aI0
aI0
aI2
aI0
aI0
asS'pryos001'
p2995
(lp2996
g2995
aS'Stephen Pryor'
p2997
aS'22.2'
p2998
aI22
aI13
aI10
aI5
aI13
aI2
aI27
asg188
(lp2999
g188
ag190
aS'4.2'
p3000
aI5
aI5
aI5
aI1
aI2
aI0
aI4
asg191
(lp3001
g191
ag193
aS'85.0'
p3002
aI106
aI61
aI54
aI17
aI26
aI3
aI50
asS'gregk001'
p3003
(lp3004
g3003
aS'Kevin Gregg'
p3005
aS'43.2'
p3006
aI50
aI26
aI24
aI6
aI24
aI2
aI37
asg197
(lp3007
g197
ag199
aS'119.0'
p3008
aI133
aI59
aI57
aI10
aI47
aI3
aI78
asg140
(lp3009
g140
ag142
aS'169.2'
p3010
aI177
aI93
aI85
aI27
aI68
aI4
aI153
asS'schwm002'
p3011
(lp3012
g3011
aS'Michael Schwimer'
p3013
aS'34.0'
p3014
aI30
aI18
aI16
aI3
aI16
aI2
aI36
asS'rodrh002'
p3015
(lp3016
g3015
aS'Henry Rodriguez'
p3017
aS'29.0'
p3018
aI19
aI20
aI19
aI4
aI22
aI0
aI31
asS'saitt001'
p3019
(lp3020
g3019
aS'Takashi Saito'
p3021
aS'12.0'
p3022
aI17
aI14
aI11
aI4
aI5
aI1
aI11
asS'strad003'
p3023
(lp3024
g3023
aS'Dan Straily'
p3025
aS'39.1'
p3026
aI36
aI19
aI17
aI11
aI16
aI1
aI32
asS'schet001'
p3027
(lp3028
g3027
aS'Tanner Scheppers'
p3029
aS'32.0'
p3030
aI47
aI18
aI16
aI6
aI9
aI3
aI30
asS'smitj002'
p3031
(lp3032
g3031
aS'Joe Smith'
p3033
aS'66.1'
p3034
aI52
aI27
aI22
aI4
aI25
aI4
aI52
asg1952
(lp3035
g1952
ag1954
aS'106.0'
p3036
aI133
aI80
aI77
aI16
aI38
aI4
aI57
asS'webet001'
p3037
(lp3038
g3037
aS'Thad Weber'
p3039
aS'4.0'
p3040
aI10
aI4
aI4
aI0
aI2
aI0
aI1
asg218
(lp3041
g218
ag220
aS'206.0'
p3042
aI185
aI69
aI64
aI18
aI37
aI1
aI140
asg2342
(lp3043
g2342
ag2344
aS'161.2'
p3044
aI156
aI73
aI63
aI15
aI37
aI1
aI137
asg236
(lp3045
g236
ag238
aS'87.1'
p3046
aI84
aI46
aI43
aI7
aI40
aI4
aI70
asg239
(lp3047
g239
ag241
aS'38.0'
p3048
aI31
aI13
aI13
aI5
aI17
aI1
aI30
asg1961
(lp3049
g1961
ag1963
aS'61.1'
p3050
aI54
aI24
aI20
aI8
aI21
aI4
aI54
asg245
(lp3051
g245
ag247
aS'71.2'
p3052
aI80
aI35
aI29
aI6
aI24
aI6
aI45
asg248
(lp3053
g248
ag250
aS'112.2'
p3054
aI110
aI62
aI60
aI10
aI43
aI4
aI82
asg1964
(lp3055
g1964
ag1966
aS'227.2'
p3056
aI208
aI103
aI90
aI25
aI58
aI2
aI223
asg1850
(lp3057
g1850
ag1852
aS'25.0'
p3058
aI32
aI15
aI14
aI3
aI9
aI1
aI9
asg263
(lp3059
g263
ag265
aS'62.2'
p3060
aI52
aI25
aI18
aI3
aI28
aI6
aI67
asS'uehak001'
p3061
(lp3062
g3061
aS'Koji Uehara'
p3063
aS'34.2'
p3064
aI20
aI7
aI7
aI4
aI3
aI0
aI42
asg272
(lp3065
g272
ag274
aS'21.2'
p3066
aI22
aI15
aI15
aI7
aI14
aI0
aI16
asS'sants001'
p3067
(lp3068
g3067
aS'Sergio Santos'
p3069
aS'5.0'
p3070
aI6
aI5
aI5
aI1
aI4
aI0
aI4
asS'gonzm001'
p3071
(lp3072
g3071
aS'Michael Gonzalez'
p3073
aS'33.1'
p3074
aI29
aI14
aI12
aI2
aI16
aI0
aI38
asS'gonzm003'
p3075
(lp3076
g3075
aS'Miguel Gonzalez'
p3077
aS'105.0'
p3078
aI92
aI38
aI38
aI13
aI35
aI2
aI77
asg299
(lp3079
g299
ag301
aS'186.0'
p3080
aI183
aI111
aI107
aI23
aI90
aI3
aI190
asS'norbj001'
p3081
(lp3082
g3081
aS'Jordan Norberto'
p3083
aS'52.0'
p3084
aI37
aI17
aI15
aI5
aI22
aI2
aI46
asg305
(lp3085
g305
ag307
aS'211.0'
p3086
aI207
aI78
aI73
aI26
aI28
aI0
aI207
asg320
(lp3087
g320
ag322
aS'50.0'
p3088
aI55
aI29
aI25
aI6
aI29
aI1
aI35
asS'ramir003'
p3089
(lp3090
g3089
aS'Ramon Ramirez'
p3091
aS'62.1'
p3092
aI58
aI33
aI30
aI4
aI33
aI4
aI52
asg1892
(lp3093
g1892
ag1894
aS'21.0'
p3094
aI27
aI21
aI20
aI5
aI8
aI2
aI17
asg335
(lp3095
g335
ag337
aS'107.1'
p3096
aI98
aI53
aI49
aI10
aI32
aI1
aI71
asg350
(lp3097
g350
ag352
aS'3.2'
p3098
aI6
aI7
aI7
aI1
aI6
aI1
aI3
asS'loper001'
p3099
(lp3100
g3099
aS'Rodrigo Lopez'
p3101
aS'6.0'
p3102
aI8
aI6
aI4
aI0
aI5
aI0
aI2
asg353
(lp3103
g353
ag355
aS'40.1'
p3104
aI45
aI26
aI25
aI5
aI14
aI1
aI35
asg356
(lp3105
g356
ag358
aS'24.0'
p3106
aI38
aI32
aI30
aI7
aI20
aI1
aI10
asg359
(lp3107
g359
ag361
aS'63.1'
p3108
aI52
aI22
aI18
aI5
aI22
aI2
aI61
asS'fuenb001'
p3109
(lp3110
g3109
aS'Brian Fuentes'
p3111
aS'29.2'
p3112
aI36
aI24
aI24
aI6
aI15
aI0
aI24
asS'herrf001'
p3113
(lp3114
g3113
aS'Frank Herrmann'
p3115
aS'19.0'
p3116
aI12
aI5
aI5
aI1
aI4
aI0
aI14
asg371
(lp3117
g371
ag373
aS'46.0'
p3118
aI50
aI27
aI26
aI7
aI16
aI3
aI28
asg374
(lp3119
g374
ag376
aS'86.0'
p3120
aI79
aI37
aI36
aI14
aI23
aI2
aI87
asg380
(lp3121
g380
ag382
aS'173.0'
p3122
aI184
aI76
aI68
aI17
aI31
aI2
aI90
asS'kirkm001'
p3123
(lp3124
g3123
aS'Michael Kirkman'
p3125
aS'35.0'
p3126
aI24
aI16
aI15
aI5
aI17
aI1
aI38
asg389
(lp3127
g389
ag391
aS'96.1'
p3128
aI97
aI57
aI53
aI14
aI46
aI2
aI83
asS'craij001'
p3129
(lp3130
g3129
aS'Jesse Crain'
p3131
aS'48.0'
p3132
aI29
aI14
aI13
aI5
aI23
aI1
aI60
asS'albaj001'
p3133
(lp3134
g3133
aS'Jonathan Albaladejo'
p3135
aS'3.0'
p3136
aI5
aI3
aI3
aI1
aI0
aI0
aI2
asg398
(lp3137
g398
ag400
aS'127.1'
p3138
aI125
aI56
aI53
aI12
aI36
aI0
aI135
asg401
(lp3139
g401
ag403
aS'186.0'
p3140
aI210
aI113
aI107
aI33
aI45
aI3
aI134
asg410
(lp3141
g410
ag412
aS'59.0'
p3142
aI63
aI21
aI17
aI2
aI22
aI1
aI52
asg1826
(lp3143
g1826
ag1828
aS'23.1'
p3144
aI32
aI17
aI16
aI0
aI22
aI1
aI11
asS'downs001'
p3145
(lp3146
g3145
aS'Scott Downs'
p3147
aS'45.2'
p3148
aI43
aI17
aI16
aI3
aI17
aI2
aI32
asS'veald001'
p3149
(lp3150
g3149
aS'Donnie Veal'
p3151
aS'13.0'
p3152
aI5
aI2
aI2
aI0
aI4
aI0
aI19
asS'philz001'
p3153
(lp3154
g3153
aS'Zach Phillips'
p3155
aS'5.2'
p3156
aI7
aI4
aI4
aI2
aI3
aI1
aI5
asS'carrd001'
p3157
(lp3158
g3157
aS'D.J. Carrasco'
p3159
aS'3.2'
p3160
aI6
aI3
aI3
aI2
aI0
aI0
aI3
asg431
(lp3161
g431
ag433
aS'200.0'
p3162
aI184
aI93
aI84
aI16
aI74
aI0
aI156
asg434
(lp3163
g434
ag436
aS'68.1'
p3164
aI65
aI24
aI19
aI4
aI20
aI2
aI61
asg440
(lp3165
g440
ag442
aS'16.1'
p3166
aI14
aI13
aI11
aI2
aI13
aI0
aI17
asS'valdj001'
p3167
(lp3168
g3167
aS'Jose Valdez'
p3169
aS'6.0'
p3170
aI4
aI0
aI0
aI0
aI4
aI1
aI2
asS'perer002'
p3171
(lp3172
g3171
aS'Rafael Perez'
p3173
aS'7.1'
p3174
aI5
aI3
aI3
aI1
aI4
aI1
aI4
asg86
(lp3175
g86
ag88
aS'71.0'
p3176
aI77
aI46
aI38
aI7
aI34
aI1
aI47
asg2522
(lp3177
g2522
ag2524
aS'19.1'
p3178
aI24
aI5
aI5
aI0
aI4
aI0
aI13
asg458
(lp3179
g458
ag460
aS'61.2'
p3180
aI53
aI21
aI16
aI3
aI23
aI3
aI46
asg1562
(lp3181
g1562
ag1564
aS'100.1'
p3182
aI100
aI56
aI51
aI17
aI37
aI1
aI48
asg476
(lp3183
g476
ag478
aS'158.0'
p3184
aI183
aI92
aI86
aI23
aI35
aI3
aI97
asS'marss002'
p3185
(lp3186
g3185
aS'Sean Marshall'
p3187
aS'56.1'
p3188
aI53
aI17
aI17
aI3
aI15
aI1
aI68
asS'crowa001'
p3189
(lp3190
g3189
aS'Aaron Crow'
p3191
aS'64.1'
p3192
aI54
aI27
aI25
aI4
aI22
aI2
aI64
asg1379
(lp3193
g1379
ag1381
aS'75.1'
p3194
aI65
aI26
aI24
aI8
aI21
aI0
aI69
asS'eveld001'
p3195
(lp3196
g3195
aS'Dana Eveland'
p3197
aS'32.0'
p3198
aI32
aI18
aI17
aI3
aI13
aI3
aI18
asg491
(lp3199
g491
ag493
aS'1.0'
p3200
aI0
aI0
aI0
aI0
aI0
aI0
aI1
asg497
(lp3201
g497
ag499
aS'174.2'
p3202
aI191
aI85
aI77
aI12
aI52
aI0
aI106
asg2756
(lp3203
g2756
ag2758
aS'68.2'
p3204
aI71
aI30
aI28
aI7
aI19
aI1
aI43
asS'coelr001'
p3205
(lp3206
g3205
aS'Robert Coello'
p3207
aS'6.0'
p3208
aI10
aI9
aI9
aI2
aI4
aI0
aI11
asS'pestv001'
p3209
(lp3210
g3209
aS'Vinnie Pestano'
p3211
aS'69.0'
p3212
aI53
aI20
aI20
aI7
aI24
aI1
aI76
asg524
(lp3213
g524
ag526
aS'73.2'
p3214
aI61
aI29
aI23
aI7
aI21
aI4
aI49
asS'machj002'
p3215
(lp3216
g3215
aS'Jean Machi'
p3217
aS'6.1'
p3218
aI7
aI5
aI5
aI2
aI1
aI0
aI4
asS'godfg001'
p3219
(lp3220
g3219
aS'Graham Godfrey'
p3221
aS'20.2'
p3222
aI26
aI18
aI15
aI4
aI10
aI0
aI10
asS'chulv001'
p3223
(lp3224
g3223
aS'Vinnie Chulk'
p3225
aS'5.2'
p3226
aI16
aI10
aI10
aI0
aI3
aI1
aI7
asS'martj004'
p3227
(lp3228
g3227
aS'Joe Martinez'
p3229
aS'1.0'
p3230
aI2
aI1
aI1
aI0
aI0
aI0
aI1
asg548
(lp3231
g548
ag550
aS'186.0'
p3232
aI182
aI92
aI83
aI15
aI50
aI3
aI169
asg560
(lp3233
g560
ag562
aS'18.0'
p3234
aI23
aI11
aI11
aI2
aI9
aI1
aI18
asg563
(lp3235
g563
ag565
aS'1.1'
p3236
aI1
aI0
aI0
aI0
aI1
aI0
aI0
asg1526
(lp3237
g1526
ag1528
aS'125.1'
p3238
aI129
aI76
aI70
aI14
aI56
aI2
aI118
asS'macdm001'
p3239
(lp3240
g3239
aS'Mike MacDougal'
p3241
aS'4.0'
p3242
aI4
aI2
aI2
aI0
aI4
aI0
aI3
asg581
(lp3243
g581
ag583
aS'3.1'
p3244
aI7
aI4
aI4
aI1
aI5
aI0
aI2
asS'mitcd001'
p3245
(lp3246
g3245
aS'D.J. Mitchell'
p3247
aS'4.1'
p3248
aI7
aI2
aI2
aI1
aI3
aI0
aI2
asg593
(lp3249
g593
ag595
aS'55.2'
p3250
aI49
aI18
aI16
aI3
aI20
aI3
aI55
asg599
(lp3251
g599
ag601
aS'206.1'
p3252
aI212
aI122
aI113
aI18
aI88
aI1
aI159
asg605
(lp3253
g605
ag607
aS'19.0'
p3254
aI16
aI9
aI9
aI2
aI6
aI0
aI15
asg611
(lp3255
g611
ag613
aS'24.2'
p3256
aI17
aI6
aI6
aI2
aI7
aI0
aI29
asg2819
(lp3257
g2819
ag2821
aS'59.0'
p3258
aI47
aI26
aI21
aI6
aI12
aI1
aI48
asS'morrb002'
p3259
(lp3260
g3259
aS'Bryan Morris'
p3261
aS'4.0'
p3262
aI2
aI2
aI1
aI0
aI1
aI0
aI4
asg617
(lp3263
g617
ag619
aS'58.2'
p3264
aI76
aI56
aI55
aI10
aI49
aI2
aI42
asS'morrb001'
p3265
(lp3266
g3265
aS'Brandon Morrow'
p3267
aS'124.1'
p3268
aI98
aI45
aI42
aI12
aI41
aI0
aI108
asS'elbes001'
p3269
(lp3270
g3269
aS'Scott Elbert'
p3271
aS'31.1'
p3272
aI25
aI8
aI8
aI3
aI13
aI1
aI27
asg626
(lp3273
g626
ag628
aS'123.0'
p3274
aI120
aI75
aI66
aI9
aI74
aI1
aI86
asS'carpa001'
p3275
(lp3276
g3275
aS'Drew Carpenter'
p3277
aS'8.2'
p3278
aI7
aI5
aI5
aI4
aI6
aI0
aI9
asg635
(lp3279
g635
ag637
aS'146.0'
p3280
aI144
aI57
aI54
aI9
aI41
aI2
aI126
asg638
(lp3281
g638
ag640
aS'19.0'
p3282
aI18
aI11
aI11
aI2
aI7
aI0
aI11
asg32
(lp3283
g32
ag34
aS'190.1'
p3284
aI172
aI82
aI79
aI25
aI76
aI3
aI190
asS'santh001'
p3285
(lp3286
g3285
aS'Hector Santiago'
p3287
aS'70.1'
p3288
aI54
aI26
aI26
aI10
aI40
aI1
aI79
asS'seddc001'
p3289
(lp3290
g3289
aS'Chris Seddon'
p3291
aS'34.0'
p3292
aI35
aI15
aI14
aI2
aI13
aI1
aI18
asg650
(lp3293
g650
ag652
aS'70.0'
p3294
aI56
aI18
aI18
aI6
aI21
aI3
aI69
asS'villb002'
p3295
(lp3296
g3295
aS'Brayan Villarreal'
p3297
aS'54.2'
p3298
aI38
aI20
aI16
aI3
aI28
aI3
aI66
asg656
(lp3299
g656
ag658
aS'59.1'
p3300
aI72
aI42
aI42
aI13
aI15
aI4
aI43
asS'andeb004'
p3301
(lp3302
g3301
aS'Brett Anderson'
p3303
aS'34.2'
p3304
aI29
aI11
aI10
aI1
aI7
aI1
aI25
asS'sherg001'
p3305
(lp3306
g3305
aS'George Sherrill'
p3307
aS'1.0'
p3308
aI6
aI4
aI4
aI2
aI1
aI0
aI0
asS'streh001'
p3309
(lp3310
g3309
aS'Huston Street'
p3311
aS'36.2'
p3312
aI17
aI8
aI8
aI2
aI10
aI1
aI45
asg683
(lp3313
g683
ag685
aS'188.2'
p3314
aI185
aI78
aI71
aI14
aI37
aI0
aI139
asS'brumt001'
p3315
(lp3316
g3315
aS'Tyson Brummett'
p3317
aS'0.2'
p3318
aI2
aI0
aI0
aI0
aI0
aI0
aI2
asg692
(lp3319
g692
ag694
aS'166.0'
p3320
aI139
aI77
aI72
aI19
aI61
aI5
aI146
asS'cabra003'
p3321
(lp3322
g3321
aS'Alberto Cabrera'
p3323
aS'20.1'
p3324
aI16
aI15
aI13
aI1
aI18
aI1
aI25
asS'dillt001'
p3325
(lp3326
g3325
aS'Tim Dillard'
p3327
aS'34.2'
p3328
aI43
aI20
aI17
aI2
aI14
aI2
aI27
asS'lindj004'
p3329
(lp3330
g3329
aS'Josh Lindblom'
p3331
aS'67.0'
p3332
aI57
aI30
aI25
aI13
aI33
aI2
aI65
asS'enrib001'
p3333
(lp3334
g3333
aS'Barry Enright'
p3335
aS'3.2'
p3336
aI7
aI6
aI6
aI1
aI1
aI0
aI0
asS'isrij001'
p3337
(lp3338
g3337
aS'Jason Isringhausen'
p3339
aS'45.2'
p3340
aI44
aI22
aI21
aI7
aI19
aI3
aI31
asg1316
(lp3341
g1316
ag1318
aS'168.0'
p3342
aI166
aI84
aI80
aI22
aI63
aI2
aI144
asg842
(lp3343
g842
ag844
aS'76.0'
p3344
aI64
aI38
aI31
aI11
aI30
aI3
aI76
asg755
(lp3345
g755
ag757
aS'101.2'
p3346
aI113
aI74
aI73
aI23
aI44
aI1
aI85
asS'aceva001'
p3347
(lp3348
g3347
aS'Alfredo Aceves'
p3349
aS'83.2'
p3350
aI80
aI50
aI49
aI11
aI31
aI2
aI75
asS'ondrl001'
p3351
(lp3352
g3351
aS'Logan Ondrusek'
p3353
aS'52.1'
p3354
aI45
aI20
aI19
aI8
aI30
aI4
aI38
asg761
(lp3355
g761
ag763
aS'22.2'
p3356
aI17
aI17
aI17
aI4
aI14
aI0
aI22
asS'mujie001'
p3357
(lp3358
g3357
aS'Edward Mujica'
p3359
aS'64.1'
p3360
aI56
aI24
aI21
aI7
aI12
aI3
aI47
asS'lyonb003'
p3361
(lp3362
g3361
aS'Brandon Lyon'
p3363
aS'43.0'
p3364
aI40
aI16
aI16
aI4
aI16
aI2
aI45
asg773
(lp3365
g773
ag775
aS'2.0'
p3366
aI2
aI0
aI0
aI0
aI1
aI0
aI2
asg776
(lp3367
g776
ag778
aS'114.1'
p3368
aI122
aI82
aI79
aI16
aI35
aI3
aI109
asS'rodrp001'
p3369
(lp3370
g3369
aS'Paco Rodriguez'
p3371
aS'6.1'
p3372
aI3
aI1
aI1
aI0
aI4
aI1
aI6
asg1508
(lp3373
g1508
ag1510
aS'90.0'
p3374
aI92
aI39
aI37
aI13
aI22
aI2
aI80
asS'thatj001'
p3375
(lp3376
g3375
aS'Joe Thatcher'
p3377
aS'31.1'
p3378
aI30
aI13
aI12
aI2
aI14
aI3
aI39
asS'tillc001'
p3379
(lp3380
g3379
aS'Chris Tillman'
p3381
aS'85.2'
p3382
aI66
aI38
aI28
aI12
aI24
aI0
aI66
asS'cobba001'
p3383
(lp3384
g3383
aS'Alex Cobb'
p3385
aS'136.0'
p3386
aI130
aI67
aI61
aI11
aI40
aI2
aI106
asS'odorj001'
p3387
(lp3388
g3387
aS'Jake Odorizzi'
p3389
aS'7.0'
p3390
aI8
aI4
aI4
aI1
aI4
aI0
aI4
asg113
(lp3391
g113
ag115
aS'67.1'
p3392
aI47
aI21
aI19
aI4
aI21
aI1
aI97
asS'waldj001'
p3393
(lp3394
g3393
aS'Jordan Walden'
p3395
aS'39.0'
p3396
aI35
aI15
aI15
aI3
aI18
aI1
aI48
asS'perdl001'
p3397
(lp3398
g3397
aS'Luis Perdomo'
p3399
aS'17.0'
p3400
aI15
aI8
aI6
aI0
aI12
aI1
aI8
asg812
(lp3401
g812
ag814
aS'109.1'
p3402
aI108
aI56
aI50
aI12
aI29
aI0
aI97
asg818
(lp3403
g818
ag820
aS'6.0'
p3404
aI5
aI4
aI4
aI0
aI1
aI0
aI5
asS'bundd001'
p3405
(lp3406
g3405
aS'Dylan Bundy'
p3407
aS'1.1'
p3408
aI1
aI0
aI0
aI0
aI1
aI0
aI0
asg821
(lp3409
g821
ag823
aS'7.2'
p3410
aI12
aI6
aI6
aI0
aI3
aI0
aI3
asg827
(lp3411
g827
ag829
aS'66.1'
p3412
aI66
aI28
aI25
aI5
aI23
aI7
aI54
asS'palmm001'
p3413
(lp3414
g3413
aS'Matt Palmer'
p3415
aS'1.2'
p3416
aI2
aI2
aI2
aI1
aI2
aI0
aI2
asg2075
(lp3417
g2075
ag2077
aS'24.2'
p3418
aI26
aI17
aI15
aI4
aI8
aI1
aI16
asS'neshp001'
p3419
(lp3420
g3419
aS'Pat Neshek'
p3421
aS'19.1'
p3422
aI10
aI3
aI3
aI3
aI6
aI1
aI16
asg2540
(lp3423
g2540
ag2542
aS'1.0'
p3424
aI3
aI2
aI2
aI0
aI1
aI0
aI0
asS'carpd002'
p3425
(lp3426
g3425
aS'David Carpenter'
p3427
aS'39.1'
p3428
aI42
aI21
aI21
aI6
aI17
aI0
aI28
asg1991
(lp3429
g1991
ag1993
aS'63.1'
p3430
aI74
aI41
aI35
aI9
aI19
aI2
aI48
asS'shawb001'
p3431
(lp3432
g3431
aS'Bryan Shaw'
p3433
aS'58.1'
p3434
aI60
aI29
aI23
aI4
aI24
aI3
aI39
asg848
(lp3435
g848
ag850
aS'21.1'
p3436
aI35
aI20
aI19
aI5
aI7
aI3
aI18
asS'jeffj001'
p3437
(lp3438
g3437
aS'Jeremy Jeffress'
p3439
aS'13.1'
p3440
aI19
aI14
aI10
aI0
aI13
aI0
aI13
asS'dools001'
p3441
(lp3442
g3441
aS'Sean Doolittle'
p3443
aS'47.1'
p3444
aI40
aI18
aI16
aI3
aI11
aI1
aI60
asS'fienc001'
p3445
(lp3446
g3445
aS'Casey Fien'
p3447
aS'34.2'
p3448
aI25
aI9
aI8
aI3
aI9
aI4
aI32
asS'millb001'
p3449
(lp3450
g3449
aS'Brad Mills'
p3451
aS'4.2'
p3452
aI3
aI0
aI0
aI0
aI0
aI0
aI6
asg863
(lp3453
g863
ag865
aS'200.0'
p3454
aI184
aI89
aI75
aI22
aI44
aI2
aI197
asS'aardd001'
p3455
(lp3456
g3455
aS'David Aardsma'
p3457
aS'1.0'
p3458
aI1
aI1
aI1
aI1
aI1
aI0
aI1
asg881
(lp3459
g881
ag883
aS'73.1'
p3460
aI96
aI56
aI53
aI7
aI37
aI3
aI46
asg887
(lp3461
g887
ag889
aS'97.2'
p3462
aI114
aI66
aI60
aI13
aI51
aI9
aI64
asg890
(lp3463
g890
ag892
aS'191.1'
p3464
aI196
aI101
aI90
aI35
aI46
aI0
aI165
asS'mccab001'
p3465
(lp3466
g3465
aS'Brandon McCarthy'
p3467
aS'110.2'
p3468
aI115
aI44
aI40
aI10
aI24
aI2
aI73
asS'axeld001'
p3469
(lp3470
g3469
aS'Dylan Axelrod'
p3471
aS'51.0'
p3472
aI56
aI32
aI31
aI8
aI21
aI0
aI40
asS'cokep001'
p3473
(lp3474
g3473
aS'Phil Coke'
p3475
aS'54.0'
p3476
aI71
aI28
aI24
aI5
aI18
aI4
aI51
asg902
(lp3477
g902
ag904
aS'174.2'
p3478
aI202
aI106
aI94
aI28
aI47
aI2
aI100
asS'rodnf001'
p3479
(lp3480
g3479
aS'Fernando Rodney'
p3481
aS'74.2'
p3482
aI43
aI9
aI5
aI2
aI15
aI1
aI76
asS'niemj001'
p3483
(lp3484
g3483
aS'Jeff Niemann'
p3485
aS'37.2'
p3486
aI30
aI17
aI14
aI2
aI12
aI0
aI34
asg920
(lp3487
g920
ag922
aS'24.0'
p3488
aI37
aI20
aI20
aI5
aI12
aI0
aI16
asg923
(lp3489
g923
ag925
aS'201.0'
p3490
aI164
aI78
aI75
aI24
aI61
aI7
aI177
asg926
(lp3491
g926
ag928
aS'173.0'
p3492
aI155
aI71
aI66
aI19
aI52
aI0
aI153
asS'odayd001'
p3493
(lp3494
g3493
aS"Darren O'Day"
p3495
aS'67.0'
p3496
aI49
aI17
aI17
aI6
aI14
aI2
aI69
asS'rzepm001'
p3497
(lp3498
g3497
aS'Marc Rzepczynski'
p3499
aS'43.2'
p3500
aI43
aI22
aI22
aI7
aI16
aI2
aI33
asg950
(lp3501
g950
ag952
aS'103.0'
p3502
aI126
aI73
aI72
aI18
aI25
aI3
aI56
asS'paulf001'
p3503
(lp3504
g3503
aS'Felipe Paulino'
p3505
aS'37.1'
p3506
aI31
aI8
aI7
aI3
aI15
aI0
aI39
asg965
(lp3507
g965
ag967
aS'64.2'
p3508
aI83
aI51
aI48
aI7
aI19
aI2
aI44
asS'marij001'
p3509
(lp3510
g3509
aS'Jhan Marinez'
p3511
aS'2.2'
p3512
aI2
aI0
aI0
aI0
aI2
aI1
aI1
asg2102
(lp3513
g2102
ag2104
aS'219.0'
p3514
aI191
aI88
aI82
aI27
aI49
aI1
aI194
asg980
(lp3515
g980
ag982
aS'70.1'
p3516
aI48
aI20
aI19
aI5
aI29
aI2
aI87
asg986
(lp3517
g986
ag988
aS'26.0'
p3518
aI24
aI8
aI8
aI3
aI7
aI0
aI21
asS'jenkc001'
p3519
(lp3520
g3519
aS'Chad Jenkins'
p3521
aS'31.2'
p3522
aI32
aI16
aI16
aI5
aI11
aI1
aI16
asg1004
(lp3523
g1004
ag1006
aS'26.0'
p3524
aI20
aI10
aI8
aI3
aI15
aI1
aI31
asg2138
(lp3525
g2138
ag2140
aS'27.2'
p3526
aI42
aI22
aI19
aI4
aI9
aI2
aI10
asg1016
(lp3527
g1016
ag1018
aS'12.1'
p3528
aI10
aI8
aI8
aI0
aI9
aI0
aI10
asS'adamm001'
p3529
(lp3530
g3529
aS'Mike Adams'
p3531
aS'52.1'
p3532
aI56
aI21
aI19
aI4
aI17
aI1
aI45
asg1028
(lp3533
g1028
ag1030
aS'100.1'
p3534
aI85
aI41
aI38
aI13
aI30
aI0
aI94
asS'raucj001'
p3535
(lp3536
g3535
aS'Jon Rauch'
p3537
aS'56.2'
p3538
aI44
aI28
aI23
aI7
aI12
aI2
aI42
asg1031
(lp3539
g1031
ag1033
aS'168.2'
p3540
aI151
aI77
aI73
aI20
aI54
aI1
aI176
asg1040
(lp3541
g1040
ag1042
aS'184.1'
p3542
aI176
aI82
aI79
aI13
aI63
aI7
aI159
asS'clipt001'
p3543
(lp3544
g3543
aS'Tyler Clippard'
p3545
aS'70.2'
p3546
aI53
aI31
aI29
aI7
aI27
aI2
aI80
asS'thayd001'
p3547
(lp3548
g3547
aS'Dale Thayer'
p3549
aS'55.2'
p3550
aI53
aI24
aI22
aI4
aI12
aI4
aI45
asg1055
(lp3551
g1055
ag1057
aS'30.2'
p3552
aI28
aI10
aI9
aI1
aI8
aI0
aI23
asg1064
(lp3553
g1064
ag1066
aS'62.2'
p3554
aI70
aI41
aI37
aI9
aI33
aI2
aI38
asS'villp001'
p3555
(lp3556
g3555
aS'Pedro Villarreal'
p3557
aS'1.0'
p3558
aI0
aI0
aI0
aI0
aI0
aI0
aI1
asS'tatey001'
p3559
(lp3560
g3559
aS'Yoshinori Tateyama'
p3561
aS'17.0'
p3562
aI18
aI19
aI13
aI4
aI6
aI1
aI18
asg413
(lp3563
g413
ag415
aS'191.0'
p3564
aI214
aI100
aI95
aI18
aI47
aI9
aI125
asg452
(lp3565
g452
ag454
aS'217.0'
p3566
aI205
aI73
aI68
aI15
aI49
aI5
aI170
asg1088
(lp3567
g1088
ag1090
aS'28.2'
p3568
aI24
aI8
aI8
aI0
aI11
aI0
aI23
asS'cappc001'
p3569
(lp3570
g3569
aS'Carter Capps'
p3571
aS'24.2'
p3572
aI25
aI11
aI11
aI0
aI11
aI0
aI28
asg557
(lp3573
g557
ag559
aS'154.0'
p3574
aI147
aI72
aI65
aI19
aI49
aI4
aI112
asS'valdl001'
p3575
(lp3576
g3575
aS'Jairo Asencio'
p3577
aS'40.1'
p3578
aI39
aI23
aI22
aI5
aI19
aI1
aI29
asg1106
(lp3579
g1106
ag1108
aS'202.1'
p3580
aI181
aI102
aI86
aI19
aI91
aI2
aI173
asg590
(lp3581
g590
ag592
aS'106.1'
p3582
aI107
aI71
aI69
aI21
aI39
aI1
aI68
asg2210
(lp3583
g2210
ag2212
aS'202.1'
p3584
aI211
aI100
aI92
aI28
aI50
aI4
aI180
asS'grilj001'
p3585
(lp3586
g3585
aS'Jason Grilli'
p3587
aS'57.2'
p3588
aI45
aI20
aI19
aI7
aI22
aI4
aI88
asS'camps002'
p3589
(lp3590
g3589
aS'Shawn Camp'
p3591
aS'75.1'
p3592
aI76
aI32
aI31
aI7
aI18
aI4
aI52
asS'oflae001'
p3593
(lp3594
g3593
aS"Eric O'Flaherty"
p3595
aS'55.2'
p3596
aI44
aI13
aI10
aI3
aI17
aI2
aI44
asS'ramoa001'
p3597
(lp3598
g3597
aS'A.J. Ramos'
p3599
aS'9.0'
p3600
aI8
aI4
aI4
aI2
aI4
aI0
aI13
asg1130
(lp3601
g1130
ag1132
aS'0.1'
p3602
aI1
aI0
aI0
aI0
aI0
aI0
aI0
asS'fontw001'
p3603
(lp3604
g3603
aS'Wilmer Font'
p3605
aS'1.2'
p3606
aI0
aI2
aI2
aI0
aI4
aI0
aI1
asS'motag001'
p3607
(lp3608
g3607
aS'Guillermo Mota'
p3609
aS'18.2'
p3610
aI23
aI12
aI11
aI3
aI6
aI0
aI22
asg1139
(lp3611
g1139
ag1141
aS'27.1'
p3612
aI26
aI16
aI14
aI5
aI9
aI2
aI24
asS'betar001'
p3613
(lp3614
g3613
aS'Rafael Betancourt'
p3615
aS'56.2'
p3616
aI52
aI19
aI18
aI6
aI11
aI4
aI56
asS'omogb001'
p3617
(lp3618
g3617
aS'Brian Omogrosso'
p3619
aS'20.2'
p3620
aI20
aI6
aI6
aI3
aI9
aI0
aI18
asg1157
(lp3621
g1157
ag1159
aS'18.0'
p3622
aI26
aI11
aI11
aI1
aI10
aI1
aI18
asg1163
(lp3623
g1163
ag1165
aS'205.1'
p3624
aI216
aI117
aI110
aI25
aI68
aI2
aI166
asS'pheld001'
p3625
(lp3626
g3625
aS'David Phelps'
p3627
aS'99.1'
p3628
aI81
aI38
aI37
aI14
aI38
aI2
aI96
asS'lopej002'
p3629
(lp3630
g3629
aS'Javier Lopez'
p3631
aS'33.1'
p3632
aI35
aI13
aI10
aI1
aI14
aI3
aI28
asg1172
(lp3633
g1172
ag1174
aS'45.2'
p3634
aI58
aI43
aI42
aI11
aI20
aI0
aI41
asS'smitw002'
p3635
(lp3636
g3635
aS'Will Smith'
p3637
aS'89.1'
p3638
aI111
aI54
aI53
aI12
aI33
aI1
aI59
asS'melam001'
p3639
(lp3640
g3639
aS'Mark Melancon'
p3641
aS'45.0'
p3642
aI45
aI31
aI31
aI8
aI12
aI1
aI41
asS'stewz001'
p3643
(lp3644
g3643
aS'Zach Stewart'
p3645
aS'35.1'
p3646
aI58
aI40
aI35
aI14
aI4
aI0
aI19
asg1187
(lp3647
g1187
ag1189
aS'1.0'
p3648
aI0
aI0
aI0
aI0
aI1
aI0
aI1
asg1190
(lp3649
g1190
ag1192
aS'220.2'
p3650
aI167
aI70
aI64
aI16
aI61
aI4
aI220
asS'blevj001'
p3651
(lp3652
g3651
aS'Jerry Blevins'
p3653
aS'65.1'
p3654
aI45
aI20
aI18
aI7
aI25
aI5
aI54
asS'albua001'
p3655
(lp3656
g3655
aS'Al Alburquerque'
p3657
aS'13.1'
p3658
aI6
aI1
aI1
aI0
aI8
aI0
aI18
asS'vandr001'
p3659
(lp3660
g3659
aS'Rick vandenHurk'
p3661
aS'2.1'
p3662
aI5
aI4
aI4
aI0
aI1
aI0
aI3
asg1208
(lp3663
g1208
ag1210
aS'28.2'
p3664
aI39
aI23
aI21
aI5
aI10
aI1
aI26
asS'perrr001'
p3665
(lp3666
g3665
aS'Ryan Perry'
p3667
aS'7.2'
p3668
aI12
aI9
aI9
aI2
aI2
aI0
aI3
asg1214
(lp3669
g1214
ag1216
aS'192.2'
p3670
aI186
aI97
aI86
aI29
aI57
aI0
aI154
asS'vasqe001'
p3671
(lp3672
g3671
aS'Esmerling Vasquez'
p3673
aS'31.1'
p3674
aI32
aI20
aI20
aI2
aI19
aI0
aI14
asS'perem004'
p3675
(lp3676
g3675
aS'Martin Perez'
p3677
aS'37.2'
p3678
aI47
aI26
aI23
aI3
aI15
aI1
aI25
asS'demes001'
p3679
(lp3680
g3679
aS'Sam Demel'
p3681
aS'1.0'
p3682
aI2
aI1
aI1
aI0
aI1
aI1
aI0
asS'carmf001'
p3683
(lp3684
g3683
aS'Roberto Hernandez'
p3685
aS'14.1'
p3686
aI17
aI15
aI12
aI4
aI3
aI0
aI2
asS'thomr006'
p3687
(lp3688
g3687
aS'Rich Thompson'
p3689
aS'3.0'
p3690
aI6
aI4
aI4
aI1
aI1
aI0
aI3
asS'tazaj001'
p3691
(lp3692
g3691
aS'Junichi Tazawa'
p3693
aS'44.0'
p3694
aI37
aI7
aI7
aI1
aI5
aI0
aI45
asS'carpc003'
p3695
(lp3696
g3695
aS'Chris Carpenter'
p3697
aS'5.2'
p3698
aI7
aI6
aI6
aI1
aI10
aI2
aI2
asS'pereo002'
p3699
(lp3700
g3699
aS'Oliver Perez'
p3701
aS'29.1'
p3702
aI27
aI7
aI7
aI1
aI10
aI2
aI24
asg1250
(lp3703
g1250
ag1252
aS'45.0'
p3704
aI54
aI39
aI37
aI5
aI20
aI0
aI35
asS'barns002'
p3705
(lp3706
g3705
aS'Scott Barnes'
p3707
aS'18.2'
p3708
aI17
aI9
aI9
aI1
aI7
aI0
aI16
asS'carsr001'
p3709
(lp3710
g3709
aS'Robert Carson'
p3711
aS'13.1'
p3712
aI13
aI7
aI7
aI2
aI4
aI0
aI5
asg1259
(lp3713
g1259
ag1261
aS'96.2'
p3714
aI89
aI59
aI51
aI10
aI39
aI3
aI80
asg1262
(lp3715
g1262
ag1264
aS'24.0'
p3716
aI33
aI23
aI22
aI7
aI11
aI0
aI16
asS'hawkl001'
p3717
(lp3718
g3717
aS'LaTroy Hawkins'
p3719
aS'42.0'
p3720
aI45
aI20
aI17
aI5
aI13
aI1
aI23
asg1685
(lp3721
g1685
ag1687
aS'70.0'
p3722
aI63
aI26
aI22
aI7
aI29
aI1
aI61
asg1268
(lp3723
g1268
ag1270
aS'19.0'
p3724
aI18
aI5
aI4
aI2
aI11
aI1
aI8
asS'choar001'
p3725
(lp3726
g3725
aS'Randy Choate'
p3727
aS'37.1'
p3728
aI28
aI18
aI11
aI1
aI18
aI3
aI36
asg1280
(lp3729
g1280
ag1282
aS'10.0'
p3730
aI6
aI4
aI2
aI0
aI5
aI0
aI4
asS'mcalz001'
p3731
(lp3732
g3731
aS'Zach McAllister'
p3733
aS'125.0'
p3734
aI133
aI78
aI60
aI19
aI38
aI0
aI110
asg1832
(lp3735
g1832
ag1834
aS'176.2'
p3736
aI190
aI95
aI85
aI28
aI38
aI3
aI142
asS'parkb001'
p3737
(lp3738
g3737
aS'Blake Parker'
p3739
aS'5.2'
p3740
aI10
aI7
aI4
aI3
aI5
aI1
aI6
asS'ayall001'
p3741
(lp3742
g3741
aS'Luis Ayala'
p3743
aS'75.0'
p3744
aI81
aI27
aI22
aI7
aI14
aI3
aI51
asS'leagb001'
p3745
(lp3746
g3745
aS'Brandon League'
p3747
aS'72.0'
p3748
aI65
aI27
aI25
aI1
aI33
aI7
aI54
asg1304
(lp3749
g1304
ag1306
aS'15.1'
p3750
aI20
aI8
aI8
aI1
aI6
aI0
aI9
asS'wilka001'
p3751
(lp3752
g3751
aS'Adam Wilk'
p3753
aS'11.0'
p3754
aI21
aI11
aI10
aI4
aI3
aI0
aI7
asg1469
(lp3755
g1469
ag1471
aS'190.1'
p3756
aI140
aI66
aI61
aI9
aI74
aI3
aI200
asg1322
(lp3757
g1322
ag1324
aS'42.2'
p3758
aI32
aI22
aI17
aI3
aI13
aI0
aI26
asS'milla002'
p3759
(lp3760
g3759
aS'Andrew Miller'
p3761
aS'40.1'
p3762
aI28
aI15
aI15
aI3
aI20
aI1
aI51
asS'rodrf003'
p3763
(lp3764
g3763
aS'Francisco Rodriguez'
p3765
aS'70.0'
p3766
aI64
aI36
aI34
aI7
aI31
aI1
aI70
asg1334
(lp3767
g1334
ag1336
aS'67.2'
p3768
aI53
aI21
aI19
aI2
aI21
aI2
aI41
asS'rodrf004'
p3769
(lp3770
g3769
aS'Fernando Rodriguez'
p3771
aS'28.0'
p3772
aI30
aI25
aI23
aI3
aI24
aI3
aI31
asg2147
(lp3773
g2147
ag2149
aS'29.0'
p3774
aI33
aI18
aI18
aI5
aI8
aI0
aI26
asS'mottj001'
p3775
(lp3776
g3775
aS'Jason Motte'
p3777
aS'69.2'
p3778
aI48
aI23
aI22
aI9
aI16
aI1
aI84
asS'belir001'
p3779
(lp3780
g3779
aS'Ronald Belisario'
p3781
aS'71.0'
p3782
aI47
aI22
aI20
aI3
aI29
aI4
aI69
asg1340
(lp3783
g1340
ag1342
aS'69.2'
p3784
aI55
aI29
aI26
aI8
aI34
aI8
aI93
asS'beckc001'
p3785
(lp3786
g3785
aS'Chad Beck'
p3787
aS'15.2'
p3788
aI21
aI12
aI11
aI2
aI5
aI0
aI9
asS'hollg001'
p3789
(lp3790
g3789
aS'Greg Holland'
p3791
aS'66.1'
p3792
aI57
aI22
aI22
aI2
aI33
aI7
aI89
asg1352
(lp3793
g1352
ag1354
aS'6.0'
p3794
aI12
aI7
aI7
aI4
aI3
aI1
aI5
asg1361
(lp3795
g1361
ag1363
aS'202.1'
p3796
aI197
aI88
aI85
aI26
aI40
aI3
aI125
asg2336
(lp3797
g2336
ag2338
aS'189.2'
p3798
aI183
aI69
aI64
aI18
aI43
aI2
aI142
asg2357
(lp3799
g2357
ag2359
aS'114.2'
p3800
aI119
aI58
aI53
aI16
aI36
aI5
aI80
asg1382
(lp3801
g1382
ag1384
aS'26.1'
p3802
aI30
aI18
aI18
aI3
aI15
aI0
aI32
asS'lindm001'
p3803
(lp3804
g3803
aS'Matt Lindstrom'
p3805
aS'47.0'
p3806
aI45
aI17
aI14
aI2
aI14
aI2
aI40
asS'millj005'
p3807
(lp3808
g3807
aS'Jim Miller'
p3809
aS'48.2'
p3810
aI39
aI15
aI14
aI6
aI27
aI2
aI44
asS'putkl001'
p3811
(lp3812
g3811
aS'Luke Putkonen'
p3813
aS'16.0'
p3814
aI19
aI7
aI7
aI0
aI8
aI1
aI10
asg1388
(lp3815
g1388
ag1390
aS'29.0'
p3816
aI23
aI17
aI15
aI3
aI13
aI0
aI36
asS'allec002'
p3817
(lp3818
g3817
aS'Cody Allen'
p3819
aS'28.2'
p3820
aI29
aI12
aI12
aI2
aI15
aI0
aI27
asS'takah001'
p3821
(lp3822
g3821
aS'Hisanori Takahashi'
p3823
aS'49.1'
p3824
aI48
aI31
aI27
aI7
aI14
aI1
aI52
asS'marmc001'
p3825
(lp3826
g3825
aS'Carlos Marmol'
p3827
aS'53.1'
p3828
aI39
aI24
aI21
aI4
aI44
aI0
aI67
asg1391
(lp3829
g1391
ag1393
aS'177.0'
p3830
aI163
aI68
aI61
aI25
aI59
aI3
aI124
asS'hernp001'
p3831
(lp3832
g3831
aS'Pedro Hernandez'
p3833
aS'4.0'
p3834
aI12
aI8
aI8
aI3
aI1
aI0
aI2
asS'howej003'
p3835
(lp3836
g3835
aS'J.P. Howell'
p3837
aS'50.1'
p3838
aI39
aI17
aI17
aI7
aI22
aI2
aI42
asg2597
(lp3839
g2597
ag2599
aS'10.2'
p3840
aI17
aI14
aI11
aI5
aI2
aI0
aI6
asg1418
(lp3841
g1418
ag1420
aS'123.1'
p3842
aI139
aI79
aI70
aI14
aI32
aI2
aI96
asg2651
(lp3843
g2651
ag2653
aS'219.2'
p3844
aI205
aI86
aI81
aI25
aI51
aI2
aI167
asg2681
(lp3845
g2681
ag2683
aS'159.1'
p3846
aI136
aI62
aI57
aI15
aI48
aI1
aI197
asg1436
(lp3847
g1436
ag1438
aS'9.1'
p3848
aI14
aI6
aI6
aI2
aI2
aI1
aI8
asg1439
(lp3849
g1439
ag1441
aS'182.2'
p3850
aI160
aI88
aI84
aI14
aI105
aI6
aI174
asg1442
(lp3851
g1442
ag1444
aS'176.1'
p3852
aI226
aI101
aI91
aI16
aI44
aI3
aI107
asg1448
(lp3853
g1448
ag1450
aS'178.0'
p3854
aI165
aI109
aI102
aI39
aI61
aI2
aI133
asS'iwakh001'
p3855
(lp3856
g3855
aS'Hisashi Iwakuma'
p3857
aS'125.0'
p3858
aI117
aI49
aI44
aI17
aI43
aI3
aI101
asg2267
(lp3859
g2267
ag2269
aS'29.2'
p3860
aI19
aI7
aI7
aI2
aI10
aI0
aI29
asS'klubc001'
p3861
(lp3862
g3861
aS'Corey Kluber'
p3863
aS'63.0'
p3864
aI76
aI44
aI37
aI9
aI18
aI0
aI54
asg1457
(lp3865
g1457
ag1459
aS'85.1'
p3866
aI83
aI37
aI36
aI6
aI12
aI0
aI59
asS'hagan001'
p3867
(lp3868
g3867
aS'Nick Hagadone'
p3869
aS'24.1'
p3870
aI24
aI15
aI15
aI3
aI14
aI0
aI25
asS'hoovj002'
p3871
(lp3872
g3871
aS'J.J. Hoover'
p3873
aS'29.2'
p3874
aI14
aI5
aI5
aI2
aI12
aI1
aI30
asS'olsog003'
p3875
(lp3876
g3875
aS'Garrett Olson'
p3877
aS'0.1'
p3878
aI3
aI4
aI4
aI0
aI1
aI0
aI0
asg1466
(lp3879
g1466
ag1468
aS'99.0'
p3880
aI93
aI49
aI44
aI12
aI33
aI1
aI94
asS'perkg001'
p3881
(lp3882
g3881
aS'Glen Perkins'
p3883
aS'70.1'
p3884
aI57
aI25
aI20
aI8
aI16
aI3
aI78
asS'aumop001'
p3885
(lp3886
g3885
aS'Phillippe Aumont'
p3887
aS'14.0'
p3888
aI8
aI2
aI2
aI0
aI6
aI1
aI14
asg1475
(lp3889
g1475
ag1477
aS'211.2'
p3890
aI226
aI109
aI97
aI30
aI42
aI4
aI102
asS'dedus001'
p3891
(lp3892
g3891
aS'Samuel Deduno'
p3893
aS'79.0'
p3894
aI69
aI40
aI39
aI10
aI53
aI0
aI57
asS'belij001'
p3895
(lp3896
g3895
aS'Jeff Beliveau'
p3897
aS'17.1'
p3898
aI21
aI9
aI9
aI5
aI11
aI1
aI17
asg1487
(lp3899
g1487
ag1489
aS'189.1'
p3900
aI187
aI104
aI96
aI25
aI64
aI2
aI129
asS'brunb001'
p3901
(lp3902
g3901
aS'Brian Bruney'
p3903
aS'1.0'
p3904
aI0
aI0
aI0
aI0
aI2
aI0
aI2
asg1496
(lp3905
g1496
ag1498
aS'76.0'
p3906
aI45
aI20
aI17
aI6
aI26
aI1
aI65
asg1499
(lp3907
g1499
ag1501
aS'74.2'
p3908
aI41
aI21
aI20
aI4
aI28
aI2
aI72
asg224
(lp3909
g224
ag226
aS'84.1'
p3910
aI102
aI60
aI58
aI14
aI30
aI0
aI74
asg1505
(lp3911
g1505
ag1507
aS'35.2'
p3912
aI27
aI9
aI8
aI1
aI10
aI1
aI33
asS'grimj002'
p3913
(lp3914
g3913
aS'Justin Grimm'
p3915
aS'14.0'
p3916
aI22
aI14
aI14
aI1
aI3
aI0
aI13
asg1232
(lp3917
g1232
ag1234
aS'87.1'
p3918
aI84
aI39
aI33
aI9
aI42
aI3
aI53
asg1520
(lp3919
g1520
ag1522
aS'27.0'
p3920
aI27
aI19
aI19
aI8
aI21
aI2
aI33
asg1523
(lp3921
g1523
ag1525
aS'118.2'
p3922
aI107
aI53
aI48
aI15
aI40
aI2
aI104
asg2762
(lp3923
g2762
ag2764
aS'1.0'
p3924
aI1
aI0
aI0
aI0
aI0
aI0
aI0
asS'pauld001'
p3925
(lp3926
g3925
aS'David Pauley'
p3927
aS'16.2'
p3928
aI27
aI13
aI12
aI2
aI5
aI1
aI6
asg1535
(lp3929
g1535
ag1537
aS'170.1'
p3930
aI194
aI100
aI95
aI28
aI56
aI3
aI153
asS'septl001'
p3931
(lp3932
g3931
aS'Leyson Septimo'
p3933
aS'14.1'
p3934
aI8
aI8
aI8
aI3
aI6
aI1
aI14
asg1541
(lp3935
g1541
ag1543
aS'32.0'
p3936
aI34
aI18
aI17
aI4
aI17
aI1
aI17
asS'malom001'
p3937
(lp3938
g3937
aS'Matt Maloney'
p3939
aS'11.0'
p3940
aI17
aI10
aI10
aI2
aI1
aI0
aI5
asS'jepsk001'
p3941
(lp3942
g3941
aS'Kevin Jepsen'
p3943
aS'44.2'
p3944
aI39
aI16
aI15
aI3
aI12
aI1
aI38
asS'hottt001'
p3945
(lp3946
g3945
aS'Tommy Hottovy'
p3947
aS'9.0'
p3948
aI11
aI3
aI3
aI2
aI5
aI0
aI6
asS'fickc001'
p3949
(lp3950
g3949
aS'Chuckie Fick'
p3951
aS'11.2'
p3952
aI12
aI5
aI4
aI1
aI10
aI1
aI7
asg686
(lp3953
g686
ag688
aS'184.1'
p3954
aI171
aI88
aI83
aI22
aI56
aI5
aI160
asS'robed002'
p3955
(lp3956
g3955
aS'David Robertson'
p3957
aS'60.2'
p3958
aI52
aI19
aI16
aI5
aI19
aI0
aI81
asg1580
(lp3959
g1580
ag1582
aS'64.0'
p3960
aI47
aI25
aI23
aI9
aI15
aI1
aI64
asg1586
(lp3961
g1586
ag1588
aS'55.2'
p3962
aI62
aI39
aI33
aI3
aI35
aI2
aI57
asg1595
(lp3963
g1595
ag1597
aS'26.1'
p3964
aI25
aI8
aI8
aI2
aI12
aI0
aI20
asS'kintb001'
p3965
(lp3966
g3965
aS'Brandon Kintzler'
p3967
aS'16.2'
p3968
aI18
aI7
aI7
aI1
aI7
aI1
aI14
asS'sorir001'
p3969
(lp3970
g3969
aS'Rafael Soriano'
p3971
aS'67.2'
p3972
aI55
aI17
aI17
aI6
aI24
aI4
aI69
asS'mcgej001'
p3973
(lp3974
g3973
aS'Jake McGee'
p3975
aS'55.1'
p3976
aI33
aI13
aI12
aI3
aI11
aI4
aI73
asS'lidgb001'
p3977
(lp3978
g3977
aS'Brad Lidge'
p3979
aS'9.0'
p3980
aI12
aI10
aI10
aI1
aI11
aI5
aI10
asg1616
(lp3981
g1616
ag1618
aS'8.2'
p3982
aI10
aI8
aI7
aI2
aI4
aI0
aI5
asS'hendj001'
p3983
(lp3984
g3983
aS'Jim Henderson'
p3985
aS'29.1'
p3986
aI24
aI11
aI11
aI1
aI11
aI0
aI42
asg1622
(lp3987
g1622
ag1624
aS'42.0'
p3988
aI32
aI15
aI13
aI7
aI19
aI2
aI41
asg137
(lp3989
g137
ag139
aS'32.0'
p3990
aI32
aI15
aI13
aI4
aI15
aI0
aI23
asS'spenj001'
p3991
(lp3992
g3991
aS'Josh Spence'
p3993
aS'10.1'
p3994
aI13
aI5
aI5
aI1
aI5
aI1
aI10
asS'stutm001'
p3995
(lp3996
g3995
aS'Michael Stutes'
p3997
aS'5.1'
p3998
aI7
aI6
aI4
aI0
aI4
aI0
aI5
asg1247
(lp3999
g1247
ag1249
aS'11.0'
p4000
aI12
aI5
aI5
aI1
aI3
aI0
aI9
asg1067
(lp4001
g1067
ag1069
aS'72.2'
p4002
aI78
aI33
aI32
aI6
aI19
aI4
aI65
asg1646
(lp4003
g1646
ag1648
aS'193.0'
p4004
aI198
aI96
aI84
aI25
aI46
aI3
aI152
asg1652
(lp4005
g1652
ag1654
aS'79.1'
p4006
aI91
aI36
aI33
aI5
aI18
aI6
aI69
asS'wallj002'
p4007
(lp4008
g4007
aS'Josh Wall'
p4009
aS'5.1'
p4010
aI3
aI3
aI3
aI1
aI1
aI0
aI4
asS'chapj001'
p4011
(lp4012
g4011
aS'Jaye Chapman'
p4013
aS'11.0'
p4014
aI7
aI5
aI5
aI0
aI10
aI2
aI10
asS'slatd001'
p4015
(lp4016
g4015
aS'Doug Slaten'
p4017
aS'13.0'
p4018
aI9
aI4
aI4
aI1
aI8
aI0
aI6
asg269
(lp4019
g269
ag271
aS'50.1'
p4020
aI62
aI29
aI25
aI5
aI11
aI1
aI25
asg1253
(lp4021
g1253
ag1255
aS'188.2'
p4022
aI147
aI63
aI59
aI20
aI45
aI0
aI142
asS'broxj001'
p4023
(lp4024
g4023
aS'Jonathan Broxton'
p4025
aS'55.0'
p4026
aI54
aI18
aI16
aI2
aI16
aI0
aI41
asS'ambrh001'
p4027
(lp4028
g4027
aS'Hector Ambriz'
p4029
aS'8.1'
p4030
aI7
aI3
aI3
aI0
aI6
aI0
aI12
asS'byrdt001'
p4031
(lp4032
g4031
aS'Tim Byrdak'
p4033
aS'29.0'
p4034
aI17
aI16
aI15
aI2
aI18
aI5
aI32
asS'herrk001'
p4035
(lp4036
g4035
aS'Kelvin Herrera'
p4037
aS'82.2'
p4038
aI79
aI24
aI22
aI4
aI21
aI6
aI73
asS'albem001'
p4039
(lp4040
g4039
aS'Matt Albers'
p4041
aS'59.1'
p4042
aI46
aI21
aI15
aI9
aI22
aI3
aI41
asg1676
(lp4043
g1676
ag1678
aS'125.0'
p4044
aI113
aI59
aI58
aI23
aI46
aI4
aI122
asS'roset001'
p4045
(lp4046
g4045
aS'Trevor Rosenthal'
p4047
aS'21.1'
p4048
aI13
aI7
aI7
aI2
aI7
aI0
aI24
asS'schld001'
p4049
(lp4050
g4049
aS'Daniel Schlereth'
p4051
aS'6.2'
p4052
aI14
aI10
aI8
aI3
aI5
aI2
aI6
asg1691
(lp4053
g1691
ag1693
aS'45.1'
p4054
aI62
aI37
aI37
aI9
aI12
aI0
aI37
asS'storm001'
p4055
(lp4056
g4055
aS'Mickey Storey'
p4057
aS'15.0'
p4058
aI13
aI5
aI5
aI1
aI5
aI0
aI14
asS'heatd001'
p4059
(lp4060
g4059
aS'Deunte Heath'
p4061
aS'2.0'
p4062
aI1
aI1
aI1
aI1
aI1
aI0
aI1
asS'olivl001'
p4063
(lp4064
g4063
aS'Lester Oliveros'
p4065
aS'1.1'
p4066
aI1
aI1
aI1
aI0
aI1
aI0
aI1
asg1697
(lp4067
g1697
ag1699
aS'213.1'
p4068
aI210
aI82
aI78
aI22
aI59
aI0
aI133
asS'felin001'
p4069
(lp4070
g4069
aS'Neftali Feliz'
p4071
aS'37.2'
p4072
aI25
aI14
aI14
aI5
aI18
aI0
aI31
asg1490
(lp4073
g1490
ag1492
aS'66.0'
p4074
aI60
aI31
aI29
aI5
aI37
aI7
aI80
asg1709
(lp4075
g1709
ag1711
aS'192.0'
p4076
aI167
aI66
aI65
aI19
aI51
aI5
aI192
asg1712
(lp4077
g1712
ag1714
aS'136.0'
p4078
aI142
aI62
aI57
aI14
aI42
aI4
aI81
asS'gelts001'
p4079
(lp4080
g4079
aS'Steve Geltz'
p4081
aS'1.2'
p4082
aI2
aI1
aI1
aI0
aI3
aI0
aI1
asg1718
(lp4083
g1718
ag1720
aS'25.2'
p4084
aI33
aI16
aI15
aI2
aI11
aI1
aI25
asS'delas001'
p4085
(lp4086
g4085
aS'Steve Delabar'
p4087
aS'66.0'
p4088
aI46
aI29
aI28
aI12
aI26
aI1
aI92
asg1724
(lp4089
g1724
ag1726
aS'12.1'
p4090
aI19
aI11
aI8
aI0
aI2
aI1
aI8
asg1727
(lp4091
g1727
ag1729
aS'156.2'
p4092
aI143
aI97
aI93
aI19
aI87
aI5
aI167
asg1730
(lp4093
g1730
ag1732
aS'84.2'
p4094
aI89
aI61
aI56
aI13
aI33
aI5
aI44
asS'franf001'
p4095
(lp4096
g4095
aS'Frank Francisco'
p4097
aS'41.1'
p4098
aI45
aI27
aI26
aI5
aI21
aI1
aI46
asS'johns001'
p4099
(lp4100
g4099
aS'Steve Johnson'
p4101
aS'38.1'
p4102
aI23
aI9
aI9
aI4
aI18
aI1
aI46
asS'cruzj005'
p4103
(lp4104
g4103
aS'Juan Cruz'
p4105
aS'35.1'
p4106
aI39
aI12
aI11
aI3
aI19
aI0
aI33
asS'runzd001'
p4107
(lp4108
g4107
aS'Dan Runzler'
p4109
aS'3.2'
p4110
aI1
aI0
aI0
aI0
aI3
aI1
aI5
asS'harrw002'
p4111
(lp4112
g4111
aS'Will Harris'
p4113
aS'17.2'
p4114
aI27
aI18
aI16
aI3
aI6
aI1
aI19
asg1751
(lp4115
g1751
ag1753
aS'96.1'
p4116
aI106
aI57
aI54
aI15
aI31
aI8
aI62
asS'igarr001'
p4117
(lp4118
g4117
aS'Ryota Igarashi'
p4119
aS'4.0'
p4120
aI9
aI8
aI8
aI0
aI5
aI0
aI5
asg1760
(lp4121
g1760
ag1762
aS'62.1'
p4122
aI63
aI24
aI21
aI6
aI12
aI5
aI42
asg1763
(lp4123
g1763
ag1765
aS'127.1'
p4124
aI146
aI85
aI73
aI23
aI42
aI3
aI91
asS'castl002'
p4125
(lp4126
g4125
aS'Lendy Castillo'
p4127
aS'16.0'
p4128
aI24
aI16
aI14
aI2
aI12
aI0
aI13
asS'varva001'
p4129
(lp4130
g4129
aS'Anthony Varvaro'
p4131
aS'16.2'
p4132
aI16
aI11
aI10
aI2
aI9
aI1
aI21
asg1769
(lp4133
g1769
ag1771
aS'56.0'
p4134
aI54
aI28
aI28
aI5
aI26
aI5
aI59
asg1772
(lp4135
g1772
ag1774
aS'5.1'
p4136
aI10
aI6
aI6
aI1
aI4
aI0
aI2
asS'delof001'
p4137
(lp4138
g4137
aS'Fautino De Los Santos'
p4139
aS'3.0'
p4140
aI7
aI2
aI1
aI0
aI3
aI0
aI3
asg1778
(lp4141
g1778
ag1780
aS'63.0'
p4142
aI80
aI46
aI42
aI9
aI8
aI2
aI33
asg1781
(lp4143
g1781
ag1783
aS'191.1'
p4144
aI156
aI89
aI83
aI14
aI89
aI1
aI221
asS'sance001'
p4145
(lp4146
g4145
aS'Eduardo Sanchez'
p4147
aS'13.1'
p4148
aI11
aI11
aI11
aI2
aI12
aI4
aI11
asg1787
(lp4149
g1787
ag1789
aS'93.1'
p4150
aI110
aI55
aI53
aI9
aI18
aI1
aI62
asg1796
(lp4151
g1796
ag1798
aS'179.2'
p4152
aI167
aI85
aI72
aI14
aI85
aI10
aI131
asS'thorm001'
p4153
(lp4154
g4153
aS'Matt Thornton'
p4155
aS'65.0'
p4156
aI63
aI27
aI25
aI4
aI17
aI4
aI53
asS'delad001'
p4157
(lp4158
g4157
aS'Dane DeLaRosa'
p4159
aS'4.2'
p4160
aI7
aI7
aI7
aI2
aI2
aI0
aI5
asg1808
(lp4161
g1808
ag1810
aS'4.1'
p4162
aI7
aI2
aI2
aI0
aI4
aI0
aI1
asg1811
(lp4163
g1811
ag1813
aS'211.0'
p4164
aI173
aI63
aI60
aI16
aI59
aI2
aI205
asg2816
(lp4165
g2816
ag2818
aS'190.0'
p4166
aI207
aI90
aI80
aI24
aI36
aI2
aI137
asg1817
(lp4167
g1817
ag1819
aS'29.1'
p4168
aI38
aI22
aI21
aI4
aI11
aI0
aI21
asS'cooka002'
p4169
(lp4170
g4169
aS'Aaron Cook'
p4171
aS'93.2'
p4172
aI117
aI68
aI59
aI15
aI21
aI1
aI20
asS'qualc001'
p4173
(lp4174
g4173
aS'Chad Qualls'
p4175
aS'51.1'
p4176
aI63
aI34
aI31
aI7
aI14
aI4
aI26
asS'jonen001'
p4177
(lp4178
g4177
aS'Nate Jones'
p4179
aS'71.2'
p4180
aI67
aI19
aI19
aI4
aI32
aI3
aI65
asg1286
(lp4181
g1286
ag1288
aS'108.2'
p4182
aI126
aI71
aI63
aI10
aI27
aI3
aI69
asg1835
(lp4183
g1835
ag1837
aS'11.1'
p4184
aI11
aI9
aI7
aI1
aI2
aI0
aI12
asg1838
(lp4185
g1838
ag1840
aS'8.1'
p4186
aI7
aI1
aI1
aI0
aI3
aI0
aI4
asg1841
(lp4187
g1841
ag1843
aS'64.1'
p4188
aI57
aI22
aI21
aI8
aI17
aI4
aI41
asS'warra001'
p4189
(lp4190
g4189
aS'Adam Warren'
p4191
aS'2.0'
p4192
aI8
aI6
aI6
aI2
aI2
aI0
aI1
asS'hillr001'
p4193
(lp4194
g4193
aS'Rich Hill'
p4195
aS'19.1'
p4196
aI17
aI4
aI4
aI0
aI11
aI1
aI21
asS'duffd001'
p4197
(lp4198
g4197
aS'Danny Duffy'
p4199
aS'27.1'
p4200
aI26
aI13
aI12
aI2
aI18
aI1
aI28
asS'colel001'
p4201
(lp4202
g4201
aS'Louis Coleman'
p4203
aS'49.0'
p4204
aI36
aI18
aI16
aI8
aI25
aI3
aI60
asS'cordf002'
p4205
(lp4206
g4205
aS'Francisco Cordero'
p4207
aS'37.0'
p4208
aI56
aI29
aI27
aI8
aI15
aI4
aI27
asS'richs001'
p4209
(lp4210
g4209
aS'Scott Richmond'
p4211
aS'3.0'
p4212
aI5
aI2
aI2
aI1
aI0
aI0
aI2
asg1880
(lp4213
g1880
ag1882
aS'29.0'
p4214
aI30
aI20
aI19
aI6
aI13
aI0
aI21
asS'logab001'
p4215
(lp4216
g4215
aS'Boone Logan'
p4217
aS'55.1'
p4218
aI48
aI23
aI23
aI6
aI28
aI6
aI68
asS'socom001'
p4219
(lp4220
g4219
aS'Miguel Socolovich'
p4221
aS'15.2'
p4222
aI15
aI11
aI11
aI3
aI8
aI0
aI12
asg1907
(lp4223
g1907
ag1909
aS'69.1'
p4224
aI72
aI39
aI36
aI6
aI26
aI5
aI57
asg1910
(lp4225
g1910
ag1912
aS'179.1'
p4226
aI151
aI88
aI83
aI26
aI56
aI7
aI145
asg20
(lp4227
g20
ag22
aS'142.1'
p4228
aI127
aI77
aI71
aI24
aI51
aI3
aI110
asg1919
(lp4229
g1919
ag1921
aS'150.0'
p4230
aI149
aI75
aI75
aI16
aI34
aI0
aI125
asS'grayj002'
p4231
(lp4232
g4231
aS'Jeff Gray'
p4233
aS'52.0'
p4234
aI58
aI34
aI33
aI9
aI22
aI0
aI26
asg1934
(lp4235
g1934
ag1936
aS'177.1'
p4236
aI158
aI85
aI75
aI18
aI81
aI5
aI175
asS'putnz001'
p4237
(lp4238
g4237
aS'Zach Putnam'
p4239
aS'1.2'
p4240
aI3
aI0
aI0
aI0
aI1
aI0
aI0
asS'patej001'
p4241
(lp4242
g4241
aS'Joe Paterson'
p4243
aS'2.1'
p4244
aI15
aI11
aI11
aI2
aI3
aI0
aI0
asS'kontg001'
p4245
(lp4246
g4245
aS'George Kontos'
p4247
aS'41.0'
p4248
aI34
aI15
aI12
aI3
aI12
aI0
aI40
asS'burtj001'
p4249
(lp4250
g4249
aS'Jared Burton'
p4251
aS'62.0'
p4252
aI41
aI21
aI15
aI5
aI16
aI1
aI55
asg242
(lp4253
g242
ag244
aS'48.2'
p4254
aI70
aI36
aI31
aI9
aI17
aI2
aI34
asS'chamj002'
p4255
(lp4256
g4255
aS'Joba Chamberlain'
p4257
aS'20.1'
p4258
aI26
aI11
aI10
aI3
aI6
aI2
aI22
asg1970
(lp4259
g1970
ag1972
aS'183.2'
p4260
aI164
aI72
aI67
aI16
aI61
aI7
aI151
asg1973
(lp4261
g1973
ag1975
aS'106.1'
p4262
aI121
aI46
aI41
aI5
aI24
aI1
aI89
asS'farnk001'
p4263
(lp4264
g4263
aS'Kyle Farnsworth'
p4265
aS'26.2'
p4266
aI22
aI13
aI12
aI1
aI14
aI2
aI25
asS'ventj001'
p4267
(lp4268
g4267
aS'Jonny Venters'
p4269
aS'56.2'
p4270
aI60
aI23
aI21
aI6
aI27
aI3
aI65
asg1982
(lp4271
g1982
ag1984
aS'181.1'
p4272
aI166
aI71
aI70
aI11
aI63
aI3
aI140
asS'edgij001'
p4273
(lp4274
g4273
aS'Josh Edgin'
p4275
aS'25.1'
p4276
aI19
aI14
aI13
aI5
aI10
aI0
aI30
asS'horsj001'
p4277
(lp4278
g4277
aS'Jeremy Horst'
p4279
aS'30.0'
p4280
aI20
aI7
aI4
aI1
aI14
aI1
aI37
asS'beatp001'
p4281
(lp4282
g4281
aS'Pedro Beato'
p4283
aS'12.0'
p4284
aI11
aI9
aI9
aI1
aI5
aI0
aI12
asg1988
(lp4285
g1988
ag1990
aS'32.1'
p4286
aI33
aI15
aI15
aI0
aI14
aI1
aI17
asS'cruzr001'
p4287
(lp4288
g4287
aS'Rhiner Cruz'
p4289
aS'29.0'
p4290
aI41
aI22
aI22
aI4
aI16
aI0
aI20
asg2003
(lp4291
g2003
ag2005
aS'22.0'
p4292
aI19
aI7
aI7
aI4
aI9
aI0
aI19
asg2009
(lp4293
g2009
ag2011
aS'157.1'
p4294
aI146
aI73
aI62
aI14
aI50
aI0
aI103
asg2018
(lp4295
g2018
ag2020
aS'107.0'
p4296
aI112
aI64
aI62
aI18
aI35
aI2
aI89
asg2024
(lp4297
g2024
ag2026
aS'4.2'
p4298
aI4
aI1
aI1
aI1
aI2
aI0
aI9
asg2027
(lp4299
g2027
ag2029
aS'208.1'
p4300
aI183
aI76
aI70
aI22
aI51
aI3
aI208
asS'mansj001'
p4301
(lp4302
g4301
aS'Jeff Manship'
p4303
aS'21.1'
p4304
aI29
aI19
aI19
aI4
aI7
aI1
aI12
asS'koreb001'
p4305
(lp4306
g4305
aS'Bobby Korecky'
p4307
aS'1.0'
p4308
aI1
aI2
aI2
aI1
aI1
aI0
aI0
asS'peraj002'
p4309
(lp4310
g4309
aS'Joel Peralta'
p4311
aS'67.0'
p4312
aI49
aI28
aI27
aI9
aI17
aI2
aI84
asS'holld003'
p4313
(lp4314
g4313
aS'Derek Holland'
p4315
aS'170.1'
p4316
aI157
aI95
aI87
aI29
aI50
aI0
aI139
asg2042
(lp4317
g2042
ag2044
aS'50.0'
p4318
aI67
aI34
aI34
aI8
aI19
aI0
aI47
asg2048
(lp4319
g2048
ag2050
aS'98.1'
p4320
aI143
aI81
aI81
aI23
aI26
aI0
aI42
asg737
(lp4321
g737
ag739
aS'24.1'
p4322
aI34
aI29
aI27
aI7
aI11
aI1
aI30
asg1313
(lp4323
g1313
ag1315
aS'34.1'
p4324
aI37
aI13
aI10
aI4
aI13
aI2
aI22
asS'myerb001'
p4325
(lp4326
g4325
aS'Brett Myers'
p4327
aS'47.2'
p4328
aI42
aI18
aI17
aI6
aI11
aI2
aI30
asg2069
(lp4329
g2069
ag2071
aS'135.2'
p4330
aI172
aI84
aI77
aI10
aI50
aI5
aI54
asS'acosm001'
p4331
(lp4332
g4331
aS'Manny Acosta'
p4333
aS'44.0'
p4334
aI40
aI34
aI30
aI7
aI25
aI1
aI43
asg2087
(lp4335
g2087
ag2089
aS'182.0'
p4336
aI179
aI88
aI82
aI20
aI70
aI6
aI113
asg857
(lp4337
g857
ag859
aS'22.0'
p4338
aI23
aI16
aI15
aI5
aI7
aI1
aI21
asg2096
(lp4339
g2096
ag2098
aS'18.1'
p4340
aI16
aI11
aI11
aI2
aI9
aI0
aI11
asg2099
(lp4341
g2099
ag2101
aS'174.2'
p4342
aI195
aI88
aI79
aI21
aI39
aI2
aI112
asS'papej001'
p4343
(lp4344
g4343
aS'Jonathan Papelbon'
p4345
aS'70.0'
p4346
aI56
aI22
aI20
aI8
aI18
aI1
aI92
asS'chapa001'
p4347
(lp4348
g4347
aS'Aroldis Chapman'
p4349
aS'66.2'
p4350
aI33
aI13
aI12
aI4
aI22
aI0
aI110
asg2117
(lp4351
g2117
ag2119
aS'161.0'
p4352
aI168
aI86
aI76
aI13
aI56
aI3
aI107
asS'reeda001'
p4353
(lp4354
g4353
aS'Addison Reed'
p4355
aS'55.0'
p4356
aI57
aI30
aI29
aI6
aI18
aI3
aI54
asS'guerj002'
p4357
(lp4358
g4357
aS'Javy Guerra'
p4359
aS'44.0'
p4360
aI44
aI13
aI13
aI1
aI23
aI5
aI35
asS'atchs001'
p4361
(lp4362
g4361
aS'Scott Atchison'
p4363
aS'51.1'
p4364
aI42
aI10
aI9
aI2
aI9
aI3
aI36
asg2135
(lp4365
g2135
ag2137
aS'187.0'
p4366
aI181
aI83
aI76
aI15
aI60
aI1
aI164
asS'burna002'
p4367
(lp4368
g4367
aS'Alex Burnett'
p4369
aS'71.2'
p4370
aI71
aI33
aI28
aI4
aI26
aI5
aI36
asS'rivem002'
p4371
(lp4372
g4371
aS'Mariano Rivera'
p4373
aS'8.0'
p4374
aI6
aI2
aI2
aI0
aI2
aI2
aI8
asS'egbej001'
p4375
(lp4376
g4375
aS'Jack Egbert'
p4377
aS'0.2'
p4378
aI0
aI0
aI0
aI0
aI0
aI0
aI0
asg2165
(lp4379
g2165
ag2167
aS'5.1'
p4380
aI9
aI9
aI7
aI3
aI7
aI1
aI5
asg2174
(lp4381
g2174
ag2176
aS'32.0'
p4382
aI50
aI24
aI24
aI5
aI15
aI0
aI15
asg2180
(lp4383
g2180
ag2182
aS'177.2'
p4384
aI197
aI127
aI118
aI27
aI57
aI3
aI138
asg2183
(lp4385
g2183
ag2185
aS'30.1'
p4386
aI26
aI10
aI9
aI0
aI2
aI0
aI21
asS'wilht001'
p4387
(lp4388
g4387
aS'Tom Wilhelmsen'
p4389
aS'79.0'
p4390
aI59
aI24
aI22
aI5
aI29
aI3
aI87
asS'cookr001'
p4391
(lp4392
g4391
aS'Ryan Cook'
p4393
aS'73.1'
p4394
aI42
aI18
aI17
aI4
aI27
aI4
aI80
asS'stord001'
p4395
(lp4396
g4395
aS'Drew Storen'
p4397
aS'28.0'
p4398
aI21
aI8
aI8
aI0
aI5
aI0
aI22
asg1550
(lp4399
g1550
ag1552
aS'78.0'
p4400
aI82
aI46
aI45
aI11
aI30
aI1
aI91
asg1640
(lp4401
g1640
ag1642
aS'50.2'
p4402
aI50
aI30
aI26
aI5
aI30
aI2
aI42
asS'pattt001'
p4403
(lp4404
g4403
aS'Troy Patton'
p4405
aS'55.2'
p4406
aI45
aI15
aI15
aI5
aI12
aI2
aI49
asg2222
(lp4407
g2222
ag2224
aS'46.1'
p4408
aI49
aI25
aI21
aI6
aI8
aI0
aI29
asS'hanrj001'
p4409
(lp4410
g4409
aS'Joel Hanrahan'
p4411
aS'56.2'
p4412
aI37
aI17
aI17
aI8
aI35
aI0
aI61
asg2228
(lp4413
g2228
ag2230
aS'117.2'
p4414
aI104
aI48
aI45
aI9
aI42
aI2
aI113
asg2231
(lp4415
g2231
ag2233
aS'78.0'
p4416
aI82
aI41
aI40
aI6
aI30
aI4
aI82
asg482
(lp4417
g482
ag484
aS'59.1'
p4418
aI60
aI42
aI41
aI9
aI43
aI1
aI38
asg2243
(lp4419
g2243
ag2245
aS'50.0'
p4420
aI59
aI26
aI25
aI7
aI15
aI3
aI51
asg2249
(lp4421
g2249
ag2251
aS'187.2'
p4422
aI179
aI82
aI79
aI23
aI60
aI2
aI231
asg2252
(lp4423
g2252
ag2254
aS'238.1'
p4424
aI192
aI80
aI70
aI19
aI60
aI2
aI239
asg2255
(lp4425
g2255
ag2257
aS'14.0'
p4426
aI20
aI11
aI10
aI1
aI5
aI0
aI4
asg2261
(lp4427
g2261
ag2263
aS'68.0'
p4428
aI57
aI40
aI35
aI10
aI38
aI2
aI91
asS'olivd001'
p4429
(lp4430
g4429
aS'Darren Oliver'
p4431
aS'56.2'
p4432
aI43
aI13
aI13
aI3
aI15
aI0
aI52
asg2273
(lp4433
g2273
ag2275
aS'136.1'
p4434
aI100
aI24
aI22
aI6
aI23
aI0
aI120
asS'arrej001'
p4435
(lp4436
g4435
aS'Jose Arredondo'
p4437
aS'58.0'
p4438
aI47
aI24
aI18
aI6
aI32
aI2
aI58
asS'bracb001'
p4439
(lp4440
g4439
aS'Brad Brach'
p4441
aS'64.2'
p4442
aI50
aI28
aI28
aI11
aI32
aI6
aI74
asg2738
(lp4443
g2738
ag2740
aS'9.0'
p4444
aI7
aI1
aI1
aI1
aI5
aI0
aI3
asg2285
(lp4445
g2285
ag2287
aS'227.2'
p4446
aI189
aI75
aI68
aI23
aI52
aI2
aI224
asS'verdr001'
p4447
(lp4448
g4447
aS'Ryan Verdugo'
p4449
aS'1.1'
p4450
aI8
aI6
aI6
aI1
aI2
aI0
aI2
asS'veraj001'
p4451
(lp4452
g4451
aS'Jose Veras'
p4453
aS'62.2'
p4454
aI58
aI28
aI27
aI5
aI39
aI1
aI75
asg1670
(lp4455
g1670
ag1672
aS'6.0'
p4456
aI10
aI7
aI5
aI2
aI2
aI0
aI6
asS'nathj001'
p4457
(lp4458
g4457
aS'Joe Nathan'
p4459
aS'63.1'
p4460
aI55
aI23
aI20
aI7
aI13
aI1
aI77
asg2306
(lp4461
g2306
ag2308
aS'208.1'
p4462
aI183
aI86
aI79
aI23
aI49
aI6
aI191
asg2309
(lp4463
g2309
ag2311
aS'13.2'
p4464
aI11
aI2
aI2
aI0
aI4
aI0
aI10
asg1823
(lp4465
g1823
ag1825
aS'55.0'
p4466
aI50
aI32
aI27
aI9
aI16
aI3
aI36
asg2315
(lp4467
g2315
ag2317
aS'55.0'
p4468
aI57
aI16
aI13
aI4
aI12
aI3
aI56
asS'caria001'
p4469
(lp4470
g4469
aS'Andrew Carignan'
p4471
aS'9.1'
p4472
aI8
aI5
aI5
aI0
aI10
aI0
aI8
asS'cletm001'
p4473
(lp4474
g4473
aS'Maikel Cleto'
p4475
aS'6.1'
p4476
aI9
aI6
aI6
aI3
aI1
aI0
aI12
asS'buenf001'
p4477
(lp4478
g4477
aS'Francisley Bueno'
p4479
aS'17.1'
p4480
aI16
aI4
aI3
aI0
aI2
aI1
aI7
asS'frasj002'
p4481
(lp4482
g4481
aS'Jason Frasor'
p4483
aS'43.2'
p4484
aI42
aI20
aI20
aI6
aI22
aI1
aI53
asS'wheed001'
p4485
(lp4486
g4485
aS'Dan Wheeler'
p4487
aS'12.1'
p4488
aI17
aI12
aI12
aI3
aI7
aI0
aI2
asS'balec001'
p4489
(lp4490
g4489
aS'Collin Balester'
p4491
aS'18.0'
p4492
aI14
aI14
aI13
aI5
aI11
aI1
aI12
asg896
(lp4493
g896
ag898
aS'179.0'
p4494
aI168
aI77
aI72
aI12
aI48
aI2
aI102
asS'diekj001'
p4495
(lp4496
g4495
aS'Jake Diekman'
p4497
aS'25.2'
p4498
aI22
aI16
aI11
aI1
aI20
aI3
aI34
asS'martv002'
p4499
(lp4500
g4499
aS'Victor Marte'
p4501
aS'38.0'
p4502
aI48
aI21
aI21
aI6
aI13
aI2
aI34
asg2351
(lp4503
g2351
ag2353
aS'23.0'
p4504
aI18
aI4
aI4
aI2
aI5
aI0
aI25
asS'kells001'
p4505
(lp4506
g4505
aS'Shawn Kelley'
p4507
aS'44.1'
p4508
aI43
aI20
aI16
aI5
aI15
aI6
aI45
asg2360
(lp4509
g2360
ag2362
aS'29.2'
p4510
aI28
aI15
aI15
aI7
aI7
aI0
aI26
asS'brayb001'
p4511
(lp4512
g4511
aS'Bill Bray'
p4513
aS'8.0'
p4514
aI5
aI5
aI5
aI2
aI14
aI0
aI7
asg2375
(lp4515
g2375
ag2377
aS'40.2'
p4516
aI47
aI37
aI37
aI7
aI20
aI0
aI40
asS'robet001'
p4517
(lp4518
g4517
aS'Tyler Robertson'
p4519
aS'24.2'
p4520
aI21
aI16
aI15
aI4
aI14
aI3
aI26
asg2384
(lp4521
g2384
ag2386
aS'62.1'
p4522
aI57
aI23
aI19
aI1
aI23
aI1
aI56
asS'putzj001'
p4523
(lp4524
g4523
aS'J.J. Putz'
p4525
aS'53.1'
p4526
aI44
aI18
aI17
aI4
aI11
aI1
aI63
asS'maron001'
p4527
(lp4528
g4527
aS'Nick Maronde'
p4529
aS'5.2'
p4530
aI6
aI1
aI1
aI0
aI3
aI0
aI7
asg2399
(lp4531
g2399
ag2401
aS'4.1'
p4532
aI9
aI8
aI7
aI2
aI1
aI0
aI0
asg2774
(lp4533
g2774
ag2776
aS'71.1'
p4534
aI67
aI41
aI37
aI10
aI47
aI0
aI47
asS'valvj001'
p4535
(lp4536
g4535
aS'Jose Valverde'
p4537
aS'69.0'
p4538
aI59
aI34
aI29
aI3
aI27
aI5
aI48
asS'luetl001'
p4539
(lp4540
g4539
aS'Lucas Luetge'
p4541
aS'40.2'
p4542
aI37
aI20
aI18
aI3
aI24
aI6
aI38
asS'cofft001'
p4543
(lp4544
g4543
aS'Todd Coffey'
p4545
aS'19.0'
p4546
aI17
aI11
aI10
aI1
aI9
aI1
aI18
asS'ortej001'
p4547
(lp4548
g4547
aS'Jose Ortega'
p4549
aS'2.1'
p4550
aI3
aI1
aI1
aI1
aI1
aI0
aI4
asg2411
(lp4551
g2411
ag2413
aS'66.0'
p4552
aI84
aI57
aI45
aI12
aI19
aI1
aI39
asS'jansk001'
p4553
(lp4554
g4553
aS'Kenley Jansen'
p4555
aS'63.1'
p4556
aI33
aI18
aI17
aI6
aI20
aI1
aI96
asg2420
(lp4557
g2420
ag2422
aS'151.1'
p4558
aI186
aI95
aI92
aI23
aI49
aI1
aI102
asg89
(lp4559
g89
ag91
aS'86.0'
p4560
aI70
aI27
aI23
aI7
aI35
aI4
aI86
asS'grifa002'
p4561
(lp4562
g4561
aS'A.J. Griffin'
p4563
aS'82.0'
p4564
aI74
aI29
aI28
aI10
aI19
aI0
aI64
asS'contj002'
p4565
(lp4566
g4565
aS'Jose Contreras'
p4567
aS'13.2'
p4568
aI13
aI10
aI8
aI1
aI3
aI0
aI15
asS'doteo001'
p4569
(lp4570
g4569
aS'Octavio Dotel'
p4571
aS'58.0'
p4572
aI50
aI23
aI23
aI3
aI12
aI4
aI62
asg2441
(lp4573
g2441
ag2443
aS'17.2'
p4574
aI16
aI12
aI10
aI2
aI12
aI3
aI15
asS'tayla002'
p4575
(lp4576
g4575
aS'Andrew Taylor'
p4577
aS'2.0'
p4578
aI3
aI3
aI3
aI0
aI4
aI0
aI0
asS'accaj001'
p4579
(lp4580
g4579
aS'Jeremy Accardo'
p4581
aS'36.1'
p4582
aI38
aI18
aI17
aI2
aI16
aI1
aI29
asS'britz001'
p4583
(lp4584
g4583
aS'Zach Britton'
p4585
aS'60.1'
p4586
aI61
aI37
aI35
aI6
aI32
aI3
aI53
asS'waldk001'
p4587
(lp4588
g4587
aS'Kyle Waldrop'
p4589
aS'21.0'
p4590
aI27
aI6
aI6
aI2
aI6
aI1
aI7
asg2453
(lp4591
g2453
ag2455
aS'163.0'
p4592
aI164
aI81
aI73
aI19
aI44
aI2
aI78
asg2456
(lp4593
g2456
ag2458
aS'59.1'
p4594
aI42
aI19
aI18
aI5
aI26
aI0
aI70
asS'devrc001'
p4595
(lp4596
g4595
aS'Cole De Vries'
p4597
aS'87.1'
p4598
aI88
aI48
aI40
aI16
aI18
aI0
aI58
asS'garcc002'
p4599
(lp4600
g4599
aS'Christian Garcia'
p4601
aS'12.2'
p4602
aI8
aI3
aI3
aI2
aI2
aI0
aI15
asg2468
(lp4603
g2468
ag2470
aS'49.1'
p4604
aI52
aI21
aI19
aI6
aI13
aI1
aI35
asS'cappm001'
p4605
(lp4606
g4605
aS'Matt Capps'
p4607
aS'29.0'
p4608
aI28
aI13
aI12
aI5
aI4
aI1
aI18
asg2480
(lp4609
g2480
ag2482
aS'14.2'
p4610
aI17
aI9
aI8
aI3
aI6
aI0
aI10
asS'pomes001'
p4611
(lp4612
g4611
aS'Stuart Pomeranz'
p4613
aS'5.2'
p4614
aI7
aI2
aI2
aI1
aI1
aI0
aI3
asS'dysos001'
p4615
(lp4616
g4615
aS'Sam Dyson'
p4617
aS'0.2'
p4618
aI4
aI3
aI3
aI0
aI2
aI0
aI1
asg2486
(lp4619
g2486
ag2488
aS'152.0'
p4620
aI168
aI76
aI75
aI23
aI24
aI0
aI67
asg2489
(lp4621
g2489
ag2491
aS'4.2'
p4622
aI7
aI4
aI3
aI1
aI3
aI0
aI5
asg2510
(lp4623
g2510
ag2512
aS'78.2'
p4624
aI76
aI42
aI40
aI9
aI34
aI7
aI81
asg620
(lp4625
g620
ag622
aS'21.0'
p4626
aI24
aI13
aI13
aI1
aI20
aI1
aI22
asS'downd001'
p4627
(lp4628
g4627
aS'Darin Downs'
p4629
aS'20.1'
p4630
aI18
aI8
aI8
aI1
aI9
aI2
aI20
asg2519
(lp4631
g2519
ag2521
aS'97.2'
p4632
aI112
aI61
aI53
aI15
aI41
aI4
aI81
asg1601
(lp4633
g1601
ag1603
aS'44.0'
p4634
aI55
aI29
aI28
aI3
aI19
aI2
aI26
asS'strop001'
p4635
(lp4636
g4635
aS'Pedro Strop'
p4637
aS'66.1'
p4638
aI52
aI18
aI18
aI2
aI37
aI2
aI58
asg2528
(lp4639
g2528
ag2530
aS'131.0'
p4640
aI122
aI58
aI52
aI18
aI28
aI0
aI137
asg779
(lp4641
g779
ag781
aS'217.1'
p4642
aI201
aI94
aI93
aI35
aI55
aI1
aI141
asg2537
(lp4643
g2537
ag2539
aS'53.2'
p4644
aI57
aI35
aI34
aI7
aI23
aI0
aI30
asS'baila001'
p4645
(lp4646
g4645
aS'Andrew Bailey'
p4647
aS'15.1'
p4648
aI21
aI12
aI12
aI2
aI8
aI2
aI14
asg2543
(lp4649
g2543
ag2545
aS'61.1'
p4650
aI70
aI40
aI39
aI11
aI23
aI0
aI51
asS'lowem002'
p4651
(lp4652
g4651
aS'Mark Lowe'
p4653
aS'38.0'
p4654
aI35
aI15
aI15
aI5
aI13
aI0
aI27
asg2591
(lp4655
g2591
ag2593
aS'44.0'
p4656
aI49
aI31
aI26
aI3
aI29
aI8
aI47
asS'cassb001'
p4657
(lp4658
g4657
aS'Bobby Cassevah'
p4659
aS'4.2'
p4660
aI5
aI4
aI4
aI2
aI6
aI1
aI2
asg2606
(lp4661
g2606
ag2608
aS'16.0'
p4662
aI20
aI10
aI10
aI2
aI9
aI0
aI8
asg2609
(lp4663
g2609
ag2611
aS'57.1'
p4664
aI65
aI31
aI28
aI11
aI17
aI4
aI51
asg2612
(lp4665
g2612
ag2614
aS'163.0'
p4666
aI157
aI73
aI71
aI15
aI60
aI3
aI160
asg1127
(lp4667
g1127
ag1129
aS'1.2'
p4668
aI4
aI2
aI2
aI0
aI1
aI0
aI0
asS'waltp001'
p4669
(lp4670
g4669
aS'P.J. Walters'
p4671
aS'61.2'
p4672
aI71
aI41
aI39
aI12
aI22
aI1
aI42
asg2627
(lp4673
g2627
ag2629
aS'51.0'
p4674
aI67
aI36
aI33
aI7
aI21
aI1
aI50
asS'frees001'
p4675
(lp4676
g4675
aS'Sam Freeman'
p4677
aS'16.2'
p4678
aI16
aI12
aI12
aI2
aI10
aI0
aI14
asS'durbc001'
p4679
(lp4680
g4679
aS'Chad Durbin'
p4681
aS'60.0'
p4682
aI49
aI23
aI20
aI8
aI28
aI3
aI48
asS'kinnj001'
p4683
(lp4684
g4683
aS'Josh Kinney'
p4685
aS'31.2'
p4686
aI24
aI14
aI14
aI3
aI15
aI3
aI36
asS'benoj001'
p4687
(lp4688
g4687
aS'Joaquin Benoit'
p4689
aS'71.0'
p4690
aI59
aI31
aI29
aI14
aI22
aI2
aI84
asS'moylp001'
p4691
(lp4692
g4691
aS'Peter Moylan'
p4693
aS'4.2'
p4694
aI3
aI3
aI1
aI1
aI2
aI0
aI2
asS'gearc001'
p4695
(lp4696
g4695
aS'Cory Gearrin'
p4697
aS'19.2'
p4698
aI17
aI4
aI4
aI1
aI5
aI0
aI20
asg2654
(lp4699
g2654
ag2656
aS'10.1'
p4700
aI11
aI9
aI8
aI2
aI9
aI1
aI6
asg2660
(lp4701
g2660
ag2662
aS'40.0'
p4702
aI40
aI21
aI20
aI4
aI18
aI1
aI43
asS'ekstm001'
p4703
(lp4704
g4703
aS'Mike Ekstrom'
p4705
aS'15.2'
p4706
aI21
aI11
aI11
aI1
aI2
aI0
aI9
asg2663
(lp4707
g2663
ag2665
aS'170.1'
p4708
aI174
aI91
aI88
aI21
aI52
aI6
aI132
asg1700
(lp4709
g1700
ag1702
aS'166.0'
p4710
aI176
aI84
aI79
aI15
aI59
aI3
aI104
asg2675
(lp4711
g2675
ag2677
aS'198.1'
p4712
aI188
aI91
aI82
aI25
aI54
aI4
aI162
asS'jansc001'
p4713
(lp4714
g4713
aS'Casey Janssen'
p4715
aS'63.2'
p4716
aI44
aI18
aI18
aI7
aI11
aI1
aI67
asg287
(lp4717
g287
ag289
aS'51.1'
p4718
aI37
aI21
aI20
aI5
aI22
aI1
aI50
asg2396
(lp4719
g2396
ag2398
aS'19.2'
p4720
aI29
aI21
aI13
aI5
aI7
aI0
aI11
asg2687
(lp4721
g2687
ag2689
aS'13.1'
p4722
aI15
aI8
aI8
aI4
aI2
aI1
aI13
asS'wilsb001'
p4723
(lp4724
g4723
aS'Brian Wilson'
p4725
aS'1.2'
p4726
aI4
aI2
aI2
aI0
aI2
aI0
aI2
asg2705
(lp4727
g2705
ag2707
aS'12.2'
p4728
aI9
aI2
aI2
aI0
aI4
aI0
aI15
asS'romej001'
p4729
(lp4730
g4729
aS'J.C. Romero'
p4731
aS'10.2'
p4732
aI19
aI11
aI10
aI3
aI3
aI0
aI5
asg2711
(lp4733
g2711
ag2713
aS'21.2'
p4734
aI24
aI11
aI11
aI8
aI7
aI0
aI20
asS'ohmaw001'
p4735
(lp4736
g4735
aS'Will Ohman'
p4737
aS'26.1'
p4738
aI23
aI19
aI19
aI6
aI5
aI0
aI13
asg2717
(lp4739
g2717
ag2719
aS'209.1'
p4740
aI193
aI80
aI78
aI18
aI52
aI0
aI195
asg2726
(lp4741
g2726
ag2728
aS'6.2'
p4742
aI6
aI4
aI4
aI2
aI8
aI1
aI10
asS'bellh001'
p4743
(lp4744
g4743
aS'Heath Bell'
p4745
aS'62.2'
p4746
aI69
aI38
aI36
aI5
aI29
aI3
aI58
asg2744
(lp4747
g2744
ag2746
aS'31.2'
p4748
aI33
aI16
aI16
aI5
aI12
aI0
aI33
asS'thomj006'
p4749
(lp4750
g4749
aS'Justin Thomas'
p4751
aS'7.1'
p4752
aI12
aI7
aI7
aI1
aI3
aI0
aI7
asS'rosas001'
p4753
(lp4754
g4753
aS'Sandy Rosario'
p4755
aS'3.0'
p4756
aI8
aI6
aI6
aI0
aI0
aI0
aI2
asS'luekj001'
p4757
(lp4758
g4757
aS'Josh Lueke'
p4759
aS'3.1'
p4760
aI9
aI7
aI7
aI0
aI3
aI0
aI2
asS'tolls002'
p4761
(lp4762
g4761
aS'Shawn Tolleson'
p4763
aS'37.1'
p4764
aI30
aI19
aI18
aI4
aI20
aI1
aI39
asg1553
(lp4765
g1553
ag1555
aS'181.0'
p4766
aI198
aI122
aI116
aI21
aI105
aI1
aI124
asg2771
(lp4767
g2771
ag2773
aS'28.1'
p4768
aI29
aI14
aI12
aI2
aI7
aI0
aI18
asg2777
(lp4769
g2777
ag2779
aS'232.0'
p4770
aI209
aI84
aI79
aI14
aI56
aI0
aI223
asS'defrj001'
p4771
(lp4772
g4771
aS'Justin De Fratus'
p4773
aS'7.2'
p4774
aI6
aI4
aI4
aI0
aI4
aI0
aI7
asg2783
(lp4775
g2783
ag2785
aS'8.1'
p4776
aI8
aI8
aI8
aI1
aI11
aI0
aI6
asg2795
(lp4777
g2795
ag2797
aS'152.1'
p4778
aI161
aI62
aI58
aI17
aI23
aI3
aI91
asS'figup001'
p4779
(lp4780
g4779
aS'Pedro Figueroa'
p4781
aS'21.1'
p4782
aI16
aI9
aI8
aI2
aI15
aI1
aI14
asg2501
(lp4783
g2501
ag2503
aS'187.1'
p4784
aI216
aI110
aI101
aI29
aI54
aI2
aI79
asS'perec002'
p4785
(lp4786
g4785
aS'Chris Perez'
p4787
aS'56.2'
p4788
aI49
aI25
aI23
aI6
aI16
aI1
aI56
asg2822
(lp4789
g2822
ag2824
aS'30.1'
p4790
aI34
aI19
aI18
aI4
aI13
aI3
aI7
asg2234
(lp4791
g2234
ag2236
aS'133.1'
p4792
aI161
aI85
aI81
aI32
aI27
aI2
aI77
asS'wadec001'
p4793
(lp4794
g4793
aS'Cory Wade'
p4795
aS'39.0'
p4796
aI46
aI29
aI28
aI8
aI8
aI1
aI38
asg2828
(lp4797
g2828
ag2830
aS'9.2'
p4798
aI8
aI4
aI3
aI1
aI5
aI0
aI7
asS'epplc001'
p4799
(lp4800
g4799
aS'Cody Eppley'
p4801
aS'46.0'
p4802
aI46
aI19
aI17
aI3
aI17
aI2
aI32
asS'webbr001'
p4803
(lp4804
g4803
aS'Ryan Webb'
p4805
aS'58.1'
p4806
aI70
aI28
aI26
aI2
aI20
aI8
aI43
asS'sippt001'
p4807
(lp4808
g4807
aS'Tony Sipp'
p4809
aS'53.2'
p4810
aI47
aI29
aI27
aI9
aI23
aI1
aI49
asS'ely-j001'
p4811
(lp4812
g4811
aS'John Ely'
p4813
aS'2.1'
p4814
aI6
aI6
aI6
aI0
aI4
aI2
aI3
asg2843
(lp4815
g2843
ag2845
aS'58.2'
p4816
aI59
aI31
aI30
aI8
aI20
aI0
aI49
asg2846
(lp4817
g2846
ag2848
aS'191.0'
p4818
aI207
aI106
aI100
aI29
aI34
aI5
aI166
asS'delre001'
p4819
(lp4820
g4819
aS'Enerio Del Rosario'
p4821
aS'10.1'
p4822
aI12
aI7
aI5
aI1
aI5
aI0
aI5
asg2849
(lp4823
g2849
ag2851
aS'189.0'
p4824
aI178
aI80
aI77
aI20
aI53
aI3
aI140
asS'friee001'
p4825
(lp4826
g4825
aS'Ernesto Frieri'
p4827
aS'66.0'
p4828
aI35
aI20
aI17
aI9
aI30
aI0
aI98
asS'zagum001'
p4829
(lp4830
g4829
aS'Mike Zagurski'
p4831
aS'35.0'
p4832
aI36
aI24
aI23
aI5
aI18
aI0
aI31
asg2852
(lp4833
g2852
ag2854
aS'69.0'
p4834
aI80
aI35
aI34
aI10
aI32
aI0
aI45
asg2855
(lp4835
g2855
ag2857
aS'161.0'
p4836
aI162
aI95
aI87
aI24
aI71
aI0
aI167
asa.