(lp0
(dp1
S'broxk001'
p2
(lp3
g2
aS'Keon Broxton'
p4
aI2
aI2
aI3
aI0
aI0
aI0
aI0
aI0
aI1
aI1
aI0
aI1
aI0
asS'garca004'
p5
(lp6
g5
aS'Adonis Garcia'
p7
aI198
aI191
aI20
aI53
aI12
aI0
aI10
aI26
aI0
aI0
aI5
aI35
aI95
asS'corbp001'
p8
(lp9
g8
aS'Patrick Corbin'
p10
aI29
aI25
aI1
aI3
aI0
aI0
aI0
aI3
aI0
aI0
aI3
aI11
aI3
asS'tejar001'
p11
(lp12
g11
aS'Ruben Tejada'
p13
aI407
aI360
aI36
aI94
aI23
aI0
aI3
aI28
aI2
aI1
aI38
aI70
aI126
asS'torrc001'
p14
(lp15
g14
aS'Carlos Torres'
p16
aI1
aI1
aI1
aI1
aI0
aI0
aI0
aI0
aI0
aI0
aI0
aI0
aI1
asS'belta001'
p17
(lp18
g17
aS'Adrian Beltre'
p19
aI619
aI567
aI82
aI163
aI32
aI4
aI18
aI83
aI1
aI0
aI41
aI65
aI257
asS'corde001'
p20
(lp21
g20
aS'Erik Cordier'
p22
aI1
aI0
aI0
aI0
aI0
aI0
aI0
aI0
aI0
aI0
aI0
aI0
aI0
asS'sampk001'
p23
(lp24
g23
aS'Keyvius Sampson'
p25
aI17
aI16
aI1
aI0
aI0
aI0
aI0
aI0
aI0
aI0
aI0
aI11
aI0
asS'florr003'
p26
(lp27
g26
aS'Ramon Flores'
p28
aI33
aI32
aI3
aI7
aI1
aI0
aI0
aI0
aI0
aI0
aI0
aI4
aI8
asS'gonzc001'
p29
(lp30
g29
aS'Carlos Gonzalez'
p31
aI608
aI554
aI87
aI150
aI25
aI2
aI40
aI97
aI2
aI0
aI46
aI133
aI299
asS'worlv001'
p32
(lp33
g32
aS'Vance Worley'
p34
aI18
aI17
aI1
aI3
aI1
aI0
aI0
aI0
aI0
aI0
aI0
aI6
aI4
asS'aybae001'
p35
(lp36
g35
aS'Erick Aybar'
p37
aI638
aI597
aI74
aI161
aI30
aI1
aI3
aI44
aI15
aI6
aI25
aI73
aI202
asS'basta001'
p38
(lp39
g38
aS'Antonio Bastardo'
p40
aI2
aI2
aI0
aI0
aI0
aI0
aI0
aI0
aI0
aI0
aI0
aI2
aI0
asS'telit001'
p41
(lp42
g41
aS'Tomas Telis'
p43
aI41
aI38
aI2
aI6
aI0
aI0
aI0
aI2
aI0
aI0
aI1
aI4
aI6
asS'ashea001'
p44
(lp45
g44
aS'Alec Asher'
p46
aI6
aI6
aI0
aI2
aI1
aI0
aI0
aI0
aI0
aI0
aI0
aI3
aI3
asS'garca003'
p47
(lp48
g47
aS'Avisail Garcia'
p49
aI601
aI553
aI66
aI142
aI17
aI2
aI13
aI59
aI7
aI7
aI36
aI141
aI202
asS'cuthc001'
p50
(lp51
g50
aS'Cheslor Cuthbert'
p52
aI50
aI46
aI6
aI10
aI2
aI1
aI1
aI8
aI0
aI0
aI4
aI9
aI17
asS'maris001'
p53
(lp54
g53
aS'Sugar Ray Marimon'
p55
aI7
aI6
aI0
aI2
aI0
aI0
aI0
aI0
aI0
aI0
aI1
aI3
aI2
asS'kellj001'
p56
(lp57
g56
aS'Joe Kelly'
p58
aI5
aI5
aI0
aI1
aI0
aI0
aI0
aI1
aI0
aI0
aI0
aI2
aI1
asS'darnt001'
p59
(lp60
g59
aS"Travis d'Arnaud"
p61
aI268
aI239
aI31
aI64
aI14
aI1
aI12
aI41
aI0
aI0
aI23
aI49
aI116
asS'kimbc001'
p62
(lp63
g62
aS'Craig Kimbrel'
p64
aI1
aI1
aI0
aI0
aI0
aI0
aI0
aI0
aI0
aI0
aI0
aI1
aI0
asS'cainm001'
p65
(lp66
g65
aS'Matt Cain'
p67
aI20
aI16
aI0
aI0
aI0
aI0
aI0
aI1
aI0
aI0
aI0
aI9
aI0
asS'willj003'
p68
(lp69
g68
aS'Jerome Williams'
p70
aI36
aI31
aI0
aI2
aI1
aI0
aI0
aI1
aI0
aI0
aI1
aI14
aI3
asS'niesj001'
p71
(lp72
g71
aS'Jonathon Niese'
p73
aI60
aI52
aI5
aI9
aI1
aI0
aI0
aI4
aI0
aI0
aI5
aI18
aI10
asS'burre001'
p74
(lp75
g74
aS'Emmanuel Burriss'
p76
aI5
aI3
aI2
aI2
aI0
aI0
aI0
aI0
aI0
aI0
aI2
aI0
aI2
asS'hoesl001'
p77
(lp78
g77
aS'L.J. Hoes'
p79
aI16
aI15
aI1
aI4
aI0
aI0
aI0
aI1
aI0
aI0
aI1
aI3
aI4
asS'willj005'
p80
(lp81
g80
aS'Jackson Williams'
p82
aI14
aI10
aI1
aI2
aI1
aI0
aI0
aI1
aI1
aI0
aI4
aI1
aI3
asS'gallj002'
p83
(lp84
g83
aS'Joey Gallo'
p85
aI123
aI108
aI16
aI22
aI3
aI1
aI6
aI14
aI3
aI0
aI15
aI57
aI45
asS'delar003'
p86
(lp87
g86
aS'Rubby de la Rosa'
p88
aI68
aI64
aI3
aI6
aI0
aI0
aI0
aI2
aI0
aI0
aI0
aI25
aI6
asS'stule002'
p89
(lp90
g89
aS'Eric Stults'
p91
aI16
aI13
aI0
aI1
aI0
aI0
aI0
aI0
aI0
aI0
aI0
aI7
aI1
asS'maldm001'
p92
(lp93
g92
aS'Martin Maldonado'
p94
aI256
aI229
aI19
aI48
aI7
aI0
aI4
aI22
aI0
aI1
aI23
aI65
aI67
asS'heywj001'
p95
(lp96
g95
aS'Jason Heyward'
p97
aI610
aI547
aI79
aI160
aI33
aI4
aI13
aI60
aI23
aI3
aI56
aI90
aI240
asS'sanca004'
p98
(lp99
g98
aS'Anibal Sanchez'
p100
aI4
aI4
aI0
aI0
aI0
aI0
aI0
aI0
aI0
aI0
aI0
aI4
aI0
asS'ruppc001'
p101
(lp102
g101
aS'Cameron Rupp'
p103
aI299
aI270
aI24
aI63
aI9
aI1
aI9
aI28
aI0
aI1
aI24
aI71
aI101
asS'lecus001'
p104
(lp105
g104
aS'Sam LeCure'
p106
aI1
aI1
aI0
aI0
aI0
aI0
aI0
aI0
aI0
aI0
aI0
aI0
aI0
asS'flany001'
p107
(lp108
g107
aS'Yohan Flande'
p109
aI22
aI21
aI1
aI3
aI0
aI0
aI0
aI1
aI0
aI0
aI0
aI10
aI3
asS'mcgod001'
p110
(lp111
g110
aS'Dustin McGowan'
p112
aI3
aI3
aI0
aI0
aI0
aI0
aI0
aI0
aI0
aI0
aI0
aI3
aI0
asS'nerih001'
p113
(lp114
g113
aS'Hector Neris'
p115
aI1
aI1
aI0
aI0
aI0
aI0
aI0
aI0
aI0
aI0
aI0
aI1
aI0
asS'gally001'
p116
(lp117
g116
aS'Yovani Gallardo'
p118
aI4
aI4
aI0
aI2
aI1
aI0
aI0
aI0
aI0
aI0
aI0
aI1
aI3
asS'crawc002'
p119
(lp120
g119
aS'Carl Crawford'
p121
aI193
aI181
aI19
aI48
aI9
aI2
aI4
aI16
aI10
aI2
aI10
aI41
aI73
asS'rodra001'
p122
(lp123
g122
aS'Alex Rodriguez'
p124
aI620
aI523
aI83
aI131
aI22
aI1
aI33
aI86
aI4
aI0
aI84
aI145
aI254
asS'davir003'
p125
(lp126
g125
aS'Rajai Davis'
p127
aI370
aI341
aI55
aI88
aI16
aI11
aI8
aI30
aI18
aI8
aI22
aI76
aI150
asS'paulb001'
p128
(lp129
g128
aS'Ben Paulsen'
p130
aI354
aI325
aI42
aI90
aI19
aI4
aI11
aI49
aI1
aI2
aI23
aI92
aI150
asS'wilsj003'
p131
(lp132
g131
aS'Josh Wilson'
p133
aI41
aI38
aI4
aI12
aI3
aI0
aI0
aI5
aI0
aI0
aI0
aI15
aI15
asS'fulds001'
p134
(lp135
g134
aS'Sam Fuld'
p136
aI325
aI290
aI34
aI57
aI16
aI3
aI2
aI22
aI9
aI3
aI30
aI55
aI85
asS'osicj001'
p137
(lp138
g137
aS'Josh Osich'
p139
aI3
aI1
aI0
aI0
aI0
aI0
aI0
aI0
aI0
aI0
aI0
aI1
aI0
asS'dornd001'
p140
(lp141
g140
aS'Danny Dorn'
p142
aI32
aI30
aI0
aI5
aI1
aI0
aI0
aI3
aI0
aI0
aI2
aI10
aI6
asS'cespy001'
p143
(lp144
g143
aS'Yoenis Cespedes'
p145
aI676
aI633
aI101
aI184
aI42
aI6
aI35
aI105
aI7
aI5
aI33
aI141
aI343
asS'flowt001'
p146
(lp147
g146
aS'Tyler Flowers'
p148
aI361
aI331
aI21
aI79
aI12
aI0
aI9
aI39
aI0
aI1
aI21
aI104
aI118
asS'josec002'
p149
(lp150
g149
aS'Caleb Joseph'
p151
aI355
aI320
aI38
aI75
aI16
aI1
aI11
aI49
aI0
aI0
aI27
aI72
aI126
asS'snidt001'
p152
(lp153
g152
aS'Travis Snider'
p154
aI265
aI237
aI24
aI55
aI12
aI2
aI4
aI28
aI1
aI0
aI26
aI66
aI83
asS'norrb001'
p155
(lp156
g155
aS'Bud Norris'
p157
aI4
aI4
aI0
aI0
aI0
aI0
aI0
aI0
aI0
aI0
aI0
aI1
aI0
asS'joycm001'
p158
(lp159
g158
aS'Matthew Joyce'
p160
aI284
aI247
aI17
aI43
aI12
aI1
aI5
aI21
aI0
aI3
aI30
aI67
aI72
asS'lewic001'
p161
(lp162
g161
aS'Colby Lewis'
p163
aI2
aI2
aI0
aI0
aI0
aI0
aI0
aI0
aI0
aI0
aI0
aI2
aI0
asS'moyas001'
p164
(lp165
g164
aS'Steven Moya'
p166
aI25
aI22
aI1
aI4
aI0
aI1
aI0
aI0
aI0
aI0
aI3
aI10
aI6
asS'jimeu001'
p167
(lp168
g167
aS'Ubaldo Jimenez'
p169
aI8
aI8
aI0
aI2
aI0
aI0
aI0
aI2
aI0
aI0
aI0
aI4
aI2
asS'huffd001'
p170
(lp171
g170
aS'David Huff'
p172
aI1
aI1
aI0
aI0
aI0
aI0
aI0
aI0
aI0
aI0
aI0
aI0
aI0
asS'taylc001'
p173
(lp174
g173
aS'Chris Taylor'
p175
aI102
aI94
aI9
aI16
aI3
aI1
aI0
aI1
aI3
aI2
aI6
aI31
aI21
asS'rodrw002'
p176
(lp177
g176
aS'Wandy Rodriguez'
p178
aI2
aI2
aI1
aI1
aI0
aI0
aI0
aI0
aI0
aI0
aI0
aI0
aI1
asS'kierk001'
p179
(lp180
g179
aS'Kevin Kiermaier'
p181
aI535
aI505
aI61
aI133
aI25
aI12
aI10
aI40
aI18
aI5
aI24
aI95
aI212
asS'iannc001'
p182
(lp183
g182
aS'Chris Iannetta'
p184
aI317
aI272
aI28
aI51
aI10
aI0
aI10
aI34
aI0
aI1
aI41
aI83
aI91
asS'clipt001'
p185
(lp186
g185
aS'Tyler Clippard'
p187
aI1
aI1
aI0
aI0
aI0
aI0
aI0
aI0
aI0
aI0
aI0
aI0
aI0
asS'mcbrm002'
p188
(lp189
g188
aS'Matt McBride'
p190
aI43
aI42
aI5
aI7
aI0
aI0
aI0
aI0
aI0
aI0
aI0
aI4
aI7
asS'scrux001'
p191
(lp192
g191
aS'Xavier Scruggs'
p193
aI43
aI42
aI5
aI11
aI2
aI0
aI0
aI7
aI1
aI0
aI0
aI10
aI13
asS'hendl001'
p194
(lp195
g194
aS'Liam Hendriks'
p196
aI1
aI0
aI0
aI0
aI0
aI0
aI0
aI0
aI0
aI0
aI1
aI0
aI0
asS'tomay001'
p197
(lp198
g197
aS'Yasmany Tomas'
p199
aI426
aI406
aI40
aI111
aI19
aI3
aI9
aI48
aI5
aI2
aI17
aI110
aI163
asS'eovan001'
p200
(lp201
g200
aS'Nathan Eovaldi'
p202
aI5
aI5
aI1
aI0
aI0
aI0
aI0
aI0
aI0
aI0
aI0
aI2
aI0
asS'ramij003'
p203
(lp204
g203
aS'Jose Ramirez'
p205
aI355
aI315
aI50
aI69
aI14
aI3
aI6
aI27
aI10
aI4
aI32
aI39
aI107
asS'morrl001'
p206
(lp207
g206
aS'Logan Morrison'
p208
aI511
aI457
aI47
aI103
aI15
aI3
aI17
aI54
aI8
aI4
aI47
aI81
aI175
asS'markn001'
p209
(lp210
g209
aS'Nick Markakis'
p211
aI686
aI612
aI73
aI181
aI38
aI1
aI3
aI53
aI2
aI1
aI70
aI83
aI230
asS'conla001'
p212
(lp213
g212
aS'Adam Conley'
p214
aI22
aI18
aI0
aI4
aI0
aI0
aI0
aI1
aI0
aI0
aI0
aI8
aI4
asS'morga001'
p215
(lp216
g215
aS'Adam Morgan'
p217
aI27
aI26
aI2
aI2
aI1
aI0
aI0
aI1
aI0
aI0
aI0
aI12
aI3
asS'santd002'
p218
(lp219
g218
aS'Domingo Santana'
p220
aI187
aI160
aI20
aI38
aI7
aI0
aI8
aI26
aI4
aI1
aI20
aI63
aI69
asS'barnd001'
p221
(lp222
g221
aS'Darwin Barney'
p223
aI30
aI27
aI3
aI7
aI1
aI0
aI2
aI4
aI0
aI0
aI1
aI2
aI14
asS'smitj004'
p224
(lp225
g224
aS'Josh Smith'
p226
aI10
aI9
aI1
aI2
aI0
aI1
aI0
aI0
aI0
aI0
aI0
aI4
aI4
asS'lohsk001'
p227
(lp228
g227
aS'Kyle Lohse'
p229
aI42
aI39
aI3
aI9
aI1
aI0
aI0
aI1
aI0
aI0
aI0
aI10
aI10
asS'parra001'
p230
(lp231
g230
aS'Andy Parrino'
p232
aI8
aI6
aI1
aI0
aI0
aI0
aI0
aI0
aI0
aI0
aI2
aI5
aI0
asS'riosa002'
p233
(lp234
g233
aS'Alex Rios'
p235
aI411
aI385
aI40
aI98
aI22
aI2
aI4
aI32
aI9
aI0
aI15
aI67
aI136
asS'eatoa002'
p236
(lp237
g236
aS'Adam Eaton'
p238
aI689
aI610
aI98
aI175
aI28
aI9
aI14
aI56
aI18
aI8
aI58
aI131
aI263
asS'jimel002'
p239
(lp240
g239
aS'Luis Jimenez'
p241
aI17
aI16
aI1
aI1
aI0
aI0
aI0
aI0
aI0
aI0
aI1
aI6
aI1
asS'delgr001'
p242
(lp243
g242
aS'Randall Delgado'
p244
aI2
aI1
aI0
aI0
aI0
aI0
aI0
aI0
aI0
aI0
aI0
aI1
aI0
asS'waldk002'
p245
(lp246
g245
aS'Kyle Waldrop'
p247
aI1
aI1
aI0
aI0
aI0
aI0
aI0
aI0
aI0
aI0
aI0
aI1
aI0
asS'montr004'
p248
(lp249
g248
aS'Rafael Montero'
p250
aI2
aI2
aI0
aI0
aI0
aI0
aI0
aI0
aI0
aI0
aI0
aI1
aI0
asS'dendm001'
p251
(lp252
g251
aS'Matt den Dekker'
p253
aI110
aI99
aI12
aI25
aI6
aI1
aI5
aI12
aI0
aI1
aI9
aI20
aI48
asS'aokin001'
p254
(lp255
g254
aS'Norichika Aoki'
p256
aI392
aI355
aI42
aI102
aI12
aI3
aI5
aI26
aI14
aI5
aI30
aI25
aI135
asS'odorr001'
p257
(lp258
g257
aS'Rougned Odor'
p259
aI470
aI426
aI54
aI111
aI21
aI9
aI16
aI61
aI6
aI7
aI23
aI79
aI198
asS'obrip002'
p260
(lp261
g260
aS"Peter O'Brien"
p262
aI12
aI10
aI1
aI4
aI1
aI0
aI1
aI3
aI0
aI0
aI2
aI5
aI8
asS'wooda002'
p263
(lp264
g263
aS'Alex Wood'
p265
aI67
aI55
aI2
aI9
aI2
aI0
aI0
aI4
aI0
aI0
aI4
aI34
aI11
asS'hundn001'
p266
(lp267
g266
aS'Nick Hundley'
p268
aI389
aI366
aI45
aI110
aI21
aI5
aI10
aI43
aI5
aI6
aI21
aI76
aI171
asS'bassc001'
p269
(lp270
g269
aS'Chris Bassitt'
p271
aI2
aI2
aI0
aI0
aI0
aI0
aI0
aI0
aI0
aI0
aI0
aI1
aI0
asS'frazt001'
p272
(lp273
g272
aS'Todd Frazier'
p274
aI678
aI619
aI82
aI158
aI43
aI1
aI35
aI89
aI13
aI8
aI44
aI137
aI308
asS'navad001'
p275
(lp276
g275
aS'Dioner Navarro'
p277
aI192
aI171
aI17
aI42
aI7
aI0
aI5
aI20
aI0
aI0
aI17
aI29
aI64
asS'navad002'
p278
(lp279
g278
aS'Daniel Nava'
p280
aI166
aI139
aI13
aI27
aI4
aI0
aI1
aI10
aI1
aI0
aI20
aI36
aI34
asS'santd001'
p281
(lp282
g281
aS'Danny Santana'
p283
aI277
aI261
aI30
aI56
aI10
aI5
aI0
aI21
aI8
aI4
aI6
aI68
aI76
asS'avilm001'
p284
(lp285
g284
aS'Mike Aviles'
p286
aI317
aI290
aI37
aI67
aI10
aI0
aI5
aI17
aI3
aI1
aI20
aI38
aI92
asS'reedm001'
p287
(lp288
g287
aS'Michael Reed'
p289
aI6
aI6
aI2
aI2
aI1
aI0
aI0
aI0
aI0
aI0
aI0
aI3
aI3
asS'teagt001'
p290
(lp291
g290
aS'Taylor Teagarden'
p292
aI15
aI15
aI0
aI3
aI0
aI0
aI0
aI2
aI0
aI0
aI0
aI4
aI3
asS'calio001'
p293
(lp294
g293
aS'Orlando Calixte'
p295
aI3
aI3
aI1
aI0
aI0
aI0
aI0
aI0
aI0
aI0
aI0
aI0
aI0
asS'gonzm003'
p296
(lp297
g296
aS'Miguel Gonzalez'
p298
aI1
aI1
aI0
aI0
aI0
aI0
aI0
aI0
aI0
aI0
aI0
aI0
aI0
asS'gonzm002'
p299
(lp300
g299
aS'Marwin Gonzalez'
p301
aI370
aI344
aI44
aI96
aI18
aI1
aI12
aI34
aI4
aI5
aI16
aI74
aI152
asS'linct001'
p302
(lp303
g302
aS'Tim Lincecum'
p304
aI25
aI21
aI0
aI3
aI1
aI0
aI0
aI0
aI0
aI0
aI2
aI10
aI4
asS'colea002'
p305
(lp306
g305
aS'A.J. Cole'
p307
aI2
aI2
aI0
aI0
aI0
aI0
aI0
aI0
aI0
aI0
aI0
aI0
aI0
asS'choim001'
p308
(lp309
g308
aS'Michael Choice'
p310
aI1
aI1
aI0
aI0
aI0
aI0
aI0
aI0
aI0
aI0
aI0
aI1
aI0
asS'garcl004'
p311
(lp312
g311
aS'Leury Garcia'
p313
aI15
aI14
aI0
aI3
aI0
aI0
aI0
aI1
aI1
aI0
aI1
aI7
aI3
asS'parej002'
p314
(lp315
g314
aS'Jimmy Paredes'
p316
aI384
aI363
aI46
aI100
aI17
aI2
aI10
aI42
aI4
aI4
aI19
aI111
aI151
asS'hamib001'
p317
(lp318
g317
aS'Billy Hamilton'
p319
aI454
aI412
aI56
aI93
aI8
aI3
aI4
aI28
aI57
aI8
aI28
aI75
aI119
asS'gutif001'
p320
(lp321
g320
aS'Franklin Gutierrez'
p322
aI189
aI171
aI27
aI50
aI11
aI0
aI15
aI35
aI0
aI0
aI14
aI54
aI106
asS'karnn001'
p323
(lp324
g323
aS'Nathan Karns'
p325
aI5
aI4
aI1
aI1
aI0
aI0
aI1
aI1
aI0
aI0
aI0
aI3
aI4
asS'herrc001'
p326
(lp327
g326
aS'Chris Herrmann'
p328
aI113
aI103
aI13
aI15
aI5
aI1
aI2
aI10
aI0
aI0
aI7
aI37
aI28
asS'mchuc001'
p329
(lp330
g329
aS'Collin McHugh'
p331
aI8
aI8
aI1
aI1
aI0
aI0
aI0
aI0
aI0
aI0
aI0
aI4
aI1
asS'nelsj004'
p332
(lp333
g332
aS'Jimmy Nelson'
p334
aI59
aI55
aI1
aI6
aI1
aI0
aI0
aI2
aI0
aI0
aI1
aI34
aI7
asS'willm008'
p335
(lp336
g335
aS'Mac Williamson'
p337
aI34
aI32
aI2
aI7
aI0
aI1
aI0
aI1
aI0
aI0
aI0
aI8
aI9
asS'blank002'
p338
(lp339
g338
aS'Kyle Blanks'
p340
aI71
aI67
aI10
aI21
aI5
aI0
aI3
aI6
aI1
aI0
aI4
aI20
aI35
asS'iglej001'
p341
(lp342
g341
aS'Jose Iglesias'
p343
aI454
aI416
aI44
aI125
aI17
aI3
aI2
aI23
aI11
aI8
aI25
aI44
aI154
asS'carpm002'
p344
(lp345
g344
aS'Matt Carpenter'
p346
aI665
aI574
aI101
aI156
aI44
aI3
aI28
aI84
aI4
aI3
aI81
aI151
aI290
asS'handb001'
p347
(lp348
g347
aS'Brad Hand'
p349
aI23
aI17
aI1
aI2
aI0
aI0
aI0
aI2
aI0
aI0
aI0
aI5
aI2
asS'keucd001'
p350
(lp351
g350
aS'Dallas Keuchel'
p352
aI6
aI5
aI0
aI1
aI0
aI0
aI0
aI0
aI0
aI0
aI0
aI4
aI1
asS'bandj001'
p353
(lp354
g353
aS'Jett Bandy'
p355
aI2
aI2
aI1
aI1
aI0
aI0
aI1
aI1
aI0
aI0
aI0
aI0
aI4
asS'morem001'
p356
(lp357
g356
aS'Mitch Moreland'
p358
aI515
aI471
aI51
aI131
aI27
aI0
aI23
aI85
aI1
aI0
aI32
aI112
aI227
asS'matzs001'
p359
(lp360
g359
aS'Steven Matz'
p361
aI14
aI14
aI1
aI4
aI1
aI0
aI0
aI5
aI0
aI0
aI0
aI1
aI5
asS'refsr001'
p362
(lp363
g362
aS'Rob Refsnyder'
p364
aI47
aI43
aI3
aI13
aI3
aI0
aI2
aI5
aI2
aI0
aI3
aI7
aI22
asS'surke001'
p365
(lp366
g365
aS'Eric Surkamp'
p367
aI1
aI0
aI0
aI0
aI0
aI0
aI0
aI0
aI0
aI0
aI0
aI0
aI0
asS'bettm001'
p368
(lp369
g368
aS'Mookie Betts'
p370
aI654
aI597
aI91
aI174
aI42
aI8
aI18
aI77
aI21
aI6
aI46
aI82
aI286
asS'fielp001'
p371
(lp372
g371
aS'Prince Fielder'
p373
aI693
aI613
aI78
aI187
aI28
aI0
aI23
aI98
aI0
aI0
aI64
aI88
aI284
asS'smits002'
p374
(lp375
g374
aS'Seth Smith'
p376
aI452
aI395
aI53
aI98
aI31
aI5
aI12
aI42
aI0
aI0
aI47
aI99
aI175
asS'cunnt001'
p377
(lp378
g377
aS'Todd Cunningham'
p379
aI93
aI86
aI13
aI19
aI4
aI0
aI0
aI4
aI2
aI1
aI5
aI17
aI23
asS'hilla001'
p380
(lp381
g380
aS'Aaron Hill'
p382
aI353
aI313
aI32
aI72
aI18
aI0
aI6
aI39
aI7
aI2
aI31
aI54
aI108
asS'confm001'
p383
(lp384
g383
aS'Michael Conforto'
p385
aI194
aI174
aI30
aI47
aI14
aI0
aI9
aI26
aI0
aI1
aI17
aI39
aI88
asS'castr004'
p386
(lp387
g386
aS'Rusney Castillo'
p388
aI289
aI273
aI35
aI69
aI10
aI2
aI5
aI29
aI4
aI5
aI13
aI54
aI98
asS'fierm001'
p389
(lp390
g389
aS'Michael Fiers'
p391
aI34
aI30
aI0
aI3
aI0
aI0
aI0
aI0
aI0
aI0
aI0
aI12
aI3
asS'mauej001'
p392
(lp393
g392
aS'Joe Mauer'
p394
aI666
aI592
aI69
aI157
aI34
aI2
aI10
aI66
aI2
aI1
aI67
aI112
aI225
asS'loewa001'
p395
(lp396
g395
aS'Adam Loewen'
p397
aI3
aI3
aI0
aI1
aI0
aI0
aI0
aI0
aI0
aI0
aI0
aI0
aI1
asS'simoa001'
p398
(lp399
g398
aS'Alfredo Simon'
p400
aI5
aI5
aI0
aI0
aI0
aI0
aI0
aI0
aI0
aI0
aI0
aI2
aI0
asS'nolar001'
p401
(lp402
g401
aS'Ricky Nolasco'
p403
aI3
aI3
aI0
aI0
aI0
aI0
aI0
aI0
aI0
aI0
aI0
aI3
aI0
asS'rivey001'
p404
(lp405
g404
aS'Yadiel Rivera'
p406
aI15
aI14
aI0
aI1
aI0
aI0
aI0
aI0
aI0
aI0
aI0
aI4
aI1
asS'pachj001'
p407
(lp408
g407
aS'Jordan Pacheco'
p409
aI78
aI66
aI8
aI16
aI0
aI0
aI2
aI8
aI1
aI0
aI9
aI14
aI22
asS'wagnt001'
p410
(lp411
g410
aS'Tyler Wagner'
p412
aI3
aI3
aI0
aI0
aI0
aI0
aI0
aI0
aI0
aI0
aI0
aI2
aI0
asS'maxwj002'
p413
(lp414
g413
aS'Justin Maxwell'
p415
aI274
aI249
aI26
aI52
aI8
aI2
aI7
aI26
aI2
aI1
aI20
aI76
aI85
asS'websa001'
p416
(lp417
g416
aS'Allen Webster'
p418
aI11
aI11
aI1
aI0
aI0
aI0
aI0
aI0
aI0
aI0
aI0
aI6
aI0
asS'noelr001'
p419
(lp420
g419
aS'Rico Noel'
p421
aI2
aI2
aI5
aI1
aI0
aI0
aI0
aI0
aI5
aI2
aI0
aI0
aI1
asS'mckem001'
p422
(lp423
g422
aS'Michael McKenry'
p424
aI152
aI127
aI20
aI26
aI7
aI3
aI4
aI17
aI2
aI2
aI22
aI41
aI51
asS'lollr001'
p425
(lp426
g425
aS'Ryan Lollis'
p427
aI13
aI12
aI0
aI2
aI0
aI0
aI0
aI0
aI1
aI0
aI1
aI1
aI2
asS'fowld001'
p428
(lp429
g428
aS'Dexter Fowler'
p430
aI690
aI596
aI102
aI149
aI29
aI8
aI17
aI46
aI20
aI7
aI84
aI154
aI245
asS'cahit001'
p431
(lp432
g431
aS'Trevor Cahill'
p433
aI8
aI7
aI0
aI1
aI0
aI0
aI0
aI0
aI0
aI0
aI1
aI2
aI1
asS'foltm001'
p434
(lp435
g434
aS'Mike Foltynewicz'
p436
aI30
aI28
aI0
aI2
aI1
aI0
aI0
aI3
aI0
aI0
aI0
aI19
aI3
asS'solad001'
p437
(lp438
g437
aS'Donovan Solano'
p439
aI94
aI90
aI6
aI17
aI3
aI1
aI0
aI7
aI0
aI0
aI1
aI18
aI22
asS'bauet001'
p440
(lp441
g440
aS'Trevor Bauer'
p442
aI7
aI6
aI0
aI1
aI0
aI0
aI0
aI0
aI0
aI0
aI1
aI1
aI1
asS'arenj001'
p443
(lp444
g443
aS'J.P. Arencibia'
p445
aI73
aI71
aI9
aI22
aI3
aI0
aI6
aI17
aI0
aI0
aI1
aI22
aI43
asS'goret001'
p446
(lp447
g446
aS'Terrance Gore'
p448
aI4
aI3
aI1
aI0
aI0
aI0
aI0
aI0
aI3
aI0
aI0
aI1
aI0
asS'nieuk001'
p449
(lp450
g449
aS'Kirk Nieuwenhuis'
p451
aI141
aI128
aI21
aI25
aI11
aI0
aI4
aI14
aI2
aI2
aI10
aI49
aI48
asS'pelfm001'
p452
(lp453
g452
aS'Mike Pelfrey'
p454
aI3
aI3
aI0
aI2
aI0
aI0
aI0
aI0
aI0
aI0
aI0
aI1
aI2
asS'ynoar001'
p455
(lp456
g455
aS'Rafael Ynoa'
p457
aI131
aI127
aI14
aI33
aI8
aI1
aI0
aI9
aI1
aI0
aI3
aI28
aI43
asS'pradm001'
p458
(lp459
g458
aS'Martin Prado'
p460
aI551
aI500
aI52
aI144
aI22
aI2
aI9
aI63
aI1
aI0
aI37
aI68
aI197
asS'peraw001'
p461
(lp462
g461
aS'Wily Peralta'
p463
aI37
aI30
aI1
aI1
aI0
aI0
aI0
aI1
aI0
aI0
aI3
aI15
aI1
asS'leakm001'
p464
(lp465
g464
aS'Mike Leake'
p466
aI73
aI69
aI4
aI8
aI3
aI0
aI2
aI8
aI0
aI0
aI0
aI36
aI17
asS'petej002'
p467
(lp468
g467
aS'Jace Peterson'
p469
aI597
aI528
aI55
aI126
aI23
aI5
aI6
aI52
aI12
aI10
aI56
aI120
aI177
asS'rossc001'
p470
(lp471
g470
aS'Cody Ross'
p472
aI25
aI22
aI3
aI2
aI0
aI0
aI0
aI3
aI0
aI0
aI3
aI6
aI2
asS'rodoc001'
p473
(lp474
g473
aS'Carlos Rodon'
p475
aI3
aI1
aI0
aI0
aI0
aI0
aI0
aI0
aI0
aI0
aI0
aI1
aI0
asS'tomlk001'
p476
(lp477
g476
aS'Kelby Tomlinson'
p478
aI193
aI178
aI23
aI54
aI6
aI3
aI2
aI20
aI5
aI4
aI14
aI40
aI72
asS'sanct001'
p479
(lp480
g479
aS'Tony Sanchez'
p481
aI9
aI8
aI2
aI3
aI0
aI0
aI0
aI0
aI0
aI0
aI1
aI3
aI3
asS'lastt001'
p482
(lp483
g482
aS'Tommy La Stella'
p484
aI75
aI67
aI4
aI18
aI6
aI0
aI1
aI11
aI2
aI0
aI5
aI7
aI27
asS'kinsi001'
p485
(lp486
g485
aS'Ian Kinsler'
p487
aI675
aI624
aI94
aI185
aI35
aI7
aI11
aI73
aI10
aI6
aI43
aI80
aI267
asS'walkc002'
p488
(lp489
g488
aS'Christian Walker'
p490
aI12
aI9
aI0
aI1
aI0
aI0
aI0
aI0
aI0
aI0
aI3
aI4
aI1
asS'donaj001'
p491
(lp492
g491
aS'Josh Donaldson'
p493
aI711
aI620
aI122
aI184
aI41
aI2
aI41
aI123
aI6
aI0
aI73
aI133
aI352
asS'rasmc001'
p494
(lp495
g494
aS'Colby Rasmus'
p496
aI485
aI432
aI67
aI103
aI23
aI2
aI25
aI61
aI2
aI1
aI47
aI154
aI205
asS'olt-m001'
p497
(lp498
g497
aS'Mike Olt'
p499
aI102
aI94
aI7
aI18
aI0
aI0
aI4
aI5
aI0
aI1
aI7
aI35
aI30
asS'pillk001'
p500
(lp501
g500
aS'Kevin Pillar'
p502
aI628
aI586
aI76
aI163
aI31
aI2
aI12
aI56
aI25
aI4
aI28
aI85
aI234
asS'weekj001'
p503
(lp504
g503
aS'Jemile Weeks'
p505
aI9
aI9
aI1
aI3
aI0
aI0
aI0
aI1
aI0
aI0
aI0
aI2
aI3
asS'brits001'
p506
(lp507
g506
aS'Socrates Brito'
p508
aI34
aI33
aI5
aI10
aI3
aI1
aI0
aI1
aI1
aI0
aI1
aI7
aI15
asS'pears001'
p509
(lp510
g509
aS'Steve Pearce'
p511
aI325
aI294
aI42
aI64
aI13
aI1
aI15
aI40
aI1
aI1
aI23
aI69
aI124
asS'chafa001'
p512
(lp513
g512
aS'Andrew Chafin'
p514
aI3
aI3
aI0
aI0
aI0
aI0
aI0
aI0
aI0
aI0
aI0
aI1
aI0
asS'machj002'
p515
(lp516
g515
aS'Jean Machi'
p517
aI3
aI3
aI0
aI0
aI0
aI0
aI0
aI0
aI0
aI0
aI0
aI2
aI0
asS'hardj003'
p518
(lp519
g518
aS'J.J. Hardy'
p520
aI437
aI411
aI45
aI90
aI14
aI0
aI8
aI37
aI0
aI0
aI20
aI88
aI128
asS'forsl001'
p521
(lp522
g521
aS'Logan Forsythe'
p523
aI615
aI540
aI69
aI152
aI33
aI2
aI17
aI68
aI9
aI4
aI55
aI111
aI240
asS'cruzt002'
p524
(lp525
g524
aS'Tony Cruz'
p526
aI151
aI142
aI6
aI29
aI7
aI1
aI2
aI11
aI0
aI0
aI6
aI32
aI44
asS'martj006'
p527
(lp528
g527
aS'J.D. Martinez'
p529
aI657
aI596
aI93
aI168
aI33
aI2
aI38
aI102
aI3
aI2
aI53
aI178
aI319
asS'martj007'
p530
(lp531
g530
aS'Jefry Marte'
p532
aI90
aI80
aI9
aI17
aI4
aI0
aI4
aI11
aI0
aI0
aI8
aI22
aI33
asS'lombs002'
p533
(lp534
g533
aS'Steve Lombardozzi'
p535
aI11
aI10
aI1
aI0
aI0
aI0
aI0
aI0
aI0
aI0
aI1
aI4
aI0
asS'waina001'
p536
(lp537
g536
aS'Adam Wainwright'
p538
aI10
aI10
aI0
aI0
aI0
aI0
aI0
aI0
aI0
aI0
aI0
aI2
aI0
asS'beckg001'
p539
(lp540
g539
aS'Gordon Beckham'
p541
aI237
aI211
aI24
aI44
aI8
aI0
aI6
aI20
aI0
aI1
aI19
aI43
aI70
asS'copes001'
p542
(lp543
g542
aS'Scott Copeland'
p544
aI1
aI1
aI0
aI0
aI0
aI0
aI0
aI0
aI0
aI0
aI0
aI1
aI0
asS'willm007'
p545
(lp546
g545
aS'Mason Williams'
p547
aI22
aI21
aI3
aI6
aI3
aI0
aI1
aI3
aI0
aI0
aI1
aI3
aI12
asS'mortc002'
p548
(lp549
g548
aS'Charlie Morton'
p550
aI43
aI36
aI0
aI1
aI0
aI0
aI0
aI1
aI0
aI0
aI1
aI18
aI1
asS'trumm001'
p551
(lp552
g551
aS'Mark Trumbo'
p553
aI545
aI508
aI62
aI133
aI23
aI3
aI22
aI64
aI0
aI0
aI36
aI132
aI228
asS'sotog001'
p554
(lp555
g554
aS'Geovany Soto'
p556
aI210
aI187
aI20
aI41
aI8
aI0
aI9
aI21
aI0
aI1
aI21
aI63
aI76
asS'suzuk001'
p557
(lp558
g557
aS'Kurt Suzuki'
p559
aI479
aI433
aI36
aI104
aI17
aI0
aI5
aI50
aI0
aI0
aI29
aI59
aI136
asS'hahnj001'
p560
(lp561
g560
aS'Jesse Hahn'
p562
aI3
aI3
aI0
aI0
aI0
aI0
aI0
aI0
aI0
aI0
aI0
aI2
aI0
asS'mossb001'
p563
(lp564
g563
aS'Brandon Moss'
p565
aI526
aI469
aI47
aI106
aI24
aI2
aI19
aI58
aI0
aI1
aI49
aI148
aI191
asS'dietd001'
p566
(lp567
g566
aS'Derek Dietrich'
p568
aI289
aI250
aI38
aI64
aI14
aI3
aI10
aI24
aI0
aI2
aI23
aI65
aI114
asS'ackld001'
p569
(lp570
g569
aS'Dustin Ackley'
p571
aI264
aI238
aI28
aI55
aI11
aI3
aI10
aI30
aI2
aI2
aI18
aI45
aI102
asS'phamt001'
p572
(lp573
g572
aS'Tommy Pham'
p574
aI173
aI153
aI28
aI41
aI7
aI5
aI5
aI18
aI2
aI0
aI19
aI41
aI73
asS'mastj001'
p575
(lp576
g575
aS'Justin Masterson'
p577
aI3
aI3
aI0
aI2
aI0
aI0
aI0
aI1
aI0
aI0
aI0
aI1
aI2
asS'oberb001'
p578
(lp579
g578
aS'Brett Oberholtzer'
p580
aI3
aI0
aI0
aI0
aI0
aI0
aI0
aI0
aI0
aI0
aI1
aI0
aI0
asS'torrr001'
p581
(lp582
g581
aS'Ronald Torreyes'
p583
aI8
aI6
aI1
aI2
aI1
aI0
aI0
aI1
aI0
aI0
aI1
aI1
aI3
asS'stubd001'
p584
(lp585
g584
aS'Drew Stubbs'
p586
aI140
aI123
aI20
aI24
aI4
aI2
aI5
aI10
aI5
aI1
aI14
aI60
aI47
asS'wrigs001'
p587
(lp588
g587
aS'Steven Wright'
p589
aI2
aI1
aI0
aI0
aI0
aI0
aI0
aI0
aI0
aI0
aI0
aI0
aI0
asS'penaa003'
p590
(lp591
g590
aS'Ariel Pena'
p592
aI7
aI7
aI0
aI0
aI0
aI0
aI0
aI0
aI0
aI0
aI0
aI6
aI0
asS'morrb001'
p593
(lp594
g593
aS'Brandon Morrow'
p595
aI10
aI9
aI0
aI0
aI0
aI0
aI0
aI0
aI0
aI0
aI1
aI8
aI0
asS'andeb004'
p596
(lp597
g596
aS'Brett Anderson'
p598
aI61
aI47
aI1
aI4
aI1
aI0
aI0
aI3
aI0
aI0
aI5
aI32
aI5
asS'andeb005'
p599
(lp600
g599
aS'Bryan Anderson'
p601
aI8
aI5
aI0
aI2
aI0
aI0
aI0
aI1
aI0
aI0
aI1
aI1
aI2
asS'billc001'
p602
(lp603
g602
aS'Chad Billingsley'
p604
aI14
aI13
aI2
aI1
aI0
aI0
aI1
aI1
aI0
aI0
aI0
aI5
aI4
asS'lee-z001'
p605
(lp606
g605
aS'Zach Lee'
p607
aI2
aI2
aI0
aI0
aI0
aI0
aI0
aI0
aI0
aI0
aI0
aI0
aI0
asS'peguc001'
p608
(lp609
g608
aS'Carlos Peguero'
p610
aI90
aI75
aI11
aI14
aI4
aI0
aI4
aI9
aI2
aI0
aI13
aI37
aI30
asS'rosaa001'
p611
(lp612
g611
aS'Adam Rosales'
p613
aI125
aI114
aI14
aI26
aI4
aI0
aI3
aI7
aI4
aI4
aI10
aI30
aI39
asS'monej001'
p614
(lp615
g614
aS'Johnny Monell'
p616
aI52
aI48
aI5
aI8
aI2
aI0
aI0
aI4
aI0
aI0
aI4
aI13
aI10
asS'corrc001'
p617
(lp618
g617
aS'Carlos Correa'
p619
aI432
aI387
aI51
aI108
aI22
aI1
aI22
aI68
aI14
aI4
aI40
aI78
aI198
asS'marts002'
p620
(lp621
g620
aS'Starling Marte'
p622
aI633
aI579
aI83
aI166
aI30
aI2
aI19
aI81
aI30
aI10
aI27
aI123
aI257
asS'valbl001'
p623
(lp624
g623
aS'Luis Valbuena'
p625
aI493
aI434
aI62
aI97
aI18
aI0
aI25
aI56
aI1
aI0
aI50
aI106
aI190
asS'elmoj001'
p626
(lp627
g626
aS'Jake Elmore'
p628
aI158
aI141
aI10
aI29
aI5
aI0
aI2
aI16
aI1
aI1
aI12
aI25
aI40
asS'ellsj001'
p629
(lp630
g629
aS'Jacoby Ellsbury'
p631
aI501
aI452
aI66
aI116
aI15
aI2
aI7
aI33
aI21
aI9
aI35
aI86
aI156
asS'mccab002'
p632
(lp633
g632
aS'Brian McCann'
p634
aI535
aI465
aI68
aI108
aI15
aI1
aI26
aI94
aI0
aI0
aI52
aI97
aI203
asS'kelld001'
p635
(lp636
g635
aS'Don Kelly'
p637
aI1
aI1
aI0
aI0
aI0
aI0
aI0
aI0
aI0
aI0
aI0
aI0
aI0
asS'mccab001'
p638
(lp639
g638
aS'Brandon McCarthy'
p640
aI9
aI6
aI0
aI0
aI0
aI0
aI0
aI1
aI0
aI0
aI1
aI5
aI0
asS'davik003'
p641
(lp642
g641
aS'Khris Davis'
p643
aI440
aI392
aI54
aI97
aI16
aI2
aI27
aI66
aI6
aI2
aI44
aI122
aI198
asS'rizza001'
p644
(lp645
g644
aS'Anthony Rizzo'
p646
aI701
aI586
aI94
aI163
aI38
aI3
aI31
aI101
aI17
aI6
aI78
aI105
aI300
asS'barnt001'
p647
(lp648
g647
aS'Tucker Barnhart'
p649
aI274
aI242
aI23
aI61
aI9
aI0
aI3
aI18
aI0
aI1
aI25
aI45
aI79
asS'milew001'
p650
(lp651
g650
aS'Wade Miley'
p652
aI2
aI2
aI0
aI0
aI0
aI0
aI0
aI0
aI0
aI0
aI0
aI0
aI0
asS'maill001'
p653
(lp654
g653
aS'Luke Maile'
p655
aI35
aI35
aI2
aI6
aI3
aI0
aI0
aI2
aI0
aI0
aI0
aI8
aI9
asS'szczm001'
p656
(lp657
g656
aS'Matt Szczur'
p658
aI80
aI72
aI5
aI16
aI5
aI0
aI1
aI8
aI2
aI0
aI6
aI15
aI24
asS'laffa001'
p659
(lp660
g659
aS'Aaron Laffey'
p661
aI2
aI2
aI0
aI1
aI0
aI0
aI0
aI0
aI0
aI0
aI0
aI1
aI1
asS'terdj001'
p662
(lp663
g662
aS'Joey Terdoslavich'
p664
aI59
aI56
aI5
aI12
aI4
aI1
aI1
aI4
aI0
aI0
aI3
aI14
aI21
asS'parrg001'
p665
(lp666
g665
aS'Gerardo Parra'
p667
aI589
aI547
aI83
aI159
aI36
aI5
aI14
aI51
aI14
aI4
aI28
aI92
aI247
asS'erlir001'
p668
(lp669
g668
aS'Robbie Erlin'
p670
aI6
aI5
aI0
aI0
aI0
aI0
aI0
aI0
aI0
aI0
aI0
aI1
aI0
asS'russa002'
p671
(lp672
g671
aS'Addison Russell'
p673
aI523
aI475
aI60
aI115
aI29
aI1
aI13
aI54
aI4
aI3
aI42
aI149
aI185
asS'chirr001'
p674
(lp675
g674
aS'Robinson Chirinos'
p676
aI273
aI233
aI33
aI54
aI16
aI1
aI10
aI34
aI0
aI0
aI28
aI62
aI102
asS'cabra002'
p677
(lp678
g677
aS'Asdrubal Cabrera'
p679
aI551
aI505
aI66
aI134
aI28
aI5
aI15
aI58
aI6
aI3
aI36
aI107
aI217
asS'harvm001'
p680
(lp681
g680
aS'Matt Harvey'
p682
aI66
aI65
aI1
aI7
aI2
aI0
aI1
aI7
aI0
aI0
aI0
aI31
aI12
asS'venaw001'
p683
(lp684
g683
aS'Will Venable'
p685
aI390
aI349
aI40
aI85
aI13
aI3
aI6
aI33
aI16
aI1
aI37
aI94
aI122
asS'moreb001'
p686
(lp687
g686
aS'Brent Morel'
p688
aI7
aI7
aI1
aI2
aI1
aI0
aI0
aI1
aI0
aI0
aI0
aI3
aI3
asS'mousm001'
p689
(lp690
g689
aS'Mike Moustakas'
p691
aI614
aI549
aI73
aI156
aI34
aI1
aI22
aI82
aI1
aI2
aI43
aI76
aI258
asS'pirej001'
p692
(lp693
g692
aS'Jose Pirela'
p694
aI78
aI74
aI7
aI17
aI3
aI0
aI1
aI5
aI1
aI0
aI2
aI16
aI23
asS'realj001'
p695
(lp696
g695
aS'J.T. Realmuto'
p697
aI467
aI441
aI49
aI114
aI21
aI7
aI10
aI47
aI8
aI4
aI19
aI70
aI179
asS'sevel001'
p698
(lp699
g698
aS'Luis Severino'
p700
aI2
aI2
aI0
aI0
aI0
aI0
aI0
aI0
aI0
aI0
aI0
aI0
aI0
asS'cronc002'
p701
(lp702
g701
aS'C.J. Cron'
p703
aI404
aI378
aI37
aI99
aI17
aI1
aI16
aI51
aI3
aI1
aI17
aI82
aI166
asS'harrj002'
p704
(lp705
g704
aS'Josh Harrison'
p706
aI449
aI418
aI57
aI120
aI29
aI1
aI4
aI28
aI10
aI8
aI19
aI71
aI163
asS'gatte001'
p707
(lp708
g707
aS'Evan Gattis'
p709
aI604
aI566
aI66
aI139
aI20
aI11
aI27
aI88
aI0
aI1
aI30
aI119
aI262
asS'ruggj001'
p710
(lp711
g710
aS'Justin Ruggiano'
p712
aI141
aI125
aI20
aI31
aI8
aI1
aI6
aI15
aI5
aI2
aI14
aI41
aI59
asS'santh001'
p713
(lp714
g713
aS'Hector Santiago'
p715
aI5
aI5
aI0
aI1
aI0
aI0
aI0
aI0
aI0
aI0
aI0
aI3
aI1
asS'jankt001'
p716
(lp717
g716
aS'Travis Jankowski'
p718
aI96
aI90
aI9
aI19
aI2
aI2
aI2
aI12
aI2
aI1
aI4
aI24
aI31
asS'krate001'
p719
(lp720
g719
aS'Erik Kratz'
p721
aI28
aI26
aI3
aI5
aI2
aI0
aI0
aI3
aI0
aI0
aI1
aI5
aI7
asS'riena001'
p722
(lp723
g722
aS'Andre Rienzo'
p724
aI2
aI2
aI0
aI0
aI0
aI0
aI0
aI0
aI0
aI0
aI0
aI0
aI0
asS'murpt002'
p725
(lp726
g725
aS'Tom Murphy'
p727
aI39
aI35
aI5
aI9
aI1
aI0
aI3
aI9
aI0
aI0
aI4
aI10
aI19
asS'sucrj001'
p728
(lp729
g728
aS'Jesus Sucre'
p730
aI142
aI127
aI9
aI20
aI6
aI0
aI1
aI7
aI0
aI0
aI6
aI21
aI29
asS'holab001'
p731
(lp732
g731
aS'Bryan Holaday'
p733
aI65
aI64
aI3
aI18
aI5
aI0
aI2
aI13
aI0
aI0
aI1
aI13
aI29
asS'escoa003'
p734
(lp735
g734
aS'Alcides Escobar'
p736
aI662
aI612
aI75
aI157
aI20
aI5
aI3
aI47
aI17
aI5
aI26
aI75
aI196
asS'suare001'
p737
(lp738
g737
aS'Eugenio Suarez'
p739
aI398
aI372
aI42
aI104
aI19
aI2
aI13
aI48
aI4
aI1
aI17
aI94
aI166
asS'hedga001'
p740
(lp741
g740
aS'Austin Hedges'
p742
aI152
aI137
aI13
aI23
aI2
aI0
aI3
aI11
aI0
aI0
aI8
aI38
aI34
asS'davic003'
p743
(lp744
g743
aS'Chris Davis'
p745
aI670
aI573
aI100
aI150
aI31
aI0
aI47
aI117
aI2
aI3
aI84
aI208
aI322
asS'arrij001'
p746
(lp747
g746
aS'Jake Arrieta'
p748
aI83
aI79
aI5
aI12
aI1
aI1
aI2
aI2
aI0
aI0
aI1
aI45
aI21
asS'rua-r001'
p749
(lp750
g749
aS'Ryan Rua'
p751
aI86
aI83
aI10
aI16
aI5
aI0
aI4
aI7
aI0
aI0
aI3
aI32
aI33
asS'wootr001'
p752
(lp753
g752
aS'Rob Wooten'
p754
aI1
aI1
aI0
aI0
aI0
aI0
aI0
aI0
aI0
aI0
aI0
aI0
aI0
asS'bautj002'
p755
(lp756
g755
aS'Jose Bautista'
p757
aI666
aI543
aI108
aI136
aI29
aI3
aI40
aI114
aI8
aI2
aI110
aI106
aI291
asS'tillc001'
p758
(lp759
g758
aS'Chris Tillman'
p760
aI2
aI2
aI0
aI0
aI0
aI0
aI0
aI0
aI0
aI0
aI0
aI2
aI0
asS'degrj001'
p761
(lp762
g761
aS'Jacob deGrom'
p763
aI66
aI59
aI3
aI11
aI1
aI0
aI0
aI4
aI0
aI0
aI3
aI16
aI12
asS'giavj001'
p764
(lp765
g764
aS'Johnny Giavotella'
p766
aI502
aI453
aI51
aI123
aI25
aI5
aI4
aI49
aI2
aI1
aI32
aI59
aI170
asS'gillc001'
p767
(lp768
g767
aS'Conor Gillaspie'
p769
aI253
aI237
aI14
aI54
aI15
aI2
aI4
aI24
aI0
aI1
aI13
aI47
aI85
asS'calhk001'
p770
(lp771
g770
aS'Kole Calhoun'
p772
aI686
aI630
aI78
aI161
aI23
aI2
aI26
aI83
aI4
aI1
aI45
aI164
aI266
asS'johnm006'
p773
(lp774
g773
aS'Micah Johnson'
p775
aI114
aI100
aI10
aI23
aI4
aI0
aI0
aI4
aI3
aI2
aI9
aI30
aI27
asS'odorj001'
p776
(lp777
g776
aS'Jake Odorizzi'
p778
aI4
aI4
aI0
aI0
aI0
aI0
aI0
aI0
aI0
aI0
aI0
aI2
aI0
asS'parkk001'
p779
(lp780
g779
aS'Kyle Parker'
p781
aI112
aI106
aI10
aI19
aI3
aI1
aI3
aI11
aI1
aI0
aI6
aI37
aI33
asS'herrd002'
p782
(lp783
g782
aS'Dilson Herrera'
p784
aI103
aI90
aI7
aI19
aI3
aI1
aI3
aI6
aI2
aI0
aI11
aI23
aI33
asS'gomeh001'
p785
(lp786
g785
aS'Hector Gomez'
p787
aI134
aI127
aI15
aI23
aI11
aI2
aI1
aI7
aI0
aI0
aI3
aI40
aI41
asS'handd001'
p788
(lp789
g788
aS'Donovan Hand'
p790
aI1
aI1
aI0
aI0
aI0
aI0
aI0
aI0
aI0
aI0
aI0
aI0
aI0
asS'yelic001'
p791
(lp792
g791
aS'Christian Yelich'
p793
aI525
aI476
aI63
aI143
aI30
aI2
aI7
aI44
aI16
aI5
aI47
aI101
aI198
asS'semim001'
p794
(lp795
g794
aS'Marcus Semien'
p796
aI601
aI556
aI65
aI143
aI23
aI7
aI15
aI45
aI11
aI5
aI42
aI132
aI225
asS'vanss001'
p797
(lp798
g797
aS'Scott Van Slyke'
p799
aI253
aI222
aI19
aI53
aI14
aI0
aI6
aI30
aI3
aI1
aI23
aI62
aI85
asS'tehej001'
p800
(lp801
g800
aS'Julio Teheran'
p802
aI68
aI52
aI0
aI5
aI0
aI0
aI0
aI2
aI0
aI0
aI2
aI9
aI5
asS'nunov001'
p803
(lp804
g803
aS'Vidal Nuno'
p805
aI7
aI7
aI0
aI1
aI0
aI0
aI0
aI1
aI0
aI0
aI0
aI0
aI1
asS'bolsm001'
p806
(lp807
g806
aS'Mike Bolsinger'
p808
aI40
aI38
aI1
aI1
aI1
aI0
aI0
aI0
aI0
aI0
aI0
aI23
aI2
asS'muncm001'
p809
(lp810
g809
aS'Max Muncy'
p811
aI112
aI102
aI14
aI21
aI8
aI1
aI3
aI9
aI0
aI0
aI9
aI31
aI40
asS'norrd002'
p812
(lp813
g812
aS'Daniel Norris'
p814
aI3
aI2
aI1
aI1
aI0
aI0
aI1
aI2
aI0
aI0
aI1
aI1
aI4
asS'russj003'
p815
(lp816
g815
aS'James Russell'
p817
aI1
aI1
aI0
aI0
aI0
aI0
aI0
aI0
aI0
aI0
aI0
aI1
aI0
asS'schwk001'
p818
(lp819
g818
aS'Kyle Schwarber'
p820
aI273
aI232
aI52
aI57
aI6
aI1
aI16
aI43
aI3
aI3
aI36
aI77
aI113
asS'phegj001'
p821
(lp822
g821
aS'Josh Phegley'
p823
aI243
aI225
aI27
aI56
aI16
aI1
aI9
aI34
aI0
aI0
aI14
aI51
aI101
asS'diaze005'
p824
(lp825
g824
aS'Elias Diaz'
p826
aI2
aI2
aI0
aI0
aI0
aI0
aI0
aI0
aI0
aI0
aI0
aI1
aI0
asS'choos001'
p827
(lp828
g827
aS'Shin-Soo Choo'
p829
aI653
aI555
aI94
aI153
aI32
aI3
aI22
aI82
aI4
aI2
aI76
aI147
aI257
asS'travd001'
p830
(lp831
g830
aS'Devon Travis'
p832
aI239
aI217
aI38
aI66
aI18
aI0
aI8
aI35
aI3
aI1
aI18
aI43
aI108
asS'pereh001'
p833
(lp834
g833
aS'Hernan Perez'
p835
aI272
aI263
aI14
aI64
aI15
aI2
aI1
aI21
aI5
aI1
aI5
aI59
aI86
asS'davii001'
p836
(lp837
g836
aS'Ike Davis'
p838
aI239
aI214
aI19
aI49
aI17
aI0
aI3
aI20
aI0
aI0
aI23
aI44
aI75
asS'pindb001'
p839
(lp840
g839
aS'Branden Pinder'
p841
aI1
aI1
aI0
aI1
aI1
aI0
aI0
aI1
aI0
aI0
aI0
aI0
aI2
asS'gibsk002'
p842
(lp843
g842
aS'Kyle Gibson'
p844
aI5
aI5
aI0
aI1
aI0
aI0
aI0
aI0
aI0
aI0
aI0
aI2
aI1
asS'cartc002'
p845
(lp846
g845
aS'Chris Carter'
p847
aI460
aI391
aI50
aI78
aI17
aI0
aI24
aI64
aI1
aI2
aI57
aI151
aI167
asS'ramia001'
p848
(lp849
g848
aS'Aramis Ramirez'
p850
aI516
aI475
aI43
aI117
aI31
aI1
aI17
aI75
aI1
aI0
aI31
aI68
aI201
asS'paxtj001'
p851
(lp852
g851
aS'James Paxton'
p853
aI2
aI2
aI0
aI0
aI0
aI0
aI0
aI0
aI0
aI0
aI0
aI2
aI0
asS'ashln001'
p854
(lp855
g854
aS'Nevin Ashley'
p856
aI21
aI20
aI2
aI2
aI1
aI0
aI0
aI1
aI0
aI0
aI0
aI8
aI3
asS'ladet001'
p857
(lp858
g857
aS'Tyler Ladendorf'
p859
aI18
aI17
aI3
aI4
aI0
aI1
aI0
aI2
aI0
aI0
aI1
aI2
aI6
asS'millb002'
p860
(lp861
g860
aS'Brad Miller'
p862
aI497
aI438
aI44
aI113
aI22
aI4
aI11
aI46
aI13
aI4
aI47
aI101
aI176
asS'sabac001'
p863
(lp864
g863
aS'C.C. Sabathia'
p865
aI3
aI3
aI0
aI0
aI0
aI0
aI0
aI0
aI0
aI0
aI0
aI2
aI0
asS'ozunm001'
p866
(lp867
g866
aS'Marcell Ozuna'
p868
aI494
aI459
aI47
aI119
aI27
aI0
aI10
aI44
aI2
aI3
aI30
aI110
aI176
asS'swisn001'
p869
(lp870
g869
aS'Nick Swisher'
p871
aI260
aI219
aI14
aI43
aI9
aI0
aI6
aI25
aI0
aI0
aI35
aI54
aI70
asS'boesb001'
p872
(lp873
g872
aS'Brennan Boesch'
p874
aI94
aI89
aI4
aI13
aI2
aI0
aI1
aI5
aI1
aI0
aI4
aI30
aI18
asS'lucrj001'
p875
(lp876
g875
aS'Jonathan Lucroy'
p877
aI415
aI371
aI51
aI98
aI20
aI3
aI7
aI43
aI1
aI0
aI36
aI64
aI145
asS'rosst001'
p878
(lp879
g878
aS'Tyson Ross'
p880
aI68
aI56
aI6
aI14
aI1
aI1
aI1
aI6
aI0
aI0
aI2
aI19
aI20
asS'galvf001'
p881
(lp882
g881
aS'Freddy Galvis'
p883
aI603
aI559
aI62
aI147
aI14
aI5
aI7
aI50
aI10
aI1
aI30
aI103
aI192
asS'hughp001'
p884
(lp885
g884
aS'Phil Hughes'
p886
aI3
aI3
aI0
aI0
aI0
aI0
aI0
aI0
aI0
aI0
aI0
aI0
aI0
asS'sadlc002'
p887
(lp888
g887
aS'Casey Sadler'
p889
aI2
aI1
aI0
aI0
aI0
aI0
aI0
aI0
aI0
aI0
aI0
aI0
aI0
asS'axeld001'
p890
(lp891
g890
aS'Dylan Axelrod'
p892
aI3
aI2
aI0
aI0
aI0
aI0
aI0
aI0
aI0
aI0
aI0
aI1
aI0
asS'hudst001'
p893
(lp894
g893
aS'Tim Hudson'
p895
aI42
aI38
aI3
aI7
aI2
aI0
aI1
aI1
aI0
aI0
aI1
aI11
aI12
asS'sizeg001'
p896
(lp897
g896
aS'Grady Sizemore'
p898
aI296
aI273
aI24
aI69
aI17
aI0
aI6
aI33
aI3
aI3
aI20
aI60
aI104
asS'darnc001'
p899
(lp900
g899
aS"Chase d'Arnaud"
p901
aI18
aI17
aI2
aI3
aI0
aI1
aI0
aI0
aI0
aI1
aI1
aI7
aI5
asS'guthj001'
p902
(lp903
g902
aS'Jeremy Guthrie'
p904
aI5
aI4
aI0
aI1
aI0
aI0
aI0
aI0
aI0
aI0
aI0
aI0
aI1
asS'mcgec001'
p905
(lp906
g905
aS'Casey McGehee'
p907
aI258
aI237
aI14
aI47
aI12
aI0
aI2
aI20
aI1
aI1
aI21
aI50
aI65
asS'river003'
p908
(lp909
g908
aS'Rene Rivera'
p910
aI319
aI298
aI16
aI53
aI14
aI0
aI5
aI26
aI0
aI0
aI11
aI86
aI82
asS'pridj001'
p911
(lp912
g911
aS'Jason Pridie'
p913
aI10
aI9
aI0
aI0
aI0
aI0
aI0
aI0
aI0
aI0
aI1
aI4
aI0
asS'latom001'
p914
(lp915
g914
aS'Mat Latos'
p916
aI34
aI24
aI1
aI7
aI0
aI0
aI0
aI1
aI0
aI0
aI0
aI7
aI7
asS'syndn001'
p917
(lp918
g917
aS'Noah Syndergaard'
p919
aI50
aI43
aI2
aI9
aI1
aI0
aI1
aI4
aI0
aI0
aI1
aI26
aI13
asS'corrk001'
p920
(lp921
g920
aS'Kevin Correia'
p922
aI7
aI6
aI0
aI1
aI0
aI0
aI0
aI0
aI0
aI0
aI0
aI1
aI1
asS'arenn001'
p923
(lp924
g923
aS'Nolan Arenado'
p925
aI665
aI616
aI97
aI177
aI43
aI4
aI42
aI130
aI2
aI5
aI34
aI110
aI354
asS'alvap001'
p926
(lp927
g926
aS'Pedro Alvarez'
p928
aI491
aI437
aI60
aI106
aI18
aI0
aI27
aI77
aI2
aI0
aI48
aI131
aI205
asS'beltc001'
p929
(lp930
g929
aS'Carlos Beltran'
p931
aI531
aI478
aI57
aI132
aI34
aI1
aI19
aI67
aI0
aI0
aI45
aI85
aI225
asS'urenj001'
p932
(lp933
g932
aS'Jose Urena'
p934
aI13
aI13
aI0
aI1
aI0
aI0
aI0
aI0
aI0
aI0
aI0
aI9
aI1
asS'herrj002'
p935
(lp936
g935
aS'Jonathan Herrera'
p937
aI132
aI126
aI14
aI29
aI5
aI1
aI2
aI14
aI3
aI0
aI2
aI23
aI42
asS'saltj001'
p938
(lp939
g938
aS'Jarrod Saltalamacchia'
p940
aI227
aI200
aI26
aI45
aI15
aI0
aI9
aI24
aI0
aI0
aI23
aI69
aI87
asS'sanom001'
p941
(lp942
g941
aS'Miguel Sano'
p943
aI335
aI279
aI46
aI75
aI17
aI1
aI18
aI52
aI1
aI1
aI53
aI119
aI148
asS'deshd002'
p944
(lp945
g944
aS'Delino DeShields'
p946
aI492
aI425
aI82
aI111
aI22
aI10
aI2
aI37
aI25
aI8
aI53
aI101
aI159
asS'valed001'
p947
(lp948
g947
aS'Danny Valencia'
p949
aI378
aI345
aI59
aI100
aI23
aI1
aI18
aI66
aI2
aI2
aI29
aI80
aI179
asS'mitcb001'
p950
(lp951
g950
aS'Bryan Mitchell'
p952
aI1
aI1
aI0
aI0
aI0
aI0
aI0
aI0
aI0
aI0
aI0
aI1
aI0
asS'flahr001'
p953
(lp954
g953
aS'Ryan Flaherty'
p955
aI301
aI267
aI34
aI54
aI8
aI3
aI9
aI31
aI0
aI0
aI26
aI81
aI95
asS'diazj004'
p956
(lp957
g956
aS'Jonathan Diaz'
p958
aI16
aI13
aI1
aI2
aI0
aI0
aI0
aI2
aI0
aI0
aI1
aI3
aI2
asS'eickj001'
p959
(lp960
g959
aS'Jerad Eickhoff'
p961
aI16
aI14
aI1
aI2
aI0
aI0
aI0
aI2
aI0
aI0
aI0
aI7
aI2
asS'heisc001'
p962
(lp963
g962
aS'Chris Heisey'
p964
aI72
aI55
aI8
aI10
aI2
aI0
aI2
aI9
aI0
aI1
aI15
aI17
aI18
asS'mathj001'
p965
(lp966
g965
aS'Jeff Mathis'
p967
aI103
aI93
aI9
aI15
aI4
aI1
aI2
aI12
aI0
aI0
aI7
aI24
aI27
asS'baros002'
p968
(lp969
g968
aS'Steve Baron'
p970
aI11
aI11
aI0
aI0
aI0
aI0
aI0
aI0
aI0
aI0
aI0
aI2
aI0
asS'middw001'
p971
(lp972
g971
aS'Will Middlebrooks'
p973
aI270
aI255
aI23
aI54
aI7
aI2
aI9
aI29
aI2
aI1
aI11
aI60
aI92
asS'coled002'
p974
(lp975
g974
aS'Dusty Coleman'
p976
aI5
aI5
aI0
aI0
aI0
aI0
aI0
aI0
aI0
aI0
aI0
aI3
aI0
asS'plawk001'
p977
(lp978
g977
aS'Kevin Plawecki'
p979
aI258
aI233
aI18
aI51
aI9
aI0
aI3
aI21
aI0
aI0
aI17
aI60
aI69
asS'socom001'
p980
(lp981
g980
aS'Miguel Socolovich'
p982
aI1
aI1
aI0
aI0
aI0
aI0
aI0
aI0
aI0
aI0
aI0
aI0
aI0
asS'castd001'
p983
(lp984
g983
aS'Daniel Castro'
p985
aI100
aI96
aI14
aI23
aI2
aI1
aI2
aI5
aI0
aI0
aI3
aI15
aI33
asS'kipnj001'
p986
(lp987
g986
aS'Jason Kipnis'
p988
aI641
aI565
aI86
aI171
aI43
aI7
aI9
aI52
aI12
aI8
aI57
aI107
aI255
asS'bogub001'
p989
(lp990
g989
aS'Brian Bogusevic'
p991
aI61
aI58
aI9
aI15
aI3
aI0
aI2
aI5
aI2
aI0
aI3
aI21
aI24
asS'sanch002'
p992
(lp993
g992
aS'Hector Sanchez'
p994
aI59
aI56
aI5
aI10
aI4
aI0
aI1
aI5
aI0
aI0
aI2
aI14
aI17
asS'godlz001'
p995
(lp996
g995
aS'Zack Godley'
p997
aI10
aI9
aI0
aI1
aI0
aI0
aI0
aI0
aI0
aI0
aI0
aI6
aI1
asS'mahtm001'
p998
(lp999
g998
aS'Mikie Mahtook'
p1000
aI115
aI105
aI22
aI31
aI5
aI1
aI9
aI19
aI4
aI3
aI6
aI31
aI65
asS'altuj001'
p1001
(lp1002
g1001
aS'Jose Altuve'
p1003
aI689
aI638
aI86
aI200
aI40
aI4
aI15
aI66
aI38
aI13
aI33
aI67
aI293
asS'walkt004'
p1004
(lp1005
g1004
aS'Taijuan Walker'
p1006
aI10
aI9
aI0
aI1
aI1
aI0
aI0
aI1
aI0
aI0
aI0
aI5
aI2
asS'peres002'
p1007
(lp1008
g1007
aS'Salvador Perez'
p1009
aI553
aI531
aI52
aI138
aI25
aI0
aI21
aI70
aI1
aI0
aI13
aI82
aI226
asS'renda001'
p1010
(lp1011
g1010
aS'Anthony Rendon'
p1012
aI355
aI311
aI43
aI82
aI16
aI0
aI5
aI25
aI1
aI2
aI36
aI70
aI113
asS'martm003'
p1013
(lp1014
g1013
aS'Michael Martinez'
p1015
aI32
aI30
aI7
aI8
aI2
aI0
aI0
aI2
aI0
aI1
aI1
aI12
aI10
asS'goinr001'
p1016
(lp1017
g1016
aS'Ryan Goins'
p1018
aI428
aI376
aI52
aI94
aI16
aI4
aI5
aI45
aI2
aI1
aI39
aI83
aI133
asS'munod001'
p1019
(lp1020
g1019
aS'Danny Muno'
p1021
aI32
aI27
aI2
aI4
aI1
aI0
aI0
aI0
aI1
aI0
aI4
aI11
aI5
asS'butlj002'
p1022
(lp1023
g1022
aS'Joey Butler'
p1024
aI276
aI257
aI30
aI71
aI12
aI0
aI8
aI30
aI5
aI2
aI16
aI82
aI107
asS'garzm001'
p1025
(lp1026
g1025
aS'Matt Garza'
p1027
aI47
aI39
aI0
aI3
aI0
aI0
aI0
aI0
aI0
aI1
aI1
aI21
aI3
asS'jungt001'
p1028
(lp1029
g1028
aS'Taylor Jungmann'
p1030
aI44
aI37
aI2
aI10
aI2
aI0
aI0
aI0
aI0
aI0
aI1
aI12
aI12
asS'villp001'
p1031
(lp1032
g1031
aS'Pedro Villarreal'
p1033
aI6
aI6
aI0
aI1
aI1
aI0
aI0
aI2
aI0
aI0
aI0
aI3
aI2
asS'samaj001'
p1034
(lp1035
g1034
aS'Jeff Samardzija'
p1036
aI2
aI2
aI0
aI1
aI0
aI0
aI0
aI0
aI0
aI0
aI0
aI1
aI1
asS'lyont001'
p1037
(lp1038
g1037
aS'Tyler Lyons'
p1039
aI20
aI16
aI3
aI3
aI0
aI0
aI0
aI1
aI0
aI0
aI2
aI4
aI3
asS'aguij001'
p1040
(lp1041
g1040
aS'Jesus Aguilar'
p1042
aI20
aI19
aI0
aI6
aI1
aI0
aI0
aI2
aI0
aI0
aI0
aI7
aI7
asS'romos001'
p1043
(lp1044
g1043
aS'Sergio Romo'
p1045
aI2
aI2
aI0
aI0
aI0
aI0
aI0
aI0
aI0
aI0
aI0
aI1
aI0
asS'dudal001'
p1046
(lp1047
g1046
aS'Lucas Duda'
p1048
aI554
aI471
aI67
aI115
aI33
aI0
aI27
aI73
aI0
aI2
aI66
aI138
aI229
asS'nievw001'
p1049
(lp1050
g1049
aS'Wil Nieves'
p1051
aI14
aI13
aI1
aI1
aI0
aI0
aI1
aI4
aI0
aI0
aI1
aI4
aI4
asS'braur002'
p1052
(lp1053
g1052
aS'Ryan Braun'
p1054
aI568
aI506
aI87
aI144
aI27
aI3
aI25
aI84
aI24
aI4
aI54
aI115
aI252
asS'solis001'
p1055
(lp1056
g1055
aS'Sammy Solis'
p1057
aI2
aI2
aI0
aI1
aI0
aI0
aI0
aI0
aI0
aI0
aI0
aI0
aI1
asS'piera001'
p1058
(lp1059
g1058
aS'A.J. Pierzynski'
p1060
aI436
aI407
aI38
aI122
aI24
aI1
aI9
aI49
aI0
aI2
aI19
aI37
aI175
asS'granc001'
p1061
(lp1062
g1061
aS'Curtis Granderson'
p1063
aI682
aI580
aI98
aI150
aI33
aI2
aI26
aI70
aI11
aI6
aI91
aI151
aI265
asS'marta005'
p1064
(lp1065
g1064
aS'Alfredo Marte'
p1066
aI8
aI6
aI0
aI2
aI0
aI0
aI0
aI0
aI0
aI0
aI1
aI1
aI2
asS'pompd001'
p1067
(lp1068
g1067
aS'Dalton Pompey'
p1069
aI103
aI94
aI17
aI21
aI8
aI0
aI2
aI6
aI5
aI1
aI7
aI23
aI35
asS'edwac001'
p1070
(lp1071
g1070
aS'Carl Edwards'
p1072
aI1
aI1
aI0
aI0
aI0
aI0
aI0
aI0
aI0
aI0
aI0
aI1
aI0
asS'bradj001'
p1073
(lp1074
g1073
aS'Jackie Bradley'
p1075
aI255
aI221
aI43
aI55
aI17
aI4
aI10
aI43
aI3
aI0
aI27
aI69
aI110
asS'lopej004'
p1076
(lp1077
g1076
aS'Jorge Lopez'
p1078
aI3
aI2
aI0
aI0
aI0
aI0
aI0
aI0
aI0
aI0
aI0
aI2
aI0
asS'cuetj001'
p1079
(lp1080
g1079
aS'Johnny Cueto'
p1081
aI43
aI37
aI1
aI6
aI0
aI0
aI0
aI0
aI0
aI0
aI1
aI10
aI6
asS'heana001'
p1082
(lp1083
g1082
aS'Andrew Heaney'
p1084
aI6
aI5
aI0
aI0
aI0
aI0
aI0
aI0
aI0
aI0
aI0
aI3
aI0
asS'jonea003'
p1085
(lp1086
g1085
aS'Adam Jones'
p1087
aI581
aI546
aI74
aI147
aI25
aI3
aI27
aI82
aI3
aI1
aI24
aI102
aI259
asS'cappc001'
p1088
(lp1089
g1088
aS'Carter Capps'
p1090
aI2
aI2
aI0
aI1
aI0
aI0
aI0
aI0
aI0
aI0
aI0
aI1
aI1
asS'montj003'
p1091
(lp1092
g1091
aS'Jesus Montero'
p1093
aI116
aI112
aI11
aI25
aI6
aI0
aI5
aI19
aI0
aI0
aI4
aI32
aI46
asS'sancg002'
p1094
(lp1095
g1094
aS'Gary Sanchez'
p1096
aI2
aI2
aI0
aI0
aI0
aI0
aI0
aI0
aI0
aI0
aI0
aI1
aI0
asS'reveb001'
p1097
(lp1098
g1097
aS'Ben Revere'
p1099
aI634
aI592
aI84
aI181
aI22
aI7
aI2
aI45
aI31
aI7
aI32
aI64
aI223
asS'casac001'
p1100
(lp1101
g1100
aS'Curt Casali'
p1102
aI113
aI101
aI13
aI24
aI6
aI0
aI10
aI18
aI0
aI0
aI8
aI34
aI60
asS'stewc001'
p1103
(lp1104
g1103
aS'Chris Stewart'
p1105
aI172
aI159
aI9
aI46
aI8
aI0
aI0
aI15
aI0
aI0
aI6
aI29
aI54
asS'wilsc004'
p1106
(lp1107
g1106
aS'C.J. Wilson'
p1108
aI6
aI6
aI0
aI2
aI0
aI0
aI0
aI0
aI0
aI0
aI0
aI1
aI2
asS'simma001'
p1109
(lp1110
g1109
aS'Andrelton Simmons'
p1111
aI583
aI535
aI60
aI142
aI23
aI2
aI4
aI44
aI5
aI3
aI39
aI48
aI181
asS'reeda001'
p1112
(lp1113
g1112
aS'Addison Reed'
p1114
aI2
aI2
aI0
aI0
aI0
aI0
aI0
aI0
aI0
aI0
aI0
aI0
aI0
asS'amara001'
p1115
(lp1116
g1115
aS'Alexi Amarista'
p1117
aI357
aI324
aI28
aI66
aI10
aI4
aI3
aI30
aI5
aI1
aI24
aI55
aI93
asS'cuddm001'
p1118
(lp1119
g1118
aS'Michael Cuddyer'
p1120
aI408
aI379
aI44
aI98
aI18
aI1
aI10
aI41
aI2
aI0
aI24
aI88
aI148
asS'hartc001'
p1121
(lp1122
g1121
aS'Corey Hart'
p1123
aI57
aI54
aI3
aI12
aI1
aI0
aI2
aI9
aI0
aI0
aI1
aI19
aI19
asS'gosea001'
p1124
(lp1125
g1124
aS'Anthony Gose'
p1126
aI535
aI485
aI73
aI123
aI24
aI8
aI5
aI26
aI23
aI11
aI45
aI145
aI178
asS'butle001'
p1127
(lp1128
g1127
aS'Eddie Butler'
p1129
aI24
aI23
aI0
aI1
aI0
aI0
aI0
aI0
aI0
aI0
aI0
aI13
aI1
asS'bettc001'
p1130
(lp1131
g1130
aS'Chad Bettis'
p1132
aI33
aI29
aI2
aI2
aI0
aI0
aI0
aI1
aI0
aI0
aI4
aI13
aI2
asS'grees005'
p1133
(lp1134
g1133
aS'Shane Greene'
p1135
aI5
aI5
aI0
aI0
aI0
aI0
aI0
aI0
aI0
aI0
aI0
aI5
aI0
asS'domic001'
p1136
(lp1137
g1136
aS'Chris Dominguez'
p1138
aI23
aI23
aI2
aI6
aI1
aI1
aI1
aI3
aI0
aI0
aI0
aI12
aI12
asS'rea-c001'
p1139
(lp1140
g1139
aS'Colin Rea'
p1141
aI12
aI9
aI2
aI2
aI1
aI0
aI0
aI0
aI0
aI0
aI1
aI4
aI3
asS'thomt002'
p1142
(lp1143
g1142
aS'Trayce Thompson'
p1144
aI135
aI122
aI17
aI36
aI8
aI3
aI5
aI16
aI1
aI0
aI13
aI26
aI65
asS'wielj001'
p1145
(lp1146
g1145
aS'Joe Wieland'
p1147
aI2
aI1
aI0
aI0
aI0
aI0
aI0
aI0
aI0
aI0
aI0
aI1
aI0
asS'andre001'
p1148
(lp1149
g1148
aS'Elvis Andrus'
p1150
aI661
aI596
aI69
aI154
aI34
aI2
aI7
aI62
aI25
aI9
aI46
aI78
aI213
asS'leons001'
p1151
(lp1152
g1151
aS'Sandy Leon'
p1153
aI128
aI114
aI8
aI21
aI2
aI0
aI0
aI3
aI0
aI1
aI7
aI28
aI23
asS'jordt001'
p1154
(lp1155
g1154
aS'Taylor Jordan'
p1156
aI6
aI6
aI0
aI2
aI0
aI0
aI0
aI0
aI0
aI0
aI0
aI2
aI2
asS'martk001'
p1157
(lp1158
g1157
aS'Ketel Marte'
p1159
aI247
aI219
aI25
aI62
aI14
aI3
aI2
aI17
aI8
aI4
aI24
aI43
aI88
asS'brada001'
p1160
(lp1161
g1160
aS'Archie Bradley'
p1162
aI14
aI14
aI0
aI2
aI0
aI0
aI0
aI0
aI0
aI1
aI0
aI7
aI2
asS'greeg002'
p1163
(lp1164
g1163
aS'Grant Green'
p1165
aI44
aI42
aI6
aI8
aI0
aI0
aI1
aI3
aI0
aI1
aI2
aI14
aI11
asS'martc006'
p1166
(lp1167
g1166
aS'Carlos Martinez'
p1168
aI63
aI56
aI2
aI8
aI2
aI0
aI0
aI0
aI0
aI0
aI1
aI23
aI10
asS'ellia001'
p1169
(lp1170
g1169
aS'A.J. Ellis'
p1171
aI217
aI181
aI24
aI43
aI9
aI0
aI7
aI21
aI0
aI0
aI32
aI38
aI73
asS'garcj004'
p1172
(lp1173
g1172
aS'Jaime Garcia'
p1174
aI44
aI41
aI1
aI4
aI0
aI0
aI0
aI1
aI0
aI0
aI2
aI15
aI4
asS'lestj001'
p1175
(lp1176
g1175
aS'Jon Lester'
p1177
aI71
aI62
aI6
aI4
aI0
aI0
aI0
aI0
aI0
aI0
aI3
aI30
aI4
asS'birdg001'
p1178
(lp1179
g1178
aS'Greg Bird'
p1180
aI178
aI157
aI26
aI41
aI9
aI0
aI11
aI31
aI0
aI0
aI19
aI53
aI83
asS'pheld001'
p1181
(lp1182
g1181
aS'David Phelps'
p1183
aI40
aI34
aI0
aI4
aI0
aI0
aI0
aI0
aI0
aI0
aI0
aI16
aI4
asS'petes002'
p1184
(lp1185
g1184
aS'Shane Peterson'
p1186
aI226
aI201
aI22
aI52
aI7
aI3
aI2
aI16
aI0
aI1
aI20
aI55
aI71
asS'wallb001'
p1187
(lp1188
g1187
aS'Brett Wallace'
p1189
aI107
aI96
aI14
aI29
aI6
aI0
aI5
aI16
aI0
aI0
aI10
aI31
aI50
asS'gardb001'
p1190
(lp1191
g1190
aS'Brett Gardner'
p1192
aI656
aI571
aI94
aI148
aI26
aI3
aI16
aI66
aI20
aI5
aI68
aI135
aI228
asS'lopej002'
p1193
(lp1194
g1193
aS'Javier Lopez'
p1195
aI1
aI0
aI0
aI0
aI0
aI0
aI0
aI0
aI0
aI0
aI0
aI0
aI0
asS'barnb002'
p1196
(lp1197
g1196
aS'Brandon Barnes'
p1198
aI281
aI255
aI30
aI64
aI13
aI2
aI2
aI17
aI4
aI2
aI21
aI67
aI87
asS'dyksa001'
p1199
(lp1200
g1199
aS'Allan Dykstra'
p1201
aI38
aI31
aI3
aI4
aI0
aI0
aI1
aI4
aI0
aI0
aI6
aI12
aI7
asS'friac001'
p1202
(lp1203
g1202
aS'Carlos Frias'
p1204
aI24
aI21
aI1
aI1
aI0
aI0
aI0
aI0
aI0
aI0
aI1
aI12
aI1
asS'blana001'
p1205
(lp1206
g1205
aS'Andres Blanco'
p1207
aI261
aI233
aI32
aI68
aI22
aI3
aI7
aI25
aI1
aI1
aI21
aI44
aI117
asS'spanc001'
p1208
(lp1209
g1208
aS'Cory Spangenberg'
p1210
aI345
aI303
aI38
aI82
aI17
aI5
aI4
aI21
aI9
aI4
aI28
aI75
aI121
asS'murpd006'
p1211
(lp1212
g1211
aS'Daniel Murphy'
p1213
aI538
aI499
aI56
aI140
aI38
aI2
aI14
aI73
aI2
aI2
aI31
aI38
aI224
asS'frann001'
p1214
(lp1215
g1214
aS'Nick Franklin'
p1216
aI109
aI101
aI11
aI16
aI4
aI1
aI3
aI7
aI1
aI0
aI7
aI37
aI31
asS'byrdm001'
p1217
(lp1218
g1217
aS'Marlon Byrd'
p1219
aI544
aI506
aI58
aI125
aI25
aI5
aI23
aI73
aI2
aI1
aI29
aI145
aI229
asS'buted001'
p1220
(lp1221
g1220
aS'Drew Butera'
p1222
aI120
aI107
aI9
aI21
aI3
aI0
aI1
aI5
aI0
aI1
aI6
aI26
aI27
asS'difow001'
p1223
(lp1224
g1223
aS'Wilmer Difo'
p1225
aI11
aI11
aI1
aI2
aI0
aI0
aI0
aI0
aI0
aI0
aI0
aI2
aI2
asS'kersc001'
p1226
(lp1227
g1226
aS'Clayton Kershaw'
p1228
aI79
aI71
aI2
aI9
aI2
aI0
aI0
aI2
aI0
aI0
aI2
aI23
aI11
asS'adrie001'
p1229
(lp1230
g1229
aS'Ehire Adrianza'
p1231
aI134
aI113
aI11
aI21
aI7
aI1
aI0
aI11
aI3
aI2
aI15
aI20
aI30
asS'murpj001'
p1232
(lp1233
g1232
aS'JR Murphy'
p1234
aI172
aI155
aI21
aI43
aI9
aI1
aI3
aI14
aI0
aI0
aI12
aI43
aI63
asS'moora001'
p1235
(lp1236
g1235
aS'Adam Moore'
p1237
aI4
aI4
aI0
aI1
aI0
aI0
aI0
aI1
aI0
aI0
aI0
aI2
aI1
asS'adamm002'
p1238
(lp1239
g1238
aS'Matt Adams'
p1240
aI186
aI175
aI14
aI42
aI9
aI0
aI5
aI24
aI1
aI0
aI10
aI41
aI66
asS'sevep001'
p1241
(lp1242
g1241
aS'Pedro Severino'
p1243
aI4
aI4
aI1
aI1
aI1
aI0
aI0
aI0
aI0
aI0
aI0
aI1
aI2
asS'orlap001'
p1244
(lp1245
g1244
aS'Paulo Orlando'
p1246
aI251
aI241
aI31
aI60
aI14
aI6
aI7
aI27
aI3
aI3
aI5
aI53
aI107
asS'rasmc002'
p1247
(lp1248
g1247
aS'Cory Rasmus'
p1249
aI1
aI1
aI0
aI0
aI0
aI0
aI0
aI0
aI0
aI0
aI0
aI0
aI0
asS'hayeb001'
p1250
(lp1251
g1250
aS'Brett Hayes'
p1252
aI36
aI32
aI4
aI5
aI0
aI0
aI3
aI6
aI0
aI0
aI3
aI7
aI14
asS'gregd001'
p1253
(lp1254
g1253
aS'Didi Gregorius'
p1255
aI578
aI525
aI57
aI139
aI24
aI2
aI9
aI56
aI5
aI3
aI33
aI85
aI194
asS'kellc001'
p1256
(lp1257
g1256
aS'Casey Kelly'
p1258
aI3
aI2
aI0
aI0
aI0
aI0
aI0
aI0
aI0
aI0
aI0
aI0
aI0
asS'strar001'
p1259
(lp1260
g1259
aS'Ryan Strausborger'
p1261
aI51
aI45
aI9
aI9
aI0
aI0
aI1
aI3
aI2
aI1
aI3
aI11
aI12
asS'smolj002'
p1262
(lp1263
g1262
aS'Jake Smolinski'
p1264
aI192
aI166
aI24
aI32
aI7
aI2
aI6
aI26
aI1
aI1
aI19
aI39
aI61
asS'wachm001'
p1265
(lp1266
g1265
aS'Michael Wacha'
p1267
aI62
aI52
aI5
aI8
aI1
aI0
aI0
aI4
aI1
aI0
aI4
aI20
aI9
asS'freef001'
p1268
(lp1269
g1268
aS'Freddie Freeman'
p1270
aI481
aI416
aI62
aI115
aI27
aI0
aI18
aI66
aI3
aI1
aI56
aI98
aI196
asS'baxtm001'
p1271
(lp1272
g1271
aS'Mike Baxter'
p1273
aI66
aI57
aI6
aI14
aI1
aI0
aI0
aI2
aI0
aI0
aI7
aI14
aI15
asS'goede001'
p1274
(lp1275
g1274
aS'Erik Goeddel'
p1276
aI1
aI1
aI0
aI0
aI0
aI0
aI0
aI0
aI0
aI0
aI0
aI0
aI0
asS'puigy001'
p1277
(lp1278
g1277
aS'Yasiel Puig'
p1279
aI311
aI282
aI30
aI72
aI12
aI3
aI11
aI38
aI3
aI3
aI26
aI66
aI123
asS'carmf001'
p1280
(lp1281
g1280
aS'Roberto Hernandez'
p1282
aI3
aI2
aI1
aI0
aI0
aI0
aI0
aI0
aI0
aI0
aI1
aI2
aI0
asS'wertj001'
p1283
(lp1284
g1283
aS'Jayson Werth'
p1285
aI378
aI331
aI51
aI73
aI16
aI1
aI12
aI42
aI0
aI1
aI38
aI84
aI127
asS'escoe001'
p1286
(lp1287
g1286
aS'Eduardo Escobar'
p1288
aI446
aI409
aI48
aI107
aI31
aI4
aI12
aI58
aI2
aI3
aI28
aI86
aI182
asS'gomec002'
p1289
(lp1290
g1289
aS'Carlos Gomez'
p1291
aI477
aI435
aI60
aI111
aI29
aI1
aI12
aI56
aI17
aI9
aI31
aI101
aI178
asS'bloow001'
p1292
(lp1293
g1292
aS'Willie Bloomquist'
p1294
aI72
aI69
aI2
aI11
aI1
aI0
aI0
aI4
aI1
aI1
aI2
aI13
aI12
asS'martn002'
p1295
(lp1296
g1295
aS'Nick Martinez'
p1297
aI4
aI4
aI2
aI0
aI0
aI0
aI0
aI0
aI0
aI0
aI0
aI1
aI0
asS'weavj003'
p1298
(lp1299
g1298
aS'Jered Weaver'
p1300
aI2
aI2
aI0
aI0
aI0
aI0
aI0
aI0
aI0
aI0
aI0
aI1
aI0
asS'sweed001'
p1301
(lp1302
g1301
aS'Darnell Sweeney'
p1303
aI98
aI85
aI9
aI15
aI4
aI1
aI3
aI11
aI0
aI2
aI13
aI27
aI30
asS'lougd001'
p1304
(lp1305
g1304
aS'David Lough'
p1306
aI144
aI134
aI13
aI27
aI1
aI1
aI4
aI12
aI2
aI4
aI5
aI36
aI42
asS'sogae001'
p1307
(lp1308
g1307
aS'Eric Sogard'
p1309
aI401
aI372
aI40
aI92
aI12
aI3
aI1
aI37
aI6
aI1
aI23
aI50
aI113
asS'headc001'
p1310
(lp1311
g1310
aS'Chase Headley'
p1312
aI642
aI580
aI74
aI150
aI29
aI1
aI11
aI62
aI0
aI2
aI51
aI135
aI214
asS'perem004'
p1313
(lp1314
g1313
aS'Martin Perez'
p1315
aI2
aI2
aI0
aI0
aI0
aI0
aI0
aI0
aI0
aI0
aI0
aI2
aI0
asS'jennd002'
p1316
(lp1317
g1316
aS'Desmond Jennings'
p1318
aI108
aI97
aI9
aI26
aI2
aI1
aI1
aI7
aI5
aI3
aI8
aI17
aI33
asS'choar001'
p1319
(lp1320
g1319
aS'Randy Choate'
p1321
aI1
aI0
aI0
aI0
aI0
aI0
aI0
aI0
aI0
aI0
aI1
aI0
aI0
asS'reddj001'
p1322
(lp1323
g1322
aS'Josh Reddick'
p1324
aI582
aI526
aI67
aI143
aI25
aI4
aI20
aI77
aI10
aI2
aI49
aI65
aI236
asS'shucj001'
p1325
(lp1326
g1325
aS'J.B. Shuck'
p1327
aI165
aI143
aI15
aI38
aI8
aI2
aI0
aI15
aI7
aI5
aI16
aI16
aI50
asS'almoa001'
p1328
(lp1329
g1328
aS'Abraham Almonte'
p1330
aI258
aI232
aI36
aI58
aI12
aI5
aI5
aI24
aI7
aI1
aI21
aI52
aI95
asS'carre001'
p1331
(lp1332
g1331
aS'Ezequiel Carrera'
p1333
aI192
aI172
aI27
aI47
aI8
aI0
aI3
aI26
aI2
aI1
aI11
aI45
aI64
asS'duenb001'
p1334
(lp1335
g1334
aS'Brian Duensing'
p1336
aI1
aI1
aI0
aI0
aI0
aI0
aI0
aI0
aI0
aI0
aI0
aI0
aI0
asS'uggld001'
p1337
(lp1338
g1337
aS'Dan Uggla'
p1339
aI141
aI120
aI11
aI22
aI4
aI2
aI2
aI16
aI0
aI1
aI19
aI40
aI36
asS'baezj001'
p1340
(lp1341
g1340
aS'Javier Baez'
p1342
aI80
aI76
aI4
aI22
aI6
aI0
aI1
aI4
aI1
aI2
aI4
aI24
aI31
asS'gordd002'
p1343
(lp1344
g1343
aS'Dee Gordon'
p1345
aI653
aI615
aI88
aI205
aI24
aI8
aI4
aI46
aI58
aI20
aI25
aI91
aI257
asS'albeh001'
p1346
(lp1347
g1346
aS'Hanser Alberto'
p1348
aI104
aI99
aI12
aI22
aI2
aI1
aI0
aI4
aI1
aI0
aI2
aI17
aI26
asS'vargk001'
p1349
(lp1350
g1349
aS'Kennys Vargas'
p1351
aI184
aI175
aI18
aI42
aI4
aI0
aI5
aI17
aI0
aI0
aI9
aI54
aI61
asS'morak001'
p1352
(lp1353
g1352
aS'Kendrys Morales'
p1354
aI639
aI569
aI81
aI165
aI41
aI2
aI22
aI106
aI0
aI0
aI58
aI103
aI276
asS'bretr001'
p1355
(lp1356
g1355
aS'Ryan Brett'
p1357
aI4
aI3
aI0
aI2
aI1
aI0
aI0
aI0
aI0
aI0
aI1
aI0
aI3
asS'santc002'
p1358
(lp1359
g1358
aS'Carlos Santana'
p1360
aI666
aI550
aI72
aI127
aI29
aI2
aI19
aI85
aI11
aI3
aI108
aI122
aI217
asS'lakej001'
p1361
(lp1362
g1361
aS'Junior Lake'
p1363
aI84
aI80
aI4
aI16
aI7
aI0
aI1
aI5
aI4
aI0
aI4
aI29
aI26
asS'shoem001'
p1364
(lp1365
g1364
aS'Matt Shoemaker'
p1366
aI2
aI1
aI0
aI0
aI0
aI0
aI0
aI0
aI0
aI0
aI1
aI0
aI0
asS'herne001'
p1367
(lp1368
g1367
aS'Enrique Hernandez'
p1369
aI218
aI202
aI24
aI62
aI12
aI2
aI7
aI22
aI0
aI2
aI11
aI46
aI99
asS'milot001'
p1370
(lp1371
g1370
aS'Tom Milone'
p1372
aI2
aI2
aI0
aI0
aI0
aI0
aI0
aI0
aI0
aI0
aI0
aI1
aI0
asS'hosme001'
p1373
(lp1374
g1373
aS'Eric Hosmer'
p1375
aI667
aI599
aI98
aI178
aI33
aI5
aI18
aI93
aI7
aI3
aI61
aI108
aI275
asS'galer002'
p1376
(lp1377
g1376
aS'Rocky Gale'
p1378
aI10
aI10
aI0
aI1
aI0
aI0
aI0
aI0
aI0
aI0
aI0
aI1
aI1
asS'cirip001'
p1379
(lp1380
g1379
aS'Pedro Ciriaco'
p1381
aI151
aI142
aI14
aI37
aI8
aI1
aI1
aI15
aI4
aI2
aI2
aI38
aI50
asS'suzui001'
p1382
(lp1383
g1382
aS'Ichiro Suzuki'
p1384
aI438
aI398
aI45
aI91
aI5
aI6
aI1
aI21
aI11
aI5
aI31
aI51
aI111
asS'could001'
p1385
(lp1386
g1385
aS'Daniel Coulombe'
p1387
aI1
aI1
aI0
aI0
aI0
aI0
aI0
aI0
aI0
aI0
aI0
aI1
aI0
asS'cozaz001'
p1388
(lp1389
g1388
aS'Zack Cozart'
p1390
aI214
aI194
aI28
aI50
aI10
aI1
aI9
aI28
aI3
aI3
aI14
aI29
aI89
asS'joneg002'
p1391
(lp1392
g1391
aS'Garrett Jones'
p1393
aI152
aI144
aI12
aI31
aI4
aI1
aI5
aI17
aI0
aI0
aI8
aI37
aI52
asS'calla001'
p1394
(lp1395
g1394
aS'Alberto Callaspo'
p1396
aI261
aI230
aI20
aI54
aI7
aI0
aI1
aI15
aI0
aI0
aI28
aI34
aI64
asS'morsm001'
p1397
(lp1398
g1397
aS'Michael Morse'
p1399
aI256
aI229
aI14
aI53
aI7
aI1
aI5
aI19
aI0
aI0
aI23
aI76
aI77
asS'younc004'
p1400
(lp1401
g1400
aS'Chris Young'
p1402
aI356
aI318
aI53
aI80
aI20
aI1
aI14
aI42
aI3
aI1
aI30
aI73
aI144
asS'buehm001'
p1403
(lp1404
g1403
aS'Mark Buehrle'
p1405
aI9
aI7
aI0
aI1
aI0
aI0
aI0
aI0
aI0
aI0
aI1
aI3
aI1
asS'fistd001'
p1406
(lp1407
g1406
aS'Doug Fister'
p1408
aI39
aI31
aI2
aI7
aI1
aI0
aI0
aI0
aI0
aI0
aI2
aI15
aI8
asS'zimmj003'
p1409
(lp1410
g1409
aS'Jordan Zimmermann'
p1411
aI69
aI63
aI4
aI10
aI1
aI0
aI0
aI3
aI0
aI0
aI0
aI18
aI11
asS'younc003'
p1412
(lp1413
g1412
aS'Chris Young'
p1414
aI4
aI4
aI0
aI2
aI0
aI0
aI0
aI3
aI0
aI0
aI0
aI1
aI2
asS'rutlj001'
p1415
(lp1416
g1415
aS'Josh Rutledge'
p1417
aI85
aI74
aI11
aI21
aI1
aI0
aI1
aI10
aI0
aI0
aI5
aI26
aI25
asS'valdj002'
p1418
(lp1419
g1418
aS'Jordany Valdespin'
p1420
aI4
aI4
aI0
aI0
aI0
aI0
aI0
aI0
aI0
aI0
aI0
aI1
aI0
asS'kendh001'
p1421
(lp1422
g1421
aS'Howard Kendrick'
p1423
aI495
aI464
aI64
aI137
aI22
aI2
aI9
aI54
aI6
aI2
aI27
aI82
aI190
asS'brooa001'
p1424
(lp1425
g1424
aS'Aaron Brooks'
p1426
aI2
aI2
aI0
aI0
aI0
aI0
aI0
aI0
aI0
aI0
aI0
aI0
aI0
asS'rogej002'
p1427
(lp1428
g1427
aS'Jason Rogers'
p1429
aI169
aI152
aI22
aI45
aI6
aI2
aI4
aI16
aI0
aI0
aI15
aI34
aI67
asS'sches001'
p1430
(lp1431
g1430
aS'Scott Schebler'
p1432
aI40
aI36
aI6
aI9
aI0
aI0
aI3
aI4
aI2
aI1
aI3
aI13
aI18
asS'polla001'
p1433
(lp1434
g1433
aS'A.J. Pollock'
p1435
aI673
aI609
aI111
aI192
aI39
aI6
aI20
aI76
aI39
aI7
aI53
aI89
aI303
asS'millj006'
p1436
(lp1437
g1436
aS'Justin Miller'
p1438
aI3
aI2
aI0
aI0
aI0
aI0
aI0
aI0
aI0
aI0
aI0
aI2
aI0
asS'archc001'
p1439
(lp1440
g1439
aS'Chris Archer'
p1441
aI5
aI5
aI0
aI0
aI0
aI0
aI0
aI0
aI0
aI0
aI0
aI3
aI0
asS'blazm001'
p1442
(lp1443
g1442
aS'Michael Blazek'
p1444
aI4
aI4
aI0
aI1
aI1
aI0
aI0
aI1
aI0
aI0
aI0
aI2
aI2
asS'rosae001'
p1445
(lp1446
g1445
aS'Eddie Rosario'
p1447
aI474
aI453
aI60
aI121
aI18
aI15
aI13
aI50
aI11
aI6
aI15
aI118
aI208
asS'hellj001'
p1448
(lp1449
g1448
aS'Jeremy Hellickson'
p1450
aI49
aI41
aI3
aI9
aI0
aI0
aI0
aI7
aI0
aI0
aI2
aI14
aI9
asS'annad001'
p1451
(lp1452
g1451
aS'Dean Anna'
p1453
aI1
aI1
aI0
aI0
aI0
aI0
aI0
aI0
aI0
aI0
aI0
aI0
aI0
asS'cabrm002'
p1454
(lp1455
g1454
aS'Melky Cabrera'
p1456
aI683
aI629
aI70
aI172
aI36
aI2
aI12
aI77
aI3
aI0
aI40
aI88
aI248
asS'harpb003'
p1457
(lp1458
g1457
aS'Bryce Harper'
p1459
aI654
aI521
aI118
aI172
aI38
aI1
aI42
aI99
aI6
aI4
aI124
aI131
aI338
asS'schaj002'
p1460
(lp1461
g1460
aS'Jordan Schafer'
p1462
aI74
aI69
aI9
aI15
aI3
aI0
aI0
aI5
aI0
aI3
aI3
aI23
aI18
asS'drurb001'
p1463
(lp1464
g1463
aS'Brandon Drury'
p1465
aI59
aI56
aI3
aI12
aI3
aI0
aI2
aI8
aI0
aI0
aI2
aI8
aI21
asS'holtt001'
p1466
(lp1467
g1466
aS'Tyler Holt'
p1468
aI34
aI31
aI4
aI3
aI0
aI0
aI0
aI0
aI1
aI0
aI3
aI11
aI3
asS'tartt001'
p1469
(lp1470
g1469
aS'Travis Tartamella'
p1471
aI2
aI2
aI0
aI1
aI0
aI0
aI0
aI0
aI0
aI0
aI0
aI0
aI1
asS'rabur001'
p1472
(lp1473
g1472
aS'Ryan Raburn'
p1474
aI201
aI173
aI22
aI52
aI16
aI1
aI8
aI29
aI0
aI0
aI23
aI44
aI94
asS'wietm001'
p1475
(lp1476
g1475
aS'Matt Wieters'
p1477
aI282
aI258
aI24
aI69
aI14
aI1
aI8
aI25
aI0
aI0
aI21
aI67
aI109
asS'felds001'
p1478
(lp1479
g1478
aS'Scott Feldman'
p1480
aI2
aI2
aI0
aI1
aI0
aI0
aI0
aI0
aI0
aI0
aI0
aI1
aI1
asS'bonie001'
p1481
(lp1482
g1481
aS'Emilio Bonifacio'
p1483
aI82
aI78
aI5
aI13
aI2
aI0
aI0
aI4
aI1
aI4
aI2
aI27
aI15
asS'daviz001'
p1484
(lp1485
g1484
aS'Zach Davies'
p1486
aI14
aI13
aI1
aI1
aI0
aI0
aI0
aI0
aI0
aI0
aI0
aI3
aI1
asS'kazms001'
p1487
(lp1488
g1487
aS'Scott Kazmir'
p1489
aI4
aI4
aI1
aI1
aI0
aI0
aI0
aI1
aI0
aI0
aI0
aI2
aI1
asS'parmc001'
p1490
(lp1491
g1490
aS'Chris Parmelee'
p1492
aI102
aI97
aI11
aI21
aI7
aI1
aI4
aI9
aI0
aI1
aI4
aI26
aI42
asS'vogts001'
p1493
(lp1494
g1493
aS'Stephen Vogt'
p1495
aI511
aI445
aI58
aI116
aI21
aI3
aI18
aI71
aI0
aI2
aI56
aI97
aI197
asS'volqe001'
p1496
(lp1497
g1496
aS'Edinson Volquez'
p1498
aI6
aI6
aI0
aI0
aI0
aI0
aI0
aI0
aI0
aI0
aI0
aI4
aI0
asS'descd001'
p1499
(lp1500
g1499
aS'Daniel Descalso'
p1501
aI209
aI185
aI22
aI38
aI3
aI2
aI5
aI22
aI1
aI2
aI20
aI45
aI60
asS'porcr001'
p1502
(lp1503
g1502
aS'Rick Porcello'
p1504
aI2
aI2
aI0
aI0
aI0
aI0
aI0
aI0
aI0
aI0
aI0
aI2
aI0
asS'navar001'
p1505
(lp1506
g1505
aS'Rey Navarro'
p1507
aI30
aI29
aI5
aI8
aI2
aI0
aI1
aI3
aI0
aI0
aI0
aI3
aI13
asS'iwakh001'
p1508
(lp1509
g1508
aS'Hisashi Iwakuma'
p1510
aI3
aI2
aI0
aI0
aI0
aI0
aI0
aI0
aI0
aI0
aI0
aI2
aI0
asS'nolaa001'
p1511
(lp1512
g1511
aS'Aaron Nola'
p1513
aI26
aI23
aI0
aI2
aI0
aI0
aI0
aI1
aI0
aI0
aI1
aI16
aI2
asS'klubc001'
p1514
(lp1515
g1514
aS'Corey Kluber'
p1516
aI6
aI6
aI0
aI0
aI0
aI0
aI0
aI0
aI0
aI0
aI0
aI3
aI0
asS'herno002'
p1517
(lp1518
g1517
aS'Oscar Hernandez'
p1519
aI36
aI31
aI4
aI5
aI1
aI0
aI0
aI1
aI0
aI0
aI3
aI15
aI6
asS'ortid001'
p1520
(lp1521
g1520
aS'David Ortiz'
p1522
aI614
aI528
aI73
aI144
aI37
aI0
aI37
aI108
aI0
aI1
aI77
aI95
aI292
asS'cainl001'
p1523
(lp1524
g1523
aS'Lorenzo Cain'
p1525
aI604
aI551
aI101
aI169
aI34
aI6
aI16
aI72
aI28
aI6
aI37
aI98
aI263
asS'gonzg003'
p1526
(lp1527
g1526
aS'Gio Gonzalez'
p1528
aI56
aI43
aI1
aI4
aI1
aI0
aI0
aI2
aI0
aI0
aI1
aI18
aI5
asS'aumop001'
p1529
(lp1530
g1529
aS'Phillippe Aumont'
p1531
aI1
aI0
aI0
aI0
aI0
aI0
aI0
aI0
aI0
aI0
aI1
aI0
aI0
asS'negrk001'
p1532
(lp1533
g1532
aS'Kristopher Negron'
p1534
aI107
aI93
aI5
aI13
aI2
aI0
aI0
aI2
aI2
aI0
aI9
aI23
aI15
asS'richc002'
p1535
(lp1536
g1535
aS'Clayton Richard'
p1537
aI15
aI14
aI1
aI2
aI2
aI0
aI0
aI3
aI0
aI0
aI1
aI6
aI4
asS'robic001'
p1538
(lp1539
g1538
aS'Clint Robinson'
p1540
aI352
aI309
aI44
aI84
aI15
aI1
aI10
aI34
aI0
aI0
aI37
aI52
aI131
asS'espid001'
p1541
(lp1542
g1541
aS'Danny Espinosa'
p1543
aI412
aI367
aI59
aI88
aI21
aI1
aI13
aI37
aI5
aI2
aI33
aI106
aI150
asS'berrq001'
p1544
(lp1545
g1544
aS'Quintin Berry'
p1546
aI1
aI1
aI1
aI0
aI0
aI0
aI0
aI0
aI2
aI1
aI0
aI1
aI0
asS'buchc001'
p1547
(lp1548
g1547
aS'Clay Buchholz'
p1549
aI6
aI6
aI0
aI0
aI0
aI0
aI0
aI0
aI0
aI0
aI0
aI2
aI0
asS'yound003'
p1550
(lp1551
g1550
aS'Delmon Young'
p1552
aI180
aI174
aI20
aI47
aI6
aI0
aI2
aI16
aI0
aI0
aI4
aI29
aI59
asS'stanc002'
p1553
(lp1554
g1553
aS'Cody Stanley'
p1555
aI10
aI10
aI2
aI4
aI1
aI0
aI0
aI3
aI0
aI0
aI0
aI3
aI5
asS'beacb001'
p1556
(lp1557
g1556
aS'Brandon Beachy'
p1558
aI2
aI2
aI0
aI0
aI0
aI0
aI0
aI0
aI0
aI0
aI0
aI1
aI0
asS'ariaj001'
p1559
(lp1560
g1559
aS'Joaquin Arias'
p1561
aI59
aI58
aI5
aI12
aI1
aI0
aI1
aI4
aI1
aI0
aI0
aI12
aI16
asS'friec001'
p1562
(lp1563
g1562
aS'Christian Friedrich'
p1564
aI3
aI3
aI0
aI0
aI0
aI0
aI0
aI0
aI0
aI0
aI0
aI0
aI0
asS'avill001'
p1565
(lp1566
g1565
aS'Luis Avilan'
p1567
aI1
aI1
aI0
aI0
aI0
aI0
aI0
aI0
aI0
aI0
aI0
aI0
aI0
asS'collj001'
p1568
(lp1569
g1568
aS'Josh Collmenter'
p1570
aI32
aI27
aI2
aI5
aI0
aI0
aI0
aI1
aI0
aI0
aI3
aI9
aI5
asS'utlec001'
p1571
(lp1572
g1571
aS'Chase Utley'
p1573
aI423
aI373
aI37
aI79
aI21
aI2
aI8
aI39
aI4
aI0
aI32
aI64
aI128
asS'ramow001'
p1574
(lp1575
g1574
aS'Wilson Ramos'
p1576
aI504
aI475
aI41
aI109
aI16
aI0
aI15
aI68
aI0
aI0
aI21
aI101
aI170
asS'jay-j001'
p1577
(lp1578
g1577
aS'Jon Jay'
p1579
aI245
aI210
aI25
aI44
aI5
aI1
aI1
aI10
aI0
aI2
aI19
aI36
aI54
asS'grimj002'
p1580
(lp1581
g1580
aS'Justin Grimm'
p1582
aI1
aI1
aI0
aI0
aI0
aI0
aI0
aI0
aI0
aI0
aI0
aI1
aI0
asS'stasm001'
p1583
(lp1584
g1583
aS'Max Stassi'
p1585
aI17
aI15
aI4
aI6
aI0
aI0
aI1
aI2
aI0
aI0
aI1
aI5
aI9
asS'buxtb001'
p1586
(lp1587
g1586
aS'Byron Buxton'
p1588
aI138
aI129
aI16
aI27
aI7
aI1
aI2
aI6
aI2
aI2
aI6
aI44
aI42
asS'field001'
p1589
(lp1590
g1589
aS'Daniel Fields'
p1591
aI3
aI3
aI1
aI1
aI1
aI0
aI0
aI0
aI0
aI0
aI0
aI2
aI2
asS'johnc003'
p1592
(lp1593
g1592
aS'Chris Johnson'
p1594
aI255
aI243
aI18
aI62
aI11
aI0
aI3
aI18
aI2
aI1
aI10
aI74
aI82
asS'featt001'
p1595
(lp1596
g1595
aS'Taylor Featherston'
p1597
aI169
aI154
aI23
aI25
aI5
aI1
aI2
aI9
aI4
aI2
aI7
aI46
aI38
asS'owenh002'
p1598
(lp1599
g1598
aS'Henry Owens'
p1600
aI2
aI2
aI0
aI0
aI0
aI0
aI0
aI0
aI0
aI0
aI0
aI2
aI0
asS'solaj002'
p1601
(lp1602
g1601
aS'Jhonatan Solano'
p1603
aI21
aI20
aI1
aI1
aI1
aI0
aI0
aI2
aI0
aI0
aI1
aI1
aI2
asS'manes001'
p1604
(lp1605
g1604
aS'Seth Maness'
p1606
aI3
aI3
aI0
aI0
aI0
aI0
aI0
aI0
aI0
aI0
aI0
aI2
aI0
asS'rossj002'
p1607
(lp1608
g1607
aS'Joe Ross'
p1609
aI30
aI27
aI2
aI3
aI0
aI0
aI0
aI0
aI0
aI0
aI0
aI11
aI3
asS'schoj001'
p1610
(lp1611
g1610
aS'Jonathan Schoop'
p1612
aI321
aI305
aI34
aI85
aI17
aI0
aI15
aI39
aI2
aI0
aI9
aI79
aI147
asS'seagk001'
p1613
(lp1614
g1613
aS'Kyle Seager'
p1615
aI686
aI623
aI85
aI166
aI37
aI0
aI26
aI74
aI6
aI6
aI54
aI98
aI281
asS'jacke001'
p1616
(lp1617
g1616
aS'Edwin Jackson'
p1618
aI1
aI1
aI0
aI0
aI0
aI0
aI0
aI0
aI0
aI0
aI0
aI0
aI0
asS'montm001'
p1619
(lp1620
g1619
aS'Miguel Montero'
p1621
aI403
aI347
aI36
aI86
aI11
aI0
aI15
aI53
aI1
aI1
aI49
aI103
aI142
asS'gilms001'
p1622
(lp1623
g1622
aS'Sean Gilmartin'
p1624
aI6
aI6
aI1
aI2
aI0
aI0
aI0
aI0
aI0
aI0
aI0
aI3
aI2
asS'brucj001'
p1625
(lp1626
g1625
aS'Jay Bruce'
p1627
aI649
aI580
aI72
aI131
aI35
aI4
aI26
aI87
aI9
aI5
aI58
aI145
aI252
asS'browt002'
p1628
(lp1629
g1628
aS'Trevor Brown'
p1630
aI43
aI39
aI1
aI9
aI3
aI0
aI0
aI5
aI1
aI1
aI3
aI8
aI12
asS'robed003'
p1631
(lp1632
g1631
aS'Daniel Robertson'
p1633
aI80
aI75
aI9
aI21
aI2
aI0
aI0
aI7
aI0
aI0
aI2
aI7
aI23
asS'zunim001'
p1634
(lp1635
g1634
aS'Mike Zunino'
p1636
aI386
aI350
aI28
aI61
aI11
aI0
aI11
aI28
aI0
aI1
aI21
aI132
aI105
asS'fryee001'
p1637
(lp1638
g1637
aS'Eric Fryer'
p1639
aI27
aI22
aI2
aI5
aI2
aI0
aI0
aI2
aI0
aI0
aI5
aI11
aI7
asS'reimn001'
p1640
(lp1641
g1640
aS'Nolan Reimold'
p1642
aI195
aI170
aI24
aI42
aI5
aI1
aI6
aI20
aI0
aI0
aI23
aI47
aI67
asS'kintb001'
p1643
(lp1644
g1643
aS'Brandon Kintzler'
p1645
aI1
aI1
aI0
aI0
aI0
aI0
aI0
aI0
aI0
aI0
aI0
aI0
aI0
asS'blacc001'
p1646
(lp1647
g1646
aS'Charlie Blackmon'
p1648
aI682
aI614
aI93
aI176
aI31
aI9
aI17
aI58
aI43
aI13
aI46
aI112
aI276
asS'lemad001'
p1649
(lp1650
g1649
aS'DJ LeMahieu'
p1651
aI620
aI564
aI85
aI170
aI21
aI5
aI6
aI61
aI23
aI3
aI50
aI107
aI219
asS'genns001'
p1652
(lp1653
g1652
aS'Scooter Gennett'
p1654
aI391
aI375
aI42
aI99
aI18
aI4
aI6
aI29
aI1
aI3
aI12
aI68
aI143
asS'guyeb001'
p1655
(lp1656
g1655
aS'Brandon Guyer'
p1657
aI385
aI332
aI51
aI88
aI21
aI2
aI8
aI28
aI10
aI4
aI25
aI61
aI137
asS'bergc001'
p1658
(lp1659
g1658
aS'Christian Bergman'
p1660
aI15
aI12
aI1
aI2
aI0
aI0
aI0
aI0
aI0
aI0
aI1
aI4
aI2
asS'narvc001'
p1661
(lp1662
g1661
aS'Chris Narveson'
p1663
aI7
aI6
aI1
aI0
aI0
aI0
aI0
aI1
aI0
aI0
aI0
aI4
aI0
asS'howar001'
p1664
(lp1665
g1664
aS'Ryan Howard'
p1666
aI503
aI467
aI53
aI107
aI29
aI1
aI23
aI77
aI0
aI0
aI27
aI138
aI207
asS'pench001'
p1667
(lp1668
g1667
aS'Hunter Pence'
p1669
aI223
aI207
aI30
aI57
aI13
aI1
aI9
aI40
aI4
aI1
aI16
aI48
aI99
asS'guera001'
p1670
(lp1671
g1670
aS'Alex Guerrero'
p1672
aI230
aI219
aI25
aI51
aI9
aI1
aI11
aI36
aI1
aI0
aI7
aI57
aI95
asS'grays001'
p1673
(lp1674
g1673
aS'Sonny Gray'
p1675
aI6
aI6
aI0
aI1
aI0
aI0
aI0
aI0
aI0
aI0
aI0
aI4
aI1
asS'gonza003'
p1676
(lp1677
g1676
aS'Adrian Gonzalez'
p1678
aI643
aI571
aI76
aI157
aI33
aI0
aI28
aI90
aI0
aI1
aI62
aI107
aI274
asS'martc008'
p1679
(lp1680
g1679
aS'Cody Martin'
p1681
aI1
aI0
aI0
aI0
aI0
aI0
aI0
aI0
aI0
aI0
aI0
aI0
aI0
asS'bailh001'
p1682
(lp1683
g1682
aS'Homer Bailey'
p1684
aI4
aI4
aI0
aI0
aI0
aI0
aI0
aI0
aI0
aI0
aI0
aI1
aI0
asS'waltz001'
p1685
(lp1686
g1685
aS'Zach Walters'
p1687
aI30
aI30
aI0
aI4
aI0
aI0
aI0
aI3
aI0
aI0
aI0
aI15
aI4
asS'cosaj001'
p1688
(lp1689
g1688
aS'Jarred Cosart'
p1690
aI18
aI17
aI0
aI1
aI0
aI0
aI0
aI1
aI0
aI0
aI0
aI8
aI1
asS'dozib001'
p1691
(lp1692
g1691
aS'Brian Dozier'
p1693
aI704
aI628
aI101
aI148
aI39
aI4
aI28
aI77
aI12
aI4
aI61
aI148
aI279
asS'kawam001'
p1694
(lp1695
g1694
aS'Munenori Kawasaki'
p1696
aI34
aI28
aI6
aI6
aI2
aI0
aI0
aI2
aI0
aI1
aI4
aI6
aI8
asS'souzs001'
p1697
(lp1698
g1697
aS'Steven Souza'
p1699
aI426
aI373
aI58
aI84
aI15
aI1
aI16
aI40
aI12
aI6
aI46
aI144
aI149
asS'denoc001'
p1700
(lp1701
g1700
aS'Chris Denorfia'
p1702
aI231
aI212
aI18
aI57
aI11
aI1
aI3
aI18
aI0
aI1
aI15
aI56
aI79
asS'freed001'
p1703
(lp1704
g1703
aS'David Freese'
p1705
aI470
aI424
aI53
aI109
aI27
aI0
aI14
aI56
aI1
aI1
aI31
aI107
aI178
asS'bourj002'
p1706
(lp1707
g1706
aS'Justin Bour'
p1708
aI446
aI409
aI42
aI107
aI20
aI0
aI23
aI73
aI0
aI0
aI34
aI101
aI196
asS'crawb001'
p1709
(lp1710
g1709
aS'Brandon Crawford'
p1711
aI561
aI507
aI65
aI130
aI33
aI4
aI21
aI84
aI6
aI4
aI39
aI119
aI234
asS'linda001'
p1712
(lp1713
g1712
aS'Adam Lind'
p1714
aI572
aI502
aI72
aI139
aI32
aI0
aI20
aI87
aI0
aI0
aI66
aI100
aI231
asS'villc001'
p1715
(lp1716
g1715
aS'Carlos Villanueva'
p1717
aI11
aI8
aI0
aI0
aI0
aI0
aI0
aI0
aI0
aI0
aI0
aI5
aI0
asS'harrm002'
p1718
(lp1719
g1718
aS'Mitch Harris'
p1720
aI1
aI1
aI0
aI0
aI0
aI0
aI0
aI0
aI0
aI0
aI0
aI1
aI0
asS'gomej001'
p1721
(lp1722
g1721
aS'Jonny Gomes'
p1723
aI262
aI225
aI29
aI48
aI9
aI0
aI7
aI26
aI1
aI1
aI31
aI81
aI78
asS'coloc002'
p1724
(lp1725
g1724
aS'Christian Colon'
p1726
aI119
aI107
aI8
aI31
aI5
aI0
aI0
aI6
aI3
aI2
aI11
aI17
aI36
asS'hudsd001'
p1727
(lp1728
g1727
aS'Daniel Hudson'
p1729
aI1
aI1
aI0
aI0
aI0
aI0
aI0
aI0
aI0
aI0
aI0
aI1
aI0
asS'alcaa001'
p1730
(lp1731
g1730
aS'Arismendy Alcantara'
p1732
aI32
aI26
aI5
aI2
aI0
aI0
aI0
aI1
aI1
aI0
aI5
aI11
aI2
asS'verrl001'
p1733
(lp1734
g1733
aS'Logan Verrett'
p1735
aI8
aI7
aI0
aI0
aI0
aI0
aI0
aI0
aI0
aI0
aI0
aI2
aI0
asS'kubik001'
p1736
(lp1737
g1736
aS'Kyle Kubitza'
p1738
aI39
aI36
aI6
aI7
aI0
aI0
aI0
aI1
aI0
aI0
aI3
aI15
aI7
asS'harrm001'
p1739
(lp1740
g1739
aS'Matt Harrison'
p1741
aI3
aI2
aI0
aI0
aI0
aI0
aI0
aI0
aI0
aI0
aI0
aI1
aI0
asS'kangj001'
p1742
(lp1743
g1742
aS'Jung Ho Kang'
p1744
aI467
aI421
aI60
aI121
aI24
aI2
aI15
aI58
aI5
aI4
aI28
aI99
aI194
asS'philb001'
p1745
(lp1746
g1745
aS'Brandon Phillips'
p1747
aI623
aI588
aI69
aI173
aI19
aI2
aI12
aI70
aI23
aI3
aI27
aI68
aI232
asS'hawkl001'
p1748
(lp1749
g1748
aS'LaTroy Hawkins'
p1750
aI1
aI1
aI0
aI0
aI0
aI0
aI0
aI0
aI0
aI0
aI0
aI1
aI0
asS'canor001'
p1751
(lp1752
g1751
aS'Robinson Cano'
p1753
aI674
aI624
aI82
aI179
aI34
aI1
aI21
aI79
aI2
aI6
aI43
aI107
aI278
asS'lavar001'
p1754
(lp1755
g1754
aS'Ryan Lavarnway'
p1756
aI106
aI94
aI6
aI18
aI6
aI0
aI2
aI6
aI0
aI0
aI12
aI28
aI30
asS'salec001'
p1757
(lp1758
g1757
aS'Chris Sale'
p1759
aI9
aI9
aI1
aI1
aI0
aI0
aI0
aI0
aI0
aI0
aI0
aI4
aI1
asS'sprig001'
p1760
(lp1761
g1760
aS'George Springer'
p1762
aI451
aI388
aI59
aI107
aI19
aI2
aI16
aI41
aI16
aI4
aI50
aI109
aI178
asS'quinj001'
p1763
(lp1764
g1763
aS'Jose Quintana'
p1765
aI9
aI8
aI0
aI0
aI0
aI0
aI0
aI0
aI0
aI0
aI0
aI5
aI0
asS'wrigm001'
p1766
(lp1767
g1766
aS'Mike Wright'
p1768
aI3
aI2
aI0
aI1
aI0
aI0
aI0
aI0
aI0
aI0
aI0
aI1
aI1
asS'gee-d001'
p1769
(lp1770
g1769
aS'Dillon Gee'
p1771
aI12
aI10
aI0
aI1
aI0
aI0
aI0
aI0
aI0
aI0
aI0
aI5
aI1
asS'ramia003'
p1772
(lp1773
g1772
aS'Alexei Ramirez'
p1774
aI622
aI583
aI54
aI145
aI33
aI0
aI10
aI62
aI17
aI7
aI31
aI68
aI208
asS'lirif001'
p1775
(lp1776
g1775
aS'Francisco Liriano'
p1777
aI67
aI65
aI4
aI11
aI2
aI0
aI1
aI7
aI0
aI0
aI0
aI28
aI16
asS'gomej002'
p1778
(lp1779
g1778
aS'Jeanmar Gomez'
p1780
aI1
aI1
aI0
aI0
aI0
aI0
aI0
aI0
aI0
aI0
aI0
aI1
aI0
asS'pagaa001'
p1781
(lp1782
g1781
aS'Angel Pagan'
p1783
aI551
aI512
aI55
aI134
aI21
aI3
aI3
aI37
aI12
aI4
aI32
aI93
aI170
asS'osuls001'
p1784
(lp1785
g1784
aS"Sean O'Sullivan"
p1786
aI23
aI20
aI2
aI2
aI1
aI0
aI0
aI0
aI0
aI0
aI1
aI10
aI3
asS'urruh001'
p1787
(lp1788
g1787
aS'Henry Urrutia'
p1789
aI36
aI34
aI3
aI9
aI1
aI0
aI1
aI6
aI0
aI0
aI2
aI3
aI13
asS'thomi001'
p1790
(lp1791
g1790
aS'Ian Thomas'
p1792
aI4
aI3
aI1
aI0
aI0
aI0
aI0
aI0
aI0
aI0
aI1
aI1
aI0
asS'gossp001'
p1793
(lp1794
g1793
aS'Phil Gosselin'
p1795
aI118
aI106
aI19
aI33
aI9
aI1
aI3
aI15
aI2
aI1
aI9
aI16
aI53
asS'recka001'
p1796
(lp1797
g1796
aS'Anthony Recker'
p1798
aI92
aI80
aI6
aI10
aI1
aI0
aI2
aI5
aI1
aI0
aI11
aI35
aI17
asS'harrw002'
p1799
(lp1800
g1799
aS'Will Harris'
p1801
aI1
aI1
aI0
aI0
aI0
aI0
aI0
aI0
aI0
aI0
aI0
aI1
aI0
asS'craia001'
p1802
(lp1803
g1802
aS'Allen Craig'
p1804
aI88
aI79
aI6
aI12
aI1
aI0
aI1
aI3
aI0
aI0
aI7
aI26
aI16
asS'badeb001'
p1805
(lp1806
g1805
aS'Burke Badenhop'
p1807
aI1
aI1
aI0
aI0
aI0
aI0
aI0
aI0
aI0
aI0
aI0
aI0
aI0
asS'marqj001'
p1808
(lp1809
g1808
aS'Jason Marquis'
p1810
aI17
aI16
aI2
aI3
aI1
aI0
aI0
aI1
aI0
aI0
aI0
aI4
aI4
asS'figuc001'
p1811
(lp1812
g1811
aS'Cole Figueroa'
p1813
aI8
aI8
aI2
aI2
aI2
aI0
aI0
aI0
aI0
aI0
aI0
aI0
aI4
asS'ranaa001'
p1814
(lp1815
g1814
aS'Anthony Ranaudo'
p1816
aI2
aI2
aI0
aI0
aI0
aI0
aI0
aI0
aI0
aI0
aI0
aI2
aI0
asS'bogax001'
p1817
(lp1818
g1817
aS'Xander Bogaerts'
p1819
aI654
aI613
aI83
aI196
aI35
aI3
aI7
aI81
aI10
aI2
aI32
aI101
aI258
asS'kempm001'
p1820
(lp1821
g1820
aS'Matt Kemp'
p1822
aI648
aI596
aI80
aI158
aI31
aI3
aI23
aI100
aI12
aI2
aI39
aI147
aI264
asS'fernj003'
p1823
(lp1824
g1823
aS'Jose Fernandez'
p1825
aI22
aI18
aI2
aI3
aI1
aI0
aI1
aI2
aI0
aI0
aI0
aI4
aI7
asS'napom001'
p1826
(lp1827
g1826
aS'Mike Napoli'
p1828
aI469
aI407
aI46
aI91
aI20
aI1
aI18
aI50
aI3
aI3
aI57
aI118
aI167
asS'saunm001'
p1829
(lp1830
g1829
aS'Michael Saunders'
p1831
aI36
aI31
aI2
aI6
aI0
aI0
aI0
aI3
aI0
aI0
aI5
aI10
aI6
asS'haraa001'
p1832
(lp1833
g1832
aS'Aaron Harang'
p1834
aI58
aI48
aI4
aI8
aI1
aI0
aI0
aI0
aI0
aI0
aI1
aI18
aI9
asS'casts001'
p1835
(lp1836
g1835
aS'Starlin Castro'
p1837
aI578
aI547
aI52
aI145
aI23
aI2
aI11
aI69
aI5
aI5
aI21
aI91
aI205
asS'fielt001'
p1838
(lp1839
g1838
aS'Tommy Field'
p1840
aI45
aI41
aI6
aI8
aI1
aI0
aI2
aI5
aI1
aI0
aI2
aI16
aI15
asS'seguj002'
p1841
(lp1842
g1841
aS'Jean Segura'
p1843
aI584
aI560
aI57
aI144
aI16
aI5
aI6
aI50
aI25
aI6
aI13
aI93
aI188
asS'petiy001'
p1844
(lp1845
g1844
aS'Yusmeiro Petit'
p1846
aI10
aI9
aI1
aI0
aI0
aI0
aI0
aI0
aI0
aI0
aI0
aI3
aI0
asS'pricd001'
p1847
(lp1848
g1847
aS'David Price'
p1849
aI9
aI9
aI0
aI0
aI0
aI0
aI0
aI0
aI0
aI0
aI0
aI3
aI0
asS'maybj001'
p1850
(lp1851
g1850
aS'John Mayberry'
p1852
aI119
aI110
aI8
aI18
aI6
aI1
aI3
aI9
aI1
aI0
aI9
aI33
aI35
asS'rusic001'
p1853
(lp1854
g1853
aS'Chris Rusin'
p1855
aI50
aI46
aI5
aI10
aI0
aI0
aI1
aI4
aI0
aI0
aI0
aI7
aI13
asS'poseb001'
p1856
(lp1857
g1856
aS'Buster Posey'
p1858
aI623
aI557
aI74
aI177
aI28
aI0
aI19
aI95
aI2
aI0
aI56
aI52
aI262
asS'turnj001'
p1859
(lp1860
g1859
aS'Justin Turner'
p1861
aI439
aI385
aI55
aI113
aI26
aI1
aI16
aI60
aI5
aI2
aI36
aI71
aI189
asS'burnb002'
p1862
(lp1863
g1862
aS'Billy Burns'
p1864
aI555
aI520
aI70
aI153
aI18
aI9
aI5
aI42
aI26
aI8
aI26
aI81
aI204
asS'barmc001'
p1865
(lp1866
g1865
aS'Clint Barmes'
p1867
aI224
aI207
aI24
aI48
aI14
aI1
aI3
aI16
aI0
aI1
aI10
aI55
aI73
asS'owinc001'
p1868
(lp1869
g1868
aS'Chris Owings'
p1870
aI552
aI515
aI59
aI117
aI27
aI5
aI4
aI43
aI16
aI4
aI26
aI144
aI166
asS'hared001'
p1871
(lp1872
g1871
aS'Dan Haren'
p1873
aI65
aI49
aI4
aI6
aI1
aI0
aI0
aI5
aI0
aI0
aI5
aI16
aI7
asS'goset001'
p1874
(lp1875
g1874
aS'Tuffy Gosewisch'
p1876
aI138
aI128
aI9
aI27
aI6
aI0
aI1
aI13
aI2
aI1
aI8
aI23
aI36
asS'warra001'
p1877
(lp1878
g1877
aS'Adam Warren'
p1879
aI3
aI3
aI0
aI0
aI0
aI0
aI0
aI0
aI0
aI0
aI0
aI1
aI0
asS'centj001'
p1880
(lp1881
g1880
aS'Juan Centeno'
p1882
aI23
aI21
aI0
aI1
aI1
aI0
aI0
aI0
aI0
aI0
aI2
aI7
aI2
asS'urshg001'
p1883
(lp1884
g1883
aS'Giovanny Urshela'
p1885
aI288
aI267
aI25
aI60
aI8
aI1
aI6
aI21
aI0
aI1
aI18
aI58
aI88
asS'singj001'
p1886
(lp1887
g1886
aS'Jon Singleton'
p1888
aI58
aI47
aI6
aI9
aI2
aI0
aI1
aI6
aI1
aI0
aI10
aI17
aI14
asS'solej001'
p1889
(lp1890
g1889
aS'Jorge Soler'
p1891
aI404
aI366
aI39
aI96
aI18
aI1
aI10
aI47
aI3
aI1
aI32
aI121
aI146
asS'vottj001'
p1892
(lp1893
g1892
aS'Joey Votto'
p1894
aI695
aI545
aI95
aI171
aI33
aI2
aI29
aI80
aI11
aI3
aI143
aI135
aI295
asS'rossd001'
p1895
(lp1896
g1895
aS'David Ross'
p1897
aI182
aI159
aI6
aI28
aI9
aI0
aI1
aI9
aI1
aI0
aI20
aI61
aI40
asS'brigj001'
p1898
(lp1899
g1898
aS'Jake Brigham'
p1900
aI2
aI1
aI0
aI0
aI0
aI0
aI0
aI0
aI0
aI0
aI0
aI1
aI0
asS'heats001'
p1901
(lp1902
g1901
aS'Slade Heathcott'
p1903
aI30
aI25
aI6
aI10
aI2
aI0
aI2
aI8
aI0
aI1
aI2
aI5
aI18
asS'wilst004'
p1904
(lp1905
g1904
aS'Tyler Wilson'
p1906
aI3
aI2
aI0
aI0
aI0
aI0
aI0
aI0
aI0
aI0
aI0
aI0
aI0
asS'teixm001'
p1907
(lp1908
g1907
aS'Mark Teixeira'
p1909
aI462
aI392
aI57
aI100
aI22
aI0
aI31
aI79
aI2
aI0
aI59
aI85
aI215
asS'deaza001'
p1910
(lp1911
g1910
aS'Alejandro de Aza'
p1912
aI365
aI325
aI51
aI85
aI17
aI7
aI7
aI35
aI7
aI5
aI31
aI84
aI137
asS'hicka001'
p1913
(lp1914
g1913
aS'Aaron Hicks'
p1915
aI390
aI352
aI48
aI90
aI11
aI3
aI11
aI33
aI13
aI3
aI34
aI66
aI140
asS'tanam001'
p1916
(lp1917
g1916
aS'Masahiro Tanaka'
p1918
aI8
aI7
aI0
aI0
aI0
aI0
aI0
aI0
aI0
aI0
aI1
aI2
aI0
asS'robis001'
p1919
(lp1920
g1919
aS'Shane Robinson'
p1921
aI197
aI180
aI28
aI45
aI7
aI3
aI0
aI16
aI6
aI1
aI12
aI29
aI58
asS'garnd001'
p1922
(lp1923
g1922
aS'Dustin Garneau'
p1924
aI76
aI70
aI6
aI11
aI3
aI0
aI2
aI8
aI0
aI0
aI6
aI14
aI20
asS'cowak001'
p1925
(lp1926
g1925
aS'Kaleb Cowart'
p1927
aI52
aI46
aI8
aI8
aI2
aI0
aI1
aI4
aI1
aI1
aI5
aI19
aI13
asS'wilsb002'
p1928
(lp1929
g1928
aS'Bobby Wilson'
p1930
aI147
aI132
aI8
aI25
aI5
aI0
aI1
aI14
aI0
aI1
aI11
aI39
aI33
asS'drews001'
p1931
(lp1932
g1931
aS'Stephen Drew'
p1933
aI428
aI383
aI43
aI77
aI16
aI1
aI17
aI44
aI0
aI2
aI37
aI71
aI146
asS'troum001'
p1934
(lp1935
g1934
aS'Mike Trout'
p1936
aI682
aI575
aI104
aI172
aI32
aI6
aI41
aI90
aI11
aI7
aI92
aI158
aI339
asS'navae001'
p1937
(lp1938
g1937
aS'Efren Navarro'
p1939
aI88
aI83
aI9
aI21
aI4
aI0
aI0
aI5
aI0
aI2
aI5
aI16
aI25
asS'desmi001'
p1940
(lp1941
g1940
aS'Ian Desmond'
p1942
aI641
aI583
aI69
aI136
aI27
aI2
aI19
aI62
aI13
aI5
aI45
aI187
aI224
asS'swihb001'
p1943
(lp1944
g1943
aS'Blake Swihart'
p1945
aI309
aI288
aI47
aI79
aI17
aI1
aI5
aI31
aI4
aI2
aI18
aI77
aI113
asS'turnt001'
p1946
(lp1947
g1946
aS'Trea Turner'
p1948
aI44
aI40
aI5
aI9
aI1
aI0
aI1
aI1
aI2
aI2
aI4
aI12
aI13
asS'murpd005'
p1949
(lp1950
g1949
aS'David Murphy'
p1951
aI391
aI361
aI38
aI102
aI18
aI1
aI10
aI50
aI0
aI2
aI20
aI49
aI152
asS'gricr001'
p1952
(lp1953
g1952
aS'Randal Grichuk'
p1954
aI350
aI323
aI49
aI89
aI23
aI7
aI17
aI47
aI4
aI2
aI22
aI110
aI177
asS'woodt004'
p1955
(lp1956
g1955
aS'Travis Wood'
p1957
aI32
aI30
aI0
aI3
aI0
aI0
aI0
aI2
aI0
aI0
aI2
aI16
aI3
asS'salat001'
p1958
(lp1959
g1958
aS'Tyler Saladino'
p1960
aI254
aI236
aI33
aI53
aI6
aI4
aI4
aI20
aI8
aI2
aI12
aI51
aI79
asS'lairg001'
p1961
(lp1962
g1961
aS'Gerald Laird'
p1963
aI2
aI2
aI0
aI0
aI0
aI0
aI0
aI0
aI0
aI0
aI0
aI0
aI0
asS'uptoj001'
p1964
(lp1965
g1964
aS'Justin Upton'
p1966
aI620
aI542
aI85
aI136
aI26
aI3
aI26
aI81
aI19
aI5
aI68
aI159
aI246
asS'grayj003'
p1967
(lp1968
g1967
aS'Jon Gray'
p1969
aI13
aI11
aI1
aI0
aI0
aI0
aI0
aI0
aI0
aI0
aI2
aI6
aI0
asS'jasoj001'
p1970
(lp1971
g1970
aS'John Jaso'
p1972
aI216
aI185
aI23
aI53
aI17
aI0
aI5
aI22
aI1
aI2
aI28
aI39
aI85
asS'sandp001'
p1973
(lp1974
g1973
aS'Pablo Sandoval'
p1975
aI505
aI470
aI43
aI115
aI25
aI1
aI10
aI47
aI0
aI0
aI25
aI73
aI172
asS'moorm003'
p1976
(lp1977
g1976
aS'Matt Moore'
p1978
aI2
aI1
aI0
aI0
aI0
aI0
aI0
aI0
aI0
aI0
aI0
aI0
aI0
asS'bianj001'
p1979
(lp1980
g1979
aS'Jeff Bianchi'
p1981
aI2
aI2
aI0
aI0
aI0
aI0
aI0
aI0
aI0
aI0
aI0
aI0
aI0
asS'penab002'
p1982
(lp1983
g1982
aS'Brayan Pena'
p1984
aI367
aI333
aI17
aI91
aI17
aI0
aI0
aI18
aI2
aI0
aI29
aI34
aI108
asS'easle001'
p1985
(lp1986
g1985
aS'Ed Easley'
p1987
aI7
aI6
aI0
aI0
aI0
aI0
aI0
aI1
aI0
aI0
aI0
aI1
aI0
asS'goldp001'
p1988
(lp1989
g1988
aS'Paul Goldschmidt'
p1990
aI695
aI567
aI103
aI182
aI38
aI2
aI33
aI110
aI21
aI5
aI118
aI151
aI323
asS'kontg001'
p1991
(lp1992
g1991
aS'George Kontos'
p1993
aI3
aI2
aI0
aI0
aI0
aI0
aI0
aI0
aI0
aI0
aI0
aI2
aI0
asS'gillc002'
p1994
(lp1995
g1994
aS'Cole Gillespie'
p1996
aI157
aI145
aI17
aI42
aI10
aI2
aI2
aI16
aI4
aI1
aI10
aI27
aI62
asS'dysoj001'
p1997
(lp1998
g1997
aS'Jarrod Dyson'
p1999
aI225
aI200
aI31
aI50
aI8
aI6
aI2
aI18
aI26
aI3
aI14
aI37
aI76
asS'hughj001'
p2000
(lp2001
g2000
aS'Jared Hughes'
p2002
aI1
aI0
aI0
aI0
aI0
aI0
aI0
aI0
aI0
aI0
aI0
aI0
aI0
asS'shiej002'
p2003
(lp2004
g2003
aS'James Shields'
p2005
aI74
aI68
aI7
aI9
aI2
aI0
aI0
aI2
aI0
aI0
aI1
aI28
aI11
asS'shawt001'
p2006
(lp2007
g2006
aS'Travis Shaw'
p2008
aI248
aI226
aI31
aI61
aI10
aI0
aI13
aI36
aI0
aI1
aI18
aI57
aI110
asS'reyej001'
p2009
(lp2010
g2009
aS'Jose Reyes'
p2011
aI519
aI481
aI57
aI132
aI25
aI2
aI7
aI53
aI24
aI6
aI26
aI62
aI182
asS'garcj005'
p2012
(lp2013
g2012
aS'Jason Garcia'
p2014
aI1
aI0
aI0
aI0
aI0
aI0
aI0
aI0
aI0
aI0
aI1
aI0
aI0
asS'maybc001'
p2015
(lp2016
g2015
aS'Cameron Maybin'
p2017
aI555
aI505
aI65
aI135
aI18
aI2
aI10
aI59
aI23
aI6
aI45
aI102
aI187
asS'branm003'
p2018
(lp2019
g2018
aS'Michael Brantley'
p2020
aI596
aI529
aI68
aI164
aI45
aI0
aI15
aI84
aI15
aI1
aI60
aI51
aI254
asS'coghc001'
p2021
(lp2022
g2021
aS'Chris Coghlan'
p2023
aI503
aI440
aI64
aI110
aI25
aI6
aI16
aI41
aI11
aI2
aI58
aI94
aI195
asS'parkj002'
p2024
(lp2025
g2024
aS'Jarrett Parker'
p2026
aI54
aI49
aI11
aI17
aI2
aI0
aI6
aI14
aI1
aI1
aI5
aI21
aI37
asS'flork002'
p2027
(lp2028
g2027
aS'Kendry Flores'
p2029
aI1
aI1
aI0
aI0
aI0
aI0
aI0
aI0
aI0
aI0
aI0
aI1
aI0
asS'herre001'
p2030
(lp2031
g2030
aS'Elian Herrera'
p2032
aI277
aI256
aI29
aI62
aI18
aI0
aI7
aI33
aI3
aI1
aI18
aI72
aI101
asS'araue001'
p2033
(lp2034
g2033
aS'Elvis Araujo'
p2035
aI1
aI1
aI0
aI0
aI0
aI0
aI0
aI0
aI0
aI0
aI0
aI1
aI0
asS'pennc001'
p2036
(lp2037
g2036
aS'Cliff Pennington'
p2038
aI249
aI210
aI24
aI44
aI6
aI0
aI3
aI21
aI3
aI0
aI27
aI49
aI59
asS'perer003'
p2039
(lp2040
g2039
aS'Roberto Perez'
p2041
aI226
aI184
aI30
aI42
aI9
aI1
aI7
aI21
aI0
aI0
aI33
aI64
aI74
asS'johnk003'
p2042
(lp2043
g2042
aS'Kelly Johnson'
p2044
aI335
aI310
aI38
aI82
aI11
aI0
aI14
aI47
aI2
aI1
aI23
aI81
aI135
asS'martl004'
p2045
(lp2046
g2045
aS'Leonys Martin'
p2047
aI310
aI288
aI26
aI63
aI12
aI0
aI5
aI25
aI14
aI5
aI16
aI69
aI90
asS'detwr001'
p2048
(lp2049
g2048
aS'Ross Detwiler'
p2050
aI1
aI1
aI0
aI0
aI0
aI0
aI0
aI0
aI0
aI0
aI0
aI1
aI0
asS'infao001'
p2051
(lp2052
g2051
aS'Omar Infante'
p2053
aI455
aI440
aI38
aI97
aI23
aI7
aI2
aI44
aI2
aI2
aI9
aI69
aI140
asS'gonzs001'
p2054
(lp2055
g2054
aS'Severino Gonzalez'
p2056
aI12
aI10
aI2
aI1
aI0
aI0
aI0
aI1
aI0
aI0
aI1
aI4
aI1
asS'mercj002'
p2057
(lp2058
g2057
aS'Jordy Mercer'
p2059
aI430
aI394
aI34
aI96
aI21
aI0
aI3
aI34
aI3
aI2
aI27
aI73
aI126
asS'cingt001'
p2060
(lp2061
g2060
aS'Tony Cingrani'
p2062
aI2
aI2
aI1
aI0
aI0
aI0
aI0
aI1
aI0
aI0
aI0
aI1
aI0
asS'hamec001'
p2063
(lp2064
g2063
aS'Cole Hamels'
p2065
aI46
aI42
aI2
aI7
aI1
aI0
aI0
aI0
aI0
aI0
aI0
aI17
aI8
asS'ishit001'
p2066
(lp2067
g2066
aS'Travis Ishikawa'
p2068
aI72
aI63
aI6
aI13
aI3
aI0
aI1
aI8
aI0
aI0
aI9
aI20
aI19
asS'matzt001'
p2069
(lp2070
g2069
aS'Tyler Matzek'
p2071
aI9
aI8
aI3
aI3
aI1
aI0
aI0
aI0
aI0
aI0
aI0
aI1
aI4
asS'bourm001'
p2072
(lp2073
g2072
aS'Michael Bourn'
p2074
aI482
aI425
aI39
aI101
aI15
aI2
aI0
aI30
aI17
aI7
aI46
aI107
aI120
asS'jacka001'
p2075
(lp2076
g2075
aS'Austin Jackson'
p2077
aI527
aI491
aI56
aI131
aI25
aI3
aI9
aI48
aI17
aI10
aI29
aI126
aI189
asS'chisl001'
p2078
(lp2079
g2078
aS'Lonnie Chisenhall'
p2080
aI362
aI333
aI38
aI82
aI19
aI1
aI7
aI44
aI4
aI1
aI23
aI69
aI124
asS'banum001'
p2081
(lp2082
g2081
aS'Manny Banuelos'
p2083
aI7
aI3
aI0
aI0
aI0
aI0
aI0
aI0
aI0
aI0
aI0
aI1
aI0
asS'uribj002'
p2084
(lp2085
g2084
aS'Juan Uribe'
p2086
aI397
aI360
aI40
aI91
aI17
aI0
aI14
aI43
aI2
aI0
aI34
aI80
aI150
asS'alvad002'
p2087
(lp2088
g2087
aS'Dariel Alvarez'
p2089
aI31
aI29
aI3
aI7
aI1
aI0
aI1
aI1
aI0
aI0
aI2
aI8
aI11
asS'chavj001'
p2090
(lp2091
g2090
aS'Jesse Chavez'
p2092
aI5
aI3
aI0
aI1
aI0
aI0
aI0
aI0
aI0
aI0
aI0
aI2
aI1
asS'laroa001'
p2093
(lp2094
g2093
aS'Adam LaRoche'
p2095
aI484
aI429
aI41
aI89
aI21
aI0
aI12
aI44
aI0
aI0
aI49
aI133
aI146
asS'mornj001'
p2096
(lp2097
g2096
aS'Justin Morneau'
p2098
aI182
aI168
aI19
aI52
aI10
aI3
aI3
aI15
aI0
aI0
aI13
aI25
aI77
asS'polaj001'
p2099
(lp2100
g2099
aS'Jorge Polanco'
p2101
aI12
aI10
aI1
aI3
aI0
aI0
aI0
aI1
aI1
aI0
aI2
aI1
aI3
asS'ryanb002'
p2102
(lp2103
g2102
aS'Brendan Ryan'
p2104
aI103
aI96
aI10
aI22
aI6
aI2
aI0
aI8
aI0
aI0
aI5
aI29
aI32
asS'norrd001'
p2105
(lp2106
g2105
aS'Derek Norris'
p2107
aI557
aI515
aI65
aI129
aI33
aI2
aI14
aI62
aI4
aI1
aI35
aI131
aI208
asS'franj004'
p2108
(lp2109
g2108
aS'Jeff Francoeur'
p2110
aI343
aI326
aI34
aI84
aI16
aI1
aI13
aI45
aI0
aI2
aI13
aI77
aI141
asS'weekr001'
p2111
(lp2112
g2111
aS'Rickie Weeks'
p2113
aI95
aI84
aI7
aI14
aI1
aI0
aI2
aI9
aI0
aI0
aI9
aI25
aI21
asS'janip001'
p2114
(lp2115
g2114
aS'Paul Janish'
p2116
aI36
aI35
aI4
aI10
aI3
aI0
aI0
aI3
aI0
aI0
aI0
aI3
aI13
asS'tuckp001'
p2117
(lp2118
g2117
aS'Preston Tucker'
p2119
aI323
aI300
aI35
aI73
aI19
aI0
aI13
aI33
aI0
aI2
aI20
aI68
aI131
asS'dicka001'
p2120
(lp2121
g2120
aS'Alex Dickerson'
p2122
aI8
aI8
aI0
aI2
aI0
aI0
aI0
aI0
aI0
aI0
aI0
aI3
aI2
asS'marrd001'
p2123
(lp2124
g2123
aS'Deven Marrero'
p2125
aI56
aI53
aI8
aI12
aI0
aI0
aI1
aI3
aI2
aI1
aI3
aI19
aI15
asS'longe001'
p2126
(lp2127
g2126
aS'Evan Longoria'
p2128
aI670
aI604
aI74
aI163
aI35
aI1
aI21
aI73
aI3
aI1
aI51
aI132
aI263
asS'cowgc001'
p2129
(lp2130
g2129
aS'Collin Cowgill'
p2131
aI74
aI69
aI10
aI13
aI2
aI1
aI1
aI2
aI2
aI1
aI4
aI19
aI20
asS'castw002'
p2132
(lp2133
g2132
aS'Welington Castillo'
p2134
aI378
aI342
aI42
aI81
aI15
aI1
aI19
aI57
aI0
aI0
aI25
aI92
aI155
asS'peavj001'
p2135
(lp2136
g2135
aS'Jake Peavy'
p2137
aI41
aI36
aI5
aI7
aI2
aI0
aI1
aI3
aI0
aI0
aI1
aI17
aI12
asS'escoy001'
p2138
(lp2139
g2138
aS'Yunel Escobar'
p2140
aI591
aI535
aI75
aI168
aI25
aI1
aI9
aI56
aI2
aI2
aI45
aI70
aI222
asS'coont001'
p2141
(lp2142
g2141
aS'Tim Cooney'
p2143
aI11
aI10
aI1
aI3
aI1
aI0
aI0
aI0
aI0
aI0
aI0
aI0
aI4
asS'chapa001'
p2144
(lp2145
g2144
aS'Aroldis Chapman'
p2146
aI1
aI1
aI1
aI0
aI0
aI0
aI0
aI0
aI0
aI0
aI0
aI0
aI0
asS'panij002'
p2147
(lp2148
g2147
aS'Joe Panik'
p2149
aI432
aI382
aI59
aI119
aI27
aI2
aI8
aI37
aI3
aI2
aI38
aI42
aI174
asS'gorda001'
p2150
(lp2151
g2150
aS'Alex Gordon'
p2152
aI422
aI354
aI40
aI96
aI18
aI0
aI13
aI48
aI2
aI5
aI49
aI92
aI153
asS'encae001'
p2153
(lp2154
g2153
aS'Edwin Encarnacion'
p2155
aI624
aI528
aI94
aI146
aI31
aI0
aI39
aI111
aI3
aI2
aI77
aI98
aI294
asS'burna001'
p2156
(lp2157
g2156
aS'A.J. Burnett'
p2158
aI52
aI42
aI1
aI5
aI0
aI0
aI1
aI5
aI0
aI0
aI0
aI20
aI8
asS'altha001'
p2159
(lp2160
g2159
aS'Aaron Altherr'
p2161
aI161
aI137
aI25
aI33
aI11
aI4
aI5
aI22
aI6
aI2
aI16
aI41
aI67
asS'rodrs002'
p2162
(lp2163
g2162
aS'Sean Rodriguez'
p2164
aI240
aI224
aI25
aI55
aI12
aI1
aI4
aI17
aI2
aI2
aI5
aI63
aI81
asS'lockj001'
p2165
(lp2166
g2165
aS'Jeff Locke'
p2167
aI54
aI45
aI1
aI3
aI1
aI0
aI0
aI2
aI0
aI0
aI2
aI18
aI4
asS'herro001'
p2168
(lp2169
g2168
aS'Odubel Herrera'
p2170
aI537
aI495
aI64
aI147
aI30
aI3
aI8
aI41
aI16
aI8
aI28
aI129
aI207
asS'grany001'
p2171
(lp2172
g2171
aS'Yasmani Grandal'
p2173
aI426
aI355
aI43
aI83
aI12
aI0
aI16
aI47
aI0
aI1
aI65
aI92
aI143
asS'igler001'
p2174
(lp2175
g2174
aS'Raisel Iglesias'
p2176
aI31
aI30
aI0
aI2
aI0
aI1
aI0
aI1
aI0
aI0
aI0
aI13
aI4
asS'villj001'
p2177
(lp2178
g2177
aS'Jonathan Villar'
p2179
aI128
aI116
aI18
aI33
aI7
aI1
aI2
aI11
aI7
aI2
aI10
aI29
aI48
asS'solay001'
p2180
(lp2181
g2180
aS'Yangervis Solarte'
p2182
aI571
aI526
aI63
aI142
aI33
aI4
aI14
aI63
aI1
aI0
aI34
aI56
aI225
asS'cabre001'
p2183
(lp2184
g2183
aS'Everth Cabrera'
p2185
aI105
aI96
aI7
aI20
aI2
aI0
aI0
aI4
aI2
aI0
aI5
aI22
aI22
asS'gomey001'
p2186
(lp2187
g2186
aS'Yan Gomes'
p2188
aI389
aI363
aI38
aI84
aI22
aI0
aI12
aI45
aI0
aI0
aI13
aI104
aI142
asS'taylm002'
p2189
(lp2190
g2189
aS'Michael Taylor'
p2191
aI511
aI472
aI48
aI108
aI15
aI2
aI14
aI63
aI16
aI3
aI35
aI158
aI169
asS'ethia001'
p2192
(lp2193
g2192
aS'Andre Ethier'
p2194
aI445
aI395
aI53
aI116
aI20
aI7
aI14
aI53
aI2
aI3
aI43
aI75
aI192
asS'mesod001'
p2195
(lp2196
g2195
aS'Devin Mesoraco'
p2197
aI51
aI45
aI2
aI8
aI1
aI1
aI0
aI2
aI1
aI0
aI5
aI9
aI11
asS'adamc001'
p2198
(lp2199
g2198
aS'Cristhian Adames'
p2200
aI58
aI53
aI4
aI13
aI1
aI1
aI0
aI3
aI0
aI1
aI3
aI11
aI16
asS'happj001'
p2201
(lp2202
g2201
aS'J.A. Happ'
p2203
aI27
aI23
aI1
aI2
aI0
aI0
aI0
aI0
aI0
aI0
aI1
aI13
aI2
asS'perad001'
p2204
(lp2205
g2204
aS'David Peralta'
p2206
aI517
aI462
aI61
aI144
aI26
aI10
aI17
aI78
aI9
aI4
aI44
aI107
aI241
asS'machm001'
p2207
(lp2208
g2207
aS'Manny Machado'
p2209
aI713
aI633
aI102
aI181
aI30
aI1
aI35
aI86
aI20
aI8
aI70
aI111
aI318
asS'kenni001'
p2210
(lp2211
g2210
aS'Ian Kennedy'
p2212
aI48
aI42
aI3
aI4
aI3
aI0
aI0
aI0
aI0
aI0
aI0
aI23
aI7
asS'schus001'
p2213
(lp2214
g2213
aS'Skip Schumaker'
p2215
aI268
aI244
aI23
aI59
aI20
aI0
aI1
aI21
aI2
aI2
aI23
aI51
aI82
asS'zobrb001'
p2216
(lp2217
g2216
aS'Ben Zobrist'
p2218
aI535
aI467
aI76
aI129
aI36
aI3
aI13
aI56
aI3
aI4
aI62
aI56
aI210
asS'rodre004'
p2219
(lp2220
g2219
aS'Eduardo Rodriguez'
p2221
aI3
aI2
aI0
aI0
aI0
aI0
aI0
aI0
aI0
aI0
aI0
aI2
aI0
asS'hammj002'
p2222
(lp2223
g2222
aS'Jason Hammel'
p2224
aI70
aI65
aI6
aI11
aI1
aI0
aI0
aI4
aI0
aI0
aI1
aI18
aI12
asS'roset001'
p2225
(lp2226
g2225
aS'Trevor Rosenthal'
p2227
aI1
aI1
aI0
aI0
aI0
aI0
aI0
aI0
aI0
aI0
aI0
aI1
aI0
asS'huntt001'
p2228
(lp2229
g2228
aS'Torii Hunter'
p2230
aI567
aI521
aI67
aI125
aI22
aI0
aI22
aI81
aI2
aI5
aI35
aI105
aI213
asS'petig001'
p2231
(lp2232
g2231
aS'Gregorio Petit'
p2233
aI47
aI42
aI7
aI7
aI3
aI0
aI0
aI5
aI0
aI0
aI3
aI16
aI10
asS'bakes002'
p2234
(lp2235
g2234
aS'Scott Baker'
p2236
aI4
aI3
aI0
aI0
aI0
aI0
aI0
aI0
aI0
aI0
aI0
aI1
aI0
asS'schem001'
p2237
(lp2238
g2237
aS'Max Scherzer'
p2239
aI77
aI69
aI4
aI15
aI0
aI0
aI0
aI0
aI0
aI0
aI2
aI23
aI15
asS'hanir001'
p2240
(lp2241
g2240
aS'Ryan Hanigan'
p2242
aI201
aI174
aI28
aI43
aI8
aI0
aI2
aI16
aI0
aI0
aI20
aI39
aI57
asS'kozmp001'
p2243
(lp2244
g2243
aS'Peter Kozma'
p2245
aI111
aI99
aI15
aI15
aI0
aI0
aI0
aI2
aI3
aI1
aI10
aI21
aI15
asS'montm002'
p2246
(lp2247
g2246
aS'Mike Montgomery'
p2248
aI3
aI3
aI0
aI0
aI0
aI0
aI0
aI0
aI0
aI0
aI0
aI2
aI0
asS'brigr001'
p2249
(lp2250
g2249
aS'Reid Brignac'
p2251
aI17
aI13
aI2
aI1
aI0
aI0
aI0
aI0
aI0
aI0
aI3
aI5
aI1
asS'castn001'
p2252
(lp2253
g2252
aS'Nick Castellanos'
p2254
aI595
aI549
aI42
aI140
aI33
aI6
aI15
aI73
aI0
aI3
aI39
aI152
aI230
asS'medlk001'
p2255
(lp2256
g2255
aS'Kris Medlen'
p2257
aI1
aI0
aI1
aI0
aI0
aI0
aI0
aI0
aI0
aI0
aI0
aI0
aI0
asS'aardd001'
p2258
(lp2259
g2258
aS'David Aardsma'
p2260
aI1
aI1
aI0
aI0
aI0
aI0
aI0
aI0
aI0
aI0
aI0
aI1
aI0
asS'plout001'
p2261
(lp2262
g2261
aS'Trevor Plouffe'
p2263
aI632
aI573
aI74
aI140
aI35
aI4
aI22
aI86
aI2
aI1
aI50
aI124
aI249
asS'peraj003'
p2264
(lp2265
g2264
aS'Jose Peraza'
p2266
aI25
aI22
aI3
aI4
aI1
aI1
aI0
aI1
aI3
aI0
aI2
aI2
aI7
asS'lambj001'
p2267
(lp2268
g2267
aS'Jake Lamb'
p2269
aI390
aI350
aI38
aI92
aI15
aI5
aI6
aI34
aI3
aI2
aI36
aI97
aI135
asS'youne003'
p2270
(lp2271
g2270
aS'Eric Young'
p2272
aI94
aI85
aI16
aI13
aI4
aI2
aI0
aI5
aI6
aI2
aI6
aI18
aI21
asS'penaf001'
p2273
(lp2274
g2273
aS'Francisco Pena'
p2275
aI7
aI7
aI0
aI1
aI0
aI0
aI0
aI0
aI0
aI0
aI0
aI3
aI1
asS'lambj002'
p2276
(lp2277
g2276
aS'John Lamb'
p2278
aI16
aI16
aI0
aI1
aI1
aI0
aI0
aI1
aI0
aI0
aI0
aI8
aI2
asS'moliy001'
p2279
(lp2280
g2279
aS'Yadier Molina'
p2281
aI530
aI488
aI34
aI132
aI23
aI2
aI4
aI61
aI3
aI1
aI32
aI59
aI171
asS'dickr001'
p2282
(lp2283
g2282
aS'R.A. Dickey'
p2284
aI4
aI3
aI0
aI0
aI0
aI0
aI0
aI0
aI0
aI0
aI0
aI1
aI0
asS'moscj001'
p2285
(lp2286
g2285
aS'Jon Moscot'
p2287
aI4
aI4
aI0
aI1
aI0
aI0
aI0
aI0
aI0
aI0
aI0
aI2
aI1
asS'andec001'
p2288
(lp2289
g2288
aS'Chase Anderson'
p2290
aI57
aI48
aI0
aI5
aI0
aI0
aI0
aI3
aI0
aI0
aI1
aI23
aI5
asS'jackr005'
p2291
(lp2292
g2291
aS'Ryan Jackson'
p2293
aI14
aI9
aI0
aI0
aI0
aI0
aI0
aI0
aI0
aI0
aI1
aI5
aI0
asS'andec002'
p2294
(lp2295
g2294
aS'Cody Anderson'
p2296
aI3
aI3
aI0
aI0
aI0
aI0
aI0
aI0
aI0
aI0
aI0
aI3
aI0
asS'presa001'
p2297
(lp2298
g2297
aS'Alex Presley'
p2299
aI13
aI12
aI1
aI3
aI0
aI0
aI0
aI1
aI0
aI0
aI1
aI5
aI3
asS'mccua001'
p2300
(lp2301
g2300
aS'Andrew McCutchen'
p2302
aI685
aI566
aI90
aI165
aI36
aI3
aI23
aI96
aI11
aI5
aI98
aI133
aI276
asS'deckc001'
p2303
(lp2304
g2303
aS'Cody Decker'
p2305
aI12
aI11
aI0
aI0
aI0
aI0
aI0
aI1
aI0
aI0
aI0
aI5
aI0
asS'vendp001'
p2306
(lp2307
g2306
aS'Pat Venditte'
p2308
aI1
aI1
aI0
aI0
aI0
aI0
aI0
aI0
aI0
aI0
aI0
aI1
aI0
asS'bumgm001'
p2309
(lp2310
g2309
aS'Madison Bumgarner'
p2311
aI81
aI77
aI9
aI19
aI2
aI0
aI5
aI9
aI0
aI0
aI3
aI27
aI36
asS'machd001'
p2312
(lp2313
g2312
aS'Dixon Machado'
p2314
aI78
aI68
aI6
aI16
aI3
aI0
aI0
aI5
aI1
aI0
aI7
aI14
aI19
asS'congh001'
p2315
(lp2316
g2315
aS'Hank Conger'
p2317
aI229
aI201
aI25
aI46
aI11
aI0
aI11
aI33
aI0
aI1
aI23
aI63
aI90
asS'collt002'
p2318
(lp2319
g2318
aS'Tyler Collins'
p2320
aI207
aI192
aI18
aI51
aI11
aI3
aI4
aI25
aI2
aI1
aI13
aI43
aI80
asS'garcg002'
p2321
(lp2322
g2321
aS'Greg Garcia'
p2323
aI87
aI75
aI7
aI18
aI5
aI0
aI2
aI4
aI0
aI0
aI10
aI12
aI29
asS'beltb001'
p2324
(lp2325
g2324
aS'Brandon Belt'
p2326
aI556
aI492
aI73
aI138
aI33
aI5
aI18
aI68
aI9
aI3
aI56
aI147
aI235
asS'sardl001'
p2327
(lp2328
g2327
aS'Luis Sardinas'
p2329
aI105
aI97
aI8
aI19
aI0
aI1
aI0
aI4
aI0
aI0
aI6
aI25
aI21
asS'seagc001'
p2330
(lp2331
g2330
aS'Corey Seager'
p2332
aI113
aI98
aI17
aI33
aI8
aI1
aI4
aI17
aI2
aI0
aI14
aI19
aI55
asS'sandj002'
p2333
(lp2334
g2333
aS'Jerry Sands'
p2335
aI133
aI123
aI11
aI29
aI5
aI1
aI4
aI19
aI0
aI0
aI9
aI36
aI48
asS'dejed001'
p2336
(lp2337
g2336
aS'David DeJesus'
p2338
aI317
aI288
aI27
aI67
aI9
aI2
aI5
aI30
aI3
aI2
aI21
aI52
aI95
asS'may-t001'
p2339
(lp2340
g2339
aS'Trevor May'
p2341
aI3
aI3
aI0
aI0
aI0
aI0
aI0
aI0
aI0
aI0
aI0
aI3
aI0
asS'balec001'
p2342
(lp2343
g2342
aS'Collin Balester'
p2344
aI1
aI1
aI0
aI0
aI0
aI0
aI0
aI0
aI0
aI0
aI0
aI0
aI0
asS'romaj003'
p2345
(lp2346
g2345
aS'Jamie Romak'
p2347
aI16
aI15
aI2
aI5
aI2
aI0
aI0
aI1
aI0
aI0
aI1
aI6
aI7
asS'hagum001'
p2348
(lp2349
g2348
aS'Matt Hague'
p2350
aI15
aI12
aI1
aI3
aI1
aI0
aI0
aI0
aI0
aI0
aI2
aI4
aI4
asS'martv001'
p2351
(lp2352
g2351
aS'Victor Martinez'
p2353
aI485
aI440
aI39
aI108
aI20
aI0
aI11
aI64
aI0
aI0
aI31
aI52
aI161
asS'johnd004'
p2354
(lp2355
g2354
aS'Dan Johnson'
p2356
aI21
aI19
aI1
aI3
aI0
aI0
aI0
aI2
aI0
aI0
aI2
aI4
aI3
asS'butlb003'
p2357
(lp2358
g2357
aS'Billy Butler'
p2359
aI601
aI538
aI63
aI135
aI28
aI1
aI15
aI65
aI0
aI0
aI52
aI101
aI210
asS'piscs001'
p2360
(lp2361
g2360
aS'Stephen Piscotty'
p2362
aI256
aI233
aI29
aI71
aI15
aI4
aI7
aI39
aI2
aI1
aI20
aI56
aI115
asS'duffm002'
p2363
(lp2364
g2363
aS'Matt Duffy'
p2365
aI612
aI573
aI77
aI169
aI28
aI6
aI12
aI77
aI12
aI0
aI30
aI96
aI245
asS'duffm003'
p2366
(lp2367
g2366
aS'Matt Duffy'
p2368
aI9
aI8
aI0
aI3
aI1
aI0
aI0
aI3
aI0
aI0
aI1
aI2
aI4
asS'haled001'
p2369
(lp2370
g2369
aS'David Hale'
p2371
aI27
aI23
aI1
aI2
aI0
aI0
aI0
aI0
aI0
aI0
aI0
aI9
aI2
asS'browd004'
p2372
(lp2373
g2372
aS'Domonic Brown'
p2374
aI204
aI189
aI19
aI43
aI6
aI1
aI5
aI25
aI3
aI1
aI14
aI36
aI66
asS'affej001'
p2375
(lp2376
g2375
aS'Jeremy Affeldt'
p2377
aI2
aI2
aI0
aI0
aI0
aI0
aI0
aI0
aI0
aI0
aI0
aI2
aI0
asS'wislm001'
p2378
(lp2379
g2378
aS'Matt Wisler'
p2380
aI36
aI29
aI0
aI4
aI0
aI0
aI0
aI1
aI0
aI0
aI2
aI6
aI4
asS'schal001'
p2381
(lp2382
g2381
aS'Logan Schafer'
p2383
aI143
aI122
aI16
aI27
aI6
aI1
aI1
aI6
aI1
aI0
aI12
aI29
aI38
asS'hestc001'
p2384
(lp2385
g2384
aS'Chris Heston'
p2386
aI58
aI51
aI1
aI10
aI2
aI0
aI0
aI3
aI0
aI0
aI0
aI18
aI12
asS'polag001'
p2387
(lp2388
g2387
aS'Gregory Polanco'
p2389
aI652
aI593
aI83
aI152
aI35
aI6
aI9
aI52
aI27
aI10
aI55
aI121
aI226
asS'blang001'
p2390
(lp2391
g2390
aS'Gregor Blanco'
p2392
aI372
aI327
aI59
aI95
aI19
aI3
aI5
aI26
aI13
aI5
aI40
aI59
aI135
asS'blanj001'
p2393
(lp2394
g2393
aS'Joe Blanton'
p2395
aI4
aI4
aI0
aI0
aI0
aI0
aI0
aI0
aI0
aI0
aI0
aI1
aI0
asS'marij002'
p2396
(lp2397
g2396
aS'Jake Marisnick'
p2398
aI372
aI339
aI46
aI80
aI15
aI4
aI9
aI36
aI24
aI9
aI18
aI105
aI130
asS'stanm004'
p2399
(lp2400
g2399
aS'Giancarlo Stanton'
p2401
aI318
aI279
aI47
aI74
aI12
aI1
aI27
aI67
aI4
aI2
aI34
aI95
aI169
asS'hamij003'
p2402
(lp2403
g2402
aS'Josh Hamilton'
p2404
aI182
aI170
aI22
aI43
aI8
aI0
aI8
aI25
aI0
aI0
aI10
aI52
aI75
asS'lamar001'
p2405
(lp2406
g2405
aS'Ryan LaMarre'
p2407
aI26
aI25
aI2
aI2
aI0
aI0
aI0
aI0
aI0
aI0
aI0
aI9
aI2
asS'bourp001'
p2408
(lp2409
g2408
aS'Peter Bourjos'
p2410
aI225
aI195
aI32
aI39
aI8
aI3
aI4
aI13
aI5
aI8
aI19
aI59
aI65
asS'peree003'
p2411
(lp2412
g2411
aS'Eury Perez'
p2413
aI133
aI119
aI10
aI32
aI4
aI0
aI0
aI5
aI3
aI1
aI7
aI23
aI36
asS'lylej001'
p2414
(lp2415
g2414
aS'Jordan Lyles'
p2416
aI19
aI19
aI0
aI0
aI0
aI0
aI0
aI0
aI0
aI0
aI0
aI11
aI0
asS'dejei002'
p2417
(lp2418
g2417
aS'Ivan De Jesus'
p2419
aI222
aI201
aI15
aI49
aI10
aI2
aI4
aI28
aI0
aI2
aI19
aI55
aI75
asS'roart001'
p2420
(lp2421
g2420
aS'Tanner Roark'
p2422
aI29
aI27
aI1
aI5
aI2
aI0
aI0
aI0
aI0
aI0
aI0
aI9
aI7
asS'gyorj001'
p2423
(lp2424
g2423
aS'Jedd Gyorko'
p2425
aI458
aI421
aI34
aI104
aI15
aI0
aI16
aI57
aI0
aI1
aI27
aI107
aI167
asS'belir001'
p2426
(lp2427
g2426
aS'Ronald Belisario'
p2428
aI1
aI1
aI0
aI0
aI0
aI0
aI0
aI0
aI0
aI0
aI0
aI0
aI0
asS'hernc005'
p2429
(lp2430
g2429
aS'Cesar Hernandez'
p2431
aI452
aI405
aI57
aI110
aI20
aI4
aI1
aI35
aI19
aI5
aI40
aI86
aI141
asS'colac001'
p2432
(lp2433
g2432
aS'Chris Colabello'
p2434
aI360
aI333
aI55
aI107
aI19
aI1
aI15
aI54
aI2
aI0
aI22
aI96
aI173
asS'finnb001'
p2435
(lp2436
g2435
aS'Brandon Finnegan'
p2437
aI6
aI4
aI0
aI0
aI0
aI0
aI0
aI0
aI0
aI0
aI0
aI2
aI0
asS'alony001'
p2438
(lp2439
g2438
aS'Yonder Alonso'
p2440
aI402
aI354
aI50
aI100
aI18
aI1
aI5
aI31
aI2
aI5
aI42
aI48
aI135
asS'romes001'
p2441
(lp2442
g2441
aS'Stefen Romero'
p2443
aI24
aI21
aI6
aI4
aI1
aI0
aI1
aI3
aI0
aI0
aI3
aI6
aI8
asS'rosaw001'
p2444
(lp2445
g2444
aS'Wilin Rosario'
p2446
aI242
aI231
aI22
aI62
aI14
aI1
aI6
aI29
aI2
aI1
aI8
aI56
aI96
asS'kraum001'
p2447
(lp2448
g2447
aS'Marc Krauss'
p2449
aI81
aI78
aI3
aI11
aI3
aI0
aI2
aI8
aI0
aI0
aI3
aI31
aI20
asS'duvaa001'
p2450
(lp2451
g2450
aS'Adam Duvall'
p2452
aI72
aI64
aI6
aI14
aI2
aI0
aI5
aI9
aI0
aI0
aI6
aI26
aI31
asS'pedej001'
p2453
(lp2454
g2453
aS'Joc Pederson'
p2455
aI585
aI480
aI67
aI101
aI19
aI1
aI26
aI54
aI4
aI7
aI92
aI170
aI200
asS'walkn001'
p2456
(lp2457
g2456
aS'Neil Walker'
p2458
aI603
aI543
aI69
aI146
aI32
aI3
aI16
aI71
aI4
aI1
aI44
aI110
aI232
asS'torra002'
p2459
(lp2460
g2459
aS'Alex Torres'
p2461
aI1
aI1
aI0
aI0
aI0
aI0
aI0
aI0
aI0
aI0
aI0
aI0
aI0
asS'arcio001'
p2462
(lp2463
g2462
aS'Oswaldo Arcia'
p2464
aI65
aI58
aI6
aI16
aI0
aI0
aI2
aI8
aI0
aI0
aI4
aI15
aI22
asS'zimmr001'
p2465
(lp2466
g2465
aS'Ryan Zimmerman'
p2467
aI390
aI346
aI43
aI86
aI25
aI1
aI16
aI73
aI1
aI0
aI33
aI79
aI161
asS'branr002'
p2468
(lp2469
g2468
aS'Rob Brantly'
p2470
aI36
aI33
aI3
aI4
aI1
aI0
aI1
aI6
aI0
aI0
aI2
aI8
aI8
asS'guerd001'
p2471
(lp2472
g2471
aS'Deolis Guerra'
p2473
aI1
aI1
aI0
aI0
aI0
aI0
aI0
aI0
aI0
aI0
aI0
aI0
aI0
asS'hatcc002'
p2474
(lp2475
g2474
aS'Chris Hatcher'
p2476
aI1
aI1
aI0
aI0
aI0
aI0
aI0
aI0
aI0
aI0
aI0
aI0
aI0
asS'bernd001'
p2477
(lp2478
g2477
aS'Doug Bernier'
p2479
aI6
aI5
aI1
aI1
aI1
aI0
aI0
aI2
aI0
aI0
aI1
aI3
aI2
asS'cabrr001'
p2480
(lp2481
g2480
aS'Ramon Cabrera'
p2482
aI30
aI30
aI4
aI11
aI1
aI0
aI1
aI3
aI0
aI0
aI0
aI5
aI15
asS'blaic001'
p2483
(lp2484
g2483
aS'Carson Blair'
p2485
aI35
aI31
aI3
aI4
aI0
aI0
aI1
aI3
aI0
aI0
aI4
aI18
aI7
asS'lonej001'
p2486
(lp2487
g2486
aS'James Loney'
p2488
aI388
aI361
aI25
aI101
aI16
aI0
aI4
aI32
aI2
aI4
aI23
aI34
aI129
asS'dickc002'
p2489
(lp2490
g2489
aS'Corey Dickerson'
p2491
aI234
aI224
aI30
aI68
aI18
aI2
aI10
aI31
aI0
aI1
aI10
aI56
aI120
asS'uptob001'
p2492
(lp2493
g2492
aS'B.J. Upton'
p2494
aI228
aI205
aI23
aI53
aI12
aI4
aI5
aI17
aI9
aI3
aI21
aI62
aI88
asS'lackj001'
p2495
(lp2496
g2495
aS'John Lackey'
p2497
aI70
aI62
aI0
aI7
aI2
aI0
aI0
aI3
aI0
aI0
aI4
aI24
aI9
asS'martr004'
p2498
(lp2499
g2498
aS'Russell Martin'
p2500
aI507
aI441
aI76
aI106
aI23
aI2
aI23
aI77
aI4
aI5
aI53
aI106
aI202
asS'ruizc001'
p2501
(lp2502
g2501
aS'Carlos Ruiz'
p2503
aI320
aI284
aI23
aI60
aI13
aI1
aI2
aI22
aI1
aI1
aI28
aI43
aI81
asS'alvah001'
p2504
(lp2505
g2504
aS'Henderson Alvarez'
p2506
aI6
aI6
aI1
aI2
aI1
aI0
aI0
aI1
aI0
aI0
aI0
aI1
aI3
asS'romia001'
p2507
(lp2508
g2507
aS'Andrew Romine'
p2509
aI203
aI184
aI25
aI47
aI5
aI0
aI2
aI15
aI10
aI5
aI11
aI46
aI58
asS'romia002'
p2510
(lp2511
g2510
aS'Austin Romine'
p2512
aI2
aI2
aI0
aI0
aI0
aI0
aI0
aI0
aI0
aI0
aI0
aI0
aI0
asS'franm004'
p2513
(lp2514
g2513
aS'Maikel Franco'
p2515
aI335
aI304
aI45
aI85
aI22
aI1
aI14
aI50
aI1
aI0
aI26
aI52
aI151
asS'ramie004'
p2516
(lp2517
g2516
aS'Erasmo Ramirez'
p2518
aI2
aI2
aI0
aI0
aI0
aI0
aI0
aI0
aI0
aI0
aI0
aI2
aI0
asS'shafr001'
p2519
(lp2520
g2519
aS'Richie Shaffer'
p2521
aI88
aI74
aI11
aI14
aI3
aI0
aI4
aI6
aI0
aI1
aI10
aI32
aI29
asS'corpc001'
p2522
(lp2523
g2522
aS'Carlos Corporan'
p2524
aI121
aI107
aI10
aI19
aI4
aI0
aI3
aI15
aI0
aI0
aI6
aI40
aI32
asS'lobaj001'
p2525
(lp2526
g2525
aS'Jose Lobaton'
p2527
aI155
aI136
aI11
aI27
aI4
aI0
aI3
aI20
aI0
aI0
aI15
aI40
aI40
asS'grosr001'
p2528
(lp2529
g2528
aS'Robbie Grossman'
p2530
aI54
aI49
aI7
aI7
aI2
aI0
aI1
aI5
aI0
aI0
aI5
aI17
aI12
asS'estrm001'
p2531
(lp2532
g2531
aS'Marco Estrada'
p2533
aI6
aI6
aI0
aI2
aI0
aI0
aI0
aI0
aI0
aI0
aI0
aI2
aI2
asS'hollm001'
p2534
(lp2535
g2534
aS'Matt Holliday'
p2536
aI277
aI229
aI24
aI64
aI16
aI1
aI4
aI35
aI2
aI1
aI39
aI49
aI94
asS'lagaj001'
p2537
(lp2538
g2537
aS'Juan Lagares'
p2539
aI465
aI441
aI47
aI114
aI16
aI5
aI6
aI41
aI7
aI3
aI16
aI87
aI158
asS'dankj002'
p2540
(lp2541
g2540
aS'Jordan Danks'
p2542
aI4
aI4
aI0
aI0
aI0
aI0
aI0
aI0
aI0
aI0
aI0
aI2
aI0
asS'susaa001'
p2543
(lp2544
g2543
aS'Andrew Susac'
p2545
aI148
aI133
aI14
aI29
aI7
aI2
aI3
aI14
aI0
aI0
aI14
aI43
aI49
asS'florw001'
p2546
(lp2547
g2546
aS'Wilmer Flores'
p2548
aI510
aI483
aI55
aI127
aI22
aI0
aI16
aI59
aI0
aI1
aI19
aI63
aI197
asS'gentc001'
p2549
(lp2550
g2549
aS'Craig Gentry'
p2551
aI56
aI50
aI6
aI6
aI0
aI2
aI0
aI3
aI1
aI1
aI4
aI15
aI10
asS'tholj001'
p2552
(lp2553
g2552
aS'Josh Thole'
p2554
aI52
aI49
aI5
aI10
aI2
aI0
aI0
aI2
aI0
aI0
aI3
aI9
aI12
asS'barna001'
p2555
(lp2556
g2555
aS'Austin Barnes'
p2557
aI37
aI29
aI4
aI6
aI2
aI0
aI0
aI1
aI1
aI0
aI6
aI6
aI8
asS'bakej001'
p2558
(lp2559
g2558
aS'Jeff Baker'
p2560
aI80
aI72
aI11
aI15
aI3
aI0
aI3
aI8
aI0
aI0
aI8
aI25
aI27
asS'ruf-d001'
p2561
(lp2562
g2561
aS'Darin Ruf'
p2563
aI297
aI268
aI30
aI63
aI12
aI0
aI12
aI39
aI1
aI0
aI21
aI69
aI111
asS'hecha001'
p2564
(lp2565
g2564
aS'Adeiny Hechavarria'
p2566
aI499
aI470
aI54
aI132
aI17
aI6
aI5
aI48
aI7
aI2
aI23
aI78
aI176
asS'tulot001'
p2567
(lp2568
g2567
aS'Troy Tulowitzki'
p2569
aI534
aI486
aI77
aI136
aI27
aI0
aI17
aI70
aI1
aI0
aI38
aI114
aI214
asS'cabrm001'
p2570
(lp2571
g2570
aS'Miguel Cabrera'
p2572
aI511
aI429
aI64
aI145
aI28
aI1
aI18
aI76
aI1
aI1
aI77
aI82
aI229
asS'lawrb002'
p2573
(lp2574
g2573
aS'Brett Lawrie'
p2575
aI602
aI562
aI64
aI146
aI29
aI3
aI16
aI60
aI5
aI2
aI28
aI144
aI229
asS'dunnm002'
p2576
(lp2577
g2576
aS'Michael Dunn'
p2578
aI1
aI1
aI0
aI1
aI0
aI0
aI0
aI0
aI0
aI0
aI0
aI0
aI1
asS'ramih003'
p2579
(lp2580
g2579
aS'Hanley Ramirez'
p2581
aI430
aI401
aI59
aI100
aI12
aI1
aI19
aI53
aI6
aI3
aI21
aI71
aI171
asS'delaj001'
p2582
(lp2583
g2582
aS'Jorge de la Rosa'
p2584
aI50
aI48
aI0
aI3
aI0
aI0
aI0
aI3
aI0
aI0
aI0
aI18
aI3
asS'reynm001'
p2585
(lp2586
g2585
aS'Mark Reynolds'
p2587
aI432
aI382
aI34
aI88
aI21
aI2
aI13
aI48
aI2
aI3
aI44
aI121
aI152
asS'wrigd002'
p2588
(lp2589
g2588
aS'David Wright'
p2590
aI174
aI152
aI24
aI44
aI7
aI0
aI5
aI17
aI2
aI1
aI22
aI36
aI66
asS'kendk001'
p2591
(lp2592
g2591
aS'Kyle Kendrick'
p2593
aI49
aI43
aI6
aI8
aI2
aI0
aI1
aI2
aI0
aI0
aI3
aI16
aI13
asS'olivh001'
p2594
(lp2595
g2594
aS'Hector Olivera'
p2596
aI87
aI79
aI4
aI20
aI4
aI1
aI2
aI11
aI0
aI0
aI5
aI12
aI32
asS'lynnl001'
p2597
(lp2598
g2597
aS'Lance Lynn'
p2599
aI55
aI50
aI3
aI8
aI2
aI0
aI0
aI1
aI0
aI0
aI0
aI26
aI10
asS'cecid001'
p2600
(lp2601
g2600
aS'Darrell Ceciliani'
p2602
aI75
aI68
aI5
aI14
aI2
aI0
aI1
aI3
aI5
aI1
aI4
aI25
aI19
asS'venty001'
p2603
(lp2604
g2603
aS'Yordano Ventura'
p2605
aI6
aI6
aI0
aI0
aI0
aI0
aI0
aI0
aI0
aI0
aI0
aI5
aI0
asS'nicaj001'
p2606
(lp2607
g2606
aS'Juan Nicasio'
p2608
aI1
aI1
aI0
aI0
aI0
aI0
aI0
aI0
aI0
aI0
aI0
aI0
aI0
asS'sancc001'
p2609
(lp2610
g2609
aS'Carlos Sanchez'
p2611
aI420
aI389
aI40
aI87
aI23
aI1
aI5
aI31
aI2
aI2
aI19
aI81
aI127
asS'cravt001'
p2612
(lp2613
g2612
aS'Tyler Cravy'
p2614
aI10
aI8
aI0
aI0
aI0
aI0
aI0
aI0
aI0
aI0
aI0
aI3
aI0
asS'libea001'
p2615
(lp2616
g2615
aS'Adam Liberatore'
p2617
aI2
aI2
aI0
aI0
aI0
aI0
aI0
aI0
aI0
aI0
aI0
aI2
aI0
asS'farmb001'
p2618
(lp2619
g2618
aS'Buck Farmer'
p2620
aI4
aI4
aI0
aI1
aI0
aI0
aI0
aI0
aI0
aI0
aI0
aI3
aI1
asS'deckj001'
p2621
(lp2622
g2621
aS'Jaff Decker'
p2623
aI36
aI28
aI8
aI6
aI1
aI1
aI0
aI1
aI0
aI0
aI7
aI9
aI9
asS'jonej005'
p2624
(lp2625
g2624
aS'James Jones'
p2626
aI31
aI29
aI1
aI3
aI1
aI0
aI0
aI0
aI1
aI1
aI2
aI13
aI4
asS'tabaj002'
p2627
(lp2628
g2627
aS'Jose Tabata'
p2629
aI41
aI38
aI2
aI11
aI0
aI0
aI0
aI4
aI0
aI1
aI2
aI7
aI11
asS'buchd001'
p2630
(lp2631
g2630
aS'David Buchanan'
p2632
aI23
aI20
aI2
aI4
aI1
aI0
aI0
aI1
aI0
aI0
aI2
aI8
aI5
asS'hardb001'
p2633
(lp2634
g2633
aS'Blaine Hardy'
p2635
aI1
aI1
aI0
aI0
aI0
aI0
aI0
aI0
aI0
aI0
aI0
aI0
aI0
asS'liz-r001'
p2636
(lp2637
g2636
aS'Radhames Liz'
p2638
aI1
aI1
aI0
aI0
aI0
aI0
aI0
aI0
aI0
aI0
aI0
aI0
aI0
asS'bourj001'
p2639
(lp2640
g2639
aS'Jason Bourgeois'
p2641
aI212
aI196
aI28
aI47
aI5
aI2
aI3
aI14
aI3
aI1
aI14
aI33
aI65
asS'avila001'
p2642
(lp2643
g2642
aS'Alex Avila'
p2644
aI219
aI178
aI21
aI34
aI5
aI0
aI4
aI13
aI0
aI1
aI40
aI66
aI51
asS'despo001'
p2645
(lp2646
g2645
aS'Odrisamer Despaigne'
p2647
aI34
aI30
aI0
aI2
aI1
aI0
aI0
aI0
aI0
aI0
aI1
aI11
aI3
asS'canhm001'
p2648
(lp2649
g2648
aS'Mark Canha'
p2650
aI485
aI441
aI61
aI112
aI22
aI3
aI16
aI70
aI7
aI2
aI33
aI96
aI188
asS'nicoj001'
p2651
(lp2652
g2651
aS'Justin Nicolino'
p2653
aI27
aI25
aI0
aI1
aI0
aI0
aI0
aI0
aI0
aI0
aI0
aI8
aI1
asS'germg001'
p2654
(lp2655
g2654
aS'Gonzalez Germen'
p2656
aI1
aI1
aI0
aI0
aI0
aI0
aI0
aI0
aI0
aI0
aI0
aI1
aI0
asS'frank001'
p2657
(lp2658
g2657
aS'Kevin Frandsen'
p2659
aI13
aI11
aI1
aI2
aI0
aI0
aI0
aI0
aI0
aI0
aI1
aI3
aI2
asS'ceccg001'
p2660
(lp2661
g2660
aS'Garin Cecchini'
p2662
aI4
aI4
aI0
aI0
aI0
aI0
aI0
aI0
aI0
aI0
aI0
aI3
aI0
asS'weber001'
p2663
(lp2664
g2663
aS'Ryan Weber'
p2665
aI10
aI10
aI0
aI0
aI0
aI0
aI0
aI0
aI0
aI0
aI0
aI8
aI0
asS'gofod001'
p2666
(lp2667
g2666
aS'David Goforth'
p2668
aI4
aI3
aI0
aI0
aI0
aI0
aI0
aI0
aI0
aI0
aI0
aI3
aI0
asS'adama001'
p2669
(lp2670
g2669
aS'Austin Adams'
p2671
aI1
aI1
aI0
aI0
aI0
aI0
aI0
aI0
aI0
aI0
aI0
aI0
aI0
asS'carrc003'
p2672
(lp2673
g2672
aS'Carlos Carrasco'
p2674
aI3
aI1
aI0
aI1
aI0
aI0
aI0
aI0
aI0
aI0
aI0
aI0
aI1
asS'casha001'
p2675
(lp2676
g2675
aS'Andrew Cashner'
p2677
aI61
aI60
aI2
aI5
aI0
aI0
aI0
aI1
aI0
aI0
aI1
aI24
aI5
asS'aschc001'
p2678
(lp2679
g2678
aS'Cody Asche'
p2680
aI456
aI425
aI41
aI104
aI22
aI3
aI12
aI39
aI1
aI2
aI26
aI111
aI168
asS'lowrj001'
p2681
(lp2682
g2681
aS'Jed Lowrie'
p2683
aI263
aI230
aI35
aI51
aI14
aI0
aI9
aI30
aI1
aI0
aI28
aI43
aI92
asS'beeld001'
p2684
(lp2685
g2684
aS'Dallas Beeler'
p2686
aI3
aI3
aI0
aI1
aI1
aI0
aI0
aI0
aI0
aI0
aI0
aI1
aI2
asS'tsaoc001'
p2687
(lp2688
g2687
aS'Chin-hui Tsao'
p2689
aI1
aI1
aI1
aI1
aI1
aI0
aI0
aI0
aI0
aI0
aI0
aI0
aI2
asS'nunee002'
p2690
(lp2691
g2690
aS'Eduardo Nunez'
p2692
aI204
aI188
aI23
aI53
aI14
aI1
aI4
aI20
aI8
aI4
aI12
aI29
aI81
asS'capuc001'
p2693
(lp2694
g2693
aS'Chris Capuano'
p2695
aI1
aI1
aI0
aI0
aI0
aI0
aI0
aI0
aI0
aI0
aI0
aI0
aI0
asS'ray-r002'
p2696
(lp2697
g2696
aS'Robbie Ray'
p2698
aI36
aI31
aI0
aI3
aI1
aI0
aI0
aI0
aI0
aI0
aI0
aI14
aI4
asS'wadat001'
p2699
(lp2700
g2699
aS'Tsuyoshi Wada'
p2701
aI9
aI8
aI1
aI0
aI0
aI0
aI0
aI0
aI0
aI0
aI1
aI5
aI0
asS'stras001'
p2702
(lp2703
g2702
aS'Stephen Strasburg'
p2704
aI46
aI38
aI1
aI5
aI0
aI0
aI0
aI0
aI0
aI0
aI2
aI17
aI5
asS'victs001'
p2705
(lp2706
g2705
aS'Shane Victorino'
p2707
aI204
aI178
aI19
aI41
aI4
aI2
aI1
aI7
aI7
aI0
aI16
aI32
aI52
asS'herng001'
p2708
(lp2709
g2708
aS'Gorkys Hernandez'
p2710
aI5
aI5
aI0
aI0
aI0
aI0
aI0
aI0
aI1
aI0
aI0
aI0
aI0
asS'koeht001'
p2711
(lp2712
g2711
aS'Tom Koehler'
p2713
aI64
aI50
aI2
aI6
aI1
aI0
aI0
aI1
aI0
aI0
aI2
aI28
aI7
asS'rollj001'
p2714
(lp2715
g2714
aS'Jimmy Rollins'
p2716
aI563
aI517
aI71
aI116
aI24
aI3
aI13
aI41
aI12
aI8
aI44
aI86
aI185
asS'wongk001'
p2717
(lp2718
g2717
aS'Kolten Wong'
p2719
aI613
aI557
aI70
aI146
aI28
aI4
aI11
aI61
aI15
aI8
aI36
aI95
aI215
asS'voger001'
p2720
(lp2721
g2720
aS'Ryan Vogelsong'
p2722
aI45
aI36
aI3
aI5
aI1
aI0
aI1
aI2
aI0
aI0
aI1
aI13
aI9
asS'ahmen001'
p2723
(lp2724
g2723
aS'Nick Ahmed'
p2725
aI459
aI421
aI49
aI95
aI17
aI6
aI9
aI34
aI4
aI5
aI29
aI81
aI151
asS'cervf001'
p2726
(lp2727
g2726
aS'Francisco Cervelli'
p2728
aI510
aI451
aI56
aI133
aI17
aI5
aI7
aI43
aI1
aI1
aI46
aI94
aI181
asS'salad001'
p2729
(lp2730
g2729
aS'Danny Salazar'
p2731
aI4
aI4
aI0
aI0
aI0
aI0
aI0
aI0
aI0
aI0
aI0
aI4
aI0
asS'castj006'
p2732
(lp2733
g2732
aS'Jason Castro'
p2734
aI375
aI337
aI38
aI71
aI19
aI0
aI11
aI31
aI0
aI0
aI33
aI115
aI123
asS'mills001'
p2735
(lp2736
g2735
aS'Shelby Miller'
p2737
aI71
aI56
aI1
aI3
aI2
aI0
aI0
aI0
aI0
aI0
aI4
aI29
aI5
asS'strih001'
p2738
(lp2739
g2738
aS'Hunter Strickland'
p2740
aI1
aI1
aI0
aI0
aI0
aI0
aI0
aI0
aI0
aI0
aI0
aI1
aI0
asS'thort001'
p2741
(lp2742
g2741
aS'Tyler Thornburg'
p2743
aI3
aI3
aI0
aI0
aI0
aI0
aI0
aI0
aI0
aI0
aI0
aI1
aI0
asS'holtb002'
p2744
(lp2745
g2744
aS'Brock Holt'
p2746
aI509
aI454
aI56
aI127
aI27
aI6
aI2
aI45
aI8
aI1
aI46
aI97
aI172
asS'holmd002'
p2747
(lp2748
g2747
aS'David Holmberg'
p2749
aI12
aI8
aI2
aI1
aI0
aI0
aI0
aI0
aI0
aI0
aI2
aI5
aI1
asS'greiz001'
p2750
(lp2751
g2750
aS'Zack Greinke'
p2752
aI77
aI67
aI8
aI15
aI2
aI0
aI2
aI3
aI1
aI0
aI1
aI14
aI23
asS'florp001'
p2753
(lp2754
g2753
aS'Pedro Florimon'
p2755
aI25
aI23
aI5
aI2
aI0
aI1
aI0
aI1
aI1
aI0
aI2
aI12
aI4
asS'noonn001'
p2756
(lp2757
g2756
aS'Nick Noonan'
p2758
aI24
aI22
aI2
aI2
aI1
aI0
aI1
aI3
aI0
aI0
aI2
aI8
aI6
asS'mccul002'
p2759
(lp2760
g2759
aS'Lance McCullers'
p2761
aI2
aI2
aI0
aI0
aI0
aI0
aI0
aI0
aI0
aI0
aI0
aI1
aI0
asS'treib001'
p2762
(lp2763
g2762
aS'Blake Treinen'
p2764
aI4
aI2
aI0
aI0
aI0
aI0
aI0
aI0
aI0
aI0
aI0
aI1
aI0
asS'perej002'
p2765
(lp2766
g2765
aS'Juan Perez'
p2767
aI40
aI39
aI5
aI11
aI3
aI0
aI0
aI2
aI1
aI0
aI1
aI6
aI14
asS'johnr008'
p2768
(lp2769
g2768
aS'Reed Johnson'
p2770
aI24
aI22
aI0
aI5
aI1
aI0
aI0
aI3
aI0
aI0
aI0
aI6
aI6
asS'hickj001'
p2771
(lp2772
g2771
aS'John Hicks'
p2773
aI34
aI32
aI1
aI2
aI1
aI0
aI0
aI1
aI1
aI1
aI1
aI18
aI3
asS'abrej003'
p2774
(lp2775
g2774
aS'Jose Abreu'
p2776
aI668
aI613
aI88
aI178
aI34
aI3
aI30
aI101
aI0
aI0
aI39
aI140
aI308
asS'lamba001'
p2777
(lp2778
g2777
aS'Andrew Lambo'
p2779
aI27
aI25
aI1
aI1
aI1
aI0
aI0
aI0
aI0
aI0
aI2
aI8
aI2
asS'gimec001'
p2780
(lp2781
g2780
aS'Chris Gimenez'
p2782
aI113
aI98
aI19
aI25
aI6
aI1
aI5
aI14
aI2
aI0
aI10
aI19
aI48
asS'myerw001'
p2783
(lp2784
g2783
aS'Wil Myers'
p2785
aI253
aI225
aI40
aI57
aI13
aI1
aI8
aI29
aI5
aI2
aI27
aI55
aI96
asS'mckia001'
p2786
(lp2787
g2786
aS'Andrew McKirahan'
p2788
aI1
aI1
aI0
aI0
aI0
aI0
aI0
aI0
aI0
aI0
aI0
aI1
aI0
asS'andrm001'
p2789
(lp2790
g2789
aS'Matt Andriese'
p2791
aI1
aI1
aI0
aI0
aI0
aI0
aI0
aI0
aI0
aI0
aI0
aI0
aI0
asS'beckt001'
p2792
(lp2793
g2792
aS'Tim Beckham'
p2794
aI223
aI203
aI24
aI45
aI7
aI4
aI9
aI37
aI3
aI1
aI13
aI69
aI87
asS'peraj001'
p2795
(lp2796
g2795
aS'Jhonny Peralta'
p2797
aI640
aI579
aI64
aI159
aI26
aI1
aI17
aI71
aI1
aI4
aI50
aI111
aI238
asS'peraj002'
p2798
(lp2799
g2798
aS'Joel Peralta'
p2800
aI1
aI1
aI0
aI0
aI0
aI0
aI0
aI0
aI0
aI0
aI0
aI1
aI0
asS'rojam002'
p2801
(lp2802
g2801
aS'Miguel Rojas'
p2803
aI157
aI142
aI13
aI40
aI7
aI1
aI1
aI17
aI0
aI1
aI11
aI16
aI52
asS'spand001'
p2804
(lp2805
g2804
aS'Denard Span'
p2806
aI275
aI246
aI38
aI74
aI17
aI0
aI5
aI22
aI11
aI0
aI25
aI26
aI106
asS'tolls001'
p2807
(lp2808
g2807
aS'Steven Tolleson'
p2809
aI45
aI41
aI9
aI11
aI5
aI1
aI0
aI3
aI2
aI0
aI4
aI9
aI18
asS'roacd001'
p2810
(lp2811
g2810
aS'Donn Roach'
p2812
aI1
aI1
aI0
aI1
aI0
aI0
aI0
aI1
aI0
aI0
aI0
aI0
aI1
asS'hendk001'
p2813
(lp2814
g2813
aS'Kyle Hendricks'
p2815
aI64
aI60
aI2
aI3
aI1
aI0
aI0
aI1
aI0
aI0
aI1
aI24
aI4
asS'hernf002'
p2816
(lp2817
g2816
aS'Felix Hernandez'
p2818
aI3
aI3
aI0
aI0
aI0
aI0
aI0
aI0
aI0
aI0
aI0
aI1
aI0
asS'defrj001'
p2819
(lp2820
g2819
aS'Justin De Fratus'
p2821
aI3
aI3
aI0
aI1
aI0
aI0
aI0
aI0
aI0
aI0
aI0
aI1
aI1
asS'crisc001'
p2822
(lp2823
g2822
aS'Coco Crisp'
p2824
aI139
aI126
aI11
aI22
aI6
aI0
aI0
aI6
aI2
aI0
aI13
aI25
aI28
asS'campe001'
p2825
(lp2826
g2825
aS'Eric Campbell'
p2827
aI206
aI173
aI28
aI34
aI8
aI0
aI3
aI19
aI5
aI3
aI26
aI37
aI51
asS'pujoa001'
p2828
(lp2829
g2828
aS'Albert Pujols'
p2830
aI661
aI602
aI85
aI147
aI22
aI0
aI40
aI95
aI5
aI3
aI50
aI72
aI289
asS'mccaj001'
p2831
(lp2832
g2831
aS'James McCann'
p2833
aI425
aI401
aI32
aI106
aI18
aI5
aI7
aI41
aI0
aI1
aI16
aI90
aI155
asS'pedrd001'
p2834
(lp2835
g2834
aS'Dustin Pedroia'
p2836
aI425
aI381
aI46
aI111
aI19
aI1
aI12
aI42
aI2
aI2
aI38
aI51
aI168
asS'coleg001'
p2837
(lp2838
g2837
aS'Gerrit Cole'
p2839
aI71
aI60
aI5
aI9
aI0
aI0
aI0
aI2
aI0
aI0
aI2
aI28
aI9
asS'desca001'
p2840
(lp2841
g2840
aS'Anthony DeSclafani'
p2842
aI64
aI58
aI1
aI9
aI1
aI0
aI0
aI3
aI0
aI0
aI3
aI33
aI10
asS'smoaj001'
p2843
(lp2844
g2843
aS'Justin Smoak'
p2845
aI328
aI296
aI44
aI67
aI16
aI1
aI18
aI59
aI0
aI0
aI29
aI86
aI139
asS'clevs001'
p2846
(lp2847
g2846
aS'Steve Clevenger'
p2848
aI105
aI101
aI11
aI29
aI4
aI2
aI2
aI15
aI0
aI0
aI4
aI13
aI43
asS'moort002'
p2849
(lp2850
g2849
aS'Tyler Moore'
p2851
aI200
aI187
aI14
aI38
aI12
aI0
aI6
aI27
aI0
aI0
aI11
aI45
aI68
asS'perew001'
p2852
(lp2853
g2852
aS'Williams Perez'
p2854
aI34
aI28
aI2
aI2
aI0
aI0
aI0
aI0
aI0
aI0
aI2
aI13
aI2
asS'bethc001'
p2855
(lp2856
g2855
aS'Christian Bethancourt'
p2857
aI160
aI155
aI16
aI31
aI8
aI0
aI2
aI12
aI1
aI1
aI5
aI33
aI45
asS'perec003'
p2858
(lp2859
g2858
aS'Carlos Perez'
p2860
aI283
aI260
aI20
aI65
aI13
aI0
aI4
aI21
aI2
aI0
aI19
aI49
aI90
asS'keplm001'
p2861
(lp2862
g2861
aS'Max Kepler'
p2863
aI7
aI7
aI0
aI1
aI0
aI0
aI0
aI0
aI0
aI0
aI0
aI3
aI1
asS'incie001'
p2864
(lp2865
g2864
aS'Ender Inciarte'
p2866
aI561
aI524
aI73
aI159
aI27
aI5
aI6
aI45
aI21
aI10
aI26
aI58
aI214
asS'lindf001'
p2867
(lp2868
g2867
aS'Francisco Lindor'
p2869
aI438
aI390
aI50
aI122
aI22
aI4
aI12
aI51
aI12
aI2
aI27
aI69
aI188
asS'bryak001'
p2870
(lp2871
g2870
aS'Kris Bryant'
p2872
aI650
aI559
aI86
aI154
aI31
aI5
aI26
aI99
aI13
aI4
aI77
aI199
aI273
asS'hessk001'
p2873
(lp2874
g2873
aS'Keith Hessler'
p2875
aI1
aI1
aI0
aI1
aI0
aI0
aI0
aI0
aI0
aI0
aI0
aI0
aI1
asS'omals001'
p2876
(lp2877
g2876
aS"Shawn O'Malley"
p2878
aI57
aI42
aI10
aI11
aI1
aI0
aI1
aI7
aI3
aI0
aI12
aI14
aI15
asS'cruzn002'
p2879
(lp2880
g2879
aS'Nelson Cruz'
p2881
aI655
aI590
aI90
aI178
aI22
aI1
aI44
aI93
aI3
aI2
aI59
aI164
aI334
asS'colob001'
p2882
(lp2883
g2882
aS'Bartolo Colon'
p2884
aI64
aI58
aI2
aI8
aI1
aI0
aI0
aI4
aI0
aI0
aI0
aI24
aI9
asS'pinem001'
p2885
(lp2886
g2885
aS'Michael Pineda'
p2887
aI2
aI2
aI0
aI0
aI0
aI0
aI0
aI0
aI0
aI0
aI0
aI1
aI0
asS'lorem002'
p2888
(lp2889
g2888
aS'Michael Lorenzen'
p2890
aI41
aI36
aI4
aI9
aI0
aI1
aI0
aI4
aI0
aI0
aI0
aI13
aI11
asS'chacj001'
p2891
(lp2892
g2891
aS'Jhoulys Chacin'
p2893
aI9
aI8
aI0
aI1
aI0
aI0
aI0
aI0
aI0
aI0
aI0
aI4
aI1
asa(dp2894
g8
(lp2895
g8
ag10
aS'84.2'
p2896
aI91
aI34
aI34
aI9
aI17
aI0
aI78
asg14
(lp2897
g14
ag16
aS'57.2'
p2898
aI61
aI32
aI27
aI5
aI18
aI6
aI48
asS'olsot002'
p2899
(lp2900
g2899
aS'Tyler Olson'
p2901
aS'13.1'
p2902
aI18
aI8
aI8
aI2
aI10
aI7
aI8
asg20
(lp2903
g20
ag22
aS'12.1'
p2904
aI13
aI8
aI8
aI1
aI6
aI1
aI7
asg23
(lp2905
g23
ag25
aS'52.1'
p2906
aI67
aI43
aI38
aI7
aI26
aI0
aI42
asg38
(lp2907
g38
ag40
aS'57.1'
p2908
aI39
aI19
aI19
aI4
aI26
aI2
aI64
asg44
(lp2909
g44
ag46
aS'28.2'
p2910
aI42
aI29
aI29
aI8
aI10
aI0
aI16
asg2063
(lp2911
g2063
ag2065
aS'212.1'
p2912
aI190
aI88
aI86
aI22
aI62
aI3
aI215
asg53
(lp2913
g53
ag55
aS'25.1'
p2914
aI30
aI21
aI21
aI3
aI14
aI0
aI14
asg56
(lp2915
g56
ag58
aS'134.0'
p2916
aI145
aI76
aI72
aI15
aI49
aI0
aI110
asg62
(lp2917
g62
ag64
aS'59.1'
p2918
aI40
aI19
aI17
aI6
aI22
aI1
aI87
asS'teafe001'
p2919
(lp2920
g2919
aS'Everett Teaford'
p2921
aS'5.1'
p2922
aI5
aI1
aI1
aI0
aI3
aI1
aI4
asg65
(lp2923
g65
ag67
aS'60.2'
p2924
aI71
aI39
aI39
aI12
aI20
aI0
aI41
asg68
(lp2925
g68
ag70
aS'120.2'
p2926
aI161
aI83
aI78
aI22
aI34
aI3
aI74
asg71
(lp2927
g71
ag73
aS'176.2'
p2928
aI192
aI93
aI82
aI20
aI55
aI2
aI113
asS'mored001'
p2929
(lp2930
g2929
aS'Diego Moreno'
p2931
aS'10.1'
p2932
aI9
aI6
aI6
aI1
aI3
aI0
aI8
asS'hinod001'
p2933
(lp2934
g2933
aS'Dalier Hinojosa'
p2935
aS'24.1'
p2936
aI15
aI3
aI2
aI1
aI11
aI1
aI23
asg86
(lp2937
g86
ag88
aS'188.2'
p2938
aI193
aI103
aI98
aI32
aI63
aI3
aI150
asS'valdj003'
p2939
(lp2940
g2939
aS'Jose Valdez'
p2941
aS'8.2'
p2942
aI10
aI4
aI4
aI2
aI4
aI0
aI4
asS'maurb001'
p2943
(lp2944
g2943
aS'Brandon Maurer'
p2945
aS'51.0'
p2946
aI39
aI19
aI17
aI3
aI15
aI1
aI39
asS'sanca006'
p2947
(lp2948
g2947
aS'Aaron Sanchez'
p2949
aS'92.0'
p2950
aI74
aI35
aI33
aI9
aI44
aI2
aI61
asS'wilsa001'
p2951
(lp2952
g2951
aS'Alex Wilson'
p2953
aS'70.0'
p2954
aI61
aI19
aI17
aI5
aI11
aI1
aI38
asg98
(lp2955
g98
ag100
aS'157.0'
p2956
aI152
aI89
aI87
aI29
aI49
aI1
aI138
asg2000
(lp2957
g2000
ag2002
aS'67.0'
p2958
aI70
aI21
aI17
aI3
aI19
aI2
aI36
asS'castm002'
p2959
(lp2960
g2959
aS'Miguel Castro'
p2961
aS'17.2'
p2962
aI21
aI13
aI12
aI4
aI10
aI2
aI18
asg104
(lp2963
g104
ag106
aS'20.0'
p2964
aI16
aI9
aI7
aI2
aI7
aI0
aI15
asg110
(lp2965
g110
ag112
aS'23.0'
p2966
aI29
aI21
aI18
aI7
aI20
aI1
aI21
asg113
(lp2967
g113
ag115
aS'40.1'
p2968
aI38
aI19
aI17
aI8
aI10
aI0
aI41
asg116
(lp2969
g116
ag118
aS'184.1'
p2970
aI193
aI76
aI70
aI15
aI68
aI0
aI121
asS'yatek001'
p2971
(lp2972
g2971
aS'Kirby Yates'
p2973
aS'20.0'
p2974
aI23
aI18
aI18
aI10
aI7
aI0
aI21
asg626
(lp2975
g626
ag628
aS'1.0'
p2976
aI3
aI1
aI1
aI1
aI0
aI0
aI0
asS'laynt001'
p2977
(lp2978
g2977
aS'Tom Layne'
p2979
aS'47.2'
p2980
aI41
aI22
aI21
aI3
aI27
aI2
aI45
asS'barnm001'
p2981
(lp2982
g2981
aS'Matt Barnes'
p2983
aS'43.0'
p2984
aI56
aI28
aI27
aI9
aI15
aI0
aI39
asg1535
(lp2985
g1535
ag1537
aS'42.1'
p2986
aI47
aI18
aI18
aI3
aI7
aI1
aI22
asS'gausk001'
p2987
(lp2988
g2987
aS'Kevin Gausman'
p2989
aS'112.0'
p2990
aI109
aI56
aI53
aI17
aI29
aI1
aI103
asg131
(lp2991
g131
ag133
aS'1.0'
p2992
aI2
aI1
aI1
aI1
aI0
aI0
aI0
asg1976
(lp2993
g1976
ag1978
aS'63.0'
p2994
aI74
aI40
aI38
aI9
aI23
aI1
aI46
asS'wilsj004'
p2995
(lp2996
g2995
aS'Justin Wilson'
p2997
aS'61.0'
p2998
aI49
aI21
aI21
aI3
aI20
aI0
aI66
asS'ramin001'
p2999
(lp3000
g2999
aS'Neil Ramirez'
p3001
aS'14.0'
p3002
aI12
aI5
aI5
aI1
aI6
aI0
aI15
asS'tropn001'
p3003
(lp3004
g3003
aS'Nick Tropeano'
p3005
aS'37.1'
p3006
aI40
aI18
aI16
aI2
aI10
aI0
aI38
asS'franj003'
p3007
(lp3008
g3007
aS'Jeff Francis'
p3009
aS'21.2'
p3010
aI27
aI15
aI15
aI3
aI9
aI0
aI21
asg155
(lp3011
g155
ag157
aS'82.2'
p3012
aI100
aI67
aI63
aI15
aI31
aI0
aI71
asS'belij001'
p3013
(lp3014
g3013
aS'Jeff Beliveau'
p3015
aS'2.1'
p3016
aI6
aI4
aI4
aI1
aI1
aI0
aI2
asS'gracm003'
p3017
(lp3018
g3017
aS'Matt Grace'
p3019
aS'17.0'
p3020
aI26
aI11
aI8
aI0
aI8
aI2
aI14
asg161
(lp3021
g161
ag163
aS'204.2'
p3022
aI211
aI114
aI107
aI26
aI42
aI2
aI142
asg167
(lp3023
g167
ag169
aS'184.0'
p3024
aI182
aI88
aI83
aI20
aI68
aI1
aI168
asg170
(lp3025
g170
ag172
aS'5.2'
p3026
aI11
aI6
aI6
aI2
aI1
aI0
aI4
asS'johnj010'
p3027
(lp3028
g3027
aS'Jim Johnson'
p3029
aS'66.2'
p3030
aI77
aI36
aI33
aI5
aI20
aI2
aI50
asg176
(lp3031
g176
ag178
aS'86.0'
p3032
aI99
aI48
aI47
aI10
aI36
aI2
aI72
asg1043
(lp3033
g1043
ag1045
aS'57.1'
p3034
aI51
aI20
aI19
aI3
aI10
aI2
aI71
asg185
(lp3035
g185
ag187
aS'71.0'
p3036
aI49
aI25
aI23
aI8
aI31
aI2
aI64
asg2435
(lp3037
g2435
ag2437
aS'48.0'
p3038
aI37
aI19
aI19
aI8
aI21
aI0
aI45
asg194
(lp3039
g194
ag196
aS'64.2'
p3040
aI59
aI22
aI20
aI3
aI11
aI1
aI71
asS'gregk001'
p3041
(lp3042
g3041
aS'Kevin Gregg'
p3043
aS'10.2'
p3044
aI13
aI12
aI12
aI3
aI5
aI0
aI14
asg200
(lp3045
g200
ag202
aS'154.0'
p3046
aI175
aI72
aI72
aI10
aI49
aI0
aI121
asS'carlb001'
p3047
(lp3048
g3047
aS'Buddy Carlyle'
p3049
aS'7.2'
p3050
aI8
aI5
aI5
aI0
aI1
aI0
aI6
asS'knebc001'
p3051
(lp3052
g3051
aS'Corey Knebel'
p3053
aS'50.1'
p3054
aI44
aI18
aI18
aI8
aI17
aI1
aI58
asg212
(lp3055
g212
ag214
aS'67.0'
p3056
aI65
aI28
aI28
aI7
aI21
aI1
aI59
asg2108
(lp3057
g2108
ag2110
aS'1.2'
p3058
aI1
aI2
aI2
aI1
aI3
aI0
aI1
asS'kohnm001'
p3059
(lp3060
g3059
aS'Michael Kohn'
p3061
aS'4.1'
p3062
aI0
aI0
aI0
aI0
aI6
aI0
aI4
asS'smitw002'
p3063
(lp3064
g3063
aS'Will Smith'
p3065
aS'63.1'
p3066
aI52
aI23
aI19
aI5
aI24
aI1
aI91
asS'strad003'
p3067
(lp3068
g3067
aS'Dan Straily'
p3069
aS'16.2'
p3070
aI16
aI11
aI10
aI2
aI8
aI0
aI14
asS'schet001'
p3071
(lp3072
g3071
aS'Tanner Scheppers'
p3073
aS'38.1'
p3074
aI37
aI25
aI24
aI6
aI23
aI3
aI32
asS'smitj002'
p3075
(lp3076
g3075
aS'Joe Smith'
p3077
aS'65.1'
p3078
aI64
aI26
aI26
aI4
aI19
aI4
aI57
asg224
(lp3079
g224
ag226
aS'32.1'
p3080
aI42
aI27
aI25
aI5
aI21
aI3
aI30
asS'kensl001'
p3081
(lp3082
g3081
aS'Logan Kensing'
p3083
aS'15.1'
p3084
aI12
aI10
aI10
aI2
aI7
aI0
aI13
asS'johnb004'
p3085
(lp3086
g3085
aS'Brian Johnson'
p3087
aS'4.0'
p3088
aI3
aI4
aI4
aI0
aI4
aI0
aI3
asS'faula001'
p3089
(lp3090
g3089
aS'Andrew Faulkner'
p3091
aS'9.1'
p3092
aI8
aI3
aI3
aI2
aI3
aI1
aI10
asg1406
(lp3093
g1406
ag1408
aS'102.2'
p3094
aI120
aI56
aI49
aI14
aI24
aI3
aI63
asS'barra001'
p3095
(lp3096
g3095
aS'Aaron Barrett'
p3097
aS'29.0'
p3098
aI28
aI14
aI14
aI1
aI7
aI0
aI35
asg248
(lp3099
g248
ag250
aS'10.0'
p3100
aI9
aI6
aI5
aI0
aI5
aI3
aI13
asg2003
(lp3101
g2003
ag2005
aS'202.1'
p3102
aI189
aI93
aI88
aI33
aI81
aI5
aI216
asS'schub001'
p3103
(lp3104
g3103
aS'Bo Schultz'
p3105
aS'43.0'
p3106
aI32
aI19
aI17
aI7
aI14
aI0
aI31
asS'montf001'
p3107
(lp3108
g3107
aS'Frankie Montas'
p3109
aS'15.0'
p3110
aI14
aI8
aI8
aI1
aI9
aI1
aI20
asg263
(lp3111
g263
ag265
aS'189.2'
p3112
aI198
aI86
aI81
aI15
aI59
aI4
aI139
asg269
(lp3113
g269
ag271
aS'85.2'
p3114
aI78
aI36
aI34
aI5
aI30
aI0
aI64
asS'lobsk001'
p3115
(lp3116
g3115
aS'Kyle Lobstein'
p3117
aS'63.2'
p3118
aI78
aI43
aI42
aI7
aI23
aI1
aI32
asS'uehak001'
p3119
(lp3120
g3119
aS'Koji Uehara'
p3121
aS'40.1'
p3122
aI28
aI14
aI10
aI3
aI9
aI1
aI47
asS'sants001'
p3123
(lp3124
g3123
aS'Sergio Santos'
p3125
aS'16.1'
p3126
aI16
aI9
aI9
aI3
aI7
aI1
aI18
asg2720
(lp3127
g2720
ag2722
aS'134.2'
p3128
aI140
aI76
aI70
aI17
aI58
aI2
aI108
asS'armss001'
p3129
(lp3130
g3129
aS'Shawn Armstrong'
p3131
aS'7.2'
p3132
aI5
aI2
aI2
aI1
aI2
aI0
aI11
asg296
(lp3133
g296
ag298
aS'144.1'
p3134
aI151
aI81
aI79
aI24
aI51
aI2
aI109
asS'gonzm005'
p3135
(lp3136
g3135
aS'Marco Gonzales'
p3137
aS'2.1'
p3138
aI7
aI4
aI4
aI1
aI1
aI0
aI1
asg302
(lp3139
g302
ag304
aS'76.0'
p3140
aI75
aI37
aI35
aI7
aI38
aI2
aI60
asg305
(lp3141
g305
ag307
aS'9.0'
p3142
aI14
aI11
aI6
aI1
aI1
aI1
aI9
asS'garcl005'
p3143
(lp3144
g3143
aS'Luis Garcia'
p3145
aS'66.2'
p3146
aI72
aI28
aI26
aI4
aI37
aI8
aI63
asg311
(lp3147
g311
ag313
aS'1.0'
p3148
aI1
aI0
aI0
aI0
aI0
aI0
aI1
asS'lee-c004'
p3149
(lp3150
g3149
aS'C.C. Lee'
p3151
aS'1.1'
p3152
aI4
aI1
aI1
aI0
aI1
aI0
aI3
asS'tuivs001'
p3153
(lp3154
g3153
aS'Sam Tuivailala'
p3155
aS'14.2'
p3156
aI13
aI5
aI5
aI2
aI8
aI1
aI20
asg323
(lp3157
g323
ag325
aS'146.2'
p3158
aI132
aI62
aI60
aI19
aI56
aI1
aI145
asg329
(lp3159
g329
ag331
aS'203.2'
p3160
aI207
aI89
aI88
aI19
aI53
aI2
aI171
asg332
(lp3161
g332
ag334
aS'177.1'
p3162
aI163
aI89
aI81
aI18
aI65
aI4
aI148
asS'jimec002'
p3163
(lp3164
g3163
aS'Cesar Jimenez'
p3165
aS'22.2'
p3166
aI17
aI8
aI8
aI2
aI8
aI0
aI25
asg347
(lp3167
g347
ag349
aS'93.0'
p3168
aI107
aI55
aI55
aI9
aI32
aI1
aI67
asS'rosis001'
p3169
(lp3170
g3169
aS'Seth Rosin'
p3171
aS'1.2'
p3172
aI7
aI5
aI5
aI1
aI1
aI0
aI0
asS'mcfat001'
p3173
(lp3174
g3173
aS'T.J. McFarland'
p3175
aS'40.1'
p3176
aI52
aI26
aI23
aI4
aI18
aI5
aI26
asg350
(lp3177
g350
ag352
aS'232.0'
p3178
aI185
aI68
aI64
aI17
aI51
aI0
aI216
asg359
(lp3179
g359
ag361
aS'35.1'
p3180
aI34
aI9
aI9
aI4
aI10
aI0
aI34
asS'buchj001'
p3181
(lp3182
g3181
aS'Jake Buchanan'
p3183
aS'8.2'
p3184
aI5
aI2
aI2
aI1
aI4
aI0
aI5
asg365
(lp3185
g365
ag367
aS'3.1'
p3186
aI4
aI4
aI4
aI2
aI1
aI0
aI4
asg410
(lp3187
g410
ag412
aS'13.2'
p3188
aI22
aI11
aI11
aI1
aI7
aI0
aI5
asS'casta004'
p3189
(lp3190
g3189
aS'Angel Castro'
p3191
aS'4.0'
p3192
aI8
aI1
aI1
aI1
aI3
aI0
aI4
asS'rivef001'
p3193
(lp3194
g3193
aS'Felipe Rivero'
p3195
aS'48.1'
p3196
aI35
aI15
aI15
aI2
aI11
aI2
aI43
asS'pomed001'
p3197
(lp3198
g3197
aS'Drew Pomeranz'
p3199
aS'85.2'
p3200
aI71
aI44
aI36
aI8
aI31
aI1
aI82
asS'bella001'
p3201
(lp3202
g3201
aS'Andrew Bellatti'
p3203
aS'23.0'
p3204
aI16
aI7
aI6
aI4
aI10
aI0
aI18
asS'rucid001'
p3205
(lp3206
g3205
aS'Drew Rucinski'
p3207
aS'6.2'
p3208
aI10
aI6
aI6
aI1
aI6
aI0
aI4
asg389
(lp3209
g389
ag391
aS'180.1'
p3210
aI162
aI83
aI75
aI24
aI64
aI5
aI180
asS'alvaj003'
p3211
(lp3212
g3211
aS'Jose Alvarez'
p3213
aS'67.0'
p3214
aI58
aI29
aI26
aI5
aI23
aI4
aI59
asS'cothc001'
p3215
(lp3216
g3215
aS'Caleb Cotham'
p3217
aS'9.1'
p3218
aI14
aI7
aI7
aI4
aI1
aI0
aI11
asS'chapk002'
p3219
(lp3220
g3219
aS'Kevin Chapman'
p3221
aS'5.0'
p3222
aI4
aI2
aI2
aI1
aI3
aI0
aI8
asg398
(lp3223
g398
ag400
aS'187.0'
p3224
aI201
aI112
aI106
aI24
aI68
aI1
aI117
asg401
(lp3225
g401
ag403
aS'37.0'
p3226
aI50
aI31
aI28
aI3
aI14
aI2
aI35
asS'veald001'
p3227
(lp3228
g3227
aS'Donnie Veal'
p3229
aS'4.0'
p3230
aI8
aI7
aI7
aI3
aI2
aI0
aI3
asg1904
(lp3231
g1904
ag1906
aS'35.2'
p3232
aI39
aI14
aI14
aI1
aI11
aI1
aI13
asg416
(lp3233
g416
ag418
aS'30.2'
p3234
aI32
aI28
aI21
aI10
aI20
aI1
aI17
asS'thoma003'
p3235
(lp3236
g3235
aS'Aaron Thompson'
p3237
aS'32.0'
p3238
aI32
aI19
aI18
aI2
aI11
aI2
aI17
asS'petrj001'
p3239
(lp3240
g3239
aS'Jake Petricka'
p3241
aS'52.0'
p3242
aI56
aI21
aI21
aI2
aI18
aI4
aI33
asS'romee002'
p3243
(lp3244
g3243
aS'Enny Romero'
p3245
aS'29.2'
p3246
aI39
aI18
aI17
aI1
aI13
aI0
aI31
asS'betad001'
p3247
(lp3248
g3247
aS'Dellin Betances'
p3249
aS'83.2'
p3250
aI45
aI17
aI14
aI6
aI40
aI2
aI131
asg431
(lp3251
g431
ag433
aS'43.1'
p3252
aI44
aI27
aI26
aI4
aI16
aI1
aI36
asS'parnb001'
p3253
(lp3254
g3253
aS'Bobby Parnell'
p3255
aS'23.2'
p3256
aI30
aI20
aI17
aI0
aI17
aI1
aI13
asg440
(lp3257
g440
ag442
aS'176.0'
p3258
aI152
aI90
aI89
aI23
aI79
aI1
aI170
asS'westm002'
p3259
(lp3260
g3259
aS'Matt West'
p3261
aS'3.0'
p3262
aI2
aI0
aI0
aI0
aI1
aI0
aI2
asg752
(lp3263
g752
ag754
aS'5.2'
p3264
aI5
aI8
aI8
aI1
aI6
aI0
aI6
asS'richg002'
p3265
(lp3266
g3265
aS'Garrett Richards'
p3267
aS'207.1'
p3268
aI181
aI94
aI84
aI20
aI76
aI2
aI176
asg452
(lp3269
g452
ag454
aS'164.2'
p3270
aI198
aI86
aI78
aI11
aI45
aI1
aI86
asS'rossr002'
p3271
(lp3272
g3271
aS'Robbie Ross'
p3273
aS'60.2'
p3274
aI59
aI28
aI26
aI7
aI20
aI2
aI53
asS'schlb001'
p3275
(lp3276
g3275
aS'Brian Schlitter'
p3277
aS'7.0'
p3278
aI12
aI6
aI6
aI2
aI2
aI0
aI4
asg461
(lp3279
g461
ag463
aS'108.1'
p3280
aI130
aI59
aI56
aI14
aI37
aI2
aI60
asg464
(lp3281
g464
ag466
aS'192.0'
p3282
aI174
aI80
aI79
aI22
aI49
aI5
aI119
asS'fujik001'
p3283
(lp3284
g3283
aS'Kyuji Fujikawa'
p3285
aS'1.1'
p3286
aI2
aI3
aI3
aI1
aI0
aI0
aI1
asS'deloa001'
p3287
(lp3288
g3287
aS'Abel de los Santos'
p3289
aS'1.1'
p3290
aI2
aI1
aI1
aI1
aI1
aI0
aI3
asg473
(lp3291
g473
ag475
aS'139.0'
p3292
aI130
aI63
aI58
aI11
aI71
aI0
aI139
asS'zycht001'
p3293
(lp3294
g3293
aS'Tony Zych'
p3295
aS'18.1'
p3296
aI17
aI6
aI5
aI1
aI3
aI0
aI24
asS'rolld002'
p3297
(lp3298
g3297
aS'David Rollins'
p3299
aS'24.2'
p3300
aI37
aI21
aI21
aI3
aI8
aI1
aI21
asS'cabrc001'
p3301
(lp3302
g3301
aS'Cesar Cabral'
p3303
aS'1.0'
p3304
aI0
aI0
aI0
aI0
aI1
aI0
aI1
asS'whitc001'
p3305
(lp3306
g3305
aS'Chase Whitley'
p3307
aS'19.0'
p3308
aI20
aI9
aI9
aI3
aI5
aI0
aI16
asS'pestv001'
p3309
(lp3310
g3309
aS'Vinnie Pestano'
p3311
aS'11.2'
p3312
aI15
aI9
aI7
aI3
aI8
aI2
aI13
asS'gilek001'
p3313
(lp3314
g3313
aS'Ken Giles'
p3315
aS'70.0'
p3316
aI59
aI23
aI14
aI2
aI25
aI2
aI87
asS'scrie001'
p3317
(lp3318
g3317
aS'Evan Scribner'
p3319
aS'60.0'
p3320
aI58
aI31
aI29
aI14
aI4
aI0
aI64
asS'orour001'
p3321
(lp3322
g3321
aS"Ryan O'Rourke"
p3323
aS'21.2'
p3324
aI16
aI15
aI15
aI3
aI15
aI2
aI24
asS'matem001'
p3325
(lp3326
g3325
aS'Marcos Mateo'
p3327
aS'26.2'
p3328
aI22
aI16
aI12
aI5
aI9
aI1
aI33
asg512
(lp3329
g512
ag514
aS'75.0'
p3330
aI56
aI23
aI23
aI3
aI30
aI6
aI58
asg515
(lp3331
g515
ag517
aS'58.0'
p3332
aI59
aI35
aI33
aI8
aI22
aI0
aI42
asS'edwaj001'
p3333
(lp3334
g3333
aS'Jon Edwards'
p3335
aS'16.2'
p3336
aI12
aI8
aI8
aI4
aI16
aI0
aI22
asS'ryank002'
p3337
(lp3338
g3337
aS'Kyle Ryan'
p3339
aS'56.1'
p3340
aI60
aI29
aI28
aI9
aI20
aI0
aI30
asg536
(lp3341
g536
ag538
aS'27.2'
p3342
aI25
aI7
aI5
aI0
aI4
aI0
aI20
asS'wrigw001'
p3343
(lp3344
g3343
aS'Wesley Wright'
p3345
aS'7.0'
p3346
aI6
aI4
aI3
aI1
aI3
aI1
aI5
asS'cedex001'
p3347
(lp3348
g3347
aS'Xavier Cedeno'
p3349
aS'46.0'
p3350
aI40
aI13
aI12
aI4
aI14
aI2
aI47
asg548
(lp3351
g548
ag550
aS'128.2'
p3352
aI137
aI77
aI69
aI13
aI41
aI6
aI96
asS'sotog002'
p3353
(lp3354
g3353
aS'Giovanni Soto'
p3355
aS'3.1'
p3356
aI3
aI0
aI0
aI0
aI0
aI0
aI0
asg560
(lp3357
g560
ag562
aS'96.1'
p3358
aI88
aI46
aI36
aI5
aI25
aI1
aI64
asS'hallc001'
p3359
(lp3360
g3359
aS'Cody Hall'
p3361
aS'8.0'
p3362
aI10
aI6
aI6
aI1
aI4
aI0
aI7
asS'redmt002'
p3363
(lp3364
g3363
aS'Todd Redmond'
p3365
aS'16.0'
p3366
aI17
aI13
aI13
aI3
aI7
aI0
aI13
asg1598
(lp3367
g1598
ag1600
aS'63.0'
p3368
aI62
aI35
aI32
aI7
aI24
aI0
aI50
asg575
(lp3369
g575
ag577
aS'59.1'
p3370
aI68
aI38
aI37
aI7
aI27
aI0
aI49
asg578
(lp3371
g578
ag580
aS'38.1'
p3372
aI44
aI21
aI19
aI4
aI17
aI0
aI27
asS'verhd001'
p3373
(lp3374
g3373
aS'Drew VerHagen'
p3375
aS'26.0'
p3376
aI18
aI6
aI6
aI1
aI14
aI2
aI13
asg587
(lp3377
g587
ag589
aS'72.2'
p3378
aI67
aI38
aI33
aI12
aI27
aI0
aI52
asg2516
(lp3379
g2516
ag2518
aS'163.1'
p3380
aI145
aI72
aI67
aI16
aI40
aI0
aI126
asg590
(lp3381
g590
ag592
aS'27.0'
p3382
aI24
aI14
aI13
aI2
aI14
aI2
aI27
asS'morrb002'
p3383
(lp3384
g3383
aS'Bryan Morris'
p3385
aS'63.0'
p3386
aI67
aI26
aI22
aI3
aI26
aI0
aI47
asg593
(lp3387
g593
ag595
aS'32.2'
p3388
aI29
aI10
aI10
aI3
aI7
aI0
aI23
asg596
(lp3389
g596
ag598
aS'180.1'
p3390
aI194
aI82
aI74
aI18
aI46
aI2
aI116
asS'leond003'
p3391
(lp3392
g3391
aS'Dominic Leone'
p3393
aS'15.0'
p3394
aI19
aI15
aI14
aI2
aI9
aI2
aI9
asS'baezp001'
p3395
(lp3396
g3395
aS'Pedro Baez'
p3397
aS'51.0'
p3398
aI47
aI22
aI18
aI4
aI11
aI1
aI60
asg602
(lp3399
g602
ag604
aS'36.2'
p3400
aI53
aI26
aI24
aI5
aI8
aI0
aI15
asg605
(lp3401
g605
ag607
aS'4.1'
p3402
aI11
aI7
aI7
aI1
aI1
aI0
aI3
asS'browb005'
p3403
(lp3404
g3403
aS'Brooks Brown'
p3405
aS'32.2'
p3406
aI32
aI18
aI18
aI2
aI16
aI0
aI20
asg611
(lp3407
g611
ag613
aS'1.2'
p3408
aI2
aI3
aI2
aI2
aI1
aI0
aI1
asS'gregl001'
p3409
(lp3410
g3409
aS'Luke Gregerson'
p3411
aS'61.0'
p3412
aI48
aI24
aI21
aI5
aI10
aI2
aI59
asS'hernd002'
p3413
(lp3414
g3413
aS'David Hernandez'
p3415
aS'33.1'
p3416
aI33
aI18
aI16
aI6
aI11
aI0
aI33
asS'streh001'
p3417
(lp3418
g3417
aS'Huston Street'
p3419
aS'62.1'
p3420
aI52
aI22
aI22
aI7
aI20
aI5
aI57
asS'davik002'
p3421
(lp3422
g3421
aS'Kyle Davies'
p3423
aS'2.0'
p3424
aI3
aI0
aI0
aI0
aI0
aI0
aI2
asg650
(lp3425
g650
ag652
aS'193.2'
p3426
aI201
aI98
aI96
aI17
aI64
aI0
aI147
asS'felim001'
p3427
(lp3428
g3427
aS'Michael Feliz'
p3429
aS'7.2'
p3430
aI9
aI7
aI7
aI2
aI4
aI0
aI7
asg659
(lp3431
g659
ag661
aS'7.0'
p3432
aI8
aI3
aI3
aI1
aI3
aI1
aI3
asg668
(lp3433
g668
ag670
aS'17.0'
p3434
aI16
aI9
aI9
aI1
aI2
aI0
aI10
asS'houst002'
p3435
(lp3436
g3435
aS'T.J. House'
p3437
aS'13.0'
p3438
aI21
aI19
aI19
aI1
aI12
aI1
aI7
asS'bedrc001'
p3439
(lp3440
g3439
aS'Cam Bedrosian'
p3441
aS'33.0'
p3442
aI40
aI21
aI20
aI3
aI19
aI2
aI34
asg698
(lp3443
g698
ag700
aS'62.1'
p3444
aI53
aI21
aI20
aI9
aI22
aI0
aI56
asS'robed002'
p3445
(lp3446
g3445
aS'David Robertson'
p3447
aS'63.1'
p3448
aI46
aI27
aI24
aI7
aI13
aI2
aI86
asg713
(lp3449
g713
ag715
aS'180.2'
p3450
aI156
aI80
aI72
aI29
aI71
aI5
aI162
asS'floyg001'
p3451
(lp3452
g3451
aS'Gavin Floyd'
p3453
aS'13.1'
p3454
aI11
aI4
aI4
aI0
aI4
aI0
aI7
asg2597
(lp3455
g2597
ag2599
aS'175.1'
p3456
aI172
aI66
aI59
aI13
aI68
aI5
aI167
asS'stitm001'
p3457
(lp3458
g3457
aS'Matt Stites'
p3459
aS'8.1'
p3460
aI14
aI14
aI12
aI1
aI5
aI0
aI6
asg722
(lp3461
g722
ag724
aS'19.1'
p3462
aI17
aI14
aI13
aI2
aI13
aI1
aI15
asg728
(lp3463
g728
ag730
aS'1.2'
p3464
aI6
aI3
aI3
aI1
aI0
aI0
aI0
asS'adcon001'
p3465
(lp3466
g3465
aS'Nathan Adcock'
p3467
aS'18.0'
p3468
aI15
aI12
aI12
aI3
aI12
aI0
aI13
asg137
(lp3469
g137
ag139
aS'28.1'
p3470
aI24
aI12
aI7
aI4
aI8
aI0
aI27
asS'hillt001'
p3471
(lp3472
g3471
aS'Taylor Hill'
p3473
aS'12.0'
p3474
aI14
aI5
aI5
aI2
aI4
aI0
aI9
asg746
(lp3475
g746
ag748
aS'229.0'
p3476
aI150
aI52
aI45
aI10
aI48
aI2
aI236
asS'rodrp001'
p3477
(lp3478
g3477
aS'Paco Rodriguez'
p3479
aS'10.1'
p3480
aI10
aI3
aI3
aI0
aI3
aI0
aI8
asS'gravk001'
p3481
(lp3482
g3481
aS'Kendall Graveman'
p3483
aS'115.1'
p3484
aI126
aI57
aI52
aI15
aI38
aI0
aI77
asS'thatj001'
p3485
(lp3486
g3485
aS'Joe Thatcher'
p3487
aS'22.1'
p3488
aI23
aI8
aI8
aI1
aI12
aI0
aI26
asS'pazoj001'
p3489
(lp3490
g3489
aS'James Pazos'
p3491
aS'4.2'
p3492
aI3
aI0
aI0
aI0
aI3
aI0
aI3
asg758
(lp3493
g758
ag760
aS'173.0'
p3494
aI176
aI97
aI96
aI20
aI64
aI1
aI120
asg761
(lp3495
g761
ag763
aS'191.0'
p3496
aI149
aI59
aI54
aI16
aI38
aI2
aI205
asg776
(lp3497
g776
ag778
aS'169.1'
p3498
aI149
aI65
aI63
aI18
aI46
aI0
aI150
asg1718
(lp3499
g1718
ag1720
aS'26.2'
p3500
aI30
aI14
aI11
aI4
aI13
aI0
aI15
asS'waldj001'
p3501
(lp3502
g3501
aS'Jordan Walden'
p3503
aS'10.0'
p3504
aI7
aI1
aI1
aI0
aI4
aI1
aI12
asS'cornj002'
p3505
(lp3506
g3505
aS'John Cornely'
p3507
aS'1.0'
p3508
aI3
aI4
aI4
aI1
aI1
aI0
aI1
asg788
(lp3509
g788
ag790
aS'3.0'
p3510
aI2
aI0
aI0
aI0
aI1
aI0
aI3
asg1769
(lp3511
g1769
ag1771
aS'39.2'
p3512
aI55
aI29
aI26
aI5
aI11
aI3
aI25
asg800
(lp3513
g800
ag802
aS'200.2'
p3514
aI189
aI99
aI91
aI27
aI73
aI3
aI171
asg803
(lp3515
g803
ag805
aS'88.2'
p3516
aI90
aI38
aI37
aI15
aI22
aI2
aI81
asg806
(lp3517
g806
ag808
aS'109.0'
p3518
aI104
aI49
aI44
aI11
aI45
aI3
aI98
asg815
(lp3519
g815
ag817
aS'33.2'
p3520
aI42
aI23
aI19
aI3
aI9
aI2
aI20
asS'neshp001'
p3521
(lp3522
g3521
aS'Pat Neshek'
p3523
aS'54.2'
p3524
aI49
aI25
aI22
aI8
aI12
aI1
aI51
asS'baila001'
p3525
(lp3526
g3525
aS'Andrew Bailey'
p3527
aS'8.1'
p3528
aI9
aI8
aI5
aI2
aI5
aI1
aI6
asS'carpd002'
p3529
(lp3530
g3529
aS'David Carpenter'
p3531
aS'3.2'
p3532
aI6
aI3
aI3
aI2
aI0
aI0
aI5
asS'shawb001'
p3533
(lp3534
g3533
aS'Bryan Shaw'
p3535
aS'64.0'
p3536
aI59
aI24
aI21
aI8
aI19
aI1
aI54
asS'carpd001'
p3537
(lp3538
g3537
aS'David Carpenter'
p3539
aS'24.1'
p3540
aI25
aI12
aI11
aI4
aI9
aI1
aI15
asg836
(lp3541
g836
ag838
aS'1.2'
p3542
aI1
aI0
aI0
aI0
aI1
aI0
aI1
asS'jeffj001'
p3543
(lp3544
g3543
aS'Jeremy Jeffress'
p3545
aS'68.0'
p3546
aI64
aI22
aI20
aI5
aI22
aI5
aI67
asS'dools001'
p3547
(lp3548
g3547
aS'Sean Doolittle'
p3549
aS'13.2'
p3550
aI12
aI6
aI6
aI1
aI5
aI0
aI15
asS'kahnt001'
p3551
(lp3552
g3551
aS'Tommy Kahnle'
p3553
aS'33.0'
p3554
aI31
aI22
aI18
aI3
aI28
aI1
aI39
asg851
(lp3555
g851
ag853
aS'67.0'
p3556
aI67
aI34
aI29
aI8
aI29
aI1
aI56
asS'bochb003'
p3557
(lp3558
g3557
aS'Brett Bochy'
p3559
aS'3.0'
p3560
aI1
aI0
aI0
aI0
aI1
aI0
aI3
asS'millb001'
p3561
(lp3562
g3561
aS'Brad Mills'
p3563
aS'4.2'
p3564
aI7
aI3
aI3
aI1
aI1
aI0
aI1
asg863
(lp3565
g863
ag865
aS'167.1'
p3566
aI188
aI92
aI88
aI28
aI50
aI3
aI137
asS'dullr001'
p3567
(lp3568
g3567
aS'Ryan Dull'
p3569
aS'17.0'
p3570
aI12
aI8
aI8
aI4
aI6
aI1
aI16
asg2258
(lp3571
g2258
ag2260
aS'30.1'
p3572
aI25
aI17
aI16
aI6
aI14
aI3
aI35
asg878
(lp3573
g878
ag880
aS'196.0'
p3574
aI172
aI78
aI72
aI9
aI84
aI3
aI212
asS'osunr001'
p3575
(lp3576
g3575
aS'Roberto Osuna'
p3577
aS'69.2'
p3578
aI48
aI21
aI20
aI7
aI16
aI2
aI75
asg884
(lp3579
g884
ag886
aS'155.0'
p3580
aI184
aI76
aI76
aI29
aI16
aI0
aI94
asg638
(lp3581
g638
ag640
aS'22.2'
p3582
aI24
aI15
aI15
aI9
aI4
aI0
aI29
asS'ramin002'
p3583
(lp3584
g3583
aS'Noe Ramirez'
p3585
aS'13.0'
p3586
aI13
aI12
aI7
aI3
aI7
aI0
aI13
asS'cokep001'
p3587
(lp3588
g3587
aS'Phil Coke'
p3589
aS'12.2'
p3590
aI15
aI8
aI8
aI2
aI5
aI2
aI12
asg902
(lp3591
g902
ag904
aS'148.0'
p3592
aI186
aI101
aI98
aI29
aI44
aI1
aI84
asS'rodnf001'
p3593
(lp3594
g3593
aS'Fernando Rodney'
p3595
aS'62.2'
p3596
aI59
aI36
aI33
aI9
aI29
aI3
aI58
asS'eliar001'
p3597
(lp3598
g3597
aS'Roenis Elias'
p3599
aS'115.0'
p3600
aI106
aI57
aI53
aI15
aI44
aI1
aI97
asg914
(lp3601
g914
ag916
aS'116.0'
p3602
aI120
aI67
aI64
aI13
aI32
aI1
aI100
asg917
(lp3603
g917
ag919
aS'149.2'
p3604
aI126
aI60
aI55
aI19
aI31
aI2
aI166
asg920
(lp3605
g920
ag922
aS'23.0'
p3606
aI37
aI23
aI17
aI4
aI8
aI0
aI14
asS'jackj001'
p3607
(lp3608
g3607
aS'Jay Jackson'
p3609
aS'4.0'
p3610
aI7
aI3
aI3
aI0
aI1
aI0
aI4
asg932
(lp3611
g932
ag934
aS'61.2'
p3612
aI73
aI37
aI36
aI5
aI25
aI2
aI28
asS'odayd001'
p3613
(lp3614
g3613
aS"Darren O'Day"
p3615
aS'65.1'
p3616
aI47
aI13
aI12
aI5
aI14
aI1
aI82
asS'rzepm001'
p3617
(lp3618
g3617
aS'Marc Rzepczynski'
p3619
aS'34.2'
p3620
aI40
aI29
aI22
aI3
aI14
aI4
aI41
asS'tomlj001'
p3621
(lp3622
g3621
aS'Josh Tomlin'
p3623
aS'65.2'
p3624
aI47
aI22
aI22
aI13
aI8
aI0
aI57
asg950
(lp3625
g950
ag952
aS'29.1'
p3626
aI37
aI24
aI21
aI4
aI16
aI1
aI29
asS'diazj005'
p3627
(lp3628
g3627
aS'Jumbo Diaz'
p3629
aS'60.1'
p3630
aI58
aI29
aI28
aI9
aI18
aI3
aI70
asg959
(lp3631
g959
ag961
aS'51.0'
p3632
aI40
aI16
aI15
aI5
aI13
aI0
aI49
asg2135
(lp3633
g2135
ag2137
aS'110.1'
p3634
aI99
aI45
aI44
aI12
aI25
aI1
aI78
asg2738
(lp3635
g2738
ag2740
aS'51.1'
p3636
aI34
aI14
aI12
aI4
aI10
aI1
aI50
asS'daviw001'
p3637
(lp3638
g3637
aS'Wade Davis'
p3639
aS'67.1'
p3640
aI33
aI8
aI7
aI3
aI20
aI1
aI78
asS'jenkc001'
p3641
(lp3642
g3641
aS'Chad Jenkins'
p3643
aS'3.2'
p3644
aI3
aI2
aI2
aI1
aI3
aI0
aI2
asS'thiec001'
p3645
(lp3646
g3645
aS'Caleb Thielbar'
p3647
aS'4.2'
p3648
aI5
aI3
aI3
aI0
aI0
aI0
aI5
asS'boxbb001'
p3649
(lp3650
g3649
aS'Brad Boxberger'
p3651
aS'63.0'
p3652
aI54
aI29
aI26
aI9
aI32
aI5
aI74
asg1004
(lp3653
g1004
ag1006
aS'169.2'
p3654
aI163
aI92
aI86
aI25
aI40
aI1
aI157
asS'famij001'
p3655
(lp3656
g3655
aS'Jeurys Familia'
p3657
aS'77.2'
p3658
aI59
aI16
aI16
aI6
aI19
aI1
aI86
asg434
(lp3659
g434
ag436
aS'86.1'
p3660
aI112
aI63
aI55
aI17
aI29
aI0
aI77
asg89
(lp3661
g89
ag91
aS'47.2'
p3662
aI48
aI31
aI31
aI10
aI13
aI1
aI31
asg1025
(lp3663
g1025
ag1027
aS'148.1'
p3664
aI176
aI102
aI93
aI23
aI57
aI3
aI104
asg1028
(lp3665
g1028
ag1030
aS'119.0'
p3666
aI106
aI55
aI50
aI11
aI47
aI1
aI107
asS'alexs001'
p3667
(lp3668
g3667
aS'Scott Alexander'
p3669
aS'5.2'
p3670
aI5
aI3
aI3
aI0
aI3
aI0
aI3
asg1034
(lp3671
g1034
ag1036
aS'214.0'
p3672
aI228
aI121
aI118
aI29
aI49
aI0
aI163
asg1037
(lp3673
g1037
ag1039
aS'60.0'
p3674
aI59
aI29
aI25
aI12
aI15
aI0
aI60
asS'barry001'
p3675
(lp3676
g3675
aS'Yhonathan Barrios'
p3677
aS'6.1'
p3678
aI3
aI0
aI0
aI0
aI0
aI0
aI7
asg1382
(lp3679
g1382
ag1384
aS'1.0'
p3680
aI2
aI1
aI1
aI0
aI0
aI0
aI0
asS'winkd001'
p3681
(lp3682
g3681
aS'Daniel Winkler'
p3683
aS'1.1'
p3684
aI2
aI2
aI2
aI2
aI1
aI0
aI2
asS'thayd001'
p3685
(lp3686
g3685
aS'Dale Thayer'
p3687
aS'37.1'
p3688
aI37
aI17
aI17
aI5
aI15
aI4
aI25
asS'gonzc002'
p3689
(lp3690
g3689
aS'Chi Chi Gonzalez'
p3691
aS'67.0'
p3692
aI49
aI33
aI29
aI6
aI32
aI1
aI30
asg1055
(lp3693
g1055
ag1057
aS'21.0'
p3694
aI25
aI11
aI8
aI2
aI4
aI2
aI17
asg1193
(lp3695
g1193
ag1195
aS'39.0'
p3696
aI19
aI8
aI7
aI1
aI16
aI3
aI26
asg1031
(lp3697
g1031
ag1033
aS'50.0'
p3698
aI57
aI24
aI20
aI6
aI12
aI2
aI29
asg107
(lp3699
g107
ag109
aS'68.1'
p3700
aI73
aI36
aI36
aI14
aI25
aI3
aI43
asg1070
(lp3701
g1070
ag1072
aS'4.2'
p3702
aI3
aI3
aI2
aI0
aI3
aI0
aI4
asg1079
(lp3703
g1079
ag1081
aS'212.0'
p3704
aI194
aI87
aI81
aI21
aI46
aI1
aI176
asg1082
(lp3705
g1082
ag1084
aS'105.1'
p3706
aI99
aI41
aI41
aI9
aI28
aI1
aI78
asg1088
(lp3707
g1088
ag1090
aS'30.2'
p3708
aI18
aI5
aI4
aI2
aI7
aI0
aI58
asg2591
(lp3709
g2591
ag2593
aS'142.0'
p3710
aI172
aI102
aI100
aI33
aI45
aI2
aI80
asg1106
(lp3711
g1106
ag1108
aS'131.2'
p3712
aI118
aI59
aI57
aI13
aI46
aI2
aI110
asS'noesh001'
p3713
(lp3714
g3713
aS'Hector Noesi'
p3715
aS'32.1'
p3716
aI41
aI25
aI25
aI7
aI17
aI1
aI22
asg2210
(lp3717
g2210
ag2212
aS'168.1'
p3718
aI166
aI95
aI82
aI31
aI52
aI4
aI174
asS'grilj001'
p3719
(lp3720
g3719
aS'Jason Grilli'
p3721
aS'33.1'
p3722
aI28
aI13
aI11
aI2
aI10
aI1
aI45
asg1115
(lp3723
g1115
ag1117
aS'0.1'
p3724
aI0
aI0
aI0
aI0
aI0
aI0
aI0
asS'oflae001'
p3725
(lp3726
g3725
aS"Eric O'Flaherty"
p3727
aS'29.2'
p3728
aI47
aI30
aI26
aI2
aI18
aI2
aI21
asS'ramoa001'
p3729
(lp3730
g3729
aS'A.J. Ramos'
p3731
aS'70.1'
p3732
aI45
aI18
aI18
aI6
aI26
aI0
aI87
asS'gurkj001'
p3733
(lp3734
g3733
aS'Jason Gurka'
p3735
aS'7.1'
p3736
aI16
aI8
aI8
aI1
aI2
aI0
aI7
asg1130
(lp3737
g1130
ag1132
aS'114.2'
p3738
aI120
aI56
aI54
aI11
aI42
aI2
aI98
asg1133
(lp3739
g1133
ag1135
aS'83.1'
p3740
aI103
aI67
aI64
aI13
aI27
aI4
aI50
asS'smitc004'
p3741
(lp3742
g3741
aS'Carson Smith'
p3743
aS'70.0'
p3744
aI49
aI19
aI18
aI2
aI22
aI4
aI92
asS'guerj002'
p3745
(lp3746
g3745
aS'Javy Guerra'
p3747
aS'1.1'
p3748
aI2
aI0
aI0
aI0
aI1
aI0
aI0
asg1139
(lp3749
g1139
ag1141
aS'31.1'
p3750
aI29
aI16
aI15
aI2
aI11
aI0
aI26
asg1145
(lp3751
g1145
ag1147
aS'8.1'
p3752
aI10
aI8
aI8
aI2
aI5
aI1
aI4
asS'rearc001'
p3753
(lp3754
g3753
aS'Chris Rearick'
p3755
aS'3.0'
p3756
aI6
aI4
aI4
aI2
aI2
aI0
aI4
asS'betar001'
p3757
(lp3758
g3757
aS'Rafael Betancourt'
p3759
aS'39.1'
p3760
aI43
aI29
aI27
aI4
aI12
aI4
aI40
asg1154
(lp3761
g1154
ag1156
aS'17.0'
p3762
aI20
aI10
aI10
aI0
aI6
aI0
aI11
asS'wojca001'
p3763
(lp3764
g3763
aS'Asher Wojciechowski'
p3765
aS'16.1'
p3766
aI23
aI13
aI13
aI2
aI7
aI0
aI16
asg1160
(lp3767
g1160
ag1162
aS'35.1'
p3768
aI36
aI23
aI23
aI3
aI22
aI1
aI23
asg32
(lp3769
g32
ag34
aS'71.2'
p3770
aI81
aI36
aI32
aI6
aI21
aI3
aI49
asS'strom001'
p3771
(lp3772
g3771
aS'Marcus Stroman'
p3773
aS'26.2'
p3774
aI20
aI5
aI5
aI2
aI6
aI0
aI18
asS'jaimj001'
p3775
(lp3776
g3775
aS'Juan Jaime'
p3777
aS'1.0'
p3778
aI0
aI1
aI1
aI0
aI4
aI1
aI1
asg1175
(lp3779
g1175
ag1177
aS'205.0'
p3780
aI183
aI83
aI76
aI16
aI47
aI0
aI207
asg1181
(lp3781
g1181
ag1183
aS'111.2'
p3782
aI119
aI59
aI56
aI11
aI33
aI0
aI77
asS'kelak001'
p3783
(lp3784
g3783
aS'Keone Kela'
p3785
aS'60.1'
p3786
aI52
aI17
aI16
aI4
aI18
aI0
aI68
asS'allec002'
p3787
(lp3788
g3787
aS'Cody Allen'
p3789
aS'69.1'
p3790
aI56
aI26
aI23
aI2
aI25
aI2
aI99
asg1076
(lp3791
g1076
ag1078
aS'9.2'
p3792
aI14
aI6
aI6
aI0
aI5
aI0
aI10
asg1202
(lp3793
g1202
ag1204
aS'77.2'
p3794
aI88
aI38
aI35
aI7
aI26
aI1
aI43
asS'roblh001'
p3795
(lp3796
g3795
aS'Hansel Robles'
p3797
aS'54.0'
p3798
aI37
aI27
aI23
aI8
aI18
aI1
aI61
asS'ravij001'
p3799
(lp3800
g3799
aS'Josh Ravin'
p3801
aS'9.0'
p3802
aI13
aI7
aI7
aI3
aI4
aI0
aI12
asS'camia001'
p3803
(lp3804
g3803
aS'Arquimedes Caminero'
p3805
aS'74.2'
p3806
aI63
aI30
aI30
aI7
aI29
aI2
aI73
asS'melam001'
p3807
(lp3808
g3807
aS'Mark Melancon'
p3809
aS'76.2'
p3810
aI57
aI22
aI19
aI4
aI14
aI2
aI62
asg1214
(lp3811
g1214
ag1216
aS'1.0'
p3812
aI3
aI2
aI2
aI1
aI0
aI0
aI0
asS'roe-c001'
p3813
(lp3814
g3813
aS'Chaz Roe'
p3815
aS'41.1'
p3816
aI44
aI19
aI19
aI4
aI17
aI2
aI38
asS'ferrj001'
p3817
(lp3818
g3817
aS'Jeff Ferrell'
p3819
aS'11.1'
p3820
aI12
aI8
aI8
aI3
aI4
aI0
aI6
asS'smitc003'
p3821
(lp3822
g3821
aS'Chad Smith'
p3823
aS'1.0'
p3824
aI5
aI5
aI5
aI0
aI3
aI0
aI2
asg1226
(lp3825
g1226
ag1228
aS'232.2'
p3826
aI163
aI62
aI56
aI15
aI42
aI1
aI301
asS'crock001'
p3827
(lp3828
g3827
aS'Kyle Crockett'
p3829
aS'17.2'
p3830
aI17
aI9
aI8
aI1
aI7
aI0
aI15
asS'blevj001'
p3831
(lp3832
g3831
aS'Jerry Blevins'
p3833
aS'4.2'
p3834
aI0
aI0
aI0
aI0
aI0
aI0
aI4
asS'albua001'
p3835
(lp3836
g3835
aS'Al Alburquerque'
p3837
aS'62.0'
p3838
aI63
aI29
aI29
aI4
aI33
aI3
aI58
asS'velav001'
p3839
(lp3840
g3839
aS'Vincent Velasquez'
p3841
aS'55.2'
p3842
aI50
aI28
aI27
aI5
aI21
aI0
aI58
asg1256
(lp3843
g1256
ag1258
aS'11.1'
p3844
aI19
aI13
aI10
aI1
aI3
aI0
aI7
asS'obers001'
p3845
(lp3846
g3845
aS'Scott Oberg'
p3847
aS'58.1'
p3848
aI58
aI35
aI34
aI10
aI31
aI2
aI44
asS'chenw001'
p3849
(lp3850
g3849
aS'Wei-Yin Chen'
p3851
aS'191.1'
p3852
aI192
aI78
aI71
aI28
aI41
aI0
aI153
asg1265
(lp3853
g1265
ag1267
aS'181.1'
p3854
aI162
aI74
aI69
aI19
aI58
aI4
aI153
asg1313
(lp3855
g1313
ag1315
aS'78.1'
p3856
aI88
aI45
aI39
aI3
aI24
aI1
aI48
asS'givem001'
p3857
(lp3858
g3857
aS'Mychal Givens'
p3859
aS'29.2'
p3860
aI20
aI7
aI6
aI1
aI6
aI0
aI38
asg1274
(lp3861
g1274
ag1276
aS'33.0'
p3862
aI24
aI9
aI9
aI1
aI9
aI2
aI34
asg1280
(lp3863
g1280
ag1282
aS'84.1'
p3864
aI90
aI46
aI41
aI9
aI26
aI2
aI42
asS'lafrb001'
p3865
(lp3866
g3865
aS'Bobby LaFromboise'
p3867
aS'7.2'
p3868
aI5
aI1
aI1
aI1
aI1
aI0
aI8
asS'boydm001'
p3869
(lp3870
g3869
aS'Matt Boyd'
p3871
aS'57.1'
p3872
aI71
aI50
aI48
aI17
aI20
aI0
aI43
asS'madsr001'
p3873
(lp3874
g3873
aS'Ryan Madson'
p3875
aS'63.1'
p3876
aI47
aI17
aI13
aI5
aI14
aI1
aI58
asS'tazaj001'
p3877
(lp3878
g3877
aS'Junichi Tazawa'
p3879
aS'58.2'
p3880
aI65
aI28
aI27
aI5
aI13
aI1
aI56
asS'kroli001'
p3881
(lp3882
g3881
aS'Ian Krol'
p3883
aS'27.2'
p3884
aI31
aI19
aI18
aI4
aI17
aI1
aI26
asg2615
(lp3885
g2615
ag2617
aS'29.1'
p3886
aI26
aI14
aI14
aI3
aI9
aI4
aI29
asS'ohler001'
p3887
(lp3888
g3887
aS'Ross Ohlendorf'
p3889
aS'19.0'
p3890
aI21
aI8
aI8
aI4
aI7
aI2
aI19
asg1298
(lp3891
g1298
ag1300
aS'159.0'
p3892
aI163
aI84
aI82
aI24
aI33
aI3
aI90
asS'bassa001'
p3893
(lp3894
g3893
aS'Anthony Bass'
p3895
aS'64.0'
p3896
aI66
aI33
aI32
aI5
aI20
aI1
aI45
asg1748
(lp3897
g1748
ag1750
aS'38.1'
p3898
aI44
aI16
aI14
aI4
aI7
aI1
aI34
asS'gorzt001'
p3899
(lp3900
g3899
aS'Tom Gorzelanny'
p3901
aS'39.0'
p3902
aI45
aI28
aI26
aI4
aI23
aI2
aI36
asS'jennd003'
p3903
(lp3904
g3903
aS'Dan Jennings'
p3905
aS'56.1'
p3906
aI55
aI28
aI25
aI3
aI24
aI6
aI46
asS'pimes001'
p3907
(lp3908
g3907
aS'Stolmy Pimentel'
p3909
aS'11.1'
p3910
aI11
aI5
aI5
aI1
aI3
aI0
aI7
asg1319
(lp3911
g1319
ag1321
aS'27.0'
p3912
aI29
aI14
aI12
aI2
aI5
aI0
aI22
asS'mcalz001'
p3913
(lp3914
g3913
aS'Zach McAllister'
p3915
aS'69.0'
p3916
aI70
aI28
aI23
aI7
aI23
aI4
aI84
asS'ibare001'
p3917
(lp3918
g3917
aS'Edgar Ibarra'
p3919
aS'4.0'
p3920
aI4
aI1
aI1
aI0
aI3
aI0
aI3
asg1334
(lp3921
g1334
ag1336
aS'48.2'
p3922
aI46
aI24
aI23
aI5
aI21
aI4
aI24
asS'peacb001'
p3923
(lp3924
g3923
aS'Brad Peacock'
p3925
aS'4.2'
p3926
aI5
aI3
aI3
aI0
aI2
aI0
aI3
asg227
(lp3927
g227
ag229
aS'152.1'
p3928
aI180
aI99
aI99
aI29
aI43
aI3
aI108
asg1364
(lp3929
g1364
ag1366
aS'135.0'
p3930
aI135
aI70
aI67
aI24
aI35
aI2
aI116
asg1526
(lp3931
g1526
ag1528
aS'175.2'
p3932
aI181
aI79
aI74
aI8
aI69
aI3
aI169
asg2819
(lp3933
g2819
ag2821
aS'79.2'
p3934
aI92
aI52
aI49
aI9
aI32
aI2
aI68
asS'hembh001'
p3935
(lp3936
g3935
aS'Heath Hembree'
p3937
aS'25.0'
p3938
aI25
aI10
aI10
aI5
aI9
aI2
aI15
asS'rodrf003'
p3939
(lp3940
g3939
aS'Francisco Rodriguez'
p3941
aS'57.0'
p3942
aI38
aI15
aI14
aI6
aI11
aI1
aI62
asS'ziegb001'
p3943
(lp3944
g3943
aS'Brad Ziegler'
p3945
aS'68.0'
p3946
aI48
aI17
aI14
aI3
aI17
aI3
aI36
asS'rodrf004'
p3947
(lp3948
g3947
aS'Fernando Rodriguez'
p3949
aS'58.2'
p3950
aI43
aI27
aI23
aI4
aI24
aI1
aI65
asg2165
(lp3951
g2165
ag2167
aS'168.1'
p3952
aI179
aI95
aI84
aI15
aI60
aI4
aI129
asS'mottj001'
p3953
(lp3954
g3953
aS'Jason Motte'
p3955
aS'48.1'
p3956
aI48
aI21
aI21
aI4
aI11
aI5
aI34
asS'cottn001'
p3957
(lp3958
g3957
aS'Neal Cotts'
p3959
aS'63.1'
p3960
aI58
aI26
aI24
aI12
aI22
aI2
aI58
asS'beckc002'
p3961
(lp3962
g3961
aS'Chris Beck'
p3963
aS'5.2'
p3964
aI10
aI5
aI4
aI0
aI4
aI0
aI3
asS'hollg001'
p3965
(lp3966
g3965
aS'Greg Holland'
p3967
aS'44.2'
p3968
aI39
aI20
aI19
aI2
aI26
aI1
aI49
asg1391
(lp3969
g1391
ag1393
aS'0.2'
p3970
aI0
aI0
aI0
aI0
aI1
aI0
aI0
asS'kleip001'
p3971
(lp3972
g3971
aS'Phil Klein'
p3973
aS'17.1'
p3974
aI23
aI15
aI13
aI4
aI10
aI0
aI12
asg1403
(lp3975
g1403
ag1405
aS'198.2'
p3976
aI214
aI100
aI85
aI22
aI33
aI4
aI91
asg1409
(lp3977
g1409
ag1411
aS'201.2'
p3978
aI204
aI89
aI82
aI24
aI39
aI3
aI164
asS'markm001'
p3979
(lp3980
g3979
aS'Matt Marksberry'
p3981
aS'23.0'
p3982
aI22
aI16
aI13
aI2
aI16
aI2
aI21
asg1412
(lp3983
g1412
ag1414
aS'123.0'
p3984
aI91
aI44
aI42
aI16
aI43
aI0
aI83
asS'rondb001'
p3985
(lp3986
g3985
aS'Bruce Rondon'
p3987
aS'30.2'
p3988
aI31
aI22
aI20
aI3
aI19
aI1
aI36
asg1436
(lp3989
g1436
ag1438
aS'33.0'
p3990
aI21
aI15
aI15
aI2
aI11
aI0
aI38
asg1439
(lp3991
g1439
ag1441
aS'212.0'
p3992
aI175
aI85
aI76
aI19
aI66
aI0
aI252
asg1442
(lp3993
g1442
ag1444
aS'55.2'
p3994
aI40
aI17
aI15
aI3
aI18
aI1
aI47
asg1448
(lp3995
g1448
ag1450
aS'145.2'
p3996
aI151
aI79
aI75
aI22
aI43
aI3
aI121
asS'howej003'
p3997
(lp3998
g3997
aS'J.P. Howell'
p3999
aS'44.0'
p4000
aI47
aI9
aI7
aI3
aI14
aI1
aI39
asg2582
(lp4001
g2582
ag2584
aS'148.2'
p4002
aI137
aI73
aI69
aI17
aI65
aI3
aI134
asg1472
(lp4003
g1472
ag1474
aS'0.2'
p4004
aI1
aI2
aI0
aI0
aI1
aI0
aI0
asg1478
(lp4005
g1478
ag1480
aS'108.0'
p4006
aI115
aI49
aI47
aI13
aI27
aI1
aI61
asg1484
(lp4007
g1484
ag1486
aS'33.2'
p4008
aI26
aI14
aI14
aI2
aI15
aI0
aI24
asg1487
(lp4009
g1487
ag1489
aS'183.0'
p4010
aI162
aI77
aI63
aI20
aI59
aI0
aI155
asg2702
(lp4011
g2702
ag2704
aS'127.0'
p4012
aI115
aI56
aI49
aI14
aI26
aI0
aI155
asg1496
(lp4013
g1496
ag1498
aS'200.1'
p4014
aI190
aI89
aI79
aI16
aI72
aI1
aI155
asg1502
(lp4015
g1502
ag1504
aS'172.0'
p4016
aI196
aI103
aI94
aI25
aI38
aI0
aI149
asS'sante001'
p4017
(lp4018
g4017
aS'Ervin Santana'
p4019
aS'107.2'
p4020
aI104
aI49
aI48
aI12
aI36
aI2
aI82
asg1508
(lp4021
g1508
ag1510
aS'129.1'
p4022
aI117
aI53
aI51
aI18
aI21
aI1
aI111
asS'olmoe001'
p4023
(lp4024
g4023
aS'Edgar Olmos'
p4025
aS'14.0'
p4026
aI16
aI8
aI7
aI1
aI8
aI1
aI4
asg1511
(lp4027
g1511
ag1513
aS'77.2'
p4028
aI74
aI31
aI31
aI11
aI19
aI1
aI68
asS'mujie001'
p4029
(lp4030
g4029
aS'Edward Mujica'
p4031
aS'47.1'
p4032
aI52
aI28
aI25
aI10
aI7
aI2
aI30
asg1514
(lp4033
g1514
ag1516
aS'222.0'
p4034
aI189
aI92
aI86
aI22
aI45
aI3
aI245
asS'hagan001'
p4035
(lp4036
g4035
aS'Nick Hagadone'
p4037
aS'27.0'
p4038
aI30
aI16
aI12
aI3
aI12
aI1
aI28
asS'smyld001'
p4039
(lp4040
g4039
aS'Drew Smyly'
p4041
aS'66.2'
p4042
aI58
aI24
aI23
aI11
aI20
aI0
aI77
asS'perkg001'
p4043
(lp4044
g4043
aS'Glen Perkins'
p4045
aS'57.0'
p4046
aI58
aI21
aI21
aI9
aI10
aI2
aI54
asg1529
(lp4047
g1529
ag1531
aS'4.0'
p4048
aI5
aI6
aI6
aI2
aI7
aI0
aI3
asS'marse001'
p4049
(lp4050
g4049
aS'Evan Marshall'
p4051
aS'13.1'
p4052
aI20
aI9
aI9
aI3
aI5
aI1
aI7
asg1538
(lp4053
g1538
ag1540
aS'1.0'
p4054
aI1
aI0
aI0
aI0
aI0
aI0
aI1
asS'dedus001'
p4055
(lp4056
g4055
aS'Samuel Deduno'
p4057
aS'20.2'
p4058
aI24
aI16
aI16
aI3
aI9
aI0
aI17
asS'robek002'
p4059
(lp4060
g4059
aS'Ken Roberts'
p4061
aS'13.2'
p4062
aI22
aI11
aI11
aI0
aI3
aI0
aI6
asg1547
(lp4063
g1547
ag1549
aS'113.0'
p4064
aI114
aI48
aI41
aI6
aI23
aI0
aI107
asg215
(lp4065
g215
ag217
aS'84.0'
p4066
aI88
aI45
aI42
aI14
aI17
aI0
aI49
asg1556
(lp4067
g1556
ag1558
aS'7.2'
p4068
aI10
aI7
aI7
aI1
aI6
aI2
aI5
asS'balfg001'
p4069
(lp4070
g4069
aS'Grant Balfour'
p4071
aS'4.0'
p4072
aI3
aI3
aI3
aI1
aI4
aI0
aI0
asg1562
(lp4073
g1562
ag1564
aS'58.1'
p4074
aI75
aI37
aI34
aI5
aI25
aI2
aI45
asg1565
(lp4075
g1565
ag1567
aS'53.1'
p4076
aI48
aI24
aI24
aI6
aI15
aI2
aI49
asg1568
(lp4077
g1568
ag1570
aS'120.2'
p4078
aI129
aI53
aI51
aI18
aI24
aI2
aI63
asS'farqd001'
p4079
(lp4080
g4079
aS'Danny Farquhar'
p4081
aS'51.0'
p4082
aI53
aI33
aI29
aI9
aI17
aI2
aI48
asg1580
(lp4083
g1580
ag1582
aS'49.2'
p4084
aI31
aI18
aI11
aI4
aI26
aI1
aI67
asS'marcs001'
p4085
(lp4086
g4085
aS'Shaun Marcum'
p4087
aS'34.2'
p4088
aI32
aI21
aI21
aI9
aI11
aI3
aI30
asS'garcy001'
p4089
(lp4090
g4089
aS'Yimi Garcia'
p4091
aS'56.2'
p4092
aI44
aI23
aI22
aI8
aI10
aI1
aI68
asS'contc001'
p4093
(lp4094
g4093
aS'Carlos Contreras'
p4095
aS'27.2'
p4096
aI22
aI16
aI15
aI3
aI20
aI0
aI19
asS'novai001'
p4097
(lp4098
g4097
aS'Ivan Nova'
p4099
aS'93.2'
p4100
aI99
aI54
aI53
aI13
aI33
aI0
aI63
asg1604
(lp4101
g1604
ag1606
aS'63.1'
p4102
aI77
aI35
aI30
aI7
aI13
aI4
aI46
asS'jepsk001'
p4103
(lp4104
g4103
aS'Kevin Jepsen'
p4105
aS'69.2'
p4106
aI52
aI20
aI18
aI5
aI27
aI1
aI59
asg1607
(lp4107
g1607
ag1609
aS'76.1'
p4108
aI64
aI33
aI31
aI7
aI21
aI0
aI69
asg1616
(lp4109
g1616
ag1618
aS'55.2'
p4110
aI44
aI24
aI19
aI4
aI21
aI1
aI40
asg1622
(lp4111
g1622
ag1624
aS'57.1'
p4112
aI50
aI17
aI17
aI2
aI18
aI5
aI54
asg2246
(lp4113
g2246
ag2248
aS'89.2'
p4114
aI92
aI49
aI46
aI11
aI37
aI1
aI64
asS'lindj005'
p4115
(lp4116
g4115
aS'Jacob Lindgren'
p4117
aS'6.2'
p4118
aI5
aI4
aI4
aI3
aI4
aI0
aI8
asS'ogana001'
p4119
(lp4120
g4119
aS'Alexi Ogando'
p4121
aS'65.1'
p4122
aI59
aI29
aI29
aI12
aI28
aI2
aI53
asS'depaj004'
p4123
(lp4124
g4123
aS'Jose De Paula'
p4125
aS'3.1'
p4126
aI2
aI1
aI1
aI1
aI4
aI0
aI2
asS'parrm001'
p4127
(lp4128
g4127
aS'Manny Parra'
p4129
aS'32.0'
p4130
aI32
aI15
aI14
aI2
aI6
aI1
aI23
asS'cishs001'
p4131
(lp4132
g4131
aS'Steve Cishek'
p4133
aS'55.1'
p4134
aI55
aI26
aI22
aI4
aI27
aI3
aI48
asg1643
(lp4135
g1643
ag1645
aS'6.2'
p4136
aI12
aI6
aI5
aI1
aI5
aI0
aI7
asS'sorir001'
p4137
(lp4138
g4137
aS'Rafael Soriano'
p4139
aS'5.1'
p4140
aI8
aI4
aI4
aI2
aI1
aI0
aI4
asS'mcgej001'
p4141
(lp4142
g4141
aS'Jake McGee'
p4143
aS'37.0'
p4144
aI27
aI11
aI10
aI3
aI8
aI1
aI48
asg1658
(lp4145
g1658
ag1660
aS'68.1'
p4146
aI82
aI36
aI36
aI8
aI15
aI1
aI37
asg1661
(lp4147
g1661
ag1663
aS'30.0'
p4148
aI24
aI15
aI15
aI7
aI9
aI0
aI32
asS'kellr001'
p4149
(lp4150
g4149
aS'Ryan Kelly'
p4151
aS'16.2'
p4152
aI21
aI14
aI13
aI5
aI6
aI0
aI10
asg1673
(lp4153
g1673
ag1675
aS'208.0'
p4154
aI166
aI71
aI64
aI17
aI59
aI0
aI169
asg1772
(lp4155
g1772
ag1774
aS'1.0'
p4156
aI1
aI0
aI0
aI0
aI0
aI0
aI0
asS'knudg001'
p4157
(lp4158
g4157
aS'Guido Knudson'
p4159
aS'4.2'
p4160
aI13
aI10
aI10
aI5
aI3
aI1
aI6
asS'dufft001'
p4161
(lp4162
g4161
aS'Tyler Duffey'
p4163
aS'58.0'
p4164
aI56
aI20
aI20
aI4
aI20
aI0
aI53
asg1679
(lp4165
g1679
ag1681
aS'30.1'
p4166
aI40
aI26
aI26
aI8
aI12
aI0
aI27
asS'pereo002'
p4167
(lp4168
g4167
aS'Oliver Perez'
p4169
aS'41.0'
p4170
aI39
aI24
aI19
aI4
aI15
aI2
aI51
asS'murat001'
p4171
(lp4172
g4171
aS'Toru Murata'
p4173
aS'3.1'
p4174
aI4
aI5
aI3
aI2
aI1
aI0
aI2
asg1682
(lp4175
g1682
ag1684
aS'11.1'
p4176
aI16
aI7
aI7
aI3
aI4
aI2
aI3
asS'martc007'
p4177
(lp4178
g4177
aS'Chris Martin'
p4179
aS'20.1'
p4180
aI28
aI13
aI13
aI2
aI6
aI1
aI18
asg1166
(lp4181
g1166
ag1168
aS'179.2'
p4182
aI168
aI65
aI60
aI13
aI63
aI5
aI184
asS'belim001'
p4183
(lp4184
g4183
aS'Matt Belisle'
p4185
aS'33.1'
p4186
aI34
aI10
aI10
aI1
aI15
aI2
aI25
asg1688
(lp4187
g1688
ag1690
aS'69.2'
p4188
aI63
aI35
aI35
aI10
aI33
aI1
aI47
asS'broxj001'
p4189
(lp4190
g4189
aS'Jonathan Broxton'
p4191
aS'60.1'
p4192
aI61
aI32
aI31
aI7
aI22
aI1
aI63
asS'herrk001'
p4193
(lp4194
g4193
aS'Kelvin Herrera'
p4195
aS'69.2'
p4196
aI52
aI23
aI21
aI5
aI26
aI1
aI64
asS'albem001'
p4197
(lp4198
g4197
aS'Matt Albers'
p4199
aS'37.0'
p4200
aI31
aI6
aI5
aI3
aI9
aI2
aI28
asg1715
(lp4201
g1715
ag1717
aS'61.0'
p4202
aI50
aI21
aI20
aI6
aI21
aI2
aI55
asS'rondj001'
p4203
(lp4204
g4203
aS'Jorge Rondon'
p4205
aS'14.1'
p4206
aI28
aI26
aI21
aI3
aI9
aI0
aI9
asg2225
(lp4207
g2225
ag2227
aS'68.2'
p4208
aI62
aI16
aI16
aI3
aI25
aI3
aI83
asS'coloa001'
p4209
(lp4210
g4209
aS'Alex Colome'
p4211
aS'109.1'
p4212
aI112
aI50
aI48
aI9
aI31
aI4
aI88
asg1727
(lp4213
g1727
ag1729
aS'67.2'
p4214
aI64
aI34
aI30
aI7
aI25
aI2
aI71
asg1733
(lp4215
g1733
ag1735
aS'47.2'
p4216
aI34
aI20
aI19
aI6
aI15
aI4
aI39
asg1739
(lp4217
g1739
ag1741
aS'16.0'
p4218
aI19
aI12
aI12
aI3
aI6
aI0
aI5
asS'tonkm001'
p4219
(lp4220
g4219
aS'Michael Tonkin'
p4221
aS'23.0'
p4222
aI21
aI9
aI9
aI4
aI9
aI2
aI19
asS'felin001'
p4223
(lp4224
g4223
aS'Neftali Feliz'
p4225
aS'48.0'
p4226
aI57
aI34
aI34
aI5
aI18
aI6
aI39
asS'brotr001'
p4227
(lp4228
g4227
aS'Rex Brothers'
p4229
aS'10.0'
p4230
aI9
aI2
aI2
aI0
aI8
aI0
aI5
asg1757
(lp4231
g1757
ag1759
aS'208.2'
p4232
aI185
aI88
aI80
aI23
aI42
aI0
aI274
asS'shrec001'
p4233
(lp4234
g4233
aS'Chasen Shreve'
p4235
aS'58.1'
p4236
aI49
aI21
aI20
aI10
aI33
aI2
aI64
asg1763
(lp4237
g1763
ag1765
aS'206.1'
p4238
aI218
aI80
aI77
aI16
aI44
aI4
aI177
asg1766
(lp4239
g1766
ag1768
aS'44.2'
p4240
aI52
aI30
aI30
aI9
aI18
aI3
aI26
asg1784
(lp4241
g1784
ag1786
aS'71.0'
p4242
aI94
aI49
aI48
aI16
aI20
aI5
aI35
asS'gelts001'
p4243
(lp4244
g4243
aS'Steve Geltz'
p4245
aS'67.1'
p4246
aI45
aI31
aI28
aI8
aI26
aI3
aI61
asS'abadf001'
p4247
(lp4248
g4247
aS'Fernando Abad'
p4249
aS'47.2'
p4250
aI45
aI23
aI21
aI11
aI19
aI3
aI45
asS'delas001'
p4251
(lp4252
g4251
aS'Steve Delabar'
p4253
aS'29.0'
p4254
aI28
aI19
aI17
aI5
aI14
aI1
aI30
asS'oterd001'
p4255
(lp4256
g4255
aS'Dan Otero'
p4257
aS'46.2'
p4258
aI64
aI35
aI35
aI7
aI6
aI2
aI28
asg1775
(lp4259
g1775
ag1777
aS'186.2'
p4260
aI155
aI75
aI70
aI15
aI70
aI1
aI205
asg1778
(lp4261
g1778
ag1780
aS'74.2'
p4262
aI82
aI28
aI25
aI4
aI17
aI4
aI50
asS'webbd001'
p4263
(lp4264
g4263
aS'Daniel Webb'
p4265
aS'29.2'
p4266
aI41
aI26
aI21
aI3
aI22
aI1
aI22
asS'johns001'
p4267
(lp4268
g4267
aS'Steve Johnson'
p4269
aS'5.0'
p4270
aI8
aI6
aI6
aI2
aI5
aI0
aI3
asS'gottt001'
p4271
(lp4272
g4271
aS'Trevor Gott'
p4273
aS'47.2'
p4274
aI43
aI18
aI15
aI2
aI16
aI3
aI27
asS'ellib001'
p4275
(lp4276
g4275
aS'Brian Ellington'
p4277
aS'24.2'
p4278
aI17
aI10
aI8
aI1
aI13
aI2
aI18
asg1790
(lp4279
g1790
ag1792
aS'23.0'
p4280
aI20
aI11
aI10
aI2
aI11
aI0
aI23
asg1949
(lp4281
g1949
ag1951
aS'0.1'
p4282
aI2
aI5
aI1
aI1
aI1
aI0
aI0
asS'swara001'
p4283
(lp4284
g4283
aS'Anthony Swarzak'
p4285
aS'13.1'
p4286
aI18
aI9
aI5
aI1
aI4
aI1
aI13
asg1127
(lp4287
g1127
ag1129
aS'79.0'
p4288
aI102
aI57
aI52
aI13
aI42
aI4
aI44
asg1799
(lp4289
g1799
ag1801
aS'71.0'
p4290
aI42
aI18
aI15
aI8
aI22
aI1
aI68
asS'guaim001'
p4291
(lp4292
g4291
aS'Mayckol Guaipe'
p4293
aS'26.1'
p4294
aI34
aI19
aI16
aI5
aI13
aI1
aI22
asg1805
(lp4295
g1805
ag1807
aS'66.1'
p4296
aI71
aI30
aI29
aI4
aI20
aI4
aI36
asg1808
(lp4297
g1808
ag1810
aS'47.1'
p4298
aI64
aI37
aI34
aI10
aI14
aI2
aI37
asS'varva001'
p4299
(lp4300
g4299
aS'Anthony Varvaro'
p4301
aS'11.0'
p4302
aI14
aI5
aI5
aI0
aI6
aI1
aI8
asg1814
(lp4303
g1814
ag1816
aS'15.1'
p4304
aI18
aI13
aI13
aI2
aI8
aI0
aI11
asS'leona001'
p4305
(lp4306
g4305
aS'Arnold Leon'
p4307
aS'26.1'
p4308
aI30
aI14
aI13
aI3
aI9
aI3
aI19
asg1823
(lp4309
g1823
ag1825
aS'64.2'
p4310
aI61
aI21
aI21
aI4
aI14
aI0
aI79
asg1832
(lp4311
g1832
ag1834
aS'172.1'
p4312
aI189
aI100
aI93
aI26
aI51
aI3
aI108
asS'thorm001'
p4313
(lp4314
g4313
aS'Matt Thornton'
p4315
aS'41.1'
p4316
aI33
aI12
aI10
aI2
aI11
aI3
aI23
asS'casts002'
p4317
(lp4318
g4317
aS'Simon Castro'
p4319
aS'10.1'
p4320
aI11
aI7
aI7
aI0
aI5
aI0
aI9
asg1844
(lp4321
g1844
ag1846
aS'76.0'
p4322
aI75
aI32
aI31
aI11
aI15
aI2
aI59
asg1847
(lp4323
g1847
ag1849
aS'220.1'
p4324
aI190
aI70
aI60
aI17
aI47
aI2
aI225
asg1370
(lp4325
g1370
ag1372
aS'128.1'
p4326
aI128
aI64
aI57
aI17
aI36
aI1
aI91
asg1853
(lp4327
g1853
ag1855
aS'131.1'
p4328
aI170
aI88
aI78
aI19
aI41
aI5
aI86
asS'qualc001'
p4329
(lp4330
g4329
aS'Chad Qualls'
p4331
aS'49.1'
p4332
aI46
aI24
aI24
aI6
aI9
aI1
aI46
asS'jonen001'
p4333
(lp4334
g4333
aS'Nate Jones'
p4335
aS'18.2'
p4336
aI12
aI7
aI7
aI5
aI6
aI0
aI27
asg1871
(lp4337
g1871
ag1873
aS'187.1'
p4338
aI174
aI79
aI75
aI31
aI38
aI2
aI132
asS'scahr001'
p4339
(lp4340
g4339
aS'Rob Scahill'
p4341
aS'30.1'
p4342
aI33
aI15
aI10
aI3
aI16
aI5
aI24
asS'mattr001'
p4343
(lp4344
g4343
aS'Ryan Mattheus'
p4345
aS'56.0'
p4346
aI67
aI31
aI25
aI3
aI18
aI2
aI37
asg1877
(lp4347
g1877
ag1879
aS'131.0'
p4348
aI114
aI51
aI48
aI10
aI39
aI1
aI104
asS'hillr001'
p4349
(lp4350
g4349
aS'Rich Hill'
p4351
aS'28.2'
p4352
aI14
aI5
aI5
aI2
aI5
aI0
aI36
asS'duffd001'
p4353
(lp4354
g4353
aS'Danny Duffy'
p4355
aS'136.1'
p4356
aI137
aI64
aI62
aI15
aI53
aI0
aI102
asS'martr005'
p4357
(lp4358
g4357
aS'Rafael Martin'
p4359
aS'12.1'
p4360
aI12
aI9
aI7
aI4
aI5
aI0
aI25
asS'presr001'
p4361
(lp4362
g4361
aS'Ryan Pressly'
p4363
aS'27.1'
p4364
aI27
aI9
aI9
aI0
aI12
aI1
aI22
asg1895
(lp4365
g1895
ag1897
aS'1.2'
p4366
aI0
aI0
aI0
aI0
aI0
aI0
aI0
asg1898
(lp4367
g1898
ag1900
aS'16.2'
p4368
aI28
aI16
aI16
aI1
aI8
aI1
aI12
asS'colel001'
p4369
(lp4370
g4369
aS'Louis Coleman'
p4371
aS'2.2'
p4372
aI1
aI0
aI0
aI0
aI2
aI0
aI1
asS'massn001'
p4373
(lp4374
g4373
aS'Nick Masset'
p4375
aS'24.2'
p4376
aI30
aI15
aI13
aI3
aI9
aI3
aI18
asg1916
(lp4377
g1916
ag1918
aS'154.0'
p4378
aI126
aI66
aI61
aI25
aI27
aI0
aI139
asg1919
(lp4379
g1919
ag1921
aS'1.0'
p4380
aI0
aI0
aI0
aI0
aI1
aI0
aI1
asS'logab001'
p4381
(lp4382
g4381
aS'Boone Logan'
p4383
aS'35.0'
p4384
aI40
aI17
aI17
aI3
aI17
aI1
aI44
asg980
(lp4385
g980
ag982
aS'29.1'
p4386
aI25
aI7
aI6
aI1
aI10
aI1
aI27
asS'salaf001'
p4387
(lp4388
g4387
aS'Fernando Salas'
p4389
aS'63.2'
p4390
aI61
aI34
aI30
aI8
aI12
aI5
aI74
asg2276
(lp4391
g2276
ag2278
aS'49.2'
p4392
aI58
aI32
aI32
aI8
aI19
aI0
aI58
asS'doubf001'
p4393
(lp4394
g4393
aS'Felix Doubront'
p4395
aS'75.1'
p4396
aI87
aI50
aI46
aI10
aI26
aI1
aI56
asg1955
(lp4397
g1955
ag1957
aS'100.1'
p4398
aI86
aI48
aI43
aI11
aI39
aI5
aI118
asS'murrc002'
p4399
(lp4400
g4399
aS'Colton Murray'
p4401
aS'7.1'
p4402
aI11
aI5
aI5
aI2
aI2
aI0
aI9
asg1967
(lp4403
g1967
ag1969
aS'40.2'
p4404
aI52
aI26
aI25
aI4
aI14
aI2
aI40
asS'teper001'
p4405
(lp4406
g4405
aS'Ryan Tepera'
p4407
aS'32.2'
p4408
aI23
aI14
aI12
aI8
aI6
aI0
aI22
asS'putnz001'
p4409
(lp4410
g4409
aS'Zach Putnam'
p4411
aS'48.2'
p4412
aI42
aI24
aI22
aI7
aI24
aI5
aI64
asS'wilka001'
p4413
(lp4414
g4413
aS'Adam Wilk'
p4415
aS'1.2'
p4416
aI2
aI1
aI1
aI1
aI1
aI0
aI2
asg2282
(lp4417
g2282
ag2284
aS'214.1'
p4418
aI195
aI97
aI93
aI25
aI61
aI1
aI126
asg1991
(lp4419
g1991
ag1993
aS'73.1'
p4420
aI57
aI20
aI19
aI9
aI12
aI3
aI44
asS'volsc001'
p4421
(lp4422
g4421
aS'Chris Volstad'
p4423
aS'2.0'
p4424
aI2
aI0
aI0
aI0
aI0
aI0
aI0
asS'rossz001'
p4425
(lp4426
g4425
aS'Zach Rosscup'
p4427
aS'26.1'
p4428
aI26
aI13
aI13
aI5
aI13
aI0
aI29
asS'garcj002'
p4429
(lp4430
g4429
aS'Santiago Casilla'
p4431
aS'58.0'
p4432
aI51
aI19
aI18
aI6
aI23
aI2
aI62
asS'chamj002'
p4433
(lp4434
g4433
aS'Joba Chamberlain'
p4435
aS'27.1'
p4436
aI38
aI20
aI16
aI6
aI9
aI0
aI23
asg2012
(lp4437
g2012
ag2014
aS'29.1'
p4438
aI25
aI18
aI14
aI3
aI17
aI1
aI22
asg1172
(lp4439
g1172
ag1174
aS'129.1'
p4440
aI106
aI37
aI35
aI6
aI30
aI0
aI97
asg2027
(lp4441
g2027
ag2029
aS'12.2'
p4442
aI16
aI8
aI7
aI0
aI4
aI1
aI9
asS'moraf001'
p4443
(lp4444
g4443
aS'Franklin Morales'
p4445
aS'62.1'
p4446
aI58
aI24
aI22
aI4
aI14
aI0
aI41
asg2033
(lp4447
g2033
ag2035
aS'34.1'
p4448
aI29
aI17
aI13
aI1
aI19
aI1
aI34
asS'patts002'
p4449
(lp4450
g4449
aS'Spencer Patton'
p4451
aS'23.2'
p4452
aI24
aI24
aI24
aI5
aI12
aI0
aI28
asS'eveld001'
p4453
(lp4454
g4453
aS'Dana Eveland'
p4455
aS'3.1'
p4456
aI5
aI2
aI2
aI1
aI3
aI1
aI4
asg2048
(lp4457
g2048
ag2050
aS'58.1'
p4458
aI82
aI51
aI47
aI10
aI36
aI1
aI41
asS'garcf003'
p4459
(lp4460
g4459
aS'Frank Garces'
p4461
aS'38.0'
p4462
aI41
aI23
aI22
aI9
aI22
aI1
aI30
asg2054
(lp4463
g2054
ag2056
aS'30.1'
p4464
aI44
aI27
aI27
aI5
aI7
aI0
aI28
asg2060
(lp4465
g2060
ag2062
aS'33.0'
p4466
aI31
aI21
aI20
aI3
aI25
aI3
aI39
asS'furbc001'
p4467
(lp4468
g4467
aS'Charlie Furbush'
p4469
aS'21.1'
p4470
aI9
aI6
aI5
aI2
aI5
aI2
aI17
asS'mansj001'
p4471
(lp4472
g4471
aS'Jeff Manship'
p4473
aS'39.1'
p4474
aI20
aI4
aI4
aI1
aI10
aI0
aI33
asg2069
(lp4475
g2069
ag2071
aS'21.2'
p4476
aI21
aI10
aI10
aI2
aI19
aI0
aI15
asS'holld003'
p4477
(lp4478
g4477
aS'Derek Holland'
p4479
aS'58.2'
p4480
aI59
aI32
aI32
aI11
aI17
aI2
aI41
asS'bresc001'
p4481
(lp4482
g4481
aS'Craig Breslow'
p4483
aS'65.0'
p4484
aI69
aI33
aI27
aI12
aI23
aI5
aI46
asg2081
(lp4485
g2081
ag2083
aS'26.0'
p4486
aI30
aI17
aI15
aI4
aI12
aI0
aI19
asS'alvad001'
p4487
(lp4488
g4487
aS'Dario Alvarez'
p4489
aS'3.2'
p4490
aI5
aI5
aI5
aI2
aI1
aI0
aI2
asg2090
(lp4491
g2090
ag2092
aS'157.0'
p4492
aI164
aI78
aI73
aI18
aI48
aI2
aI136
asg2093
(lp4493
g2093
ag2095
aS'1.0'
p4494
aI0
aI0
aI0
aI0
aI0
aI0
aI1
asg842
(lp4495
g842
ag844
aS'194.2'
p4496
aI186
aI88
aI83
aI18
aI65
aI6
aI145
asg2102
(lp4497
g2102
ag2104
aS'1.2'
p4498
aI2
aI0
aI0
aI0
aI0
aI0
aI0
asS'tracm001'
p4499
(lp4500
g4499
aS'Matt Tracy'
p4501
aS'1.2'
p4502
aI2
aI3
aI0
aI0
aI2
aI0
aI1
asg839
(lp4503
g839
ag841
aS'27.1'
p4504
aI28
aI9
aI9
aI4
aI14
aI1
aI25
asg812
(lp4505
g812
ag814
aS'60.0'
p4506
aI53
aI30
aI25
aI9
aI19
aI0
aI45
asS'zitob001'
p4507
(lp4508
g4507
aS'Barry Zito'
p4509
aS'6.2'
p4510
aI12
aI8
aI8
aI4
aI6
aI0
aI2
asS'nesba001'
p4511
(lp4512
g4511
aS'Angel Nesbitt'
p4513
aS'21.1'
p4514
aI22
aI14
aI13
aI2
aI8
aI2
aI14
asS'morra001'
p4515
(lp4516
g4515
aS'Akeel Morris'
p4517
aS'0.2'
p4518
aI3
aI5
aI5
aI1
aI3
aI0
aI0
asS'diazj006'
p4519
(lp4520
g4519
aS'Jairo Diaz'
p4521
aS'19.0'
p4522
aI16
aI6
aI5
aI2
aI6
aI0
aI18
asS'papej001'
p4523
(lp4524
g4523
aS'Jonathan Papelbon'
p4525
aS'63.1'
p4526
aI53
aI22
aI15
aI7
aI12
aI2
aI56
asg1721
(lp4527
g1721
ag1723
aS'1.0'
p4528
aI3
aI2
aI2
aI1
aI0
aI0
aI1
asg2141
(lp4529
g2141
ag2143
aS'31.0'
p4530
aI28
aI12
aI11
aI3
aI10
aI2
aI29
asg2144
(lp4531
g2144
ag2146
aS'66.1'
p4532
aI43
aI13
aI12
aI3
aI33
aI1
aI116
asS'nathj001'
p4533
(lp4534
g4533
aS'Joe Nathan'
p4535
aS'0.1'
p4536
aI0
aI0
aI0
aI0
aI0
aI0
aI1
asS'marim001'
p4537
(lp4538
g4537
aS'Michael Mariot'
p4539
aS'3.0'
p4540
aI2
aI1
aI1
aI1
aI2
aI0
aI1
asg2309
(lp4541
g2309
ag2311
aS'218.1'
p4542
aI181
aI73
aI71
aI21
aI39
aI2
aI234
asg1112
(lp4543
g1112
ag1114
aS'56.0'
p4544
aI58
aI21
aI21
aI3
aI19
aI6
aI51
asS'guerj003'
p4545
(lp4546
g4545
aS'Junior Guerra'
p4547
aS'4.0'
p4548
aI7
aI3
aI3
aI1
aI1
aI1
aI3
asS'fienc001'
p4549
(lp4550
g4549
aS'Casey Fien'
p4551
aS'63.1'
p4552
aI61
aI26
aI25
aI6
aI8
aI0
aI41
asS'atchs001'
p4553
(lp4554
g4553
aS'Scott Atchison'
p4555
aS'19.1'
p4556
aI23
aI15
aI15
aI6
aI4
aI0
aI12
asg2156
(lp4557
g2156
ag2158
aS'164.0'
p4558
aI174
aI64
aI58
aI11
aI49
aI2
aI143
asS'mazzc001'
p4559
(lp4560
g4559
aS'Cory Mazzoni'
p4561
aS'8.1'
p4562
aI23
aI22
aI20
aI2
aI5
aI0
aI8
asS'beimj001'
p4563
(lp4564
g4563
aS'Joe Beimel'
p4565
aS'47.1'
p4566
aI49
aI25
aI21
aI8
aI16
aI3
aI22
asg2174
(lp4567
g2174
ag2176
aS'95.0'
p4568
aI81
aI45
aI44
aI11
aI28
aI0
aI104
asS'ogann001'
p4569
(lp4570
g4569
aS'Nefi Ogando'
p4571
aS'4.0'
p4572
aI7
aI5
aI4
aI0
aI2
aI0
aI2
asS'loupa001'
p4573
(lp4574
g4573
aS'Aaron Loup'
p4575
aS'42.1'
p4576
aI47
aI24
aI21
aI6
aI7
aI0
aI46
asS'wilht001'
p4577
(lp4578
g4577
aS'Tom Wilhelmsen'
p4579
aS'62.0'
p4580
aI56
aI24
aI22
aI3
aI29
aI3
aI60
asS'cookr001'
p4581
(lp4582
g4581
aS'Ryan Cook'
p4583
aS'8.1'
p4584
aI20
aI19
aI18
aI4
aI7
aI0
aI6
asS'schua001'
p4585
(lp4586
g4585
aS'A.J. Schugel'
p4587
aS'8.2'
p4588
aI17
aI13
aI6
aI2
aI5
aI2
aI5
asS'stord001'
p4589
(lp4590
g4589
aS'Drew Storen'
p4591
aS'55.0'
p4592
aI45
aI22
aI20
aI4
aI16
aI2
aI67
asg1385
(lp4593
g1385
ag1387
aS'16.0'
p4594
aI17
aI10
aI10
aI0
aI9
aI0
aI11
asg2201
(lp4595
g2201
ag2203
aS'172.0'
p4596
aI173
aI71
aI69
aI16
aI45
aI4
aI151
asS'guilp001'
p4597
(lp4598
g4597
aS'Preston Guilmet'
p4599
aS'7.0'
p4600
aI9
aI9
aI9
aI2
aI4
aI0
aI6
asg2219
(lp4601
g2219
ag2221
aS'121.1'
p4602
aI120
aI55
aI52
aI13
aI37
aI1
aI98
asS'rumbn001'
p4603
(lp4604
g4603
aS'Nick Rumbelow'
p4605
aS'15.2'
p4606
aI16
aI8
aI7
aI2
aI5
aI1
aI15
asg2222
(lp4607
g2222
ag2224
aS'170.2'
p4608
aI158
aI79
aI71
aI23
aI40
aI4
aI172
asS'rogee002'
p4609
(lp4610
g4609
aS'Esmil Rogers'
p4611
aS'32.2'
p4612
aI41
aI29
aI23
aI5
aI14
aI0
aI31
asS'ramij002'
p4613
(lp4614
g4613
aS'J.C. Ramirez'
p4615
aS'23.1'
p4616
aI25
aI14
aI14
aI3
aI11
aI3
aI16
asS'cunnb001'
p4617
(lp4618
g4617
aS'Brandon Cunniff'
p4619
aS'34.2'
p4620
aI27
aI20
aI18
aI4
aI22
aI2
aI37
asS'ramij004'
p4621
(lp4622
g4621
aS'Jose Ramirez'
p4623
aS'7.1'
p4624
aI15
aI14
aI11
aI0
aI10
aI1
aI5
asg2234
(lp4625
g2234
ag2236
aS'11.0'
p4626
aI11
aI7
aI7
aI4
aI3
aI0
aI8
asg242
(lp4627
g242
ag244
aS'72.0'
p4628
aI63
aI28
aI26
aI7
aI33
aI2
aI73
asS'verlj001'
p4629
(lp4630
g4629
aS'Justin Verlander'
p4631
aS'133.0'
p4632
aI113
aI56
aI50
aI13
aI32
aI1
aI113
asS'mediy001'
p4633
(lp4634
g4633
aS'Yoervis Medina'
p4635
aS'20.2'
p4636
aI23
aI12
aI11
aI2
aI11
aI0
aI16
asS'claua001'
p4637
(lp4638
g4637
aS'Alex Claudio'
p4639
aS'15.2'
p4640
aI12
aI6
aI5
aI4
aI6
aI2
aI13
asg2255
(lp4641
g2255
ag2257
aS'58.1'
p4642
aI56
aI30
aI26
aI6
aI18
aI0
aI40
asS'bracb001'
p4643
(lp4644
g4643
aS'Brad Brach'
p4645
aS'79.0'
p4646
aI57
aI25
aI24
aI7
aI38
aI3
aI89
asS'achta001'
p4647
(lp4648
g4647
aS'A.J. Achter'
p4649
aS'13.1'
p4650
aI12
aI10
aI10
aI4
aI6
aI1
aI14
asg395
(lp4651
g395
ag397
aS'19.0'
p4652
aI20
aI15
aI15
aI3
aI17
aI1
aI22
asS'nolis001'
p4653
(lp4654
g4653
aS'Sean Nolin'
p4655
aS'28.2'
p4656
aI35
aI19
aI17
aI4
aI12
aI0
aI15
asS'almom001'
p4657
(lp4658
g4657
aS'Miguel Almonte'
p4659
aS'8.1'
p4660
aI7
aI6
aI6
aI4
aI7
aI0
aI10
asS'rasmr001'
p4661
(lp4662
g4661
aS'Rob Rasmussen'
p4663
aS'15.1'
p4664
aI26
aI18
aI17
aI2
aI8
aI0
aI17
asg2285
(lp4665
g2285
ag2287
aS'11.2'
p4666
aI11
aI6
aI6
aI2
aI5
aI0
aI6
asS'aro-j001'
p4667
(lp4668
g4667
aS'Jonathan Aro'
p4669
aS'10.0'
p4670
aI15
aI8
aI8
aI2
aI4
aI0
aI8
asg2288
(lp4671
g2288
ag2290
aS'152.1'
p4672
aI158
aI75
aI73
aI18
aI40
aI2
aI111
asg2294
(lp4673
g2294
ag2296
aS'91.0'
p4674
aI77
aI32
aI31
aI9
aI24
aI1
aI44
asS'riefc001'
p4675
(lp4676
g4675
aS'C.J. Riefenhauser'
p4677
aS'14.2'
p4678
aI15
aI10
aI9
aI3
aI7
aI0
aI7
asg2306
(lp4679
g2306
ag2308
aS'28.1'
p4680
aI22
aI14
aI14
aI3
aI12
aI0
aI23
asS'leatj001'
p4681
(lp4682
g4681
aS'Jack Leathersich'
p4683
aS'11.2'
p4684
aI12
aI3
aI3
aI0
aI7
aI0
aI14
asS'dukez001'
p4685
(lp4686
g4685
aS'Zach Duke'
p4687
aS'60.2'
p4688
aI47
aI26
aI23
aI9
aI32
aI4
aI66
asg887
(lp4689
g887
ag889
aS'4.2'
p4690
aI4
aI2
aI2
aI1
aI1
aI0
aI5
asS'vizca001'
p4691
(lp4692
g4691
aS'Arodys Vizcaino'
p4693
aS'33.1'
p4694
aI27
aI7
aI6
aI1
aI13
aI2
aI37
asS'burad001'
p4695
(lp4696
g4695
aS'Danny Burawa'
p4697
aS'13.0'
p4698
aI11
aI9
aI9
aI2
aI5
aI0
aI11
asS'burge002'
p4699
(lp4700
g4699
aS'Enrique Burgos'
p4701
aS'26.2'
p4702
aI27
aI15
aI14
aI2
aI15
aI0
aI39
asS'lazor001'
p4703
(lp4704
g4703
aS'Raudel Lazo'
p4705
aS'5.1'
p4706
aI5
aI2
aI2
aI1
aI2
aI0
aI5
asg890
(lp4707
g890
ag892
aS'12.1'
p4708
aI11
aI13
aI10
aI5
aI8
aI2
aI12
asS'housa001'
p4709
(lp4710
g4709
aS'Adrian Houser'
p4711
aS'1.2'
p4712
aI1
aI0
aI0
aI0
aI2
aI0
aI0
asS'campl001'
p4713
(lp4714
g4713
aS'Leonel Campos'
p4715
aS'1.0'
p4716
aI1
aI1
aI1
aI0
aI1
aI0
aI1
asS'frasj002'
p4717
(lp4718
g4717
aS'Jason Frasor'
p4719
aS'27.2'
p4720
aI27
aI5
aI4
aI1
aI18
aI3
aI22
asS'siegk001'
p4721
(lp4722
g4721
aS'Kevin Siegrist'
p4723
aS'74.2'
p4724
aI53
aI20
aI18
aI4
aI34
aI2
aI90
asg2339
(lp4725
g2339
ag2341
aS'114.1'
p4726
aI127
aI53
aI51
aI11
aI26
aI2
aI110
asg2342
(lp4727
g2342
ag2344
aS'15.2'
p4728
aI17
aI13
aI13
aI3
aI13
aI0
aI13
asg893
(lp4729
g893
ag895
aS'123.1'
p4730
aI134
aI62
aI61
aI13
aI37
aI1
aI64
asS'diekj001'
p4731
(lp4732
g4731
aS'Jake Diekman'
p4733
aS'58.1'
p4734
aI53
aI28
aI26
aI5
aI31
aI0
aI69
asS'vincn001'
p4735
(lp4736
g4735
aS'Nick Vincent'
p4737
aS'22.2'
p4738
aI25
aI8
aI6
aI0
aI10
aI1
aI22
asS'kells001'
p4739
(lp4740
g4739
aS'Shawn Kelley'
p4741
aS'51.1'
p4742
aI41
aI18
aI14
aI4
aI15
aI4
aI63
asS'drako001'
p4743
(lp4744
g4743
aS'Oliver Drake'
p4745
aS'15.2'
p4746
aI16
aI7
aI5
aI1
aI9
aI0
aI17
asg2369
(lp4747
g2369
ag2371
aS'78.0'
p4748
aI95
aI56
aI53
aI14
aI20
aI2
aI61
asg2375
(lp4749
g2375
ag2377
aS'35.0'
p4750
aI43
aI24
aI23
aI6
aI14
aI2
aI21
asg2378
(lp4751
g2378
ag2380
aS'108.2'
p4752
aI119
aI59
aI57
aI16
aI40
aI4
aI72
asg2384
(lp4753
g2384
ag2386
aS'177.2'
p4754
aI169
aI82
aI78
aI16
aI64
aI3
aI141
asg2393
(lp4755
g2393
ag2395
aS'75.2'
p4756
aI69
aI26
aI24
aI7
aI16
aI5
aI79
asg2747
(lp4757
g2747
ag2749
aS'28.0'
p4758
aI36
aI24
aI24
aI10
aI16
aI0
aI15
asS'albea001'
p4759
(lp4760
g4759
aS'Andrew Albers'
p4761
aS'2.1'
p4762
aI1
aI1
aI1
aI1
aI2
aI0
aI1
asS'drabk001'
p4763
(lp4764
g4763
aS'Kyle Drabek'
p4765
aS'5.0'
p4766
aI9
aI3
aI3
aI1
aI2
aI0
aI3
asS'luetl001'
p4767
(lp4768
g4767
aS'Lucas Luetge'
p4769
aS'2.0'
p4770
aI0
aI0
aI0
aI0
aI2
aI0
aI2
asg2414
(lp4771
g2414
ag2416
aS'49.0'
p4772
aI54
aI32
aI28
aI2
aI19
aI1
aI30
asS'jansk001'
p4773
(lp4774
g4773
aS'Kenley Jansen'
p4775
aS'52.1'
p4776
aI33
aI14
aI14
aI6
aI8
aI0
aI80
asS'hochl001'
p4777
(lp4778
g4777
aS'Luke Hochevar'
p4779
aS'50.2'
p4780
aI49
aI23
aI21
aI7
aI16
aI0
aI49
asS'barrk002'
p4781
(lp4782
g4781
aS'Kyle Barraclough'
p4783
aS'24.0'
p4784
aI12
aI8
aI7
aI1
aI18
aI2
aI30
asg1424
(lp4785
g1424
ag1426
aS'55.1'
p4786
aI73
aI41
aI41
aI9
aI14
aI0
aI38
asS'stamc001'
p4787
(lp4788
g4787
aS'Craig Stammen'
p4789
aS'4.0'
p4790
aI2
aI0
aI0
aI0
aI3
aI1
aI3
asS'carrs001'
p4791
(lp4792
g4791
aS'Scott Carroll'
p4793
aS'36.1'
p4794
aI40
aI19
aI14
aI2
aI13
aI2
aI27
asg2420
(lp4795
g2420
ag2422
aS'110.2'
p4796
aI119
aI55
aI54
aI17
aI26
aI3
aI70
asg2426
(lp4797
g2426
ag2428
aS'7.2'
p4798
aI8
aI7
aI7
aI0
aI4
aI1
aI6
asS'gomeb001'
p4799
(lp4800
g4799
aS'Brandon Gomes'
p4801
aS'59.0'
p4802
aI55
aI28
aI28
aI10
aI15
aI2
aI44
asS'hoovj002'
p4803
(lp4804
g4803
aS'J.J. Hoover'
p4805
aS'64.1'
p4806
aI44
aI24
aI21
aI7
aI31
aI1
aI52
asS'domij002'
p4807
(lp4808
g4807
aS'Jose Dominguez'
p4809
aS'5.1'
p4810
aI2
aI0
aI0
aI0
aI2
aI0
aI5
asS'britz001'
p4811
(lp4812
g4811
aS'Zach Britton'
p4813
aS'65.2'
p4814
aI51
aI16
aI14
aI3
aI14
aI1
aI79
asg1700
(lp4815
g1700
ag1702
aS'0.1'
p4816
aI0
aI0
aI0
aI0
aI0
aI0
aI0
asg680
(lp4817
g680
ag682
aS'189.1'
p4818
aI156
aI61
aI56
aI18
aI37
aI2
aI188
asS'boyeb001'
p4819
(lp4820
g4819
aS'Blaine Boyer'
p4821
aS'65.0'
p4822
aI62
aI24
aI18
aI5
aI19
aI4
aI33
asg2459
(lp4823
g2459
ag2461
aS'34.0'
p4824
aI26
aI16
aI13
aI6
aI26
aI1
aI35
asg2237
(lp4825
g2237
ag2239
aS'228.2'
p4826
aI176
aI74
aI71
aI27
aI34
aI2
aI276
asg2471
(lp4827
g2471
ag2473
aS'16.2'
p4828
aI26
aI12
aI10
aI5
aI3
aI0
aI17
asg2474
(lp4829
g2474
ag2476
aS'39.0'
p4830
aI35
aI19
aI16
aI4
aI13
aI2
aI45
asS'dysos001'
p4831
(lp4832
g4831
aS'Sam Dyson'
p4833
aS'75.1'
p4834
aI65
aI26
aI22
aI4
aI21
aI1
aI71
asg1247
(lp4835
g1247
ag1249
aS'20.1'
p4836
aI15
aI12
aI12
aI3
aI11
aI2
aI27
asS'staut001'
p4837
(lp4838
g4837
aS'Tim Stauffer'
p4839
aS'20.1'
p4840
aI32
aI18
aI16
aI6
aI9
aI2
aI14
asg2495
(lp4841
g2495
ag2497
aS'218.0'
p4842
aI211
aI71
aI67
aI21
aI53
aI5
aI175
asg2504
(lp4843
g2504
ag2506
aS'22.0'
p4844
aI28
aI18
aI16
aI1
aI7
aI1
aI9
asS'ottaa001'
p4845
(lp4846
g4845
aS'Adam Ottavino'
p4847
aS'10.1'
p4848
aI3
aI0
aI0
aI0
aI2
aI0
aI13
asS'matub001'
p4849
(lp4850
g4849
aS'Brian Matusz'
p4851
aS'49.0'
p4852
aI38
aI18
aI16
aI5
aI20
aI3
aI56
asS'mazzv001'
p4853
(lp4854
g4853
aS'Vin Mazzaro'
p4855
aS'12.0'
p4856
aI15
aI6
aI5
aI0
aI6
aI1
aI6
asS'mendr002'
p4857
(lp4858
g4857
aS'Roman Mendez'
p4859
aS'13.2'
p4860
aI14
aI8
aI8
aI2
aI8
aI1
aI10
asS'strop001'
p4861
(lp4862
g4861
aS'Pedro Strop'
p4863
aS'68.0'
p4864
aI39
aI24
aI22
aI5
aI29
aI6
aI81
asS'broam001'
p4865
(lp4866
g4865
aS'Mike Broadway'
p4867
aS'17.1'
p4868
aI20
aI10
aI10
aI1
aI7
aI1
aI13
asg2531
(lp4869
g2531
ag2533
aS'181.0'
p4870
aI134
aI67
aI63
aI24
aI55
aI2
aI131
asS'vargj001'
p4871
(lp4872
g4871
aS'Jason Vargas'
p4873
aS'43.0'
p4874
aI46
aI20
aI19
aI5
aI12
aI0
aI27
asS'dankj001'
p4875
(lp4876
g4875
aS'John Danks'
p4877
aS'177.2'
p4878
aI195
aI104
aI94
aI24
aI56
aI1
aI124
asS'rondh001'
p4879
(lp4880
g4879
aS'Hector Rondon'
p4881
aS'70.0'
p4882
aI55
aI19
aI14
aI4
aI15
aI2
aI69
asS'cecib001'
p4883
(lp4884
g4883
aS'Brett Cecil'
p4885
aS'54.1'
p4886
aI39
aI17
aI15
aI4
aI13
aI3
aI70
asS'lowem002'
p4887
(lp4888
g4887
aS'Mark Lowe'
p4889
aS'55.0'
p4890
aI46
aI15
aI12
aI4
aI12
aI1
aI61
asS'alvar001'
p4891
(lp4892
g4891
aS'R.J. Alvarez'
p4893
aS'19.2'
p4894
aI27
aI23
aI22
aI7
aI13
aI1
aI23
asS'hynec001'
p4895
(lp4896
g4895
aS'Colt Hynes'
p4897
aS'3.0'
p4898
aI8
aI2
aI2
aI0
aI2
aI1
aI4
asg2576
(lp4899
g2576
ag2578
aS'54.0'
p4900
aI46
aI27
aI26
aI6
aI29
aI1
aI65
asS'sorij001'
p4901
(lp4902
g4901
aS'Joakim Soria'
p4903
aS'67.2'
p4904
aI55
aI20
aI19
aI8
aI19
aI1
aI64
asS'mejij001'
p4905
(lp4906
g4905
aS'Jenrry Mejia'
p4907
aS'7.0'
p4908
aI4
aI0
aI0
aI0
aI2
aI1
aI7
asS'reynm002'
p4909
(lp4910
g4909
aS'Matt Reynolds'
p4911
aS'13.2'
p4912
aI14
aI7
aI7
aI6
aI7
aI2
aI18
asS'grahj002'
p4913
(lp4914
g4913
aS'J.R. Graham'
p4915
aS'63.2'
p4916
aI73
aI41
aI35
aI10
aI21
aI0
aI53
asS'meyea001'
p4917
(lp4918
g4917
aS'Alex Meyer'
p4919
aS'2.1'
p4920
aI4
aI5
aI5
aI2
aI3
aI0
aI3
asg2603
(lp4921
g2603
ag2605
aS'163.1'
p4922
aI154
aI75
aI74
aI14
aI58
aI1
aI156
asS'johne003'
p4923
(lp4924
g4923
aS'Erik Johnson'
p4925
aS'34.2'
p4926
aI32
aI14
aI13
aI8
aI17
aI0
aI30
asg2606
(lp4927
g2606
ag2608
aS'58.1'
p4928
aI59
aI25
aI25
aI1
aI32
aI6
aI65
asS'mcgos001'
p4929
(lp4930
g4929
aS'Scott McGough'
p4931
aS'6.1'
p4932
aI12
aI7
aI7
aI0
aI4
aI0
aI4
asg2612
(lp4933
g2612
ag2614
aS'42.2'
p4934
aI47
aI30
aI27
aI5
aI22
aI1
aI35
asg1295
(lp4935
g1295
ag1297
aS'124.2'
p4936
aI135
aI66
aI56
aI16
aI46
aI2
aI77
asg2618
(lp4937
g2618
ag2620
aS'40.1'
p4938
aI53
aI35
aI33
aI10
aI17
aI2
aI24
asS'frees001'
p4939
(lp4940
g4939
aS'Sam Freeman'
p4941
aS'38.1'
p4942
aI31
aI13
aI13
aI4
aI25
aI0
aI40
asg2621
(lp4943
g2621
ag2623
aS'1.0'
p4944
aI2
aI0
aI0
aI0
aI0
aI0
aI0
asg2630
(lp4945
g2630
ag2632
aS'74.2'
p4946
aI109
aI60
aI58
aI12
aI29
aI1
aI44
asg2633
(lp4947
g2633
ag2635
aS'61.1'
p4948
aI61
aI23
aI21
aI2
aI22
aI2
aI55
asg2636
(lp4949
g2636
ag2638
aS'23.0'
p4950
aI26
aI11
aI11
aI4
aI12
aI2
aI27
asS'pinoy001'
p4951
(lp4952
g4951
aS'Yohan Pino'
p4953
aS'19.0'
p4954
aI23
aI8
aI7
aI2
aI3
aI0
aI13
asS'milla002'
p4955
(lp4956
g4955
aS'Andrew Miller'
p4957
aS'61.2'
p4958
aI33
aI15
aI13
aI5
aI20
aI1
aI100
asg2645
(lp4959
g2645
ag2647
aS'125.1'
p4960
aI142
aI82
aI81
aI17
aI32
aI3
aI69
asS'benoj001'
p4961
(lp4962
g4961
aS'Joaquin Benoit'
p4963
aS'65.1'
p4964
aI36
aI17
aI17
aI7
aI23
aI1
aI63
asS'moylp001'
p4965
(lp4966
g4965
aS'Peter Moylan'
p4967
aS'10.0'
p4968
aI12
aI5
aI4
aI1
aI0
aI0
aI8
asS'gearc001'
p4969
(lp4970
g4969
aS'Cory Gearrin'
p4971
aS'3.2'
p4972
aI1
aI2
aI2
aI0
aI1
aI0
aI5
asg2651
(lp4973
g2651
ag2653
aS'74.0'
p4974
aI72
aI33
aI33
aI8
aI20
aI2
aI23
asg2654
(lp4975
g2654
ag2656
aS'38.1'
p4976
aI41
aI19
aI19
aI4
aI26
aI3
aI33
asS'jackl001'
p4977
(lp4978
g4977
aS'Luke Jackson'
p4979
aS'6.0'
p4980
aI5
aI3
aI3
aI1
aI2
aI0
aI6
asg995
(lp4981
g995
ag997
aS'36.1'
p4982
aI29
aI13
aI13
aI4
aI17
aI1
aI34
asg2663
(lp4983
g2663
ag2665
aS'28.0'
p4984
aI25
aI15
aI15
aI3
aI6
aI0
aI19
asg2666
(lp4985
g2666
ag2668
aS'24.1'
p4986
aI32
aI13
aI11
aI4
aI8
aI2
aI24
asg2672
(lp4987
g2672
ag2674
aS'183.2'
p4988
aI154
aI75
aI74
aI18
aI43
aI2
aI216
asg2675
(lp4989
g2675
ag2677
aS'184.2'
p4990
aI200
aI112
aI89
aI19
aI66
aI2
aI165
asg2684
(lp4991
g2684
ag2686
aS'8.0'
p4992
aI14
aI11
aI9
aI0
aI7
aI2
aI7
asg2687
(lp4993
g2687
ag2689
aS'6.2'
p4994
aI15
aI9
aI8
aI3
aI3
aI1
aI7
asg2693
(lp4995
g2693
ag2695
aS'40.2'
p4996
aI52
aI38
aI36
aI6
aI22
aI1
aI38
asS'jansc001'
p4997
(lp4998
g4997
aS'Casey Janssen'
p4999
aS'40.0'
p5000
aI38
aI22
aI22
aI5
aI8
aI3
aI27
asS'reedc001'
p5001
(lp5002
g5001
aS'Chris Reed'
p5003
aS'4.0'
p5004
aI6
aI2
aI2
aI0
aI1
aI0
aI1
asg2696
(lp5005
g2696
ag2698
aS'127.1'
p5006
aI121
aI56
aI50
aI9
aI49
aI3
aI119
asg2699
(lp5007
g2699
ag2701
aS'32.0'
p5008
aI30
aI14
aI13
aI5
aI11
aI1
aI31
asS'watst001'
p5009
(lp5010
g5009
aS'Tony Watson'
p5011
aS'75.0'
p5012
aI55
aI17
aI16
aI3
aI17
aI1
aI62
asg2711
(lp5013
g2711
ag2713
aS'187.1'
p5014
aI180
aI96
aI86
aI22
aI77
aI3
aI137
asg2762
(lp5015
g2762
ag2764
aS'67.2'
p5016
aI62
aI31
aI29
aI4
aI32
aI6
aI65
asS'fielj002'
p5017
(lp5018
g5017
aS'Josh Fields'
p5019
aS'50.2'
p5020
aI39
aI20
aI20
aI2
aI19
aI3
aI67
asg2729
(lp5021
g2729
ag2731
aS'185.0'
p5022
aI156
aI79
aI71
aI23
aI53
aI1
aI195
asg2735
(lp5023
g2735
ag2737
aS'205.1'
p5024
aI183
aI82
aI69
aI13
aI73
aI8
aI171
asS'axfoj001'
p5025
(lp5026
g5025
aS'John Axford'
p5027
aS'55.2'
p5028
aI56
aI27
aI26
aI4
aI32
aI4
aI62
asg2741
(lp5029
g2741
ag2743
aS'34.0'
p5030
aI31
aI22
aI15
aI7
aI12
aI1
aI34
asg2750
(lp5031
g2750
ag2752
aS'222.2'
p5032
aI148
aI43
aI41
aI14
aI40
aI1
aI200
asS'hatlm001'
p5033
(lp5034
g5033
aS'Marcus Hatley'
p5035
aS'1.0'
p5036
aI1
aI0
aI0
aI0
aI2
aI0
aI2
asg2759
(lp5037
g2759
ag2761
aS'125.1'
p5038
aI106
aI49
aI45
aI10
aI43
aI2
aI129
asS'goodn001'
p5039
(lp5040
g5039
aS'Nick Goody'
p5041
aS'5.1'
p5042
aI6
aI4
aI4
aI0
aI3
aI0
aI3
asg542
(lp5043
g542
ag544
aS'15.1'
p5044
aI24
aI11
aI11
aI1
aI2
aI0
aI6
asg2786
(lp5045
g2786
ag2788
aS'27.0'
p5046
aI40
aI18
aI18
aI2
aI10
aI2
aI22
asg2789
(lp5047
g2789
ag2791
aS'65.2'
p5048
aI69
aI32
aI30
aI8
aI18
aI1
aI49
asg2798
(lp5049
g2798
ag2800
aS'28.2'
p5050
aI28
aI14
aI14
aI6
aI8
aI1
aI24
asS'tolls002'
p5051
(lp5052
g5051
aS'Shawn Tolleson'
p5053
aS'72.1'
p5054
aI66
aI25
aI24
aI9
aI17
aI5
aI76
asg2810
(lp5055
g2810
ag2812
aS'3.1'
p5056
aI8
aI4
aI4
aI0
aI1
aI0
aI1
asg2813
(lp5057
g2813
ag2815
aS'180.0'
p5058
aI166
aI82
aI79
aI17
aI43
aI1
aI167
asg2816
(lp5059
g2816
ag2818
aS'201.2'
p5060
aI180
aI80
aI79
aI23
aI58
aI0
aI191
asS'quack001'
p5061
(lp5062
g5061
aS'Kevin Quackenbush'
p5063
aS'58.1'
p5064
aI52
aI28
aI26
aI6
aI20
aI3
aI58
asg2669
(lp5065
g2669
ag2671
aS'33.0'
p5066
aI37
aI15
aI14
aI2
aI13
aI0
aI23
asg2837
(lp5067
g2837
ag2839
aS'208.0'
p5068
aI183
aI71
aI60
aI11
aI44
aI1
aI202
asg2840
(lp5069
g2840
ag2842
aS'184.2'
p5070
aI194
aI93
aI83
aI17
aI55
aI5
aI151
asg2849
(lp5071
g2849
ag2851
aS'0.2'
p5072
aI0
aI0
aI0
aI0
aI0
aI0
aI0
asg2852
(lp5073
g2852
ag2854
aS'116.1'
p5074
aI130
aI66
aI63
aI13
aI51
aI2
aI73
asS'chenb001'
p5075
(lp5076
g5075
aS'Bruce Chen'
p5077
aS'6.0'
p5078
aI17
aI9
aI9
aI3
aI1
aI1
aI4
asS'morim002'
p5079
(lp5080
g5079
aS'Mike Morin'
p5081
aS'35.0'
p5082
aI36
aI28
aI25
aI3
aI9
aI2
aI41
asS'ramoc001'
p5083
(lp5084
g5083
aS'Cesar Ramos'
p5085
aS'52.1'
p5086
aI55
aI17
aI16
aI2
aI15
aI0
aI43
asS'huntt002'
p5087
(lp5088
g5087
aS'Tommy Hunter'
p5089
aS'60.1'
p5090
aI61
aI29
aI28
aI7
aI14
aI2
aI47
asS'friee001'
p5091
(lp5092
g5091
aS'Ernesto Frieri'
p5093
aS'23.0'
p5094
aI20
aI12
aI12
aI6
aI11
aI0
aI19
asg2873
(lp5095
g2873
ag2875
aS'12.1'
p5096
aI16
aI11
aI11
aI4
aI4
aI1
aI12
asS'bracs001'
p5097
(lp5098
g5097
aS'Silvino Bracho'
p5099
aS'12.1'
p5100
aI9
aI2
aI2
aI2
aI4
aI1
aI17
asS'webbr001'
p5101
(lp5102
g5101
aS'Ryan Webb'
p5103
aS'50.2'
p5104
aI46
aI21
aI18
aI4
aI12
aI2
aI31
asS'sippt001'
p5105
(lp5106
g5105
aS'Tony Sipp'
p5107
aS'54.1'
p5108
aI41
aI13
aI12
aI5
aI15
aI1
aI62
asg2882
(lp5109
g2882
ag2884
aS'194.2'
p5110
aI217
aI94
aI90
aI25
aI24
aI5
aI136
asS'hutcd001'
p5111
(lp5112
g5111
aS'Drew Hutchison'
p5113
aS'150.0'
p5114
aI179
aI103
aI94
aI22
aI44
aI0
aI129
asg2885
(lp5115
g2885
ag2887
aS'160.2'
p5116
aI176
aI82
aI79
aI21
aI21
aI0
aI156
asg2888
(lp5117
g2888
ag2890
aS'113.0'
p5118
aI131
aI70
aI68
aI18
aI57
aI6
aI83
asS'reyej003'
p5119
(lp5120
g5119
aS'Jo-Jo Reyes'
p5121
aS'0.1'
p5122
aI0
aI0
aI0
aI0
aI0
aI0
aI0
asS'wolfr001'
p5123
(lp5124
g5123
aS'Randy Wolf'
p5125
aS'34.1'
p5126
aI46
aI28
aI24
aI5
aI15
aI1
aI28
asg2891
(lp5127
g2891
ag2893
aS'26.1'
p5128
aI24
aI11
aI10
aI4
aI10
aI0
aI21
asa.