(lp0
(dp1
S'cainl001'
p2
(lp3
g2
aS'Lorenzo Cain'
p4
aI502
aI471
aI55
aI142
aI29
aI4
aI5
aI53
aI28
aI5
aI24
aI108
aI194
asS'tejar001'
p5
(lp6
g5
aS'Ruben Tejada'
p7
aI419
aI355
aI30
aI84
aI11
aI0
aI5
aI34
aI1
aI2
aI50
aI73
aI110
asS'torrc001'
p8
(lp9
g8
aS'Carlos Torres'
p10
aI7
aI5
aI0
aI0
aI0
aI0
aI0
aI0
aI0
aI0
aI0
aI4
aI0
asS'belta001'
p11
(lp12
g11
aS'Adrian Beltre'
p13
aI614
aI549
aI79
aI178
aI33
aI1
aI19
aI77
aI1
aI1
aI57
aI74
aI270
asS'scutm001'
p14
(lp15
g14
aS'Marco Scutaro'
p16
aI13
aI11
aI1
aI1
aI0
aI0
aI0
aI0
aI0
aI0
aI1
aI3
aI1
asS'gonzc001'
p17
(lp18
g17
aS'Carlos Gonzalez'
p19
aI281
aI260
aI35
aI62
aI15
aI1
aI11
aI38
aI3
aI0
aI19
aI70
aI112
asS'worlv001'
p20
(lp21
g20
aS'Vance Worley'
p22
aI38
aI32
aI1
aI2
aI1
aI0
aI0
aI0
aI0
aI0
aI1
aI17
aI3
asS'culbc001'
p23
(lp24
g23
aS'Charlie Culberson'
p25
aI233
aI210
aI17
aI41
aI7
aI2
aI3
aI24
aI2
aI2
aI12
aI62
aI61
asS'aybae001'
p26
(lp27
g26
aS'Erick Aybar'
p28
aI642
aI589
aI77
aI164
aI30
aI4
aI7
aI68
aI16
aI9
aI36
aI62
aI223
asS'basta001'
p29
(lp30
g29
aS'Antonio Bastardo'
p31
aI1
aI0
aI0
aI0
aI0
aI0
aI0
aI0
aI0
aI0
aI1
aI0
aI0
asS'telit001'
p32
(lp33
g32
aS'Tomas Telis'
p34
aI71
aI68
aI7
aI17
aI2
aI0
aI0
aI8
aI0
aI0
aI1
aI10
aI19
asS'arrob001'
p35
(lp36
g35
aS'Bronson Arroyo'
p37
aI31
aI27
aI5
aI6
aI0
aI0
aI0
aI0
aI0
aI0
aI0
aI12
aI6
asS'garca003'
p38
(lp39
g38
aS'Avisail Garcia'
p40
aI190
aI172
aI19
aI42
aI8
aI0
aI7
aI29
aI4
aI1
aI14
aI44
aI71
asS'kellj001'
p41
(lp42
g41
aS'Joe Kelly'
p43
aI18
aI16
aI0
aI4
aI1
aI0
aI0
aI0
aI1
aI0
aI0
aI2
aI5
asS'darnt001'
p44
(lp45
g44
aS"Travis d'Arnaud"
p46
aI421
aI385
aI48
aI93
aI22
aI3
aI13
aI41
aI1
aI0
aI32
aI64
aI160
asS'herrc001'
p47
(lp48
g47
aS'Chris Herrmann'
p49
aI79
aI75
aI8
aI16
aI3
aI0
aI0
aI4
aI1
aI0
aI4
aI17
aI19
asS'kottg001'
p50
(lp51
g50
aS'George Kottaras'
p52
aI38
aI30
aI4
aI7
aI0
aI0
aI3
aI5
aI0
aI0
aI6
aI16
aI16
asS'cainm001'
p53
(lp54
g53
aS'Matt Cain'
p55
aI30
aI27
aI1
aI4
aI0
aI0
aI0
aI0
aI0
aI0
aI2
aI13
aI4
asS'wrigj001'
p56
(lp57
g56
aS'Jamey Wright'
p58
aI6
aI5
aI0
aI0
aI0
aI0
aI0
aI0
aI0
aI0
aI0
aI3
aI0
asS'willj003'
p59
(lp60
g59
aS'Jerome Williams'
p61
aI16
aI12
aI0
aI2
aI0
aI0
aI0
aI3
aI0
aI0
aI0
aI4
aI2
asS'niesj001'
p62
(lp63
g62
aS'Jon Niese'
p64
aI65
aI55
aI3
aI5
aI1
aI0
aI0
aI4
aI0
aI0
aI6
aI29
aI6
asS'willj004'
p65
(lp66
g65
aS'Josh Willingham'
p67
aI364
aI297
aI48
aI64
aI10
aI1
aI14
aI40
aI2
aI0
aI53
aI102
aI118
asS'willj005'
p68
(lp69
g68
aS'Jackson Williams'
p70
aI16
aI14
aI1
aI3
aI0
aI0
aI1
aI3
aI0
aI0
aI2
aI4
aI6
asS'jurrj001'
p71
(lp72
g71
aS'Jair Jurrjens'
p73
aI2
aI1
aI0
aI0
aI0
aI0
aI0
aI0
aI0
aI1
aI0
aI0
aI0
asS'delar003'
p74
(lp75
g74
aS'Rubby de la Rosa'
p76
aI2
aI2
aI0
aI0
aI0
aI0
aI0
aI0
aI0
aI0
aI0
aI0
aI0
asS'stule002'
p77
(lp78
g77
aS'Eric Stults'
p79
aI53
aI48
aI1
aI4
aI1
aI0
aI0
aI1
aI0
aI0
aI1
aI18
aI5
asS'maurb001'
p80
(lp81
g80
aS'Brandon Maurer'
p82
aI2
aI1
aI0
aI0
aI0
aI0
aI0
aI0
aI0
aI0
aI0
aI0
aI0
asS'heywj001'
p83
(lp84
g83
aS'Jason Heyward'
p85
aI649
aI573
aI74
aI155
aI26
aI3
aI11
aI58
aI20
aI4
aI67
aI98
aI220
asS'sellj002'
p86
(lp87
g86
aS'Justin Sellers'
p88
aI21
aI16
aI1
aI3
aI0
aI0
aI0
aI0
aI0
aI1
aI3
aI4
aI3
asS'sanca004'
p89
(lp90
g89
aS'Anibal Sanchez'
p91
aI5
aI5
aI0
aI1
aI1
aI0
aI0
aI1
aI0
aI0
aI0
aI3
aI2
asS'ruppc001'
p92
(lp93
g92
aS'Cameron Rupp'
p94
aI64
aI60
aI4
aI11
aI4
aI0
aI0
aI6
aI0
aI0
aI4
aI20
aI15
asS'flany001'
p95
(lp96
g95
aS'Yohan Flande'
p97
aI17
aI12
aI0
aI1
aI0
aI0
aI0
aI1
aI0
aI0
aI1
aI6
aI1
asS'mcgod001'
p98
(lp99
g98
aS'Dustin McGowan'
p100
aI4
aI4
aI0
aI0
aI0
aI0
aI0
aI0
aI0
aI0
aI0
aI3
aI0
asS'gally001'
p101
(lp102
g101
aS'Yovani Gallardo'
p103
aI60
aI54
aI1
aI6
aI1
aI0
aI0
aI1
aI0
aI0
aI1
aI18
aI7
asS'crawc002'
p104
(lp105
g104
aS'Carl Crawford'
p106
aI370
aI343
aI56
aI103
aI14
aI3
aI8
aI46
aI23
aI6
aI16
aI55
aI147
asS'phegj001'
p107
(lp108
g107
aS'Josh Phegley'
p109
aI38
aI37
aI4
aI8
aI2
aI0
aI3
aI7
aI0
aI0
aI0
aI11
aI19
asS'vicid001'
p110
(lp111
g110
aS'Dayan Viciedo'
p112
aI563
aI523
aI65
aI121
aI22
aI3
aI21
aI58
aI0
aI1
aI32
aI122
aI212
asS'davir003'
p113
(lp114
g113
aS'Rajai Davis'
p115
aI494
aI461
aI64
aI130
aI27
aI2
aI8
aI51
aI36
aI11
aI22
aI75
aI185
asS'paulb001'
p116
(lp117
g116
aS'Ben Paulsen'
p118
aI66
aI63
aI8
aI20
aI4
aI0
aI4
aI10
aI0
aI0
aI2
aI19
aI36
asS'wilsj003'
p119
(lp120
g119
aS'Josh Wilson'
p121
aI72
aI67
aI7
aI16
aI4
aI0
aI0
aI8
aI1
aI0
aI2
aI14
aI20
asS'fulds001'
p122
(lp123
g122
aS'Sam Fuld'
p124
aI402
aI351
aI40
aI84
aI16
aI4
aI4
aI36
aI21
aI4
aI43
aI63
aI120
asS'wilsj004'
p125
(lp126
g125
aS'Justin Wilson'
p127
aI1
aI1
aI0
aI0
aI0
aI0
aI0
aI0
aI0
aI0
aI0
aI1
aI0
asS'bourj001'
p128
(lp129
g128
aS'Jason Bourgeois'
p130
aI34
aI33
aI5
aI8
aI0
aI1
aI0
aI1
aI0
aI0
aI1
aI6
aI10
asS'tropn001'
p131
(lp132
g131
aS'Nick Tropeano'
p133
aI2
aI1
aI0
aI0
aI0
aI0
aI0
aI0
aI0
aI0
aI1
aI0
aI0
asS'cespy001'
p134
(lp135
g134
aS'Yoenis Cespedes'
p136
aI645
aI600
aI89
aI156
aI36
aI6
aI22
aI100
aI7
aI2
aI35
aI128
aI270
asS'clarm003'
p137
(lp138
g137
aS'Matt Clark'
p139
aI31
aI27
aI4
aI5
aI0
aI0
aI3
aI7
aI0
aI0
aI2
aI8
aI14
asS'flowt001'
p140
(lp141
g140
aS'Tyler Flowers'
p142
aI442
aI407
aI42
aI98
aI16
aI1
aI15
aI50
aI0
aI1
aI25
aI159
aI161
asS'josec002'
p143
(lp144
g143
aS'Caleb Joseph'
p145
aI275
aI246
aI22
aI51
aI9
aI0
aI9
aI28
aI0
aI1
aI17
aI69
aI87
asS'espid001'
p146
(lp147
g146
aS'Danny Espinosa'
p148
aI364
aI333
aI31
aI73
aI14
aI3
aI8
aI27
aI8
aI1
aI18
aI122
aI117
asS'snidt001'
p149
(lp150
g149
aS'Travis Snider'
p151
aI359
aI322
aI37
aI85
aI15
aI1
aI13
aI38
aI1
aI1
aI34
aI67
aI141
asS'norrb001'
p152
(lp153
g152
aS'Bud Norris'
p154
aI4
aI3
aI0
aI1
aI0
aI0
aI0
aI1
aI0
aI0
aI0
aI1
aI1
asS'joycm001'
p155
(lp156
g155
aS'Matthew Joyce'
p157
aI493
aI418
aI50
aI106
aI23
aI2
aI9
aI52
aI2
aI5
aI62
aI111
aI160
asS'goebj001'
p158
(lp159
g158
aS'Jake Goebbert'
p160
aI115
aI101
aI11
aI22
aI1
aI3
aI1
aI10
aI2
aI1
aI12
aI32
aI32
asS'lewic001'
p161
(lp162
g161
aS'Colby Lewis'
p163
aI5
aI5
aI0
aI2
aI0
aI0
aI0
aI1
aI0
aI0
aI0
aI2
aI2
asS'moyas001'
p164
(lp165
g164
aS'Steven Moya'
p166
aI8
aI8
aI2
aI3
aI0
aI0
aI0
aI0
aI0
aI0
aI0
aI2
aI3
asS'jimeu001'
p167
(lp168
g167
aS'Ubaldo Jimenez'
p169
aI1
aI1
aI0
aI0
aI0
aI0
aI0
aI0
aI0
aI0
aI0
aI0
aI0
asS'huffd001'
p170
(lp171
g170
aS'David Huff'
p172
aI3
aI3
aI1
aI1
aI0
aI0
aI0
aI0
aI0
aI0
aI0
aI2
aI1
asS'johnj010'
p173
(lp174
g173
aS'Jim Johnson'
p175
aI1
aI1
aI0
aI0
aI0
aI0
aI0
aI0
aI0
aI0
aI0
aI1
aI0
asS'rodrw002'
p176
(lp177
g176
aS'Wandy Rodriguez'
p178
aI8
aI8
aI0
aI2
aI0
aI0
aI0
aI0
aI0
aI0
aI0
aI2
aI2
asS'kierk001'
p179
(lp180
g179
aS'Kevin Kiermaier'
p181
aI364
aI331
aI35
aI87
aI16
aI8
aI10
aI35
aI5
aI4
aI23
aI71
aI149
asS'colac001'
p182
(lp183
g182
aS'Chris Colabello'
p184
aI220
aI205
aI17
aI47
aI13
aI0
aI6
aI39
aI0
aI2
aI14
aI66
aI78
asS'mcbrm002'
p185
(lp186
g185
aS'Matt McBride'
p187
aI34
aI31
aI6
aI7
aI2
aI0
aI2
aI6
aI0
aI0
aI2
aI12
aI15
asS'scrux001'
p188
(lp189
g188
aS'Xavier Scruggs'
p190
aI18
aI15
aI0
aI3
aI1
aI0
aI0
aI2
aI0
aI0
aI2
aI7
aI4
asS'jordt001'
p191
(lp192
g191
aS'Taylor Jordan'
p193
aI8
aI8
aI1
aI1
aI0
aI0
aI0
aI0
aI0
aI0
aI0
aI4
aI1
asS'quirg001'
p194
(lp195
g194
aS'Guillermo Quiroz'
p196
aI3
aI3
aI0
aI0
aI0
aI0
aI0
aI0
aI0
aI0
aI0
aI0
aI0
asS'eovan001'
p197
(lp198
g197
aS'Nathan Eovaldi'
p199
aI64
aI56
aI1
aI5
aI0
aI0
aI0
aI0
aI0
aI0
aI1
aI36
aI5
asS'carlb001'
p200
(lp201
g200
aS'Buddy Carlyle'
p202
aI1
aI1
aI0
aI1
aI0
aI0
aI0
aI0
aI0
aI0
aI0
aI0
aI1
asS'friac001'
p203
(lp204
g203
aS'Carlos Frias'
p205
aI7
aI7
aI0
aI0
aI0
aI0
aI0
aI0
aI0
aI0
aI0
aI4
aI0
asS'morrl001'
p206
(lp207
g206
aS'Logan Morrison'
p208
aI365
aI336
aI41
aI88
aI20
aI0
aI11
aI38
aI5
aI2
aI24
aI59
aI141
asS'markn001'
p209
(lp210
g209
aS'Nick Markakis'
p211
aI710
aI642
aI81
aI177
aI27
aI1
aI14
aI50
aI4
aI2
aI62
aI84
aI248
asS'hairs001'
p212
(lp213
g212
aS'Scott Hairston'
p214
aI87
aI77
aI6
aI16
aI4
aI0
aI1
aI8
aI0
aI0
aI4
aI26
aI23
asS'barnd001'
p215
(lp216
g215
aS'Darwin Barney'
p217
aI262
aI237
aI24
aI57
aI11
aI2
aI3
aI23
aI1
aI0
aI17
aI34
aI81
asS'strad003'
p218
(lp219
g218
aS'Dan Straily'
p220
aI2
aI1
aI0
aI0
aI0
aI0
aI0
aI0
aI0
aI0
aI1
aI1
aI0
asS'lohsk001'
p221
(lp222
g221
aS'Kyle Lohse'
p223
aI74
aI61
aI2
aI7
aI0
aI0
aI0
aI5
aI0
aI0
aI2
aI23
aI7
asS'friec001'
p224
(lp225
g224
aS'Christian Friedrich'
p226
aI5
aI5
aI0
aI1
aI0
aI0
aI0
aI0
aI0
aI0
aI0
aI2
aI1
asS'parra001'
p227
(lp228
g227
aS'Andy Parrino'
p229
aI51
aI46
aI4
aI7
aI3
aI0
aI1
aI3
aI0
aI0
aI3
aI14
aI13
asS'riosa002'
p230
(lp231
g230
aS'Alex Rios'
p232
aI521
aI492
aI54
aI138
aI30
aI8
aI4
aI54
aI17
aI9
aI23
aI93
aI196
asS'eatoa002'
p233
(lp234
g233
aS'Adam Eaton'
p235
aI538
aI486
aI76
aI146
aI26
aI10
aI1
aI35
aI15
aI9
aI43
aI83
aI195
asS'jimel002'
p236
(lp237
g236
aS'Luis Jimenez'
p238
aI41
aI37
aI3
aI6
aI2
aI0
aI0
aI2
aI0
aI0
aI0
aI13
aI8
asS'rowlr002'
p239
(lp240
g239
aS'Ryan Rowland-Smith'
p241
aI1
aI1
aI0
aI0
aI0
aI0
aI0
aI0
aI0
aI0
aI0
aI1
aI0
asS'delgr001'
p242
(lp243
g242
aS'Randall Delgado'
p244
aI11
aI9
aI0
aI1
aI0
aI0
aI0
aI0
aI0
aI0
aI0
aI4
aI1
asS'beckg001'
p245
(lp246
g245
aS'Gordon Beckham'
p247
aI483
aI446
aI53
aI101
aI27
aI0
aI9
aI44
aI3
aI0
aI22
aI81
aI155
asS'lutzd001'
p248
(lp249
g248
aS'Donald Lutz'
p250
aI54
aI51
aI2
aI9
aI4
aI0
aI0
aI1
aI0
aI0
aI3
aI19
aI13
asS'montr004'
p251
(lp252
g251
aS'Rafael Montero'
p253
aI13
aI11
aI0
aI0
aI0
aI0
aI0
aI0
aI0
aI0
aI0
aI5
aI0
asS'dendm001'
p254
(lp255
g254
aS'Matt den Dekker'
p256
aI174
aI152
aI23
aI38
aI11
aI0
aI0
aI7
aI7
aI4
aI21
aI34
aI49
asS'aokin001'
p257
(lp258
g257
aS'Norichika Aoki'
p259
aI549
aI491
aI63
aI140
aI22
aI6
aI1
aI43
aI17
aI8
aI43
aI49
aI177
asS'puntn001'
p260
(lp261
g260
aS'Nick Punto'
p262
aI224
aI198
aI21
aI41
aI7
aI2
aI2
aI14
aI3
aI1
aI25
aI56
aI58
asS'odorr001'
p263
(lp264
g263
aS'Rougned Odor'
p265
aI417
aI386
aI38
aI100
aI14
aI7
aI9
aI48
aI4
aI7
aI17
aI71
aI155
asS'shiej002'
p266
(lp267
g266
aS'James Shields'
p268
aI7
aI7
aI1
aI2
aI1
aI0
aI0
aI1
aI0
aI0
aI0
aI1
aI3
asS'schub001'
p269
(lp270
g269
aS'Bo Schultz'
p271
aI1
aI1
aI0
aI0
aI0
aI0
aI0
aI0
aI0
aI0
aI0
aI0
aI0
asS'wooda002'
p272
(lp273
g272
aS'Alex Wood'
p274
aI48
aI41
aI1
aI3
aI0
aI0
aI0
aI2
aI0
aI0
aI2
aI28
aI3
asS'hundn001'
p275
(lp276
g275
aS'Nick Hundley'
p277
aI233
aI218
aI18
aI53
aI7
aI0
aI6
aI22
aI1
aI0
aI10
aI63
aI78
asS'frazt001'
p278
(lp279
g278
aS'Todd Frazier'
p280
aI660
aI597
aI88
aI163
aI22
aI1
aI29
aI80
aI20
aI8
aI52
aI139
aI274
asS'navad001'
p281
(lp282
g281
aS'Dioner Navarro'
p283
aI520
aI481
aI40
aI132
aI22
aI0
aI12
aI69
aI3
aI0
aI32
aI76
aI190
asS'navad002'
p284
(lp285
g284
aS'Daniel Nava'
p286
aI408
aI363
aI41
aI98
aI21
aI0
aI4
aI37
aI4
aI2
aI33
aI81
aI131
asS'santd001'
p287
(lp288
g287
aS'Danny Santana'
p289
aI430
aI405
aI70
aI129
aI27
aI7
aI7
aI40
aI20
aI4
aI19
aI98
aI191
asS'avilm001'
p290
(lp291
g290
aS'Mike Aviles'
p292
aI374
aI344
aI38
aI85
aI16
aI1
aI5
aI39
aI14
aI5
aI13
aI49
aI118
asS'teagt001'
p293
(lp294
g293
aS'Taylor Teagarden'
p295
aI30
aI28
aI1
aI4
aI0
aI0
aI1
aI5
aI0
aI0
aI2
aI7
aI7
asS'gonzm003'
p296
(lp297
g296
aS'Miguel Gonzalez'
p298
aI5
aI5
aI0
aI0
aI0
aI0
aI0
aI0
aI0
aI0
aI0
aI2
aI0
asS'gonzm002'
p299
(lp300
g299
aS'Marwin Gonzalez'
p301
aI310
aI285
aI33
aI79
aI15
aI1
aI6
aI23
aI2
aI4
aI17
aI58
aI114
asS'guzmj005'
p302
(lp303
g302
aS'Jesus Guzman'
p304
aI184
aI165
aI10
aI31
aI4
aI0
aI2
aI9
aI3
aI0
aI19
aI52
aI41
asS'linct001'
p305
(lp306
g305
aS'Tim Lincecum'
p307
aI53
aI44
aI2
aI3
aI0
aI0
aI0
aI1
aI0
aI0
aI4
aI26
aI3
asS'murpd006'
p308
(lp309
g308
aS'Daniel Murphy'
p310
aI642
aI596
aI79
aI172
aI37
aI2
aI9
aI57
aI13
aI5
aI39
aI86
aI240
asS'choim001'
p311
(lp312
g311
aS'Michael Choice'
p313
aI280
aI253
aI20
aI46
aI6
aI1
aI9
aI36
aI1
aI0
aI21
aI69
aI81
asS'lee-c003'
p314
(lp315
g314
aS'Cliff Lee'
p316
aI25
aI24
aI2
aI6
aI0
aI0
aI0
aI1
aI0
aI0
aI0
aI9
aI6
asS'parej002'
p317
(lp318
g317
aS'Jimmy Paredes'
p319
aI65
aI63
aI12
aI18
aI4
aI0
aI2
aI8
aI4
aI0
aI2
aI16
aI28
asS'lambj001'
p320
(lp321
g320
aS'Jake Lamb'
p322
aI133
aI126
aI15
aI29
aI4
aI1
aI4
aI11
aI1
aI1
aI6
aI37
aI47
asS'butlj002'
p323
(lp324
g323
aS'Joey Butler'
p325
aI6
aI5
aI0
aI0
aI0
aI0
aI0
aI0
aI0
aI0
aI1
aI3
aI0
asS'hamib001'
p326
(lp327
g326
aS'Billy Hamilton'
p328
aI611
aI563
aI72
aI141
aI25
aI8
aI6
aI48
aI56
aI23
aI34
aI117
aI200
asS'quino001'
p329
(lp330
g329
aS'Omar Quintanilla'
p331
aI31
aI29
aI2
aI6
aI1
aI0
aI0
aI3
aI0
aI0
aI2
aI5
aI7
asS'mchuc001'
p332
(lp333
g332
aS'Collin McHugh'
p334
aI3
aI2
aI0
aI0
aI0
aI0
aI0
aI0
aI0
aI0
aI0
aI0
aI0
asS'nelsj004'
p335
(lp336
g335
aS'Jimmy Nelson'
p337
aI22
aI21
aI1
aI3
aI1
aI0
aI0
aI0
aI0
aI0
aI0
aI7
aI4
asS'carpm001'
p338
(lp339
g338
aS'Mike Carp'
p340
aI149
aI126
aI11
aI22
aI5
aI1
aI0
aI13
aI0
aI1
aI16
aI31
aI29
asS'jimec002'
p341
(lp342
g341
aS'Cesar Jimenez'
p343
aI1
aI1
aI0
aI0
aI0
aI0
aI0
aI0
aI0
aI0
aI0
aI1
aI0
asS'carpm002'
p344
(lp345
g344
aS'Matt Carpenter'
p346
aI709
aI595
aI99
aI162
aI33
aI2
aI8
aI59
aI5
aI3
aI95
aI111
aI223
asS'handb001'
p347
(lp348
g347
aS'Brad Hand'
p349
aI31
aI27
aI0
aI1
aI0
aI0
aI0
aI1
aI0
aI0
aI0
aI7
aI1
asS'mcfat001'
p350
(lp351
g350
aS'T.J. McFarland'
p352
aI1
aI0
aI0
aI0
aI0
aI0
aI0
aI0
aI0
aI0
aI0
aI0
aI0
asS'keucd001'
p353
(lp354
g353
aS'Dallas Keuchel'
p355
aI4
aI3
aI1
aI0
aI0
aI0
aI0
aI0
aI0
aI0
aI1
aI2
aI0
asS'chisl001'
p356
(lp357
g356
aS'Lonnie Chisenhall'
p358
aI533
aI478
aI62
aI134
aI29
aI1
aI13
aI59
aI3
aI1
aI39
aI99
aI204
asS'buchj001'
p359
(lp360
g359
aS'Jake Buchanan'
p361
aI1
aI1
aI0
aI0
aI0
aI0
aI0
aI0
aI0
aI0
aI0
aI0
aI0
asS'robeb003'
p362
(lp363
g362
aS'Brian Roberts'
p364
aI348
aI317
aI40
aI75
aI16
aI4
aI5
aI21
aI7
aI4
aI28
aI53
aI114
asS'howar001'
p365
(lp366
g365
aS'Ryan Howard'
p367
aI648
aI569
aI65
aI127
aI18
aI1
aI23
aI95
aI0
aI0
aI67
aI190
aI216
asS'falui001'
p368
(lp369
g368
aS'Irving Falu'
p370
aI35
aI30
aI0
aI3
aI0
aI0
aI0
aI1
aI1
aI0
aI4
aI5
aI3
asS'smits002'
p371
(lp372
g371
aS'Seth Smith'
p373
aI521
aI443
aI55
aI118
aI31
aI5
aI12
aI48
aI1
aI1
aI69
aI87
aI195
asS'hilla001'
p374
(lp375
g374
aS'Aaron Hill'
p376
aI541
aI501
aI52
aI122
aI26
aI3
aI10
aI60
aI4
aI3
aI28
aI92
aI184
asS'castr004'
p377
(lp378
g377
aS'Rusney Castillo'
p379
aI40
aI36
aI6
aI12
aI1
aI0
aI2
aI6
aI3
aI0
aI3
aI6
aI19
asS'fierm001'
p380
(lp381
g380
aS'Michael Fiers'
p382
aI26
aI19
aI0
aI1
aI0
aI0
aI0
aI0
aI0
aI0
aI0
aI11
aI1
asS'mauej001'
p383
(lp384
g383
aS'Joe Mauer'
p385
aI518
aI455
aI60
aI126
aI27
aI2
aI4
aI55
aI3
aI0
aI60
aI96
aI169
asS'sogae001'
p386
(lp387
g386
aS'Eric Sogard'
p388
aI329
aI291
aI38
aI65
aI10
aI0
aI1
aI22
aI11
aI4
aI31
aI37
aI78
asS'simoa001'
p389
(lp390
g389
aS'Alfredo Simon'
p391
aI67
aI59
aI2
aI7
aI3
aI0
aI0
aI2
aI0
aI0
aI1
aI21
aI10
asS'nolar001'
p392
(lp393
g392
aS'Ricky Nolasco'
p394
aI2
aI2
aI0
aI0
aI0
aI0
aI0
aI0
aI0
aI0
aI0
aI2
aI0
asS'garcg002'
p395
(lp396
g395
aS'Greg Garcia'
p397
aI18
aI14
aI2
aI2
aI1
aI0
aI0
aI1
aI0
aI0
aI1
aI6
aI3
asS'pachj001'
p398
(lp399
g398
aS'Jordan Pacheco'
p400
aI165
aI153
aI10
aI39
aI10
aI1
aI0
aI16
aI0
aI0
aI9
aI27
aI51
asS'jackb002'
p401
(lp402
g401
aS'Brett Jackson'
p403
aI5
aI4
aI0
aI0
aI0
aI0
aI0
aI0
aI0
aI0
aI1
aI1
aI0
asS'hoesl001'
p404
(lp405
g404
aS'L.J. Hoes'
p406
aI136
aI122
aI12
aI21
aI5
aI0
aI3
aI11
aI0
aI0
aI10
aI31
aI35
asS'mckem001'
p407
(lp408
g407
aS'Michael McKenry'
p409
aI192
aI168
aI23
aI53
aI9
aI0
aI8
aI22
aI0
aI3
aI22
aI42
aI86
asS'fowld001'
p410
(lp411
g410
aS'Dexter Fowler'
p412
aI505
aI434
aI61
aI120
aI21
aI4
aI8
aI35
aI11
aI4
aI66
aI108
aI173
asS'rivec002'
p413
(lp414
g413
aS'Carlos Rivero'
p415
aI8
aI7
aI1
aI4
aI2
aI0
aI1
aI3
aI0
aI0
aI1
aI0
aI9
asS'cahit001'
p416
(lp417
g416
aS'Trevor Cahill'
p418
aI29
aI24
aI0
aI2
aI1
aI0
aI0
aI0
aI0
aI0
aI1
aI5
aI3
asS'solad001'
p419
(lp420
g419
aS'Donovan Solano'
p421
aI340
aI310
aI26
aI78
aI11
aI1
aI3
aI28
aI1
aI2
aI19
aI61
aI100
asS'bauet001'
p422
(lp423
g422
aS'Trevor Bauer'
p424
aI2
aI2
aI0
aI0
aI0
aI0
aI0
aI0
aI0
aI0
aI0
aI2
aI0
asS'pastt001'
p425
(lp426
g425
aS'Tyler Pastornicky'
p427
aI47
aI40
aI4
aI8
aI0
aI1
aI0
aI2
aI0
aI1
aI6
aI11
aI10
asS'arenj001'
p428
(lp429
g428
aS'J.P. Arencibia'
p430
aI222
aI203
aI20
aI36
aI9
aI0
aI10
aI35
aI0
aI0
aI10
aI62
aI75
asS'goret001'
p431
(lp432
g431
aS'Terrance Gore'
p433
aI2
aI1
aI5
aI0
aI0
aI0
aI0
aI0
aI5
aI0
aI0
aI0
aI0
asS'richg002'
p434
(lp435
g434
aS'Garrett Richards'
p436
aI11
aI11
aI0
aI0
aI0
aI0
aI0
aI0
aI0
aI0
aI0
aI4
aI0
asS'blank002'
p437
(lp438
g437
aS'Kyle Blanks'
p439
aI66
aI55
aI10
aI17
aI1
aI0
aI2
aI7
aI0
aI0
aI8
aI16
aI24
asS'rossr002'
p440
(lp441
g440
aS'Robbie Ross'
p442
aI2
aI1
aI0
aI0
aI0
aI0
aI0
aI0
aI0
aI0
aI1
aI0
aI0
asS'napom001'
p443
(lp444
g443
aS'Mike Napoli'
p445
aI500
aI415
aI49
aI103
aI20
aI0
aI17
aI55
aI3
aI2
aI78
aI133
aI174
asS'schlb001'
p446
(lp447
g446
aS'Brian Schlitter'
p448
aI1
aI1
aI0
aI1
aI0
aI0
aI0
aI0
aI0
aI0
aI0
aI0
aI1
asS'ynoar001'
p449
(lp450
g449
aS'Rafael Ynoa'
p451
aI71
aI67
aI5
aI23
aI6
aI1
aI0
aI13
aI0
aI0
aI4
aI9
aI31
asS'kouzk001'
p452
(lp453
g452
aS'Kevin Kouzmanoff'
p454
aI51
aI47
aI8
aI17
aI6
aI0
aI2
aI10
aI0
aI0
aI2
aI7
aI29
asS'browa003'
p455
(lp456
g455
aS'Andrew Brown'
p457
aI49
aI44
aI6
aI8
aI1
aI0
aI2
aI7
aI0
aI0
aI3
aI15
aI15
asS'leakm001'
p458
(lp459
g458
aS'Mike Leake'
p460
aI74
aI68
aI9
aI12
aI5
aI0
aI2
aI5
aI0
aI0
aI0
aI34
aI23
asS'petej002'
p461
(lp462
g461
aS'Jace Peterson'
p463
aI58
aI53
aI3
aI6
aI0
aI0
aI0
aI0
aI2
aI0
aI2
aI18
aI6
asS'maldm001'
p464
(lp465
g464
aS'Martin Maldonado'
p466
aI126
aI111
aI14
aI26
aI5
aI0
aI4
aI16
aI0
aI0
aI11
aI32
aI43
asS'rossc001'
p467
(lp468
g467
aS'Cody Ross'
p469
aI219
aI202
aI15
aI51
aI8
aI0
aI2
aI15
aI0
aI0
aI15
aI44
aI65
asS'lombs002'
p470
(lp471
g470
aS'Steve Lombardozzi'
p472
aI74
aI73
aI6
aI21
aI1
aI1
aI0
aI2
aI1
aI0
aI0
aI14
aI24
asS'sanct001'
p473
(lp474
g473
aS'Tony Sanchez'
p475
aI80
aI75
aI3
aI20
aI1
aI0
aI2
aI13
aI0
aI0
aI3
aI28
aI27
asS'lastt001'
p476
(lp477
g476
aS'Tommy La Stella'
p478
aI360
aI319
aI22
aI80
aI16
aI1
aI1
aI31
aI2
aI1
aI36
aI40
aI101
asS'kinsi001'
p479
(lp480
g479
aS'Ian Kinsler'
p481
aI726
aI684
aI100
aI188
aI40
aI4
aI17
aI92
aI15
aI4
aI29
aI79
aI287
asS'walkc002'
p482
(lp483
g482
aS'Christian Walker'
p484
aI19
aI18
aI1
aI3
aI1
aI0
aI1
aI1
aI0
aI0
aI1
aI9
aI7
asS'donaj001'
p485
(lp486
g485
aS'Josh Donaldson'
p487
aI695
aI608
aI93
aI155
aI31
aI2
aI29
aI98
aI8
aI0
aI76
aI130
aI277
asS'belnv001'
p488
(lp489
g488
aS'Vince Belnome'
p490
aI14
aI10
aI1
aI1
aI1
aI0
aI0
aI1
aI0
aI0
aI3
aI3
aI2
asS'uptob001'
p491
(lp492
g491
aS'B.J. Upton'
p493
aI582
aI519
aI67
aI108
aI19
aI5
aI12
aI35
aI20
aI7
aI57
aI173
aI173
asS'barnb002'
p494
(lp495
g494
aS'Brandon Barnes'
p496
aI313
aI292
aI37
aI75
aI17
aI4
aI8
aI27
aI5
aI4
aI15
aI100
aI124
asS'olt-m001'
p497
(lp498
g497
aS'Mike Olt'
p499
aI258
aI225
aI23
aI36
aI8
aI0
aI12
aI33
aI0
aI1
aI25
aI100
aI80
asS'pillk001'
p500
(lp501
g500
aS'Kevin Pillar'
p502
aI122
aI116
aI19
aI31
aI9
aI0
aI2
aI7
aI1
aI2
aI4
aI28
aI46
asS'whitc001'
p503
(lp504
g503
aS'Chase Whitley'
p505
aI5
aI5
aI0
aI1
aI0
aI0
aI0
aI0
aI0
aI0
aI0
aI0
aI1
asS'weekj001'
p506
(lp507
g506
aS'Jemile Weeks'
p508
aI45
aI37
aI8
aI11
aI3
aI1
aI0
aI3
aI2
aI0
aI4
aI2
aI16
asS'hughj001'
p509
(lp510
g509
aS'Jared Hughes'
p511
aI2
aI2
aI0
aI0
aI0
aI0
aI0
aI0
aI0
aI0
aI0
aI1
aI0
asS'chafa001'
p512
(lp513
g512
aS'Andrew Chafin'
p514
aI2
aI2
aI0
aI1
aI0
aI0
aI0
aI1
aI0
aI0
aI0
aI1
aI1
asS'machj002'
p515
(lp516
g515
aS'Jean Machi'
p517
aI2
aI1
aI0
aI0
aI0
aI0
aI0
aI0
aI0
aI0
aI0
aI0
aI0
asS'hardj003'
p518
(lp519
g518
aS'J.J. Hardy'
p520
aI569
aI529
aI56
aI142
aI28
aI0
aI9
aI52
aI0
aI0
aI29
aI104
aI197
asS'forsl001'
p521
(lp522
g521
aS'Logan Forsythe'
p523
aI336
aI301
aI32
aI67
aI12
aI1
aI6
aI26
aI2
aI0
aI25
aI71
aI99
asS'cruzt002'
p524
(lp525
g524
aS'Tony Cruz'
p526
aI150
aI135
aI11
aI27
aI5
aI0
aI1
aI17
aI0
aI3
aI13
aI28
aI35
asS'valac001'
p527
(lp528
g527
aS'Chris Valaika'
p529
aI131
aI121
aI10
aI28
aI4
aI0
aI3
aI13
aI1
aI0
aI7
aI35
aI41
asS'reveb001'
p530
(lp531
g530
aS'Ben Revere'
p532
aI626
aI601
aI71
aI184
aI13
aI7
aI2
aI28
aI49
aI8
aI13
aI49
aI217
asS'martj006'
p533
(lp534
g533
aS'J.D. Martinez'
p535
aI480
aI441
aI57
aI139
aI30
aI3
aI23
aI76
aI6
aI3
aI30
aI126
aI244
asS'waina001'
p536
(lp537
g536
aS'Adam Wainwright'
p538
aI82
aI72
aI4
aI13
aI3
aI0
aI0
aI6
aI0
aI0
aI3
aI22
aI16
asS'harpb003'
p539
(lp540
g539
aS'Bryce Harper'
p541
aI395
aI352
aI41
aI96
aI10
aI2
aI13
aI32
aI2
aI2
aI38
aI104
aI149
asS'pagaa001'
p542
(lp543
g542
aS'Angel Pagan'
p544
aI413
aI383
aI56
aI115
aI21
aI2
aI3
aI27
aI16
aI6
aI25
aI53
aI149
asS'kendk001'
p545
(lp546
g545
aS'Kyle Kendrick'
p547
aI71
aI66
aI2
aI9
aI1
aI0
aI0
aI1
aI0
aI0
aI1
aI31
aI10
asS'mortc002'
p548
(lp549
g548
aS'Charlie Morton'
p550
aI49
aI40
aI1
aI2
aI0
aI0
aI0
aI1
aI0
aI0
aI1
aI21
aI2
asS'trumm001'
p551
(lp552
g551
aS'Mark Trumbo'
p553
aI362
aI328
aI37
aI77
aI15
aI1
aI14
aI61
aI2
aI3
aI28
aI89
aI136
asS'sotog001'
p554
(lp555
g554
aS'Geovany Soto'
p556
aI87
aI80
aI8
aI20
aI6
aI0
aI1
aI11
aI0
aI0
aI6
aI19
aI29
asS'suzuk001'
p557
(lp558
g557
aS'Kurt Suzuki'
p559
aI503
aI452
aI37
aI130
aI34
aI0
aI3
aI61
aI0
aI1
aI34
aI46
aI173
asS'hahnj001'
p560
(lp561
g560
aS'Jesse Hahn'
p562
aI24
aI22
aI1
aI2
aI0
aI0
aI0
aI1
aI0
aI0
aI0
aI12
aI2
asS'redmt002'
p563
(lp564
g563
aS'Todd Redmond'
p565
aI2
aI1
aI0
aI0
aI0
aI0
aI0
aI0
aI0
aI0
aI0
aI0
aI0
asS'mossb001'
p566
(lp567
g566
aS'Brandon Moss'
p568
aI580
aI500
aI70
aI117
aI23
aI2
aI25
aI81
aI1
aI0
aI67
aI153
aI219
asS'dietd001'
p569
(lp570
g569
aS'Derek Dietrich'
p571
aI183
aI158
aI31
aI36
aI6
aI2
aI5
aI17
aI1
aI0
aI13
aI38
aI61
asS'ackld001'
p572
(lp573
g572
aS'Dustin Ackley'
p574
aI542
aI502
aI63
aI123
aI27
aI4
aI14
aI65
aI8
aI4
aI32
aI90
aI200
asS'delae002'
p575
(lp576
g575
aS'Eury de la Rosa'
p577
aI3
aI2
aI0
aI0
aI0
aI0
aI0
aI0
aI0
aI0
aI0
aI2
aI0
asS'phamt001'
p578
(lp579
g578
aS'Tommy Pham'
p580
aI2
aI2
aI0
aI0
aI0
aI0
aI0
aI0
aI0
aI0
aI0
aI2
aI0
asS'mastj001'
p581
(lp582
g581
aS'Justin Masterson'
p583
aI13
aI11
aI1
aI2
aI0
aI0
aI0
aI1
aI0
aI0
aI0
aI4
aI2
asS'genns001'
p584
(lp585
g584
aS'Scooter Gennett'
p586
aI474
aI440
aI55
aI127
aI31
aI3
aI9
aI54
aI6
aI3
aI22
aI67
aI191
asS'pears001'
p587
(lp588
g587
aS'Steve Pearce'
p589
aI383
aI338
aI51
aI99
aI26
aI0
aI21
aI49
aI5
aI0
aI40
aI76
aI188
asS'stubd001'
p590
(lp591
g590
aS'Drew Stubbs'
p592
aI424
aI388
aI67
aI112
aI22
aI4
aI15
aI43
aI20
aI3
aI30
aI136
aI187
asS'gossp001'
p593
(lp594
g593
aS'Philip Gosselin'
p595
aI136
aI128
aI17
aI34
aI4
aI0
aI1
aI3
aI2
aI2
aI5
aI27
aI41
asS'morrb002'
p596
(lp597
g596
aS'Bryan Morris'
p598
aI1
aI1
aI0
aI0
aI0
aI0
aI0
aI0
aI0
aI0
aI0
aI1
aI0
asS'morrb001'
p599
(lp600
g599
aS'Brandon Morrow'
p601
aI2
aI2
aI0
aI0
aI0
aI0
aI0
aI0
aI0
aI0
aI0
aI2
aI0
asS'andeb004'
p602
(lp603
g602
aS'Brett Anderson'
p604
aI15
aI14
aI0
aI2
aI2
aI0
aI0
aI1
aI0
aI0
aI0
aI7
aI4
asS'andeb005'
p605
(lp606
g605
aS'Bryan Anderson'
p607
aI1
aI1
aI0
aI0
aI0
aI0
aI0
aI0
aI0
aI0
aI0
aI0
aI0
asS'rober002'
p608
(lp609
g608
aS'Ryan Roberts'
p610
aI22
aI19
aI1
aI2
aI0
aI0
aI0
aI0
aI0
aI0
aI3
aI7
aI2
asS'browb005'
p611
(lp612
g611
aS'Brooks Brown'
p613
aI1
aI1
aI0
aI0
aI0
aI0
aI0
aI0
aI0
aI0
aI0
aI1
aI0
asS'santh001'
p614
(lp615
g614
aS'Hector Santiago'
p616
aI5
aI4
aI0
aI1
aI0
aI0
aI0
aI0
aI0
aI0
aI0
aI1
aI1
asS'ishit001'
p617
(lp618
g617
aS'Travis Ishikawa'
p619
aI119
aI107
aI9
aI27
aI4
aI1
aI3
aI18
aI0
aI0
aI9
aI34
aI42
asS'marts002'
p620
(lp621
g620
aS'Starling Marte'
p622
aI545
aI495
aI72
aI144
aI29
aI6
aI13
aI56
aI30
aI11
aI33
aI131
aI224
asS'semim001'
p623
(lp624
g623
aS'Marcus Semien'
p625
aI255
aI231
aI30
aI54
aI10
aI2
aI6
aI28
aI3
aI0
aI21
aI70
aI86
asS'green002'
p626
(lp627
g626
aS'Nick Greenwood'
p628
aI6
aI5
aI0
aI0
aI0
aI0
aI0
aI0
aI0
aI0
aI0
aI0
aI0
asS'mccab002'
p629
(lp630
g629
aS'Brian McCann'
p631
aI538
aI495
aI57
aI115
aI15
aI1
aI23
aI75
aI0
aI0
aI32
aI77
aI201
asS'kelld001'
p632
(lp633
g632
aS'Don Kelly'
p634
aI185
aI163
aI24
aI40
aI5
aI1
aI0
aI7
aI6
aI1
aI20
aI29
aI47
asS'mccab001'
p635
(lp636
g635
aS'Brandon McCarthy'
p637
aI32
aI29
aI0
aI4
aI0
aI0
aI0
aI3
aI0
aI0
aI0
aI11
aI4
asS'davik003'
p638
(lp639
g638
aS'Khris Davis'
p640
aI549
aI501
aI70
aI122
aI37
aI2
aI22
aI69
aI4
aI1
aI32
aI122
aI229
asS'rizza001'
p641
(lp642
g641
aS'Anthony Rizzo'
p643
aI616
aI524
aI89
aI150
aI28
aI1
aI32
aI78
aI5
aI4
aI73
aI116
aI276
asS'barnt001'
p644
(lp645
g644
aS'Tucker Barnhart'
p646
aI60
aI54
aI3
aI10
aI0
aI0
aI1
aI1
aI0
aI0
aI4
aI10
aI13
asS'milew001'
p647
(lp648
g647
aS'Wade Miley'
p649
aI69
aI57
aI3
aI9
aI0
aI0
aI0
aI1
aI0
aI0
aI3
aI14
aI9
asS'szczm001'
p650
(lp651
g650
aS'Matt Szczur'
p652
aI66
aI62
aI6
aI14
aI2
aI0
aI2
aI5
aI0
aI0
aI4
aI11
aI22
asS'terdj001'
p653
(lp654
g653
aS'Joey Terdoslavich'
p655
aI11
aI10
aI1
aI3
aI2
aI0
aI0
aI2
aI0
aI0
aI0
aI3
aI5
asS'martc006'
p656
(lp657
g656
aS'Carlos Martinez'
p658
aI13
aI12
aI0
aI3
aI0
aI0
aI0
aI2
aI0
aI0
aI0
aI4
aI3
asS'erlir001'
p659
(lp660
g659
aS'Robbie Erlin'
p661
aI19
aI18
aI0
aI2
aI0
aI0
aI0
aI1
aI0
aI0
aI1
aI6
aI2
asS'goinr001'
p662
(lp663
g662
aS'Ryan Goins'
p664
aI193
aI181
aI14
aI34
aI6
aI3
aI1
aI15
aI0
aI1
aI5
aI42
aI49
asS'chirr001'
p665
(lp666
g665
aS'Robinson Chirinos'
p667
aI338
aI306
aI36
aI73
aI15
aI0
aI13
aI40
aI0
aI1
aI17
aI71
aI127
asS'cabra002'
p668
(lp669
g668
aS'Asdrubal Cabrera'
p670
aI616
aI553
aI74
aI133
aI31
aI4
aI14
aI61
aI10
aI2
aI49
aI108
aI214
asS'mcdoj003'
p671
(lp672
g671
aS'John McDonald'
p673
aI91
aI76
aI4
aI13
aI2
aI0
aI0
aI5
aI1
aI1
aI7
aI18
aI15
asS'moreb001'
p674
(lp675
g674
aS'Brent Morel'
p676
aI41
aI39
aI1
aI7
aI2
aI0
aI0
aI4
aI0
aI0
aI2
aI9
aI9
asS'mousm001'
p677
(lp678
g677
aS'Mike Moustakas'
p679
aI500
aI457
aI44
aI97
aI21
aI1
aI15
aI54
aI1
aI0
aI35
aI74
aI165
asS'simma001'
p680
(lp681
g680
aS'Andrelton Simmons'
p682
aI576
aI540
aI44
aI132
aI18
aI4
aI7
aI46
aI4
aI5
aI32
aI60
aI179
asS'realj001'
p683
(lp684
g683
aS'J.T. Realmuto'
p685
aI30
aI29
aI4
aI7
aI1
aI1
aI0
aI9
aI0
aI0
aI1
aI8
aI10
asS'schin001'
p686
(lp687
g686
aS'Nate Schierholtz'
p688
aI383
aI353
aI32
aI69
aI11
aI4
aI7
aI37
aI4
aI5
aI20
aI84
aI109
asS'buckj001'
p689
(lp690
g689
aS'John Buck'
p691
aI97
aI89
aI9
aI20
aI2
aI0
aI1
aI6
aI0
aI0
aI8
aI26
aI25
asS'cronc002'
p692
(lp693
g692
aS'C.J. Cron'
p694
aI253
aI242
aI28
aI62
aI12
aI1
aI11
aI37
aI0
aI0
aI10
aI61
aI109
asS'harrj002'
p695
(lp696
g695
aS'Josh Harrison'
p697
aI550
aI520
aI77
aI164
aI38
aI7
aI13
aI52
aI18
aI7
aI22
aI81
aI255
asS'gatte001'
p698
(lp699
g698
aS'Evan Gattis'
p700
aI401
aI369
aI41
aI97
aI17
aI1
aI22
aI52
aI0
aI0
aI22
aI97
aI182
asS'browg001'
p701
(lp702
g701
aS'Gary Brown'
p703
aI7
aI7
aI1
aI3
aI0
aI0
aI0
aI1
aI0
aI0
aI0
aI0
aI3
asS'rosaa001'
p704
(lp705
g704
aS'Adam Rosales'
p706
aI181
aI164
aI20
aI43
aI7
aI0
aI4
aI19
aI4
aI2
aI13
aI42
aI62
asS'olivm001'
p707
(lp708
g707
aS'Miguel Olivo'
p709
aI25
aI23
aI4
aI5
aI0
aI1
aI0
aI2
aI0
aI0
aI1
aI12
aI7
asS'sizes001'
p710
(lp711
g710
aS'Scott Sizemore'
p712
aI16
aI16
aI3
aI5
aI2
aI0
aI0
aI4
aI0
aI0
aI0
aI8
aI7
asS'rodrs002'
p713
(lp714
g713
aS'Sean Rodriguez'
p715
aI259
aI237
aI30
aI50
aI13
aI3
aI12
aI41
aI2
aI1
aI10
aI66
aI105
asS'krate001'
p716
(lp717
g716
aS'Erik Kratz'
p718
aI115
aI110
aI12
aI24
aI4
aI0
aI5
aI13
aI0
aI0
aI4
aI22
aI43
asS'slowk001'
p719
(lp720
g719
aS'Kevin Slowey'
p721
aI5
aI5
aI0
aI0
aI0
aI0
aI0
aI0
aI0
aI0
aI0
aI2
aI0
asS'ondrl001'
p722
(lp723
g722
aS'Logan Ondrusek'
p724
aI3
aI3
aI0
aI0
aI0
aI0
aI0
aI0
aI0
aI0
aI0
aI3
aI0
asS'holtt001'
p725
(lp726
g725
aS'Tyler Holt'
p727
aI76
aI71
aI4
aI19
aI2
aI0
aI0
aI2
aI2
aI2
aI3
aI25
aI21
asS'sucrj001'
p728
(lp729
g728
aS'Jesus Sucre'
p730
aI64
aI61
aI4
aI13
aI2
aI0
aI0
aI5
aI0
aI0
aI0
aI17
aI15
asS'holab001'
p731
(lp732
g731
aS'Bryan Holaday'
p733
aI171
aI156
aI14
aI36
aI5
aI1
aI0
aI15
aI1
aI1
aI8
aI37
aI43
asS'escoa003'
p734
(lp735
g734
aS'Alcides Escobar'
p736
aI620
aI579
aI74
aI165
aI34
aI5
aI3
aI50
aI31
aI6
aI23
aI83
aI218
asS'suare001'
p737
(lp738
g737
aS'Eugenio Suarez'
p739
aI277
aI244
aI33
aI59
aI9
aI1
aI4
aI23
aI3
aI2
aI22
aI67
aI82
asS'nieta001'
p740
(lp741
g740
aS'Adrian Nieto'
p742
aI118
aI106
aI8
aI25
aI5
aI0
aI2
aI7
aI0
aI1
aI8
aI38
aI36
asS'davic003'
p743
(lp744
g743
aS'Chris Davis'
p745
aI525
aI450
aI65
aI88
aI16
aI0
aI26
aI72
aI2
aI1
aI60
aI173
aI182
asS'arrij001'
p746
(lp747
g746
aS'Jake Arrieta'
p748
aI47
aI39
aI3
aI7
aI2
aI1
aI0
aI3
aI0
aI0
aI2
aI16
aI11
asS'rua-r001'
p749
(lp750
g749
aS'Ryan Rua'
p751
aI109
aI105
aI11
aI31
aI7
aI0
aI2
aI14
aI1
aI0
aI2
aI18
aI44
asS'collj001'
p752
(lp753
g752
aS'Josh Collmenter'
p754
aI58
aI54
aI2
aI6
aI2
aI0
aI0
aI2
aI0
aI0
aI3
aI15
aI8
asS'contc001'
p755
(lp756
g755
aS'Carlos Contreras'
p757
aI1
aI1
aI0
aI0
aI0
aI0
aI0
aI0
aI0
aI0
aI0
aI1
aI0
asS'tillc001'
p758
(lp759
g758
aS'Chris Tillman'
p760
aI5
aI4
aI1
aI0
aI0
aI0
aI0
aI0
aI0
aI0
aI0
aI2
aI0
asS'penac001'
p761
(lp762
g761
aS'Carlos Pena'
p763
aI63
aI59
aI4
aI8
aI3
aI0
aI1
aI2
aI1
aI0
aI4
aI11
aI14
asS'degrj001'
p764
(lp765
g764
aS'Jacob deGrom'
p766
aI53
aI46
aI3
aI10
aI2
aI0
aI0
aI2
aI0
aI0
aI1
aI13
aI12
asS'giavj001'
p767
(lp768
g767
aS'Johnny Giavotella'
p769
aI41
aI37
aI8
aI8
aI1
aI0
aI1
aI5
aI0
aI1
aI1
aI5
aI12
asS'calhk001'
p770
(lp771
g770
aS'Kole Calhoun'
p772
aI537
aI493
aI89
aI134
aI31
aI3
aI17
aI58
aI5
aI3
aI38
aI104
aI222
asS'cartc002'
p773
(lp774
g773
aS'Chris Carter'
p775
aI572
aI507
aI68
aI115
aI21
aI1
aI37
aI88
aI5
aI2
aI56
aI182
aI249
asS'parkk001'
p776
(lp777
g776
aS'Kyle Parker'
p778
aI26
aI26
aI1
aI5
aI1
aI0
aI0
aI1
aI0
aI0
aI0
aI14
aI6
asS'herrd002'
p779
(lp780
g779
aS'Dilson Herrera'
p781
aI66
aI59
aI6
aI13
aI0
aI1
aI3
aI11
aI0
aI0
aI7
aI17
aI24
asS'gomeh001'
p782
(lp783
g782
aS'Hector Gomez'
p784
aI21
aI20
aI2
aI3
aI1
aI0
aI0
aI1
aI0
aI0
aI1
aI9
aI4
asS'dysos001'
p785
(lp786
g785
aS'Sam Dyson'
p787
aI1
aI1
aI0
aI0
aI0
aI0
aI0
aI0
aI0
aI0
aI0
aI0
aI0
asS'yelic001'
p788
(lp789
g788
aS'Christian Yelich'
p790
aI660
aI582
aI93
aI165
aI30
aI6
aI9
aI54
aI21
aI7
aI70
aI137
aI234
asS'valbl001'
p791
(lp792
g791
aS'Luis Valbuena'
p793
aI547
aI478
aI68
aI119
aI33
aI4
aI16
aI51
aI1
aI2
aI65
aI113
aI208
asS'vanss001'
p794
(lp795
g794
aS'Scott Van Slyke'
p796
aI246
aI212
aI32
aI63
aI13
aI1
aI11
aI29
aI4
aI2
aI28
aI71
aI111
asS'tehej001'
p797
(lp798
g797
aS'Julio Teheran'
p799
aI76
aI66
aI1
aI7
aI1
aI0
aI0
aI6
aI0
aI0
aI1
aI21
aI8
asS'nunov001'
p800
(lp801
g800
aS'Vidal Nuno'
p802
aI25
aI18
aI2
aI1
aI0
aI0
aI0
aI0
aI0
aI0
aI0
aI8
aI1
asS'bolsm001'
p803
(lp804
g803
aS'Mike Bolsinger'
p805
aI20
aI19
aI1
aI2
aI0
aI0
aI0
aI1
aI0
aI0
aI0
aI7
aI2
asS'saltj001'
p806
(lp807
g806
aS'Jarrod Saltalamacchia'
p808
aI435
aI373
aI43
aI82
aI20
aI0
aI11
aI44
aI0
aI1
aI55
aI143
aI135
asS'russj003'
p809
(lp810
g809
aS'James Russell'
p811
aI2
aI2
aI0
aI0
aI0
aI0
aI0
aI0
aI0
aI0
aI0
aI0
aI0
asS'soria001'
p812
(lp813
g812
aS'Alfonso Soriano'
p814
aI238
aI226
aI22
aI50
aI15
aI0
aI6
aI23
aI1
aI0
aI6
aI71
aI83
asS'wheez001'
p815
(lp816
g815
aS'Zack Wheeler'
p817
aI63
aI50
aI1
aI4
aI1
aI0
aI0
aI3
aI0
aI0
aI1
aI24
aI5
asS'wheez002'
p818
(lp819
g818
aS'Zelous Wheeler'
p820
aI62
aI57
aI6
aI11
aI0
aI0
aI2
aI5
aI0
aI0
aI2
aI12
aI17
asS'taylm001'
p821
(lp822
g821
aS'Michael Taylor'
p823
aI33
aI28
aI3
aI7
aI1
aI0
aI0
aI0
aI0
aI0
aI5
aI9
aI8
asS'choos001'
p824
(lp825
g824
aS'Shin-Soo Choo'
p826
aI529
aI455
aI58
aI110
aI19
aI1
aI13
aI40
aI3
aI4
aI58
aI131
aI170
asS'moraf001'
p827
(lp828
g827
aS'Franklin Morales'
p829
aI39
aI30
aI2
aI3
aI0
aI0
aI0
aI0
aI0
aI0
aI3
aI15
aI3
asS'solia001'
p830
(lp831
g830
aS'Ali Solis'
p832
aI7
aI6
aI0
aI0
aI0
aI0
aI0
aI1
aI0
aI0
aI0
aI4
aI0
asS'pereh001'
p833
(lp834
g833
aS'Hernan Perez'
p835
aI6
aI5
aI1
aI1
aI0
aI0
aI0
aI0
aI0
aI0
aI1
aI1
aI1
asS'davii001'
p836
(lp837
g836
aS'Ike Davis'
p838
aI427
aI360
aI43
aI84
aI19
aI0
aI11
aI51
aI0
aI4
aI63
aI78
aI136
asS'gibsk002'
p839
(lp840
g839
aS'Kyle Gibson'
p841
aI4
aI4
aI0
aI1
aI0
aI0
aI0
aI0
aI0
aI0
aI0
aI2
aI1
asS'hassa002'
p842
(lp843
g842
aS'Alex Hassan'
p844
aI9
aI8
aI1
aI1
aI0
aI0
aI0
aI0
aI0
aI0
aI1
aI5
aI1
asS'kahnt001'
p845
(lp846
g845
aS'Tommy Kahnle'
p847
aI4
aI3
aI0
aI0
aI0
aI0
aI0
aI0
aI0
aI0
aI0
aI1
aI0
asS'duvaa001'
p848
(lp849
g848
aS'Adam Duvall'
p850
aI77
aI73
aI8
aI14
aI2
aI0
aI3
aI5
aI0
aI0
aI3
aI20
aI25
asS'negrk001'
p851
(lp852
g851
aS'Kristopher Negron'
p853
aI158
aI144
aI19
aI39
aI10
aI1
aI6
aI17
aI5
aI0
aI12
aI40
aI69
asS'millb001'
p854
(lp855
g854
aS'Brad Mills'
p856
aI3
aI3
aI0
aI0
aI0
aI0
aI0
aI0
aI0
aI0
aI0
aI1
aI0
asS'millb002'
p857
(lp858
g857
aS'Brad Miller'
p859
aI411
aI367
aI47
aI81
aI15
aI4
aI10
aI36
aI4
aI2
aI34
aI95
aI134
asS'sabac001'
p860
(lp861
g860
aS'CC Sabathia'
p862
aI2
aI2
aI0
aI0
aI0
aI0
aI0
aI0
aI0
aI0
aI0
aI0
aI0
asS'triuc001'
p863
(lp864
g863
aS'Carlos Triunfel'
p865
aI16
aI15
aI3
aI2
aI0
aI0
aI1
aI1
aI0
aI0
aI1
aI5
aI5
asS'swisn001'
p866
(lp867
g866
aS'Nick Swisher'
p868
aI401
aI360
aI33
aI75
aI20
aI0
aI8
aI42
aI0
aI0
aI36
aI111
aI119
asS'boesb001'
p869
(lp870
g869
aS'Brennan Boesch'
p871
aI79
aI75
aI6
aI14
aI2
aI0
aI2
aI7
aI3
aI0
aI2
aI19
aI22
asS'lucrj001'
p872
(lp873
g872
aS'Jonathan Lucroy'
p874
aI655
aI585
aI73
aI176
aI53
aI2
aI13
aI69
aI4
aI4
aI66
aI71
aI272
asS'rosst001'
p875
(lp876
g875
aS'Tyson Ross'
p877
aI63
aI56
aI6
aI10
aI1
aI0
aI0
aI3
aI0
aI0
aI3
aI22
aI11
asS'galvf001'
p878
(lp879
g878
aS'Freddy Galvis'
p880
aI128
aI119
aI14
aI21
aI3
aI1
aI4
aI12
aI1
aI0
aI8
aI30
aI38
asS'hughp001'
p881
(lp882
g881
aS'Phil Hughes'
p883
aI6
aI6
aI0
aI0
aI0
aI0
aI0
aI0
aI0
aI0
aI0
aI4
aI0
asS'mastd002'
p884
(lp885
g884
aS'Darin Mastroianni'
p886
aI44
aI43
aI7
aI5
aI0
aI0
aI1
aI2
aI1
aI0
aI1
aI10
aI8
asS'axeld001'
p887
(lp888
g887
aS'Dylan Axelrod'
p889
aI4
aI4
aI0
aI0
aI0
aI0
aI0
aI0
aI0
aI0
aI0
aI4
aI0
asS'hudst001'
p890
(lp891
g890
aS'Tim Hudson'
p892
aI62
aI53
aI0
aI2
aI0
aI0
aI0
aI1
aI0
aI0
aI2
aI20
aI2
asS'colvt001'
p893
(lp894
g893
aS'Tyler Colvin'
p895
aI149
aI139
aI16
aI31
aI10
aI3
aI2
aI18
aI1
aI0
aI8
aI45
aI53
asS'guthj001'
p896
(lp897
g896
aS'Jeremy Guthrie'
p898
aI7
aI5
aI0
aI0
aI0
aI0
aI0
aI0
aI0
aI0
aI0
aI1
aI0
asS'mcgec001'
p899
(lp900
g899
aS'Casey McGehee'
p901
aI691
aI616
aI56
aI177
aI29
aI1
aI4
aI76
aI4
aI2
aI67
aI102
aI220
asS'chave002'
p902
(lp903
g902
aS'Endy Chavez'
p904
aI258
aI232
aI22
aI64
aI12
aI2
aI2
aI23
aI5
aI2
aI15
aI30
aI86
asS'chave001'
p905
(lp906
g905
aS'Eric Chavez'
p907
aI81
aI69
aI6
aI17
aI3
aI1
aI3
aI8
aI2
aI0
aI11
aI19
aI31
asS'diazj004'
p908
(lp909
g908
aS'Jonathan Diaz'
p910
aI45
aI38
aI3
aI6
aI1
aI0
aI0
aI4
aI1
aI0
aI3
aI14
aI7
asS'river003'
p911
(lp912
g911
aS'Rene Rivera'
p913
aI329
aI294
aI27
aI74
aI18
aI1
aI11
aI44
aI0
aI0
aI27
aI76
aI127
asS'pridj001'
p914
(lp915
g914
aS'Jason Pridie'
p916
aI4
aI4
aI1
aI0
aI0
aI0
aI0
aI0
aI0
aI0
aI0
aI2
aI0
asS'latom001'
p917
(lp918
g917
aS'Mat Latos'
p919
aI32
aI30
aI2
aI3
aI0
aI0
aI0
aI1
aI0
aI0
aI1
aI12
aI3
asS'corrk001'
p920
(lp921
g920
aS'Kevin Correia'
p922
aI11
aI11
aI1
aI3
aI1
aI0
aI0
aI1
aI0
aI0
aI0
aI3
aI4
asS'arenn001'
p923
(lp924
g923
aS'Nolan Arenado'
p925
aI467
aI432
aI58
aI124
aI34
aI2
aI18
aI61
aI2
aI1
aI25
aI58
aI216
asS'alvap001'
p926
(lp927
g926
aS'Pedro Alvarez'
p928
aI445
aI398
aI46
aI92
aI13
aI1
aI18
aI56
aI8
aI3
aI45
aI113
aI161
asS'beltc001'
p929
(lp930
g929
aS'Carlos Beltran'
p931
aI449
aI403
aI46
aI94
aI23
aI0
aI15
aI49
aI3
aI1
aI37
aI80
aI162
asS'snydb002'
p932
(lp933
g932
aS'Brad Snyder'
p934
aI34
aI30
aI3
aI5
aI1
aI0
aI2
aI3
aI0
aI0
aI4
aI10
aI12
asS'bettm001'
p935
(lp936
g935
aS'Mookie Betts'
p937
aI213
aI189
aI34
aI55
aI12
aI1
aI5
aI18
aI7
aI3
aI21
aI31
aI84
asS'wheer001'
p938
(lp939
g938
aS'Ryan Wheeler'
p940
aI64
aI56
aI6
aI13
aI2
aI0
aI2
aI13
aI0
aI0
aI5
aI12
aI21
asS'herrj002'
p941
(lp942
g941
aS'Jonathan Herrera'
p943
aI104
aI90
aI10
aI21
aI1
aI2
aI0
aI9
aI1
aI3
aI7
aI24
aI26
asS'bartd001'
p944
(lp945
g944
aS'Daric Barton'
p946
aI64
aI57
aI7
aI9
aI1
aI0
aI0
aI5
aI0
aI0
aI5
aI14
aI10
asS'nieuk001'
p947
(lp948
g947
aS'Kirk Nieuwenhuis'
p949
aI130
aI112
aI16
aI29
aI14
aI1
aI3
aI16
aI4
aI0
aI16
aI39
aI54
asS'valed001'
p950
(lp951
g950
aS'Danny Valencia'
p952
aI284
aI264
aI20
aI68
aI16
aI1
aI4
aI30
aI1
aI1
aI14
aI62
aI98
asS'bakej002'
p953
(lp954
g953
aS'John Baker'
p955
aI208
aI182
aI9
aI35
aI7
aI0
aI0
aI15
aI0
aI0
aI19
aI58
aI42
asS'flahr001'
p956
(lp957
g956
aS'Ryan Flaherty'
p958
aI312
aI281
aI33
aI62
aI15
aI1
aI7
aI32
aI1
aI0
aI22
aI68
aI100
asS'paulf001'
p959
(lp960
g959
aS'Felipe Paulino'
p961
aI1
aI1
aI0
aI0
aI0
aI0
aI0
aI0
aI0
aI0
aI0
aI0
aI0
asS'grays001'
p962
(lp963
g962
aS'Sonny Gray'
p964
aI4
aI2
aI0
aI0
aI0
aI0
aI0
aI0
aI0
aI0
aI0
aI1
aI0
asS'vargk001'
p965
(lp966
g965
aS'Kennys Vargas'
p967
aI234
aI215
aI26
aI59
aI10
aI1
aI9
aI38
aI0
aI0
aI12
aI63
aI98
asS'heisc001'
p968
(lp969
g968
aS'Chris Heisey'
p970
aI299
aI275
aI34
aI61
aI15
aI2
aI8
aI22
aI9
aI2
aI15
aI64
aI104
asS'mathj001'
p971
(lp972
g971
aS'Jeff Mathis'
p973
aI195
aI175
aI12
aI35
aI7
aI0
aI2
aI12
aI0
aI0
aI15
aI64
aI48
asS'middw001'
p974
(lp975
g974
aS'Will Middlebrooks'
p976
aI234
aI215
aI14
aI41
aI10
aI0
aI2
aI19
aI1
aI1
aI15
aI70
aI57
asS'abreb001'
p977
(lp978
g977
aS'Bobby Abreu'
p979
aI155
aI133
aI12
aI33
aI9
aI0
aI1
aI14
aI1
aI0
aI20
aI21
aI45
asS'domim001'
p980
(lp981
g980
aS'Matt Dominguez'
p982
aI607
aI564
aI51
aI121
aI17
aI0
aI16
aI57
aI0
aI1
aI29
aI125
aI186
asS'parrg001'
p983
(lp984
g983
aS'Gerardo Parra'
p985
aI574
aI529
aI64
aI138
aI22
aI4
aI9
aI40
aI9
aI7
aI32
aI100
aI195
asS'kipnj001'
p986
(lp987
g986
aS'Jason Kipnis'
p988
aI555
aI500
aI61
aI120
aI25
aI1
aI6
aI41
aI22
aI3
aI50
aI100
aI165
asS'sanch002'
p989
(lp990
g989
aS'Hector Sanchez'
p991
aI177
aI163
aI8
aI32
aI8
aI0
aI3
aI28
aI0
aI1
aI8
aI55
aI49
asS'arrue001'
p992
(lp993
g992
aS'Erisbel Arruebarrena'
p994
aI45
aI41
aI4
aI8
aI1
aI0
aI0
aI4
aI0
aI0
aI3
aI17
aI9
asS'brenb002'
p995
(lp996
g995
aS'Bryce Brentz'
p997
aI26
aI26
aI5
aI8
aI2
aI0
aI0
aI2
aI0
aI0
aI0
aI9
aI10
asS'boxbb001'
p998
(lp999
g998
aS'Brad Boxberger'
p1000
aI1
aI1
aI0
aI0
aI0
aI0
aI0
aI0
aI0
aI0
aI0
aI0
aI0
asS'altuj001'
p1001
(lp1002
g1001
aS'Jose Altuve'
p1003
aI707
aI660
aI85
aI225
aI47
aI3
aI7
aI59
aI56
aI9
aI36
aI53
aI299
asS'taylc001'
p1004
(lp1005
g1004
aS'Chris Taylor'
p1006
aI151
aI136
aI16
aI39
aI8
aI0
aI0
aI9
aI5
aI2
aI11
aI39
aI47
asS'famij001'
p1007
(lp1008
g1007
aS'Jeurys Familia'
p1009
aI3
aI3
aI0
aI2
aI0
aI0
aI0
aI1
aI0
aI0
aI0
aI0
aI2
asS'renda001'
p1010
(lp1011
g1010
aS'Anthony Rendon'
p1012
aI683
aI613
aI111
aI176
aI39
aI6
aI21
aI83
aI17
aI3
aI58
aI104
aI290
asS'martm003'
p1013
(lp1014
g1013
aS'Michael Martinez'
p1015
aI44
aI39
aI2
aI5
aI1
aI0
aI0
aI2
aI0
aI0
aI4
aI13
aI6
asS'bethc001'
p1016
(lp1017
g1016
aS'Christian Bethancourt'
p1018
aI117
aI113
aI7
aI28
aI3
aI0
aI0
aI9
aI1
aI1
aI3
aI26
aI31
asS'garzm001'
p1019
(lp1020
g1019
aS'Matt Garza'
p1021
aI57
aI49
aI2
aI3
aI1
aI0
aI0
aI0
aI0
aI0
aI1
aI21
aI4
asS'marta005'
p1022
(lp1023
g1022
aS'Alfredo Marte'
p1024
aI114
aI106
aI8
aI18
aI5
aI1
aI2
aI9
aI1
aI0
aI6
aI34
aI31
asS'samaj001'
p1025
(lp1026
g1025
aS'Jeff Samardzija'
p1027
aI38
aI34
aI3
aI6
aI3
aI0
aI0
aI3
aI0
aI0
aI0
aI10
aI9
asS'lyont001'
p1028
(lp1029
g1028
aS'Tyler Lyons'
p1030
aI9
aI7
aI0
aI0
aI0
aI0
aI0
aI0
aI0
aI0
aI2
aI5
aI0
asS'jay-j001'
p1031
(lp1032
g1031
aS'Jon Jay'
p1033
aI468
aI413
aI52
aI125
aI16
aI3
aI3
aI46
aI6
aI3
aI28
aI78
aI156
asS'suzui001'
p1034
(lp1035
g1034
aS'Ichiro Suzuki'
p1036
aI385
aI359
aI42
aI102
aI13
aI2
aI1
aI22
aI15
aI3
aI21
aI68
aI122
asS'dudal001'
p1037
(lp1038
g1037
aS'Lucas Duda'
p1039
aI596
aI514
aI74
aI130
aI27
aI0
aI30
aI92
aI3
aI2
aI69
aI135
aI247
asS'nievw001'
p1040
(lp1041
g1040
aS'Wil Nieves'
p1042
aI128
aI122
aI9
aI31
aI8
aI0
aI1
aI7
aI1
aI0
aI1
aI34
aI42
asS'thayd001'
p1043
(lp1044
g1043
aS'Dale Thayer'
p1045
aI1
aI1
aI0
aI0
aI0
aI0
aI0
aI0
aI0
aI0
aI0
aI1
aI0
asS'braur002'
p1046
(lp1047
g1046
aS'Ryan Braun'
p1048
aI580
aI530
aI68
aI141
aI30
aI6
aI19
aI81
aI11
aI5
aI41
aI113
aI240
asS'piera001'
p1049
(lp1050
g1049
aS'A.J. Pierzynski'
p1051
aI362
aI338
aI25
aI85
aI12
aI1
aI5
aI37
aI0
aI1
aI14
aI54
aI114
asS'granc001'
p1052
(lp1053
g1052
aS'Curtis Granderson'
p1054
aI654
aI564
aI73
aI128
aI27
aI2
aI20
aI66
aI8
aI2
aI79
aI141
aI219
asS'chatt001'
p1055
(lp1056
g1055
aS'Tyler Chatwood'
p1057
aI10
aI10
aI0
aI1
aI0
aI0
aI0
aI0
aI0
aI0
aI0
aI5
aI1
asS'villp001'
p1058
(lp1059
g1058
aS'Pedro Villarreal'
p1060
aI2
aI2
aI0
aI1
aI0
aI0
aI0
aI0
aI0
aI0
aI0
aI1
aI1
asS'marta004'
p1061
(lp1062
g1061
aS'Andy Marte'
p1063
aI16
aI16
aI1
aI3
aI0
aI0
aI1
aI3
aI0
aI0
aI0
aI3
aI6
asS'flynb001'
p1064
(lp1065
g1064
aS'Brian Flynn'
p1066
aI2
aI2
aI0
aI0
aI0
aI0
aI0
aI0
aI0
aI0
aI0
aI0
aI0
asS'pompd001'
p1067
(lp1068
g1067
aS'Dalton Pompey'
p1069
aI43
aI39
aI5
aI9
aI1
aI2
aI1
aI4
aI1
aI0
aI4
aI12
aI17
asS'roset001'
p1070
(lp1071
g1070
aS'Trevor Rosenthal'
p1072
aI1
aI1
aI0
aI0
aI0
aI0
aI0
aI0
aI0
aI0
aI0
aI1
aI0
asS'kubej002'
p1073
(lp1074
g1073
aS'Jason Kubel'
p1075
aI176
aI156
aI12
aI35
aI6
aI1
aI1
aI13
aI1
aI0
aI19
aI59
aI46
asS'bradj001'
p1076
(lp1077
g1076
aS'Jackie Bradley'
p1078
aI423
aI384
aI45
aI76
aI19
aI2
aI1
aI30
aI8
aI0
aI31
aI121
aI102
asS'fedet001'
p1079
(lp1080
g1079
aS'Tim Federowicz'
p1081
aI78
aI71
aI2
aI8
aI3
aI0
aI1
aI5
aI0
aI0
aI3
aI18
aI14
asS'cuetj001'
p1082
(lp1083
g1082
aS'Johnny Cueto'
p1084
aI82
aI68
aI3
aI9
aI0
aI0
aI0
aI3
aI0
aI0
aI2
aI20
aI9
asS'heana001'
p1085
(lp1086
g1085
aS'Andrew Heaney'
p1087
aI9
aI8
aI0
aI1
aI0
aI0
aI0
aI0
aI0
aI0
aI0
aI2
aI1
asS'jonea003'
p1088
(lp1089
g1088
aS'Adam Jones'
p1090
aI682
aI644
aI88
aI181
aI30
aI2
aI29
aI96
aI7
aI1
aI19
aI133
aI302
asS'montj003'
p1091
(lp1092
g1091
aS'Jesus Montero'
p1093
aI17
aI17
aI1
aI4
aI0
aI0
aI1
aI2
aI0
aI0
aI0
aI3
aI7
asS'sancg001'
p1094
(lp1095
g1094
aS'Gaby Sanchez'
p1096
aI290
aI262
aI31
aI60
aI18
aI1
aI7
aI33
aI2
aI0
aI23
aI58
aI101
asS'solej001'
p1097
(lp1098
g1097
aS'Jorge Soler'
p1099
aI97
aI89
aI11
aI26
aI8
aI1
aI5
aI20
aI1
aI0
aI6
aI24
aI51
asS'casac001'
p1100
(lp1101
g1100
aS'Curt Casali'
p1102
aI84
aI72
aI10
aI12
aI3
aI0
aI0
aI3
aI0
aI0
aI8
aI23
aI15
asS'stewc001'
p1103
(lp1104
g1103
aS'Chris Stewart'
p1105
aI154
aI136
aI9
aI40
aI5
aI0
aI0
aI10
aI0
aI1
aI12
aI27
aI45
asS'wilsc004'
p1106
(lp1107
g1106
aS'C.J. Wilson'
p1108
aI3
aI2
aI1
aI0
aI0
aI0
aI0
aI0
aI0
aI0
aI1
aI2
aI0
asS'noesh001'
p1109
(lp1110
g1109
aS'Hector Noesi'
p1111
aI4
aI4
aI0
aI0
aI0
aI0
aI0
aI0
aI0
aI0
aI0
aI1
aI0
asS'gorda001'
p1112
(lp1113
g1112
aS'Alex Gordon'
p1114
aI643
aI563
aI87
aI150
aI34
aI1
aI19
aI74
aI12
aI3
aI65
aI126
aI243
asS'amara001'
p1115
(lp1116
g1115
aS'Alexi Amarista'
p1117
aI466
aI423
aI39
aI101
aI13
aI2
aI5
aI40
aI12
aI1
aI29
aI69
aI133
asS'cuddm001'
p1118
(lp1119
g1118
aS'Michael Cuddyer'
p1120
aI205
aI190
aI32
aI63
aI15
aI1
aI10
aI31
aI3
aI0
aI14
aI30
aI110
asS'hartc001'
p1121
(lp1122
g1121
aS'Corey Hart'
p1123
aI255
aI232
aI17
aI47
aI9
aI0
aI6
aI21
aI2
aI0
aI16
aI59
aI74
asS'gosea001'
p1124
(lp1125
g1124
aS'Anthony Gose'
p1126
aI274
aI239
aI31
aI54
aI8
aI1
aI2
aI13
aI15
aI5
aI25
aI74
aI70
asS'butle001'
p1127
(lp1128
g1127
aS'Eddie Butler'
p1129
aI6
aI6
aI0
aI0
aI0
aI0
aI0
aI0
aI0
aI0
aI0
aI3
aI0
asS'satij001'
p1130
(lp1131
g1130
aS'Josh Satin'
p1132
aI43
aI35
aI2
aI3
aI2
aI0
aI0
aI3
aI0
aI0
aI6
aI14
aI5
asS'bettc001'
p1133
(lp1134
g1133
aS'Chad Bettis'
p1135
aI3
aI3
aI0
aI0
aI0
aI0
aI0
aI0
aI0
aI0
aI0
aI1
aI0
asS'pirej001'
p1136
(lp1137
g1136
aS'Jose Pirela'
p1138
aI25
aI24
aI6
aI8
aI1
aI2
aI0
aI3
aI0
aI0
aI1
aI4
aI13
asS'domic001'
p1139
(lp1140
g1139
aS'Chris Dominguez'
p1141
aI18
aI17
aI1
aI1
aI0
aI0
aI1
aI2
aI0
aI0
aI1
aI4
aI4
asS'kontg001'
p1142
(lp1143
g1142
aS'George Kontos'
p1144
aI2
aI1
aI0
aI0
aI0
aI0
aI0
aI0
aI0
aI0
aI0
aI0
aI0
asS'wielj001'
p1145
(lp1146
g1145
aS'Joe Wieland'
p1147
aI3
aI3
aI0
aI0
aI0
aI0
aI0
aI0
aI0
aI0
aI0
aI2
aI0
asS'andre001'
p1148
(lp1149
g1148
aS'Elvis Andrus'
p1150
aI685
aI619
aI72
aI163
aI35
aI1
aI2
aI41
aI27
aI15
aI46
aI96
aI206
asS'leons001'
p1151
(lp1152
g1151
aS'Sandy Leon'
p1153
aI70
aI64
aI7
aI10
aI1
aI0
aI1
aI3
aI0
aI0
aI6
aI20
aI14
asS'ibanr001'
p1154
(lp1155
g1154
aS'Raul Ibanez'
p1156
aI280
aI246
aI22
aI41
aI8
aI3
aI5
aI26
aI3
aI2
aI33
aI59
aI70
asS'greeg002'
p1157
(lp1158
g1157
aS'Grant Green'
p1159
aI103
aI99
aI7
aI27
aI5
aI0
aI1
aI11
aI1
aI4
aI2
aI20
aI35
asS'kiesr001'
p1160
(lp1161
g1160
aS'Roger Kieschnick'
p1162
aI41
aI41
aI2
aI8
aI1
aI0
aI1
aI2
aI0
aI0
aI0
aI16
aI12
asS'ellia001'
p1163
(lp1164
g1163
aS'A.J. Ellis'
p1165
aI347
aI283
aI21
aI54
aI9
aI0
aI3
aI25
aI0
aI0
aI53
aI57
aI72
asS'lestj001'
p1166
(lp1167
g1166
aS'Jon Lester'
p1168
aI5
aI5
aI0
aI0
aI0
aI0
aI0
aI0
aI0
aI0
aI0
aI3
aI0
asS'pheld001'
p1169
(lp1170
g1169
aS'David Phelps'
p1171
aI5
aI4
aI0
aI0
aI0
aI0
aI0
aI0
aI0
aI0
aI0
aI1
aI0
asS'sizeg001'
p1172
(lp1173
g1172
aS'Grady Sizemore'
p1174
aI381
aI347
aI35
aI81
aI19
aI4
aI5
aI27
aI6
aI1
aI33
aI76
aI123
asS'gardb001'
p1175
(lp1176
g1175
aS'Brett Gardner'
p1177
aI636
aI555
aI86
aI142
aI25
aI8
aI17
aI58
aI21
aI5
aI56
aI134
aI234
asS'hickb002'
p1178
(lp1179
g1178
aS'Brandon Hicks'
p1180
aI242
aI204
aI27
aI33
aI6
aI1
aI8
aI22
aI0
aI1
aI32
aI77
aI65
asS'matsd001'
p1181
(lp1182
g1181
aS'Daisuke Matsuzaka'
p1183
aI17
aI11
aI0
aI2
aI0
aI0
aI0
aI1
aI0
aI0
aI1
aI6
aI2
asS'beckj002'
p1184
(lp1185
g1184
aS'Josh Beckett'
p1186
aI43
aI39
aI4
aI7
aI3
aI0
aI0
aI2
aI0
aI0
aI1
aI14
aI10
asS'blana001'
p1187
(lp1188
g1187
aS'Andres Blanco'
p1189
aI53
aI47
aI4
aI13
aI5
aI0
aI1
aI3
aI0
aI0
aI2
aI6
aI21
asS'spanc001'
p1190
(lp1191
g1190
aS'Cory Spangenberg'
p1192
aI65
aI62
aI7
aI18
aI2
aI1
aI2
aI9
aI4
aI2
aI2
aI14
aI28
asS'iannc001'
p1193
(lp1194
g1193
aS'Chris Iannetta'
p1195
aI373
aI306
aI41
aI77
aI22
aI0
aI7
aI43
aI3
aI0
aI54
aI91
aI120
asS'adduj002'
p1196
(lp1197
g1196
aS'Jim Adduci'
p1198
aI114
aI101
aI13
aI17
aI3
aI0
aI1
aI8
aI3
aI1
aI10
aI27
aI23
asS'buted001'
p1199
(lp1200
g1199
aS'Drew Butera'
p1201
aI192
aI170
aI16
aI32
aI6
aI1
aI3
aI14
aI0
aI0
aI17
aI41
aI49
asS'kersc001'
p1202
(lp1203
g1202
aS'Clayton Kershaw'
p1204
aI74
aI63
aI5
aI11
aI0
aI1
aI0
aI3
aI1
aI0
aI4
aI23
aI13
asS'adrie001'
p1205
(lp1206
g1205
aS'Ehire Adrianza'
p1207
aI106
aI97
aI10
aI23
aI6
aI0
aI0
aI5
aI1
aI1
aI5
aI22
aI29
asS'murpj001'
p1208
(lp1209
g1208
aS'J.R. Murphy'
p1210
aI85
aI81
aI7
aI23
aI4
aI0
aI1
aI9
aI0
aI0
aI4
aI22
aI30
asS'moora001'
p1211
(lp1212
g1211
aS'Adam Moore'
p1213
aI12
aI10
aI1
aI2
aI1
aI0
aI0
aI1
aI0
aI0
aI2
aI5
aI3
asS'adamm002'
p1214
(lp1215
g1214
aS'Matt Adams'
p1216
aI563
aI527
aI55
aI152
aI34
aI5
aI15
aI68
aI3
aI2
aI26
aI114
aI241
asS'gregd001'
p1217
(lp1218
g1217
aS'Didi Gregorius'
p1219
aI299
aI270
aI35
aI61
aI9
aI5
aI6
aI27
aI3
aI0
aI22
aI52
aI98
asS'altha001'
p1220
(lp1221
g1220
aS'Aaron Altherr'
p1222
aI5
aI5
aI0
aI0
aI0
aI0
aI0
aI0
aI0
aI0
aI0
aI2
aI0
asS'chenw001'
p1223
(lp1224
g1223
aS'Wei-Yin Chen'
p1225
aI1
aI1
aI0
aI0
aI0
aI0
aI0
aI0
aI0
aI0
aI0
aI1
aI0
asS'nix-j001'
p1226
(lp1227
g1226
aS'Jayson Nix'
p1228
aI91
aI83
aI2
aI10
aI0
aI0
aI1
aI4
aI1
aI2
aI3
aI28
aI13
asS'ariaj001'
p1229
(lp1230
g1229
aS'Joaquin Arias'
p1231
aI204
aI193
aI18
aI49
aI9
aI0
aI0
aI15
aI1
aI0
aI8
aI23
aI58
asS'smolj002'
p1232
(lp1233
g1232
aS'Jake Smolinski'
p1234
aI92
aI86
aI12
aI30
aI5
aI0
aI3
aI12
aI0
aI0
aI3
aI24
aI44
asS'wachm001'
p1235
(lp1236
g1235
aS'Michael Wacha'
p1237
aI32
aI29
aI1
aI1
aI0
aI0
aI0
aI2
aI0
aI0
aI0
aI18
aI1
asS'freef001'
p1238
(lp1239
g1238
aS'Freddie Freeman'
p1240
aI708
aI607
aI93
aI175
aI43
aI4
aI18
aI78
aI3
aI4
aI90
aI145
aI280
asS'baxtm001'
p1241
(lp1242
g1241
aS'Mike Baxter'
p1243
aI8
aI7
aI0
aI0
aI0
aI0
aI0
aI0
aI0
aI0
aI1
aI2
aI0
asS'puigy001'
p1244
(lp1245
g1244
aS'Yasiel Puig'
p1246
aI640
aI558
aI92
aI165
aI37
aI9
aI16
aI69
aI11
aI7
aI67
aI124
aI268
asS'carmf001'
p1247
(lp1248
g1247
aS'Roberto Hernandez'
p1249
aI58
aI49
aI1
aI4
aI0
aI0
aI0
aI2
aI0
aI0
aI0
aI24
aI4
asS'wertj001'
p1250
(lp1251
g1250
aS'Jayson Werth'
p1252
aI629
aI534
aI85
aI156
aI37
aI1
aI16
aI82
aI9
aI1
aI83
aI113
aI243
asS'escoe001'
p1253
(lp1254
g1253
aS'Eduardo Escobar'
p1255
aI465
aI433
aI52
aI119
aI35
aI2
aI6
aI37
aI1
aI1
aI24
aI93
aI176
asS'gomec002'
p1256
(lp1257
g1256
aS'Carlos Gomez'
p1258
aI644
aI574
aI95
aI163
aI34
aI4
aI23
aI73
aI34
aI12
aI47
aI141
aI274
asS'bloow001'
p1259
(lp1260
g1259
aS'Willie Bloomquist'
p1261
aI139
aI133
aI15
aI37
aI6
aI0
aI1
aI14
aI1
aI1
aI4
aI32
aI46
asS'wortd001'
p1262
(lp1263
g1262
aS'Danny Worth'
p1264
aI46
aI42
aI5
aI7
aI1
aI0
aI0
aI5
aI0
aI1
aI2
aI12
aI8
asS'weavj003'
p1265
(lp1266
g1265
aS'Jered Weaver'
p1267
aI2
aI2
aI0
aI0
aI0
aI0
aI0
aI0
aI0
aI0
aI0
aI1
aI0
asS'lougd001'
p1268
(lp1269
g1268
aS'David Lough'
p1270
aI197
aI174
aI31
aI43
aI6
aI3
aI4
aI16
aI8
aI5
aI15
aI33
aI67
asS'dunna001'
p1271
(lp1272
g1271
aS'Adam Dunn'
p1273
aI511
aI429
aI49
aI94
aI18
aI0
aI22
aI64
aI1
aI1
aI71
aI159
aI178
asS'headc001'
p1274
(lp1275
g1274
aS'Chase Headley'
p1276
aI531
aI470
aI55
aI114
aI20
aI1
aI13
aI49
aI7
aI3
aI51
aI122
aI175
asS'perem004'
p1277
(lp1278
g1277
aS'Martin Perez'
p1279
aI2
aI1
aI0
aI0
aI0
aI0
aI0
aI0
aI0
aI0
aI0
aI1
aI0
asS'jennd002'
p1280
(lp1281
g1280
aS'Desmond Jennings'
p1282
aI542
aI479
aI64
aI117
aI30
aI2
aI10
aI36
aI15
aI6
aI47
aI108
aI181
asS'reddj001'
p1283
(lp1284
g1283
aS'Josh Reddick'
p1285
aI396
aI363
aI53
aI96
aI16
aI7
aI12
aI54
aI1
aI1
aI28
aI63
aI162
asS'casia001'
p1286
(lp1287
g1286
aS'Alexi Casilla'
p1288
aI4
aI4
aI0
aI0
aI0
aI0
aI0
aI0
aI0
aI0
aI0
aI1
aI0
asS'almoa001'
p1289
(lp1290
g1289
aS'Abraham Almonte'
p1291
aI220
aI204
aI19
aI47
aI10
aI1
aI3
aI15
aI4
aI3
aI12
aI60
aI68
asS'mcalz001'
p1292
(lp1293
g1292
aS'Zach McAllister'
p1294
aI2
aI2
aI0
aI1
aI0
aI0
aI0
aI0
aI0
aI0
aI0
aI0
aI1
asS'carre001'
p1295
(lp1296
g1295
aS'Ezequiel Carrera'
p1297
aI73
aI69
aI12
aI18
aI4
aI1
aI0
aI2
aI7
aI1
aI3
aI14
aI24
asS'hared001'
p1298
(lp1299
g1298
aS'Dan Haren'
p1300
aI60
aI54
aI2
aI10
aI1
aI0
aI0
aI5
aI0
aI0
aI3
aI20
aI11
asS'uggld001'
p1301
(lp1302
g1301
aS'Dan Uggla'
p1303
aI157
aI141
aI13
aI21
aI3
aI0
aI2
aI10
aI0
aI0
aI11
aI46
aI30
asS'baezj001'
p1304
(lp1305
g1304
aS'Javier Baez'
p1306
aI229
aI213
aI25
aI36
aI6
aI0
aI9
aI20
aI5
aI1
aI15
aI95
aI69
asS'gordd002'
p1307
(lp1308
g1307
aS'Dee Gordon'
p1309
aI650
aI609
aI90
aI176
aI24
aI12
aI2
aI34
aI64
aI19
aI31
aI107
aI230
asS'frann001'
p1310
(lp1311
g1310
aS'Nick Franklin'
p1312
aI90
aI81
aI7
aI13
aI2
aI1
aI1
aI6
aI2
aI0
aI6
aI32
aI20
asS'hicka001'
p1313
(lp1314
g1313
aS'Aaron Hicks'
p1315
aI225
aI186
aI22
aI40
aI8
aI0
aI1
aI18
aI4
aI3
aI36
aI56
aI51
asS'peacb001'
p1316
(lp1317
g1316
aS'Brad Peacock'
p1318
aI5
aI5
aI0
aI0
aI0
aI0
aI0
aI0
aI0
aI0
aI0
aI5
aI0
asS'morak001'
p1319
(lp1320
g1319
aS'Kendrys Morales'
p1321
aI401
aI367
aI28
aI80
aI20
aI0
aI8
aI42
aI0
aI0
aI27
aI68
aI124
asS'leagb001'
p1322
(lp1323
g1322
aS'Brandon League'
p1324
aI2
aI2
aI0
aI0
aI0
aI0
aI0
aI0
aI0
aI0
aI0
aI1
aI0
asS'santc002'
p1325
(lp1326
g1325
aS'Carlos Santana'
p1327
aI660
aI541
aI68
aI125
aI25
aI0
aI27
aI85
aI5
aI2
aI113
aI124
aI231
asS'wilka002'
p1328
(lp1329
g1328
aS'Andy Wilkins'
p1330
aI45
aI43
aI2
aI6
aI2
aI0
aI0
aI2
aI0
aI0
aI2
aI22
aI8
asS'shoem001'
p1331
(lp1332
g1331
aS'Matt Shoemaker'
p1333
aI2
aI1
aI0
aI0
aI0
aI0
aI0
aI0
aI0
aI0
aI0
aI1
aI0
asS'richa001'
p1334
(lp1335
g1334
aS'Antoan Richardson'
p1336
aI17
aI16
aI2
aI5
aI0
aI0
aI0
aI1
aI5
aI0
aI1
aI3
aI5
asS'floyg001'
p1337
(lp1338
g1337
aS'Gavin Floyd'
p1339
aI18
aI18
aI0
aI2
aI0
aI0
aI0
aI0
aI0
aI0
aI0
aI12
aI2
asS'gindc001'
p1340
(lp1341
g1340
aS'Caleb Gindl'
p1342
aI23
aI19
aI0
aI3
aI0
aI0
aI0
aI0
aI0
aI0
aI4
aI5
aI3
asS'gonzm005'
p1343
(lp1344
g1343
aS'Marco Gonzales'
p1345
aI12
aI10
aI1
aI3
aI2
aI0
aI0
aI0
aI0
aI0
aI0
aI2
aI5
asS'campt001'
p1346
(lp1347
g1346
aS'Tony Campana'
p1348
aI76
aI75
aI10
aI14
aI1
aI1
aI0
aI5
aI4
aI2
aI0
aI16
aI17
asS'herne001'
p1349
(lp1350
g1349
aS'Enrique Hernandez'
p1351
aI134
aI121
aI13
aI30
aI6
aI3
aI3
aI14
aI0
aI0
aI12
aI21
aI51
asS'hosme001'
p1352
(lp1353
g1352
aS'Eric Hosmer'
p1354
aI547
aI503
aI54
aI136
aI35
aI1
aI9
aI58
aI4
aI2
aI35
aI93
aI200
asS'ziegb001'
p1355
(lp1356
g1355
aS'Brad Ziegler'
p1357
aI1
aI1
aI0
aI0
aI0
aI0
aI0
aI0
aI0
aI0
aI0
aI1
aI0
asS'cirip001'
p1358
(lp1359
g1358
aS'Pedro Ciriaco'
p1360
aI49
aI47
aI7
aI10
aI2
aI0
aI0
aI2
aI4
aI0
aI0
aI9
aI12
asS'collt002'
p1361
(lp1362
g1361
aS'Tyler Collins'
p1363
aI25
aI24
aI3
aI6
aI0
aI0
aI1
aI4
aI0
aI0
aI1
aI4
aI9
asS'cozaz001'
p1364
(lp1365
g1364
aS'Zack Cozart'
p1366
aI543
aI506
aI48
aI112
aI18
aI5
aI4
aI38
aI7
aI0
aI25
aI79
aI152
asS'joneg002'
p1367
(lp1368
g1367
aS'Garrett Jones'
p1369
aI547
aI496
aI59
aI122
aI33
aI2
aI15
aI53
aI0
aI1
aI46
aI116
aI204
asS'castn001'
p1370
(lp1371
g1370
aS'Nick Castellanos'
p1372
aI579
aI533
aI50
aI138
aI31
aI4
aI11
aI66
aI2
aI2
aI36
aI140
aI210
asS'morsm001'
p1373
(lp1374
g1373
aS'Michael Morse'
p1375
aI482
aI438
aI48
aI122
aI32
aI3
aI16
aI61
aI0
aI0
aI31
aI121
aI208
asS'younc004'
p1376
(lp1377
g1376
aS'Chris Young'
p1378
aI366
aI325
aI40
aI72
aI20
aI0
aI11
aI38
aI8
aI3
aI32
aI70
aI125
asS'fistd001'
p1379
(lp1380
g1379
aS'Doug Fister'
p1381
aI62
aI52
aI3
aI4
aI1
aI0
aI0
aI0
aI0
aI0
aI1
aI21
aI5
asS'ellim001'
p1382
(lp1383
g1382
aS'Mark Ellis'
p1384
aI202
aI178
aI15
aI32
aI6
aI0
aI0
aI12
aI4
aI1
aI14
aI38
aI38
asS'johnd004'
p1385
(lp1386
g1385
aS'Dan Johnson'
p1387
aI48
aI38
aI8
aI8
aI2
aI0
aI1
aI7
aI0
aI0
aI7
aI10
aI13
asS'rutlj001'
p1388
(lp1389
g1388
aS'Josh Rutledge'
p1390
aI342
aI309
aI44
aI83
aI16
aI7
aI4
aI33
aI2
aI3
aI20
aI83
aI125
asS'valdj002'
p1391
(lp1392
g1391
aS'Jordany Valdespin'
p1393
aI113
aI98
aI8
aI21
aI2
aI1
aI3
aI10
aI1
aI0
aI9
aI16
aI34
asS'gausk001'
p1394
(lp1395
g1394
aS'Kevin Gausman'
p1396
aI3
aI3
aI0
aI0
aI0
aI0
aI0
aI0
aI0
aI0
aI0
aI2
aI0
asS'kendh001'
p1397
(lp1398
g1397
aS'Howard Kendrick'
p1399
aI674
aI617
aI85
aI181
aI33
aI5
aI7
aI75
aI14
aI5
aI48
aI110
aI245
asS'rogej002'
p1400
(lp1401
g1400
aS'Jason Rogers'
p1402
aI10
aI9
aI0
aI1
aI1
aI0
aI0
aI0
aI0
aI0
aI1
aI1
aI2
asS'romes001'
p1403
(lp1404
g1403
aS'Stefen Romero'
p1405
aI190
aI177
aI19
aI34
aI6
aI2
aI3
aI11
aI0
aI4
aI4
aI48
aI53
asS'polla001'
p1406
(lp1407
g1406
aS'A.J. Pollock'
p1408
aI287
aI265
aI41
aI80
aI19
aI6
aI7
aI24
aI14
aI3
aI19
aI46
aI132
asS'archc001'
p1409
(lp1410
g1409
aS'Chris Archer'
p1411
aI4
aI4
aI0
aI0
aI0
aI0
aI0
aI0
aI0
aI0
aI0
aI2
aI0
asS'annad001'
p1412
(lp1413
g1412
aS'Dean Anna'
p1414
aI25
aI22
aI3
aI3
aI1
aI0
aI1
aI3
aI0
aI0
aI2
aI6
aI7
asS'cumpb001'
p1415
(lp1416
g1415
aS'Brandon Cumpton'
p1417
aI20
aI17
aI1
aI2
aI0
aI0
aI0
aI1
aI0
aI0
aI1
aI7
aI2
asS'cabrm002'
p1418
(lp1419
g1418
aS'Melky Cabrera'
p1420
aI621
aI568
aI81
aI171
aI35
aI3
aI16
aI73
aI6
aI2
aI43
aI67
aI260
asS'romaj003'
p1421
(lp1422
g1421
aS'Jamie Romak'
p1423
aI23
aI21
aI2
aI1
aI1
aI0
aI0
aI3
aI0
aI0
aI2
aI8
aI2
asS'schaj002'
p1424
(lp1425
g1424
aS'Jordan Schafer'
p1426
aI240
aI210
aI26
aI50
aI9
aI1
aI1
aI15
aI30
aI7
aI22
aI48
aI64
asS'morgn001'
p1427
(lp1428
g1427
aS'Nyjer Morgan'
p1429
aI52
aI41
aI8
aI14
aI1
aI0
aI1
aI6
aI3
aI0
aI7
aI6
aI18
asS'rabur001'
p1430
(lp1431
g1430
aS'Ryan Raburn'
p1432
aI212
aI195
aI18
aI39
aI7
aI0
aI4
aI22
aI0
aI0
aI13
aI51
aI58
asS'wietm001'
p1433
(lp1434
g1433
aS'Matt Wieters'
p1435
aI112
aI104
aI13
aI32
aI5
aI0
aI5
aI18
aI0
aI1
aI6
aI19
aI52
asS'felds001'
p1436
(lp1437
g1436
aS'Scott Feldman'
p1438
aI2
aI2
aI0
aI0
aI0
aI0
aI0
aI0
aI0
aI0
aI0
aI2
aI0
asS'bonie001'
p1439
(lp1440
g1439
aS'Emilio Bonifacio'
p1441
aI426
aI394
aI47
aI102
aI17
aI4
aI3
aI24
aI26
aI8
aI26
aI85
aI136
asS'kazms001'
p1442
(lp1443
g1442
aS'Scott Kazmir'
p1444
aI4
aI4
aI0
aI0
aI0
aI0
aI0
aI0
aI0
aI0
aI0
aI1
aI0
asS'parmc001'
p1445
(lp1446
g1445
aS'Chris Parmelee'
p1447
aI270
aI250
aI27
aI64
aI11
aI0
aI7
aI28
aI0
aI3
aI17
aI64
aI96
asS'vogts001'
p1448
(lp1449
g1448
aS'Stephen Vogt'
p1450
aI287
aI269
aI26
aI75
aI10
aI2
aI9
aI35
aI1
aI0
aI16
aI39
aI116
asS'volqe001'
p1451
(lp1452
g1451
aS'Edinson Volquez'
p1453
aI64
aI53
aI3
aI2
aI0
aI0
aI0
aI2
aI0
aI0
aI3
aI27
aI2
asS'porcr001'
p1454
(lp1455
g1454
aS'Rick Porcello'
p1456
aI5
aI4
aI0
aI0
aI0
aI0
aI0
aI0
aI0
aI0
aI0
aI2
aI0
asS'rojam002'
p1457
(lp1458
g1457
aS'Miguel Rojas'
p1459
aI162
aI149
aI16
aI27
aI3
aI0
aI1
aI9
aI0
aI0
aI10
aI28
aI33
asS'sante001'
p1460
(lp1461
g1460
aS'Ervin Santana'
p1462
aI73
aI63
aI7
aI7
aI1
aI0
aI0
aI1
aI0
aI0
aI2
aI28
aI8
asS'iwakh001'
p1463
(lp1464
g1463
aS'Hisashi Iwakuma'
p1465
aI6
aI4
aI0
aI0
aI0
aI0
aI0
aI0
aI0
aI0
aI1
aI3
aI0
asS'taveo001'
p1466
(lp1467
g1466
aS'Oscar Taveras'
p1468
aI248
aI234
aI18
aI56
aI8
aI0
aI3
aI22
aI0
aI1
aI12
aI37
aI73
asS'ramoc001'
p1469
(lp1470
g1469
aS'Cesar Ramos'
p1471
aI1
aI1
aI0
aI0
aI0
aI0
aI0
aI0
aI0
aI0
aI0
aI1
aI0
asS'klubc001'
p1472
(lp1473
g1472
aS'Corey Kluber'
p1474
aI6
aI5
aI0
aI1
aI0
aI0
aI0
aI0
aI0
aI0
aI0
aI2
aI1
asS'cruzn002'
p1475
(lp1476
g1475
aS'Nelson Cruz'
p1477
aI678
aI613
aI87
aI166
aI32
aI2
aI40
aI108
aI4
aI5
aI55
aI140
aI322
asS'ortid001'
p1478
(lp1479
g1478
aS'David Ortiz'
p1480
aI602
aI518
aI59
aI136
aI27
aI0
aI35
aI104
aI0
aI0
aI75
aI95
aI268
asS'peres002'
p1481
(lp1482
g1481
aS'Salvador Perez'
p1483
aI606
aI578
aI57
aI150
aI28
aI2
aI17
aI70
aI1
aI0
aI22
aI85
aI233
asS'ryu-h001'
p1484
(lp1485
g1484
aS'Hyun-Jin Ryu'
p1486
aI56
aI47
aI4
aI7
aI2
aI0
aI0
aI2
aI0
aI0
aI1
aI17
aI9
asS'smyld001'
p1487
(lp1488
g1487
aS'Drew Smyly'
p1489
aI1
aI1
aI0
aI0
aI0
aI0
aI0
aI0
aI0
aI0
aI0
aI1
aI0
asS'gonzg003'
p1490
(lp1491
g1490
aS'Gio Gonzalez'
p1492
aI52
aI46
aI3
aI4
aI1
aI0
aI1
aI2
aI0
aI0
aI0
aI26
aI8
asS'soton001'
p1493
(lp1494
g1493
aS'Neftali Soto'
p1495
aI31
aI30
aI1
aI3
aI1
aI0
aI0
aI1
aI1
aI0
aI0
aI8
aI4
asS'aumop001'
p1496
(lp1497
g1496
aS'Phillippe Aumont'
p1498
aI1
aI1
aI0
aI0
aI0
aI0
aI0
aI0
aI0
aI0
aI0
aI1
aI0
asS'peraw001'
p1499
(lp1500
g1499
aS'Wily Peralta'
p1501
aI68
aI57
aI4
aI3
aI2
aI0
aI0
aI3
aI0
aI0
aI2
aI24
aI5
asS'robic001'
p1502
(lp1503
g1502
aS'Clint Robinson'
p1504
aI10
aI9
aI3
aI3
aI0
aI0
aI0
aI2
aI0
aI0
aI1
aI1
aI3
asS'dedus001'
p1505
(lp1506
g1505
aS'Samuel Deduno'
p1507
aI5
aI5
aI0
aI1
aI1
aI0
aI0
aI0
aI0
aI0
aI0
aI4
aI2
asS'berrq001'
p1508
(lp1509
g1508
aS'Quintin Berry'
p1510
aI2
aI2
aI3
aI0
aI0
aI0
aI0
aI0
aI1
aI0
aI0
aI1
aI0
asS'buchc001'
p1511
(lp1512
g1511
aS'Clay Buchholz'
p1513
aI2
aI2
aI0
aI1
aI0
aI0
aI0
aI0
aI0
aI0
aI0
aI0
aI1
asS'molij001'
p1514
(lp1515
g1514
aS'Jose Molina'
p1516
aI247
aI225
aI4
aI40
aI2
aI0
aI0
aI10
aI3
aI0
aI14
aI55
aI42
asS'yound003'
p1517
(lp1518
g1517
aS'Delmon Young'
p1519
aI255
aI242
aI27
aI73
aI11
aI1
aI7
aI30
aI2
aI0
aI10
aI51
aI107
asS'craia001'
p1520
(lp1521
g1520
aS'Allen Craig'
p1522
aI505
aI461
aI41
aI99
aI20
aI1
aI8
aI46
aI2
aI1
aI35
aI113
aI145
asS'hillt001'
p1523
(lp1524
g1523
aS'Taylor Hill'
p1525
aI3
aI3
aI0
aI1
aI0
aI0
aI0
aI0
aI0
aI0
aI0
aI0
aI1
asS'santr002'
p1526
(lp1527
g1526
aS'Ramon Santiago'
p1528
aI214
aI179
aI20
aI44
aI8
aI0
aI2
aI17
aI2
aI1
aI24
aI38
aI58
asS'avill001'
p1529
(lp1530
g1529
aS'Luis Avilan'
p1531
aI1
aI0
aI0
aI0
aI0
aI0
aI0
aI0
aI0
aI0
aI0
aI0
aI0
asS'utlec001'
p1532
(lp1533
g1532
aS'Chase Utley'
p1534
aI664
aI589
aI74
aI159
aI36
aI6
aI11
aI78
aI10
aI1
aI53
aI85
aI240
asS'ramow001'
p1535
(lp1536
g1535
aS'Wilson Ramos'
p1537
aI361
aI341
aI32
aI91
aI12
aI0
aI11
aI47
aI0
aI0
aI17
aI57
aI136
asS'grimj002'
p1538
(lp1539
g1538
aS'Justin Grimm'
p1540
aI2
aI2
aI0
aI0
aI0
aI0
aI0
aI0
aI0
aI0
aI0
aI2
aI0
asS'stasm001'
p1541
(lp1542
g1541
aS'Max Stassi'
p1543
aI20
aI20
aI2
aI7
aI2
aI0
aI0
aI4
aI0
aI0
aI0
aI6
aI9
asS'johnc003'
p1544
(lp1545
g1544
aS'Chris Johnson'
p1546
aI611
aI582
aI43
aI153
aI27
aI0
aI10
aI58
aI6
aI0
aI23
aI159
aI210
asS'garcy001'
p1547
(lp1548
g1547
aS'Yimi Garcia'
p1549
aI1
aI1
aI0
aI0
aI0
aI0
aI0
aI0
aI0
aI0
aI0
aI0
aI0
asS'bautj002'
p1550
(lp1551
g1550
aS'Jose Bautista'
p1552
aI673
aI553
aI101
aI158
aI27
aI0
aI35
aI103
aI6
aI2
aI104
aI96
aI290
asS'pradm001'
p1553
(lp1554
g1553
aS'Martin Prado'
p1555
aI573
aI536
aI62
aI151
aI26
aI4
aI12
aI58
aI3
aI1
aI26
aI80
aI221
asS'conrb001'
p1556
(lp1557
g1556
aS'Brooks Conrad'
p1558
aI34
aI30
aI2
aI3
aI1
aI0
aI1
aI2
aI0
aI0
aI3
aI14
aI7
asS'manes001'
p1559
(lp1560
g1559
aS'Seth Maness'
p1561
aI5
aI5
aI0
aI2
aI0
aI0
aI0
aI0
aI0
aI0
aI0
aI0
aI2
asS'consj001'
p1562
(lp1563
g1562
aS'Jose Constanza'
p1564
aI4
aI4
aI1
aI0
aI0
aI0
aI0
aI0
aI0
aI0
aI0
aI1
aI0
asS'watkl001'
p1565
(lp1566
g1565
aS'Logan Watkins'
p1567
aI68
aI65
aI10
aI16
aI3
aI0
aI1
aI6
aI1
aI0
aI1
aI16
aI22
asS'schoj001'
p1568
(lp1569
g1568
aS'Jonathan Schoop'
p1570
aI481
aI455
aI48
aI95
aI18
aI0
aI16
aI45
aI2
aI0
aI13
aI122
aI161
asS'seagk001'
p1571
(lp1572
g1571
aS'Kyle Seager'
p1573
aI654
aI590
aI71
aI158
aI27
aI4
aI25
aI96
aI7
aI5
aI52
aI118
aI268
asS'jacke001'
p1574
(lp1575
g1574
aS'Edwin Jackson'
p1576
aI44
aI40
aI2
aI7
aI2
aI0
aI0
aI0
aI0
aI0
aI0
aI21
aI9
asS'montm001'
p1577
(lp1578
g1577
aS'Miguel Montero'
p1579
aI560
aI489
aI40
aI119
aI23
aI0
aI13
aI72
aI0
aI4
aI56
aI97
aI181
asS'giamj001'
p1580
(lp1581
g1580
aS'Jason Giambi'
p1582
aI70
aI60
aI3
aI8
aI2
aI0
aI2
aI5
aI0
aI0
aI9
aI12
aI16
asS'brucj001'
p1583
(lp1584
g1583
aS'Jay Bruce'
p1585
aI545
aI493
aI71
aI107
aI21
aI1
aI18
aI66
aI12
aI3
aI44
aI149
aI184
asS'mclon001'
p1586
(lp1587
g1586
aS'Nate McLouth'
p1588
aI162
aI139
aI10
aI24
aI6
aI0
aI1
aI7
aI4
aI1
aI16
aI35
aI33
asS'robed003'
p1589
(lp1590
g1589
aS'Daniel Robertson'
p1591
aI197
aI177
aI23
aI48
aI9
aI1
aI0
aI21
aI6
aI4
aI17
aI28
aI59
asS'zunim001'
p1592
(lp1593
g1592
aS'Mike Zunino'
p1594
aI476
aI438
aI51
aI87
aI20
aI2
aI22
aI60
aI0
aI3
aI17
aI158
aI177
asS'fryee001'
p1595
(lp1596
g1595
aS'Eric Fryer'
p1597
aI81
aI75
aI11
aI16
aI4
aI0
aI1
aI5
aI1
aI0
aI5
aI15
aI23
asS'reimn001'
p1598
(lp1599
g1598
aS'Nolan Reimold'
p1600
aI78
aI69
aI5
aI16
aI5
aI0
aI3
aI13
aI1
aI0
aI6
aI32
aI30
asS'fifes001'
p1601
(lp1602
g1601
aS'Stephen Fife'
p1603
aI3
aI3
aI0
aI0
aI0
aI0
aI0
aI0
aI0
aI0
aI0
aI1
aI0
asS'odorj001'
p1604
(lp1605
g1604
aS'Jake Odorizzi'
p1606
aI6
aI4
aI0
aI0
aI0
aI0
aI0
aI1
aI0
aI0
aI1
aI3
aI0
asS'blacc001'
p1607
(lp1608
g1607
aS'Charlie Blackmon'
p1609
aI648
aI593
aI82
aI171
aI27
aI3
aI19
aI72
aI28
aI10
aI31
aI96
aI261
asS'lemad001'
p1610
(lp1611
g1610
aS'DJ LeMahieu'
p1612
aI538
aI494
aI59
aI132
aI15
aI5
aI5
aI42
aI10
aI10
aI33
aI97
aI172
asS'guyeb001'
p1613
(lp1614
g1613
aS'Brandon Guyer'
p1615
aI294
aI259
aI37
aI69
aI15
aI1
aI3
aI26
aI6
aI1
aI16
aI52
aI95
asS'bergc001'
p1616
(lp1617
g1616
aS'Christian Bergman'
p1618
aI20
aI19
aI0
aI1
aI0
aI0
aI0
aI0
aI0
aI0
aI0
aI6
aI1
asS'schus001'
p1619
(lp1620
g1619
aS'Skip Schumaker'
p1621
aI271
aI247
aI22
aI58
aI12
aI0
aI2
aI22
aI2
aI1
aI18
aI50
aI76
asS'hannj001'
p1622
(lp1623
g1622
aS'Jack Hannahan'
p1624
aI50
aI48
aI3
aI9
aI3
aI0
aI0
aI2
aI0
aI0
aI2
aI17
aI12
asS'mikom001'
p1625
(lp1626
g1625
aS'Miles Mikolas'
p1627
aI2
aI1
aI0
aI0
aI0
aI0
aI0
aI0
aI0
aI0
aI0
aI0
aI0
asS'guera001'
p1628
(lp1629
g1628
aS'Alex Guerrero'
p1630
aI13
aI13
aI0
aI1
aI0
aI0
aI0
aI0
aI0
aI0
aI0
aI6
aI1
asS'morem001'
p1631
(lp1632
g1631
aS'Mitch Moreland'
p1633
aI184
aI167
aI18
aI41
aI9
aI1
aI2
aI23
aI0
aI0
aI12
aI43
aI58
asS'gonza003'
p1634
(lp1635
g1634
aS'Adrian Gonzalez'
p1636
aI660
aI591
aI83
aI163
aI41
aI0
aI27
aI116
aI1
aI1
aI56
aI112
aI285
asS'gonza002'
p1637
(lp1638
g1637
aS'Alex Gonzalez'
p1639
aI32
aI30
aI4
aI5
aI0
aI1
aI0
aI2
aI0
aI0
aI2
aI4
aI7
asS'kroli001'
p1640
(lp1641
g1640
aS'Ian Krol'
p1642
aI1
aI1
aI0
aI0
aI0
aI0
aI0
aI0
aI0
aI0
aI0
aI0
aI0
asS'houst002'
p1643
(lp1644
g1643
aS'T.J. House'
p1645
aI2
aI2
aI0
aI0
aI0
aI0
aI0
aI0
aI0
aI0
aI0
aI2
aI0
asS'lirir001'
p1646
(lp1647
g1646
aS'Rymer Liriano'
p1648
aI121
aI109
aI13
aI24
aI2
aI0
aI1
aI6
aI4
aI1
aI9
aI39
aI29
asS'nelsc001'
p1649
(lp1650
g1649
aS'Chris Nelson'
p1651
aI81
aI73
aI5
aI17
aI3
aI0
aI0
aI7
aI1
aI2
aI7
aI14
aI20
asS'bailh001'
p1652
(lp1653
g1652
aS'Homer Bailey'
p1654
aI51
aI41
aI3
aI6
aI0
aI0
aI0
aI3
aI0
aI0
aI2
aI18
aI6
asS'waltz001'
p1655
(lp1656
g1655
aS'Zach Walters'
p1657
aI137
aI127
aI16
aI23
aI3
aI0
aI10
aI17
aI0
aI0
aI9
aI48
aI56
asS'belim001'
p1658
(lp1659
g1658
aS'Matt Belisle'
p1660
aI1
aI1
aI0
aI0
aI0
aI0
aI0
aI0
aI0
aI0
aI0
aI0
aI0
asS'cosaj001'
p1661
(lp1662
g1661
aS'Jarred Cosart'
p1663
aI24
aI21
aI1
aI4
aI0
aI0
aI0
aI0
aI0
aI0
aI0
aI7
aI4
asS'dozib001'
p1664
(lp1665
g1664
aS'Brian Dozier'
p1666
aI707
aI598
aI112
aI145
aI33
aI1
aI23
aI71
aI21
aI7
aI89
aI129
aI249
asS'kawam001'
p1667
(lp1668
g1667
aS'Munenori Kawasaki'
p1669
aI274
aI240
aI31
aI62
aI7
aI1
aI0
aI17
aI1
aI0
aI22
aI49
aI71
asS'souzs001'
p1670
(lp1671
g1670
aS'Steven Souza'
p1672
aI26
aI23
aI2
aI3
aI0
aI0
aI2
aI2
aI0
aI0
aI3
aI7
aI9
asS'chavj001'
p1673
(lp1674
g1673
aS'Jesse Chavez'
p1675
aI3
aI3
aI0
aI0
aI0
aI0
aI0
aI0
aI0
aI0
aI0
aI3
aI0
asS'freed001'
p1676
(lp1677
g1676
aS'David Freese'
p1678
aI511
aI462
aI53
aI120
aI25
aI1
aI10
aI55
aI1
aI3
aI38
aI124
aI177
asS'spruz001'
p1679
(lp1680
g1679
aS'Zeke Spruill'
p1681
aI5
aI5
aI0
aI1
aI1
aI0
aI0
aI0
aI0
aI0
aI0
aI1
aI2
asS'linda001'
p1682
(lp1683
g1682
aS'Adam Lind'
p1684
aI318
aI290
aI38
aI93
aI24
aI2
aI6
aI40
aI0
aI0
aI28
aI48
aI139
asS'villc001'
p1685
(lp1686
g1685
aS'Carlos Villanueva'
p1687
aI13
aI10
aI0
aI0
aI0
aI0
aI0
aI0
aI0
aI0
aI0
aI6
aI0
asS'konep001'
p1688
(lp1689
g1688
aS'Paul Konerko'
p1690
aI224
aI208
aI15
aI43
aI8
aI0
aI5
aI22
aI0
aI0
aI10
aI51
aI66
asS'denoc001'
p1691
(lp1692
g1691
aS'Chris Denorfia'
p1693
aI358
aI330
aI36
aI76
aI12
aI4
aI3
aI21
aI9
aI3
aI25
aI70
aI105
asS'gorzt001'
p1694
(lp1695
g1694
aS'Tom Gorzelanny'
p1696
aI1
aI1
aI0
aI0
aI0
aI0
aI0
aI0
aI0
aI0
aI0
aI1
aI0
asS'rodry001'
p1697
(lp1698
g1697
aS'Yorman Rodriguez'
p1699
aI29
aI27
aI3
aI6
aI0
aI0
aI0
aI2
aI0
aI1
aI1
aI12
aI6
asS'sweer001'
p1700
(lp1701
g1700
aS'Ryan Sweeney'
p1702
aI226
aI207
aI22
aI52
aI9
aI0
aI3
aI20
aI0
aI0
aI15
aI33
aI70
asS'alcaa001'
p1703
(lp1704
g1703
aS'Arismendy Alcantara'
p1705
aI300
aI278
aI31
aI57
aI11
aI2
aI10
aI29
aI8
aI5
aI17
aI93
aI102
asS'philb001'
p1706
(lp1707
g1706
aS'Brandon Phillips'
p1708
aI499
aI462
aI44
aI123
aI25
aI0
aI8
aI51
aI2
aI3
aI23
aI74
aI172
asS'hawkl001'
p1709
(lp1710
g1709
aS'LaTroy Hawkins'
p1711
aI1
aI1
aI0
aI0
aI0
aI0
aI0
aI0
aI0
aI0
aI0
aI1
aI0
asS'canor001'
p1712
(lp1713
g1712
aS'Robinson Cano'
p1714
aI665
aI595
aI77
aI187
aI37
aI2
aI14
aI82
aI10
aI3
aI61
aI68
aI270
asS'lavar001'
p1715
(lp1716
g1715
aS'Ryan Lavarnway'
p1717
aI10
aI10
aI0
aI0
aI0
aI0
aI0
aI0
aI0
aI0
aI0
aI3
aI0
asS'salec001'
p1718
(lp1719
g1718
aS'Chris Sale'
p1720
aI3
aI3
aI0
aI0
aI0
aI0
aI0
aI0
aI0
aI0
aI0
aI2
aI0
asS'sprig001'
p1721
(lp1722
g1721
aS'George Springer'
p1723
aI345
aI295
aI45
aI68
aI8
aI1
aI20
aI51
aI5
aI2
aI39
aI114
aI138
asS'quinj001'
p1724
(lp1725
g1724
aS'Jose Quintana'
p1726
aI10
aI9
aI0
aI0
aI0
aI0
aI0
aI0
aI0
aI0
aI0
aI4
aI0
asS'ceder002'
p1727
(lp1728
g1727
aS'Ronny Cedeno'
p1729
aI9
aI9
aI0
aI0
aI0
aI0
aI0
aI0
aI0
aI0
aI0
aI2
aI0
asS'gee-d001'
p1730
(lp1731
g1730
aS'Dillon Gee'
p1732
aI43
aI38
aI1
aI1
aI0
aI0
aI0
aI1
aI0
aI0
aI2
aI17
aI1
asS'ramia003'
p1733
(lp1734
g1733
aS'Alexei Ramirez'
p1735
aI657
aI622
aI82
aI170
aI35
aI2
aI15
aI74
aI21
aI4
aI24
aI81
aI254
asS'ramia001'
p1736
(lp1737
g1736
aS'Aramis Ramirez'
p1738
aI531
aI494
aI47
aI141
aI23
aI1
aI15
aI66
aI3
aI0
aI21
aI75
aI211
asS'gomej002'
p1739
(lp1740
g1739
aS'Jeanmar Gomez'
p1741
aI2
aI1
aI0
aI1
aI0
aI0
aI0
aI0
aI0
aI0
aI0
aI0
aI1
asS'aguij001'
p1742
(lp1743
g1742
aS'Jesus Aguilar'
p1744
aI38
aI33
aI2
aI4
aI0
aI0
aI0
aI3
aI0
aI0
aI4
aI13
aI4
asS'getzc001'
p1745
(lp1746
g1745
aS'Chris Getz'
p1747
aI28
aI25
aI1
aI4
aI1
aI0
aI0
aI0
aI2
aI0
aI1
aI4
aI5
asS'glenb001'
p1748
(lp1749
g1748
aS'Brad Glenn'
p1750
aI16
aI15
aI0
aI1
aI0
aI0
aI0
aI0
aI0
aI0
aI1
aI5
aI1
asS'osuls001'
p1751
(lp1752
g1751
aS"Sean O'Sullivan"
p1753
aI3
aI3
aI0
aI0
aI0
aI0
aI0
aI0
aI0
aI0
aI0
aI2
aI0
asS'phelc001'
p1754
(lp1755
g1754
aS'Cord Phelps'
p1756
aI3
aI3
aI0
aI0
aI0
aI0
aI0
aI0
aI0
aI0
aI0
aI0
aI0
asS'recka001'
p1757
(lp1758
g1757
aS'Anthony Recker'
p1759
aI189
aI174
aI18
aI35
aI9
aI0
aI7
aI27
aI1
aI1
aI10
aI64
aI65
asS'descd001'
p1760
(lp1761
g1760
aS'Daniel Descalso'
p1762
aI184
aI161
aI20
aI39
aI11
aI0
aI0
aI10
aI1
aI3
aI20
aI33
aI50
asS'kobej001'
p1763
(lp1764
g1763
aS'Jeff Kobernus'
p1765
aI8
aI6
aI2
aI0
aI0
aI0
aI0
aI0
aI0
aI0
aI1
aI1
aI0
asS'venaw001'
p1766
(lp1767
g1766
aS'Will Venable'
p1768
aI448
aI406
aI47
aI91
aI13
aI2
aI8
aI33
aI11
aI6
aI33
aI107
aI132
asS'medit001'
p1769
(lp1770
g1769
aS'Tommy Medica'
p1771
aI259
aI240
aI31
aI56
aI11
aI2
aI9
aI27
aI6
aI1
aI14
aI75
aI98
asS'figuc001'
p1772
(lp1773
g1772
aS'Cole Figueroa'
p1774
aI49
aI43
aI6
aI10
aI2
aI1
aI0
aI6
aI0
aI0
aI4
aI4
aI14
asS'ranaa001'
p1775
(lp1776
g1775
aS'Anthony Ranaudo'
p1777
aI5
aI5
aI0
aI0
aI0
aI0
aI0
aI0
aI0
aI0
aI0
aI3
aI0
asS'bogax001'
p1778
(lp1779
g1778
aS'Xander Bogaerts'
p1780
aI594
aI538
aI60
aI129
aI28
aI1
aI12
aI46
aI2
aI3
aI39
aI138
aI195
asS'gwynt002'
p1781
(lp1782
g1781
aS'Tony Jr Gwynn'
p1783
aI127
aI105
aI14
aI16
aI2
aI1
aI0
aI3
aI3
aI0
aI15
aI23
aI20
asS'garcl004'
p1784
(lp1785
g1784
aS'Leury Garcia'
p1786
aI155
aI145
aI13
aI24
aI3
aI0
aI1
aI6
aI11
aI1
aI5
aI48
aI30
asS'quenc001'
p1787
(lp1788
g1787
aS'Carlos Quentin'
p1789
aI155
aI130
aI9
aI23
aI6
aI0
aI4
aI18
aI0
aI0
aI17
aI33
aI41
asS'darvy001'
p1790
(lp1791
g1790
aS'Yu Darvish'
p1792
aI5
aI5
aI0
aI1
aI1
aI0
aI0
aI0
aI0
aI0
aI0
aI2
aI2
asS'pimes001'
p1793
(lp1794
g1793
aS'Stolmy Pimentel'
p1795
aI5
aI5
aI0
aI0
aI0
aI0
aI0
aI0
aI0
aI0
aI0
aI3
aI0
asS'fernj003'
p1796
(lp1797
g1796
aS'Jose Fernandez'
p1798
aI18
aI16
aI1
aI2
aI0
aI0
aI0
aI1
aI0
aI0
aI0
aI6
aI2
asS'watst001'
p1799
(lp1800
g1799
aS'Tony Watson'
p1801
aI3
aI3
aI0
aI1
aI0
aI0
aI0
aI0
aI0
aI0
aI0
aI2
aI1
asS'shucj001'
p1802
(lp1803
g1802
aS'J.B. Shuck'
p1804
aI114
aI110
aI12
aI16
aI1
aI0
aI2
aI9
aI2
aI0
aI3
aI12
aI23
asS'overl001'
p1805
(lp1806
g1805
aS'Lyle Overbay'
p1807
aI296
aI258
aI24
aI60
aI14
aI0
aI4
aI35
aI2
aI0
aI36
aI60
aI86
asS'haraa001'
p1808
(lp1809
g1808
aS'Aaron Harang'
p1810
aI71
aI61
aI2
aI5
aI0
aI0
aI0
aI1
aI0
aI0
aI1
aI29
aI5
asS'casts001'
p1811
(lp1812
g1811
aS'Starlin Castro'
p1813
aI569
aI528
aI58
aI154
aI33
aI1
aI14
aI65
aI4
aI4
aI35
aI100
aI231
asS'seguj002'
p1814
(lp1815
g1814
aS'Jean Segura'
p1816
aI557
aI513
aI60
aI126
aI14
aI6
aI5
aI31
aI20
aI9
aI28
aI70
aI167
asS'petiy001'
p1817
(lp1818
g1817
aS'Yusmeiro Petit'
p1819
aI27
aI25
aI2
aI1
aI0
aI0
aI0
aI0
aI0
aI0
aI1
aI13
aI1
asS'pricd001'
p1820
(lp1821
g1820
aS'David Price'
p1822
aI4
aI4
aI0
aI0
aI0
aI0
aI0
aI0
aI0
aI0
aI0
aI2
aI0
asS'maybj001'
p1823
(lp1824
g1823
aS'John Mayberry'
p1825
aI168
aI146
aI15
aI31
aI10
aI0
aI7
aI23
aI0
aI0
aI20
aI35
aI62
asS'workb001'
p1826
(lp1827
g1826
aS'Brandon Workman'
p1828
aI4
aI3
aI0
aI0
aI0
aI0
aI0
aI0
aI0
aI0
aI0
aI3
aI0
asS'rusic001'
p1829
(lp1830
g1829
aS'Chris Rusin'
p1831
aI3
aI3
aI0
aI0
aI0
aI0
aI0
aI0
aI0
aI0
aI0
aI1
aI0
asS'poseb001'
p1832
(lp1833
g1832
aS'Buster Posey'
p1834
aI605
aI547
aI72
aI170
aI28
aI2
aI22
aI89
aI0
aI1
aI47
aI69
aI268
asS'turnj002'
p1835
(lp1836
g1835
aS'Jacob Turner'
p1837
aI29
aI23
aI1
aI4
aI2
aI0
aI0
aI0
aI0
aI0
aI1
aI12
aI6
asS'turnj001'
p1838
(lp1839
g1838
aS'Justin Turner'
p1840
aI322
aI288
aI46
aI98
aI21
aI1
aI7
aI43
aI6
aI1
aI28
aI58
aI142
asS'burnb002'
p1841
(lp1842
g1841
aS'Billy Burns'
p1843
aI6
aI6
aI4
aI1
aI0
aI0
aI0
aI0
aI3
aI1
aI0
aI0
aI1
asS'barmc001'
p1844
(lp1845
g1844
aS'Clint Barmes'
p1846
aI116
aI102
aI15
aI25
aI5
aI0
aI0
aI7
aI1
aI1
aI9
aI18
aI30
asS'owinc001'
p1847
(lp1848
g1847
aS'Chris Owings'
p1849
aI332
aI310
aI34
aI81
aI15
aI6
aI6
aI26
aI8
aI1
aI16
aI67
aI126
asS'treib001'
p1850
(lp1851
g1850
aS'Blake Treinen'
p1852
aI15
aI12
aI0
aI1
aI0
aI0
aI0
aI0
aI0
aI0
aI1
aI8
aI1
asS'singj001'
p1853
(lp1854
g1853
aS'Jon Singleton'
p1855
aI362
aI310
aI42
aI52
aI13
aI0
aI13
aI44
aI2
aI3
aI50
aI134
aI104
asS'duffd001'
p1856
(lp1857
g1856
aS'Danny Duffy'
p1858
aI7
aI6
aI1
aI0
aI0
aI0
aI0
aI0
aI0
aI0
aI0
aI3
aI0
asS'ahmen001'
p1859
(lp1860
g1859
aS'Nick Ahmed'
p1861
aI75
aI70
aI9
aI14
aI2
aI0
aI1
aI4
aI0
aI1
aI3
aI10
aI19
asS'vottj001'
p1862
(lp1863
g1862
aS'Joey Votto'
p1864
aI272
aI220
aI32
aI56
aI16
aI0
aI6
aI23
aI1
aI1
aI47
aI49
aI90
asS'rossd001'
p1865
(lp1866
g1865
aS'David Ross'
p1867
aI171
aI152
aI16
aI28
aI7
aI0
aI7
aI15
aI0
aI1
aI16
aI58
aI56
asS'teixm001'
p1868
(lp1869
g1868
aS'Mark Teixeira'
p1870
aI508
aI440
aI56
aI95
aI14
aI0
aI22
aI62
aI1
aI1
aI58
aI109
aI175
asS'deaza001'
p1871
(lp1872
g1871
aS'Alejandro de Aza'
p1873
aI528
aI477
aI56
aI120
aI24
aI8
aI8
aI41
aI17
aI10
aI39
aI119
aI184
asS'elmoj001'
p1874
(lp1875
g1874
aS'Jake Elmore'
p1876
aI12
aI11
aI0
aI2
aI0
aI0
aI0
aI0
aI0
aI0
aI1
aI4
aI2
asS'white004'
p1877
(lp1878
g1877
aS'Eli Whiteside'
p1879
aI26
aI25
aI0
aI3
aI1
aI0
aI0
aI2
aI1
aI0
aI0
aI8
aI4
asS'bartj001'
p1880
(lp1881
g1880
aS'Jason Bartlett'
p1882
aI4
aI3
aI3
aI0
aI0
aI0
aI0
aI0
aI0
aI0
aI0
aI3
aI0
asS'robis001'
p1883
(lp1884
g1883
aS'Shane Robinson'
p1885
aI66
aI60
aI3
aI9
aI1
aI1
aI0
aI4
aI0
aI1
aI6
aI10
aI12
asS'skagt001'
p1886
(lp1887
g1886
aS'Tyler Skaggs'
p1888
aI3
aI3
aI0
aI0
aI0
aI0
aI0
aI0
aI0
aI0
aI0
aI2
aI0
asS'vazqc001'
p1889
(lp1890
g1889
aS'Christian Vazquez'
p1891
aI201
aI175
aI15
aI42
aI9
aI0
aI1
aI20
aI0
aI0
aI19
aI33
aI54
asS'drews001'
p1892
(lp1893
g1892
aS'Stephen Drew'
p1894
aI300
aI271
aI18
aI44
aI14
aI1
aI7
aI26
aI1
aI1
aI27
aI75
aI81
asS'troum001'
p1895
(lp1896
g1895
aS'Mike Trout'
p1897
aI705
aI602
aI115
aI173
aI39
aI9
aI36
aI111
aI16
aI2
aI83
aI184
aI338
asS'furcr001'
p1898
(lp1899
g1898
aS'Rafael Furcal'
p1900
aI37
aI35
aI4
aI6
aI0
aI1
aI0
aI2
aI0
aI0
aI2
aI7
aI8
asS'navae001'
p1901
(lp1902
g1901
aS'Efren Navarro'
p1903
aI174
aI159
aI17
aI39
aI10
aI1
aI1
aI14
aI1
aI3
aI13
aI27
aI54
asS'abret001'
p1904
(lp1905
g1904
aS'Tony Abreu'
p1906
aI4
aI4
aI0
aI0
aI0
aI0
aI0
aI0
aI0
aI0
aI0
aI0
aI0
asS'pettj001'
p1907
(lp1908
g1907
aS'Jonathan Pettibone'
p1909
aI2
aI2
aI0
aI0
aI0
aI0
aI0
aI0
aI0
aI0
aI0
aI1
aI0
asS'murpd005'
p1910
(lp1911
g1910
aS'David Murphy'
p1912
aI462
aI416
aI40
aI109
aI25
aI1
aI8
aI58
aI2
aI3
aI36
aI61
aI160
asS'gricr001'
p1913
(lp1914
g1913
aS'Randal Grichuk'
p1915
aI116
aI110
aI11
aI27
aI6
aI1
aI3
aI8
aI0
aI2
aI5
aI31
aI44
asS'minom001'
p1916
(lp1917
g1916
aS'Mike Minor'
p1918
aI48
aI45
aI4
aI7
aI1
aI0
aI1
aI4
aI0
aI0
aI1
aI16
aI11
asS'woodt004'
p1919
(lp1920
g1919
aS'Travis Wood'
p1921
aI66
aI56
aI9
aI13
aI2
aI0
aI3
aI10
aI0
aI0
aI1
aI17
aI24
asS'lairg001'
p1922
(lp1923
g1922
aS'Gerald Laird'
p1924
aI167
aI152
aI12
aI31
aI8
aI0
aI0
aI10
aI0
aI0
aI14
aI33
aI39
asS'uptoj001'
p1925
(lp1926
g1925
aS'Justin Upton'
p1927
aI641
aI566
aI77
aI153
aI34
aI2
aI29
aI102
aI8
aI4
aI60
aI171
aI278
asS'jasoj001'
p1928
(lp1929
g1928
aS'John Jaso'
p1930
aI344
aI307
aI42
aI81
aI18
aI3
aI9
aI40
aI2
aI0
aI28
aI60
aI132
asS'sandp001'
p1931
(lp1932
g1931
aS'Pablo Sandoval'
p1933
aI638
aI588
aI68
aI164
aI26
aI3
aI16
aI73
aI0
aI0
aI39
aI85
aI244
asS'franj005'
p1934
(lp1935
g1934
aS'Juan Francisco'
p1936
aI320
aI287
aI40
aI63
aI16
aI2
aI16
aI43
aI0
aI2
aI27
aI116
aI131
asS'franj004'
p1937
(lp1938
g1937
aS'Jeff Francoeur'
p1939
aI28
aI24
aI2
aI2
aI0
aI0
aI0
aI1
aI0
aI0
aI3
aI7
aI2
asS'franj003'
p1940
(lp1941
g1940
aS'Jeff Francis'
p1942
aI2
aI2
aI0
aI0
aI0
aI0
aI0
aI0
aI0
aI0
aI0
aI2
aI0
asS'bianj001'
p1943
(lp1944
g1943
aS'Jeff Bianchi'
p1945
aI74
aI70
aI4
aI12
aI1
aI0
aI0
aI6
aI0
aI0
aI3
aI17
aI13
asS'penab002'
p1946
(lp1947
g1946
aS'Brayan Pena'
p1948
aI372
aI348
aI23
aI88
aI18
aI1
aI5
aI26
aI2
aI3
aI20
aI42
aI123
asS'goldp001'
p1949
(lp1950
g1949
aS'Paul Goldschmidt'
p1951
aI479
aI406
aI75
aI122
aI39
aI1
aI19
aI69
aI9
aI3
aI64
aI110
aI220
asS'gillc001'
p1952
(lp1953
g1952
aS'Conor Gillaspie'
p1954
aI506
aI464
aI50
aI131
aI31
aI5
aI7
aI57
aI0
aI4
aI36
aI78
aI193
asS'lakej001'
p1955
(lp1956
g1955
aS'Junior Lake'
p1957
aI326
aI308
aI30
aI65
aI10
aI3
aI9
aI25
aI7
aI3
aI14
aI110
aI108
asS'hernc005'
p1958
(lp1959
g1958
aS'Cesar Hernandez'
p1960
aI125
aI114
aI13
aI27
aI2
aI0
aI1
aI4
aI1
aI1
aI9
aI33
aI32
asS'gillc002'
p1961
(lp1962
g1961
aS'Cole Gillespie'
p1963
aI81
aI74
aI9
aI18
aI2
aI0
aI1
aI5
aI2
aI2
aI6
aI13
aI23
asS'dysoj001'
p1964
(lp1965
g1964
aS'Jarrod Dyson'
p1966
aI290
aI260
aI33
aI70
aI4
aI4
aI1
aI24
aI36
aI7
aI22
aI52
aI85
asS'garcj002'
p1967
(lp1968
g1967
aS'Santiago Casilla'
p1969
aI1
aI1
aI0
aI0
aI0
aI0
aI0
aI0
aI0
aI0
aI0
aI0
aI0
asS'chamj002'
p1970
(lp1971
g1970
aS'Joba Chamberlain'
p1972
aI1
aI1
aI0
aI0
aI0
aI0
aI0
aI0
aI0
aI0
aI0
aI1
aI0
asS'crawb001'
p1973
(lp1974
g1973
aS'Brandon Crawford'
p1975
aI564
aI491
aI54
aI121
aI20
aI10
aI10
aI69
aI5
aI3
aI59
aI129
aI191
asS'voger001'
p1976
(lp1977
g1976
aS'Ryan Vogelsong'
p1978
aI66
aI61
aI3
aI7
aI2
aI0
aI0
aI2
aI0
aI0
aI2
aI20
aI9
asS'garcj004'
p1979
(lp1980
g1979
aS'Jaime Garcia'
p1981
aI16
aI12
aI2
aI3
aI0
aI0
aI0
aI0
aI0
aI0
aI0
aI2
aI3
asS'branm003'
p1982
(lp1983
g1982
aS'Michael Brantley'
p1984
aI676
aI611
aI94
aI200
aI45
aI2
aI20
aI97
aI23
aI1
aI52
aI56
aI309
asS'coghc001'
p1985
(lp1986
g1985
aS'Chris Coghlan'
p1987
aI432
aI385
aI50
aI109
aI28
aI5
aI9
aI41
aI7
aI4
aI39
aI81
aI174
asS'loper002'
p1988
(lp1989
g1988
aS'Rafael Lopez'
p1990
aI14
aI11
aI0
aI2
aI0
aI0
aI0
aI1
aI0
aI0
aI2
aI4
aI2
asS'herre001'
p1991
(lp1992
g1991
aS'Elian Herrera'
p1993
aI140
aI135
aI14
aI37
aI7
aI1
aI0
aI5
aI4
aI1
aI3
aI36
aI46
asS'edgij001'
p1994
(lp1995
g1994
aS'Josh Edgin'
p1996
aI1
aI1
aI0
aI0
aI0
aI0
aI0
aI0
aI0
aI0
aI0
aI1
aI0
asS'pennc001'
p1997
(lp1998
g1997
aS'Cliff Pennington'
p1999
aI201
aI177
aI21
aI45
aI5
aI3
aI2
aI10
aI6
aI1
aI20
aI36
aI62
asS'perer003'
p2000
(lp2001
g2000
aS'Roberto Perez'
p2002
aI95
aI85
aI10
aI23
aI5
aI0
aI1
aI4
aI0
aI0
aI5
aI26
aI31
asS'johnk003'
p2003
(lp2004
g2003
aS'Kelly Johnson'
p2005
aI297
aI265
aI29
aI57
aI14
aI2
aI7
aI27
aI2
aI2
aI29
aI71
aI96
asS'martl004'
p2006
(lp2007
g2006
aS'Leonys Martin'
p2008
aI583
aI533
aI68
aI146
aI13
aI7
aI7
aI40
aI31
aI12
aI39
aI114
aI194
asS'johnk004'
p2009
(lp2010
g2009
aS'Kris Johnson'
p2011
aI1
aI1
aI0
aI0
aI0
aI0
aI0
aI0
aI0
aI0
aI0
aI1
aI0
asS'detwr001'
p2012
(lp2013
g2012
aS'Ross Detwiler'
p2014
aI4
aI2
aI1
aI0
aI0
aI0
aI0
aI0
aI0
aI0
aI1
aI1
aI0
asS'infao001'
p2015
(lp2016
g2015
aS'Omar Infante'
p2017
aI575
aI528
aI50
aI133
aI21
aI3
aI6
aI66
aI9
aI3
aI33
aI68
aI178
asS'zeidj001'
p2018
(lp2019
g2018
aS'Josh Zeid'
p2020
aI1
aI1
aI0
aI0
aI0
aI0
aI0
aI0
aI0
aI0
aI0
aI1
aI0
asS'almoz001'
p2021
(lp2022
g2021
aS'Zoilo Almonte'
p2023
aI36
aI36
aI2
aI5
aI0
aI0
aI1
aI3
aI1
aI0
aI0
aI14
aI8
asS'mercj002'
p2024
(lp2025
g2024
aS'Jordy Mercer'
p2026
aI555
aI506
aI56
aI129
aI27
aI2
aI12
aI55
aI4
aI1
aI35
aI89
aI196
asS'cingt001'
p2027
(lp2028
g2027
aS'Tony Cingrani'
p2029
aI22
aI21
aI0
aI3
aI0
aI0
aI0
aI0
aI0
aI0
aI0
aI5
aI3
asS'hamec001'
p2030
(lp2031
g2030
aS'Cole Hamels'
p2032
aI69
aI62
aI1
aI13
aI2
aI0
aI0
aI0
aI0
aI0
aI0
aI28
aI15
asS'mansj001'
p2033
(lp2034
g2033
aS'Jeff Manship'
p2035
aI2
aI2
aI0
aI0
aI0
aI0
aI0
aI0
aI0
aI0
aI0
aI0
aI0
asS'matzt001'
p2036
(lp2037
g2036
aS'Tyler Matzek'
p2038
aI43
aI38
aI2
aI7
aI1
aI0
aI0
aI0
aI0
aI0
aI2
aI13
aI8
asS'bourm001'
p2039
(lp2040
g2039
aS'Michael Bourn'
p2041
aI487
aI444
aI57
aI114
aI17
aI10
aI3
aI28
aI10
aI6
aI35
aI114
aI160
asS'jacka001'
p2042
(lp2043
g2042
aS'Austin Jackson'
p2044
aI656
aI597
aI71
aI153
aI30
aI6
aI4
aI47
aI20
aI6
aI47
aI144
aI207
asS'goset001'
p2045
(lp2046
g2045
aS'Tuffy Gosewisch'
p2047
aI132
aI129
aI6
aI29
aI8
aI0
aI1
aI7
aI0
aI0
aI3
aI24
aI40
asS'uribj002'
p2048
(lp2049
g2048
aS'Juan Uribe'
p2050
aI404
aI386
aI36
aI120
aI23
aI0
aI9
aI54
aI0
aI1
aI15
aI77
aI170
asS'ruggj001'
p2051
(lp2052
g2051
aS'Justin Ruggiano'
p2053
aI250
aI224
aI29
aI63
aI13
aI1
aI6
aI28
aI2
aI4
aI18
aI70
aI96
asS'stewi001'
p2054
(lp2055
g2054
aS'Ian Stewart'
p2056
aI72
aI68
aI8
aI12
aI2
aI3
aI2
aI7
aI1
aI0
aI3
aI31
aI26
asS'peguc001'
p2057
(lp2058
g2057
aS'Carlos Peguero'
p2059
aI10
aI9
aI1
aI2
aI1
aI0
aI0
aI1
aI0
aI0
aI1
aI5
aI3
asS'laroa001'
p2060
(lp2061
g2060
aS'Adam LaRoche'
p2062
aI586
aI494
aI73
aI128
aI19
aI0
aI26
aI92
aI3
aI0
aI82
aI108
aI225
asS'ramij003'
p2063
(lp2064
g2063
aS'Jose Ramirez'
p2065
aI266
aI237
aI27
aI62
aI10
aI2
aI2
aI17
aI10
aI1
aI13
aI35
aI82
asS'polaj001'
p2066
(lp2067
g2066
aS'Jorge Polanco'
p2068
aI8
aI6
aI2
aI2
aI1
aI1
aI0
aI3
aI0
aI0
aI2
aI2
aI5
asS'ryanb002'
p2069
(lp2070
g2069
aS'Brendan Ryan'
p2071
aI124
aI114
aI5
aI19
aI4
aI0
aI0
aI8
aI0
aI2
aI4
aI30
aI23
asS'paulx001'
p2072
(lp2073
g2072
aS'Xavier Paul'
p2074
aI21
aI20
aI2
aI2
aI0
aI0
aI0
aI0
aI0
aI0
aI1
aI8
aI2
asS'norrd001'
p2075
(lp2076
g2075
aS'Derek Norris'
p2077
aI442
aI385
aI46
aI104
aI19
aI1
aI10
aI55
aI2
aI2
aI54
aI86
aI155
asS'weekr001'
p2078
(lp2079
g2078
aS'Rickie Weeks'
p2080
aI286
aI252
aI36
aI69
aI19
aI1
aI8
aI29
aI3
aI4
aI25
aI73
aI114
asS'perej002'
p2081
(lp2082
g2081
aS'Juan Perez'
p2083
aI109
aI100
aI13
aI17
aI7
aI0
aI1
aI3
aI0
aI1
aI5
aI25
aI27
asS'dools001'
p2084
(lp2085
g2084
aS'Sean Doolittle'
p2086
aI1
aI1
aI0
aI0
aI0
aI0
aI0
aI0
aI0
aI0
aI0
aI0
aI0
asS'longe001'
p2087
(lp2088
g2087
aS'Evan Longoria'
p2089
aI700
aI624
aI83
aI158
aI26
aI1
aI22
aI91
aI5
aI0
aI57
aI133
aI252
asS'figaa001'
p2090
(lp2091
g2090
aS'Alfredo Figaro'
p2092
aI1
aI1
aI0
aI0
aI0
aI0
aI0
aI0
aI0
aI0
aI0
aI0
aI0
asS'castw002'
p2093
(lp2094
g2093
aS'Welington Castillo'
p2095
aI417
aI380
aI28
aI90
aI19
aI0
aI13
aI46
aI0
aI0
aI26
aI102
aI148
asS'peavj001'
p2096
(lp2097
g2096
aS'Jake Peavy'
p2098
aI24
aI23
aI1
aI0
aI0
aI0
aI0
aI0
aI0
aI0
aI0
aI14
aI0
asS'escoy001'
p2099
(lp2100
g2099
aS'Yunel Escobar'
p2101
aI529
aI476
aI33
aI123
aI18
aI0
aI7
aI39
aI1
aI1
aI43
aI60
aI162
asS'coloc002'
p2102
(lp2103
g2102
aS'Christian Colon'
p2104
aI49
aI45
aI8
aI15
aI5
aI1
aI0
aI6
aI2
aI0
aI3
aI4
aI22
asS'gomej001'
p2105
(lp2106
g2105
aS'Jonny Gomes'
p2107
aI321
aI273
aI28
aI64
aI8
aI0
aI6
aI37
aI0
aI0
aI35
aI88
aI90
asS'panij002'
p2108
(lp2109
g2108
aS'Joe Panik'
p2110
aI287
aI269
aI31
aI82
aI10
aI2
aI1
aI18
aI0
aI0
aI16
aI33
aI99
asS'hillk002'
p2111
(lp2112
g2111
aS'Koyie Hill'
p2113
aI22
aI21
aI2
aI5
aI1
aI0
aI0
aI1
aI0
aI0
aI1
aI5
aI6
asS'paxtj001'
p2114
(lp2115
g2114
aS'James Paxton'
p2116
aI2
aI1
aI0
aI0
aI0
aI0
aI0
aI0
aI0
aI0
aI0
aI1
aI0
asS'fielp001'
p2117
(lp2118
g2117
aS'Prince Fielder'
p2119
aI178
aI150
aI19
aI37
aI8
aI0
aI3
aI16
aI0
aI0
aI25
aI24
aI54
asS'encae001'
p2120
(lp2121
g2120
aS'Edwin Encarnacion'
p2122
aI542
aI477
aI75
aI128
aI27
aI2
aI34
aI98
aI2
aI0
aI62
aI82
aI261
asS'burna001'
p2123
(lp2124
g2123
aS'A.J. Burnett'
p2125
aI65
aI60
aI5
aI8
aI2
aI0
aI0
aI1
aI0
aI0
aI3
aI23
aI10
asS'pennb002'
p2126
(lp2127
g2126
aS'Brad Penny'
p2128
aI8
aI6
aI1
aI2
aI1
aI0
aI0
aI0
aI0
aI0
aI0
aI3
aI3
asS'saunm001'
p2129
(lp2130
g2129
aS'Michael Saunders'
p2131
aI263
aI231
aI38
aI63
aI11
aI3
aI8
aI34
aI4
aI5
aI26
aI59
aI104
asS'lockj001'
p2132
(lp2133
g2132
aS'Jeff Locke'
p2134
aI50
aI45
aI3
aI5
aI0
aI0
aI0
aI0
aI0
aI0
aI2
aI30
aI5
asS'adaml001'
p2135
(lp2136
g2135
aS'Lane Adams'
p2137
aI3
aI3
aI1
aI0
aI0
aI0
aI0
aI0
aI0
aI0
aI0
aI2
aI0
asS'grany001'
p2138
(lp2139
g2138
aS'Yasmani Grandal'
p2140
aI443
aI377
aI47
aI85
aI19
aI1
aI15
aI49
aI3
aI0
aI58
aI115
aI151
asS'villj001'
p2141
(lp2142
g2141
aS'Jonathan Villar'
p2143
aI289
aI263
aI31
aI55
aI13
aI2
aI7
aI27
aI17
aI4
aI19
aI80
aI93
asS'solay001'
p2144
(lp2145
g2144
aS'Yangervis Solarte'
p2146
aI535
aI469
aI56
aI122
aI19
aI1
aI10
aI48
aI0
aI1
aI53
aI58
aI173
asS'cabre001'
p2147
(lp2148
g2147
aS'Everth Cabrera'
p2149
aI391
aI357
aI36
aI83
aI13
aI1
aI3
aI20
aI18
aI8
aI20
aI86
aI107
asS'gomey001'
p2150
(lp2151
g2150
aS'Yan Gomes'
p2152
aI518
aI485
aI61
aI135
aI25
aI3
aI21
aI74
aI0
aI0
aI24
aI120
aI229
asS'taylm002'
p2153
(lp2154
g2153
aS'Michael Taylor'
p2155
aI43
aI39
aI5
aI8
aI3
aI0
aI1
aI5
aI0
aI2
aI3
aI17
aI14
asS'ethia001'
p2156
(lp2157
g2156
aS'Andre Ethier'
p2158
aI380
aI341
aI29
aI85
aI17
aI6
aI4
aI42
aI2
aI2
aI31
aI74
aI126
asS'mesod001'
p2159
(lp2160
g2159
aS'Devin Mesoraco'
p2161
aI440
aI384
aI54
aI105
aI25
aI0
aI25
aI80
aI1
aI3
aI41
aI103
aI205
asS'adamc001'
p2162
(lp2163
g2162
aS'Cristhian Adames'
p2164
aI15
aI15
aI1
aI1
aI0
aI0
aI0
aI0
aI0
aI0
aI0
aI5
aI1
asS'happj001'
p2165
(lp2166
g2165
aS'J.A. Happ'
p2167
aI4
aI4
aI0
aI0
aI0
aI0
aI0
aI0
aI0
aI0
aI0
aI4
aI0
asS'perad001'
p2168
(lp2169
g2168
aS'David Peralta'
p2170
aI348
aI329
aI40
aI94
aI12
aI9
aI8
aI36
aI6
aI3
aI16
aI60
aI148
asS'machm001'
p2171
(lp2172
g2171
aS'Manny Machado'
p2173
aI354
aI327
aI38
aI91
aI14
aI0
aI12
aI32
aI2
aI0
aI20
aI68
aI141
asS'kenni001'
p2174
(lp2175
g2174
aS'Ian Kennedy'
p2176
aI63
aI52
aI3
aI6
aI1
aI0
aI1
aI5
aI0
aI0
aI5
aI24
aI10
asS'pench001'
p2177
(lp2178
g2177
aS'Hunter Pence'
p2179
aI708
aI650
aI106
aI180
aI29
aI10
aI20
aI74
aI13
aI6
aI52
aI130
aI289
asS'zobrb001'
p2180
(lp2181
g2180
aS'Ben Zobrist'
p2182
aI654
aI570
aI83
aI155
aI34
aI3
aI10
aI52
aI10
aI5
aI75
aI84
aI225
asS'penar002'
p2183
(lp2184
g2183
aS'Ramiro Pena'
p2185
aI165
aI147
aI9
aI36
aI6
aI0
aI3
aI9
aI1
aI0
aI13
aI38
aI51
asS'hammj002'
p2186
(lp2187
g2186
aS'Jason Hammel'
p2188
aI43
aI37
aI2
aI5
aI0
aI0
aI0
aI3
aI0
aI0
aI1
aI14
aI5
asS'rogee002'
p2189
(lp2190
g2189
aS'Esmil Rogers'
p2191
aI1
aI1
aI0
aI0
aI0
aI0
aI0
aI0
aI0
aI0
aI0
aI0
aI0
asS'huntt001'
p2192
(lp2193
g2192
aS'Torii Hunter'
p2194
aI586
aI549
aI71
aI157
aI33
aI2
aI17
aI83
aI4
aI3
aI23
aI89
aI245
asS'petig001'
p2195
(lp2196
g2195
aS'Gregorio Petit'
p2197
aI100
aI97
aI14
aI27
aI8
aI0
aI2
aI9
aI0
aI1
aI1
aI25
aI41
asS'bakes002'
p2198
(lp2199
g2198
aS'Scott Baker'
p2200
aI1
aI1
aI0
aI0
aI0
aI0
aI0
aI0
aI0
aI0
aI0
aI1
aI0
asS'schem001'
p2201
(lp2202
g2201
aS'Max Scherzer'
p2203
aI4
aI2
aI0
aI0
aI0
aI0
aI0
aI0
aI0
aI0
aI0
aI1
aI0
asS'verlj001'
p2204
(lp2205
g2204
aS'Justin Verlander'
p2206
aI7
aI6
aI1
aI2
aI0
aI0
aI0
aI0
aI0
aI0
aI0
aI0
aI2
asS'hanir001'
p2207
(lp2208
g2207
aS'Ryan Hanigan'
p2209
aI263
aI225
aI18
aI49
aI9
aI0
aI5
aI34
aI1
aI0
aI31
aI39
aI73
asS'kozmp001'
p2210
(lp2211
g2210
aS'Pete Kozma'
p2212
aI26
aI23
aI4
aI7
aI3
aI0
aI0
aI0
aI0
aI0
aI3
aI4
aI10
asS'brigr001'
p2213
(lp2214
g2213
aS'Reid Brignac'
p2215
aI91
aI81
aI4
aI18
aI5
aI1
aI1
aI10
aI1
aI1
aI9
aI33
aI28
asS'calla001'
p2216
(lp2217
g2216
aS'Alberto Callaspo'
p2218
aI451
aI404
aI37
aI90
aI15
aI0
aI4
aI39
aI0
aI1
aI40
aI50
aI117
asS'murpd004'
p2219
(lp2220
g2219
aS'Donnie Murphy'
p2221
aI128
aI112
aI11
aI22
aI3
aI0
aI4
aI14
aI0
aI1
aI11
aI38
aI37
asS'plout001'
p2222
(lp2223
g2222
aS'Trevor Plouffe'
p2224
aI582
aI520
aI68
aI134
aI40
aI2
aI14
aI80
aI2
aI1
aI53
aI109
aI220
asS'bracb001'
p2225
(lp2226
g2225
aS'Brad Brach'
p2227
aI2
aI1
aI0
aI0
aI0
aI0
aI0
aI0
aI0
aI0
aI0
aI0
aI0
asS'hernp001'
p2228
(lp2229
g2228
aS'Pedro Hernandez'
p2230
aI2
aI2
aI0
aI0
aI0
aI0
aI0
aI0
aI0
aI0
aI0
aI2
aI0
asS'youne003'
p2231
(lp2232
g2231
aS'Eric Young'
p2233
aI316
aI280
aI48
aI64
aI10
aI5
aI1
aI17
aI30
aI6
aI24
aI60
aI87
asS'moliy001'
p2234
(lp2235
g2234
aS'Yadier Molina'
p2236
aI445
aI404
aI40
aI114
aI21
aI0
aI7
aI38
aI1
aI1
aI28
aI55
aI156
asS'dickr001'
p2237
(lp2238
g2237
aS'R.A. Dickey'
p2239
aI9
aI9
aI0
aI0
aI0
aI0
aI0
aI0
aI0
aI0
aI0
aI2
aI0
asS'andec001'
p2240
(lp2241
g2240
aS'Chase Anderson'
p2242
aI41
aI34
aI0
aI1
aI0
aI0
aI0
aI0
aI0
aI0
aI0
aI14
aI1
asS'mornj001'
p2243
(lp2244
g2243
aS'Justin Morneau'
p2245
aI550
aI502
aI62
aI160
aI32
aI3
aI17
aI82
aI0
aI3
aI34
aI60
aI249
asS'presa001'
p2246
(lp2247
g2246
aS'Alex Presley'
p2248
aI271
aI254
aI22
aI62
aI6
aI1
aI6
aI19
aI5
aI1
aI13
aI44
aI88
asS'mccua001'
p2249
(lp2250
g2249
aS'Andrew McCutchen'
p2251
aI648
aI548
aI89
aI172
aI38
aI6
aI25
aI83
aI18
aI3
aI84
aI115
aI297
asS'bumgm001'
p2252
(lp2253
g2252
aS'Madison Bumgarner'
p2254
aI78
aI66
aI10
aI17
aI2
aI0
aI4
aI15
aI0
aI0
aI2
aI29
aI31
asS'dukez001'
p2255
(lp2256
g2255
aS'Zach Duke'
p2257
aI2
aI1
aI0
aI0
aI0
aI0
aI0
aI0
aI0
aI0
aI0
aI1
aI0
asS'congh001'
p2258
(lp2259
g2258
aS'Hank Conger'
p2260
aI260
aI231
aI24
aI51
aI12
aI0
aI4
aI25
aI0
aI2
aI22
aI57
aI75
asS'beltb001'
p2261
(lp2262
g2261
aS'Brandon Belt'
p2263
aI235
aI214
aI30
aI52
aI8
aI0
aI12
aI27
aI3
aI1
aI18
aI64
aI96
asS'sardl001'
p2264
(lp2265
g2264
aS'Luis Sardinas'
p2266
aI125
aI115
aI12
aI30
aI6
aI0
aI0
aI8
aI5
aI1
aI5
aI21
aI36
asS'sandj002'
p2267
(lp2268
g2267
aS'Jerry Sands'
p2269
aI22
aI21
aI1
aI4
aI0
aI0
aI1
aI4
aI0
aI0
aI0
aI6
aI7
asS'dejed001'
p2270
(lp2271
g2270
aS'David DeJesus'
p2272
aI273
aI238
aI24
aI59
aI15
aI2
aI6
aI19
aI0
aI3
aI30
aI43
aI96
asS'maxwj002'
p2273
(lp2274
g2273
aS'Justin Maxwell'
p2275
aI45
aI40
aI4
aI6
aI1
aI0
aI0
aI3
aI0
aI1
aI2
aI20
aI7
asS'zimmj003'
p2276
(lp2277
g2276
aS'Jordan Zimmermann'
p2278
aI67
aI55
aI3
aI10
aI1
aI0
aI0
aI1
aI0
aI0
aI2
aI21
aI11
asS'butlb003'
p2279
(lp2280
g2279
aS'Billy Butler'
p2281
aI603
aI549
aI57
aI149
aI32
aI0
aI9
aI66
aI0
aI0
aI41
aI96
aI208
asS'hagum001'
p2282
(lp2283
g2282
aS'Matt Hague'
p2284
aI2
aI2
aI0
aI0
aI0
aI0
aI0
aI0
aI0
aI0
aI0
aI1
aI0
asS'vincn001'
p2285
(lp2286
g2285
aS'Nick Vincent'
p2287
aI1
aI1
aI0
aI0
aI0
aI0
aI0
aI0
aI0
aI0
aI0
aI1
aI0
asS'martv001'
p2288
(lp2289
g2288
aS'Victor Martinez'
p2290
aI641
aI561
aI87
aI188
aI33
aI0
aI32
aI103
aI3
aI2
aI70
aI42
aI317
asS'younc003'
p2291
(lp2292
g2291
aS'Chris Young'
p2293
aI1
aI1
aI0
aI0
aI0
aI0
aI0
aI0
aI0
aI0
aI0
aI0
aI0
asS'figgc001'
p2294
(lp2295
g2294
aS'Chone Figgins'
p2296
aI76
aI60
aI8
aI13
aI3
aI0
aI0
aI1
aI4
aI1
aI14
aI15
aI16
asS'lobaj001'
p2297
(lp2298
g2297
aS'Jose Lobaton'
p2299
aI230
aI214
aI18
aI50
aI9
aI0
aI2
aI12
aI0
aI0
aI15
aI61
aI65
asS'duffm002'
p2300
(lp2301
g2300
aS'Matt Duffy'
p2302
aI64
aI60
aI5
aI16
aI2
aI0
aI0
aI8
aI0
aI1
aI1
aI14
aI18
asS'haled001'
p2303
(lp2304
g2303
aS'David Hale'
p2305
aI19
aI17
aI1
aI1
aI0
aI0
aI0
aI1
aI0
aI0
aI0
aI8
aI1
asS'browd004'
p2306
(lp2307
g2306
aS'Domonic Brown'
p2308
aI512
aI473
aI47
aI111
aI22
aI1
aI10
aI63
aI7
aI1
aI34
aI91
aI165
asS'jeted001'
p2309
(lp2310
g2309
aS'Derek Jeter'
p2311
aI634
aI581
aI47
aI149
aI19
aI1
aI4
aI50
aI10
aI2
aI35
aI87
aI182
asS'sancc001'
p2312
(lp2313
g2312
aS'Carlos Sanchez'
p2314
aI104
aI100
aI6
aI25
aI5
aI0
aI0
aI5
aI1
aI1
aI3
aI25
aI30
asS'schal001'
p2315
(lp2316
g2315
aS'Logan Schafer'
p2317
aI136
aI116
aI13
aI21
aI9
aI1
aI0
aI8
aI2
aI1
aI15
aI27
aI32
asS'hestc001'
p2318
(lp2319
g2318
aS'Chris Heston'
p2320
aI1
aI1
aI0
aI0
aI0
aI0
aI0
aI0
aI0
aI0
aI0
aI1
aI0
asS'polag001'
p2321
(lp2322
g2321
aS'Gregory Polanco'
p2323
aI312
aI277
aI50
aI65
aI9
aI0
aI7
aI33
aI14
aI5
aI30
aI59
aI95
asS'evann001'
p2324
(lp2325
g2324
aS'Nick Evans'
p2326
aI23
aI22
aI2
aI6
aI2
aI0
aI2
aI7
aI0
aI0
aI1
aI10
aI14
asS'marij002'
p2327
(lp2328
g2327
aS'Jake Marisnick'
p2329
aI237
aI221
aI21
aI55
aI8
aI0
aI3
aI19
aI11
aI3
aI8
aI67
aI72
asS'stanm004'
p2330
(lp2331
g2330
aS'Giancarlo Stanton'
p2332
aI638
aI539
aI89
aI155
aI31
aI1
aI37
aI105
aI13
aI1
aI94
aI170
aI299
asS'nadyx001'
p2333
(lp2334
g2333
aS'Xavier Nady'
p2335
aI42
aI37
aI4
aI5
aI1
aI0
aI3
aI4
aI0
aI0
aI5
aI9
aI15
asS'bourp001'
p2336
(lp2337
g2336
aS'Peter Bourjos'
p2338
aI294
aI264
aI32
aI61
aI9
aI5
aI4
aI24
aI9
aI3
aI20
aI78
aI92
asS'peree003'
p2339
(lp2340
g2339
aS'Eury Perez'
p2341
aI10
aI10
aI2
aI2
aI0
aI0
aI0
aI0
aI1
aI0
aI0
aI3
aI2
asS'lylej001'
p2342
(lp2343
g2342
aS'Jordan Lyles'
p2344
aI52
aI48
aI4
aI9
aI3
aI0
aI1
aI3
aI0
aI0
aI3
aI21
aI15
asS'eliar001'
p2345
(lp2346
g2345
aS'Roenis Elias'
p2347
aI4
aI4
aI0
aI0
aI0
aI0
aI0
aI0
aI0
aI0
aI0
aI1
aI0
asS'jansk001'
p2348
(lp2349
g2348
aS'Kenley Jansen'
p2350
aI1
aI1
aI0
aI0
aI0
aI0
aI0
aI0
aI0
aI0
aI0
aI1
aI0
asS'wolfr001'
p2351
(lp2352
g2351
aS'Randy Wolf'
p2353
aI7
aI7
aI0
aI1
aI0
aI0
aI0
aI0
aI0
aI0
aI0
aI1
aI1
asS'ozunm001'
p2354
(lp2355
g2354
aS'Marcell Ozuna'
p2356
aI612
aI565
aI72
aI152
aI26
aI5
aI23
aI85
aI3
aI1
aI41
aI164
aI257
asS'stamc001'
p2357
(lp2358
g2357
aS'Craig Stammen'
p2359
aI8
aI7
aI0
aI2
aI1
aI0
aI0
aI0
aI0
aI0
aI0
aI4
aI3
asS'sierm001'
p2360
(lp2361
g2360
aS'Moises Sierra'
p2362
aI170
aI161
aI22
aI37
aI8
aI2
aI2
aI9
aI3
aI1
aI8
aI43
aI55
asS'gyorj001'
p2363
(lp2364
g2363
aS'Jedd Gyorko'
p2365
aI443
aI400
aI37
aI84
aI17
aI1
aI10
aI51
aI3
aI2
aI36
aI100
aI133
asS'desmi001'
p2366
(lp2367
g2366
aS'Ian Desmond'
p2368
aI648
aI593
aI73
aI151
aI26
aI3
aI24
aI91
aI24
aI5
aI46
aI183
aI255
asS'hoovj002'
p2369
(lp2370
g2369
aS'J.J. Hoover'
p2371
aI1
aI0
aI1
aI0
aI0
aI0
aI0
aI0
aI0
aI0
aI1
aI0
aI0
asS'domij002'
p2372
(lp2373
g2372
aS'Jose Dominguez'
p2374
aI1
aI1
aI0
aI0
aI0
aI0
aI0
aI0
aI0
aI0
aI0
aI1
aI0
asS'ludwr001'
p2375
(lp2376
g2375
aS'Ryan Ludwick'
p2377
aI400
aI357
aI28
aI87
aI20
aI0
aI9
aI45
aI0
aI2
aI31
aI94
aI134
asS'alony001'
p2378
(lp2379
g2378
aS'Yonder Alonso'
p2380
aI288
aI267
aI27
aI64
aI19
aI1
aI7
aI27
aI6
aI1
aI17
aI36
aI106
asS'dobbg001'
p2381
(lp2382
g2381
aS'Greg Dobbs'
p2383
aI43
aI41
aI0
aI7
aI1
aI0
aI0
aI2
aI0
aI0
aI1
aI8
aI8
asS'rosaw001'
p2384
(lp2385
g2384
aS'Wilin Rosario'
p2386
aI410
aI382
aI45
aI102
aI25
aI0
aI13
aI54
aI1
aI0
aI23
aI70
aI166
asS'kraum001'
p2387
(lp2388
g2387
aS'Marc Krauss'
p2389
aI208
aI186
aI16
aI36
aI6
aI0
aI6
aI21
aI0
aI0
aI21
aI54
aI60
asS'santd002'
p2390
(lp2391
g2390
aS'Domingo Santana'
p2392
aI18
aI17
aI1
aI0
aI0
aI0
aI0
aI0
aI0
aI0
aI1
aI14
aI0
asS'pedej001'
p2393
(lp2394
g2393
aS'Joc Pederson'
p2395
aI38
aI28
aI1
aI4
aI0
aI0
aI0
aI0
aI0
aI0
aI9
aI11
aI4
asS'walkn001'
p2396
(lp2397
g2396
aS'Neil Walker'
p2398
aI571
aI512
aI74
aI139
aI25
aI3
aI23
aI76
aI2
aI2
aI45
aI88
aI239
asS'gutij002'
p2399
(lp2400
g2399
aS'Juan Gutierrez'
p2401
aI1
aI1
aI0
aI0
aI0
aI0
aI0
aI0
aI0
aI0
aI0
aI1
aI0
asS'torra002'
p2402
(lp2403
g2402
aS'Alexander Torres'
p2404
aI1
aI1
aI0
aI0
aI0
aI0
aI0
aI0
aI0
aI0
aI0
aI1
aI0
asS'arcio001'
p2405
(lp2406
g2405
aS'Oswaldo Arcia'
p2407
aI410
aI372
aI46
aI86
aI16
aI3
aI20
aI57
aI1
aI2
aI31
aI127
aI168
asS'zimmr001'
p2408
(lp2409
g2408
aS'Ryan Zimmerman'
p2410
aI240
aI214
aI26
aI60
aI19
aI1
aI5
aI38
aI0
aI0
aI22
aI37
aI96
asS'hatcc002'
p2411
(lp2412
g2411
aS'Chris Hatcher'
p2413
aI1
aI1
aI0
aI0
aI0
aI0
aI0
aI0
aI0
aI0
aI0
aI0
aI0
asS'bernd001'
p2414
(lp2415
g2414
aS'Doug Bernier'
p2416
aI9
aI7
aI2
aI2
aI0
aI0
aI0
aI0
aI0
aI0
aI1
aI2
aI2
asS'lonej001'
p2417
(lp2418
g2417
aS'James Loney'
p2419
aI651
aI600
aI59
aI174
aI27
aI0
aI9
aI69
aI4
aI0
aI41
aI80
aI228
asS'dickc002'
p2420
(lp2421
g2420
aS'Corey Dickerson'
p2422
aI478
aI436
aI74
aI136
aI27
aI6
aI24
aI76
aI8
aI7
aI37
aI101
aI247
asS'staut001'
p2423
(lp2424
g2423
aS'Tim Stauffer'
p2425
aI8
aI7
aI0
aI1
aI0
aI0
aI0
aI0
aI0
aI0
aI0
aI2
aI1
asS'dickc001'
p2426
(lp2427
g2426
aS'Chris Dickerson'
p2428
aI112
aI98
aI12
aI22
aI4
aI0
aI2
aI6
aI3
aI0
aI12
aI38
aI32
asS'lackj001'
p2429
(lp2430
g2429
aS'John Lackey'
p2431
aI19
aI15
aI1
aI2
aI0
aI0
aI0
aI0
aI0
aI0
aI0
aI5
aI2
asS'martr004'
p2432
(lp2433
g2432
aS'Russell Martin'
p2434
aI460
aI379
aI45
aI110
aI20
aI0
aI11
aI67
aI4
aI4
aI59
aI78
aI163
asS'ruizc001'
p2435
(lp2436
g2435
aS'Carlos Ruiz'
p2437
aI445
aI381
aI43
aI96
aI25
aI1
aI6
aI31
aI4
aI2
aI46
aI60
aI141
asS'alvah001'
p2438
(lp2439
g2438
aS'Henderson Alvarez'
p2440
aI67
aI57
aI2
aI11
aI0
aI0
aI0
aI2
aI0
aI0
aI1
aI20
aI11
asS'romia001'
p2441
(lp2442
g2441
aS'Andrew Romine'
p2443
aI273
aI251
aI30
aI57
aI6
aI0
aI2
aI12
aI12
aI2
aI18
aI60
aI69
asS'romia002'
p2444
(lp2445
g2444
aS'Austin Romine'
p2446
aI13
aI13
aI2
aI3
aI1
aI0
aI0
aI1
aI0
aI0
aI0
aI4
aI4
asS'ramie004'
p2447
(lp2448
g2447
aS'Erasmo Ramirez'
p2449
aI3
aI2
aI0
aI0
aI0
aI0
aI0
aI0
aI0
aI0
aI0
aI1
aI0
asS'maybc001'
p2450
(lp2451
g2450
aS'Cameron Maybin'
p2452
aI272
aI251
aI24
aI59
aI13
aI4
aI1
aI15
aI4
aI3
aI19
aI56
aI83
asS'mazzv001'
p2453
(lp2454
g2453
aS'Vin Mazzaro'
p2455
aI1
aI1
aI0
aI0
aI0
aI0
aI0
aI0
aI0
aI0
aI0
aI0
aI0
asS'corpc001'
p2456
(lp2457
g2456
aS'Carlos Corporan'
p2458
aI190
aI170
aI22
aI40
aI6
aI0
aI6
aI19
aI0
aI0
aI14
aI37
aI64
asS'grosr001'
p2459
(lp2460
g2459
aS'Robbie Grossman'
p2461
aI422
aI360
aI42
aI84
aI14
aI2
aI6
aI37
aI9
aI3
aI55
aI105
aI120
asS'estrm001'
p2462
(lp2463
g2462
aS'Marco Estrada'
p2464
aI40
aI32
aI0
aI3
aI0
aI0
aI0
aI2
aI0
aI0
aI3
aI13
aI3
asS'hollm001'
p2465
(lp2466
g2465
aS'Matt Holliday'
p2467
aI667
aI574
aI83
aI156
aI37
aI0
aI20
aI90
aI4
aI1
aI74
aI100
aI253
asS'lagaj001'
p2468
(lp2469
g2468
aS'Juan Lagares'
p2470
aI452
aI416
aI46
aI117
aI24
aI3
aI4
aI47
aI13
aI4
aI20
aI87
aI159
asS'dankj002'
p2471
(lp2472
g2471
aS'Jordan Danks'
p2473
aI132
aI117
aI14
aI26
aI2
aI0
aI2
aI10
aI5
aI3
aI14
aI46
aI34
asS'susaa001'
p2474
(lp2475
g2474
aS'Andrew Susac'
p2476
aI95
aI88
aI13
aI24
aI8
aI0
aI3
aI19
aI0
aI0
aI7
aI28
aI41
asS'dankj001'
p2477
(lp2478
g2477
aS'John Danks'
p2479
aI3
aI3
aI0
aI1
aI0
aI0
aI0
aI0
aI0
aI0
aI0
aI1
aI1
asS'florw001'
p2480
(lp2481
g2480
aS'Wilmer Flores'
p2482
aI274
aI259
aI28
aI65
aI13
aI1
aI6
aI29
aI1
aI0
aI12
aI31
aI98
asS'gentc001'
p2483
(lp2484
g2483
aS'Craig Gentry'
p2485
aI258
aI232
aI38
aI59
aI6
aI1
aI0
aI12
aI20
aI2
aI17
aI44
aI67
asS'tholj001'
p2486
(lp2487
g2486
aS'Josh Thole'
p2488
aI150
aI133
aI11
aI33
aI4
aI0
aI0
aI7
aI0
aI3
aI14
aI25
aI37
asS'tovaw001'
p2489
(lp2490
g2489
aS'Wilfredo Tovar'
p2491
aI3
aI3
aI0
aI0
aI0
aI0
aI0
aI0
aI0
aI0
aI0
aI0
aI0
asS'roart001'
p2492
(lp2493
g2492
aS'Tanner Roark'
p2494
aI70
aI58
aI1
aI7
aI0
aI0
aI0
aI0
aI0
aI0
aI1
aI21
aI7
asS'kalir001'
p2495
(lp2496
g2495
aS'Ryan Kalish'
p2497
aI130
aI121
aI13
aI30
aI4
aI4
aI0
aI5
aI3
aI2
aI8
aI28
aI42
asS'bakej001'
p2498
(lp2499
g2498
aS'Jeff Baker'
p2500
aI225
aI208
aI27
aI55
aI10
aI4
aI3
aI28
aI1
aI0
aI13
aI51
aI82
asS'ruf-d001'
p2501
(lp2502
g2501
aS'Darin Ruf'
p2503
aI117
aI102
aI13
aI24
aI8
aI0
aI3
aI8
aI0
aI0
aI8
aI32
aI41
asS'hecha001'
p2504
(lp2505
g2504
aS'Adeiny Hechavarria'
p2506
aI574
aI536
aI53
aI148
aI20
aI10
aI1
aI34
aI7
aI5
aI26
aI86
aI191
asS'tulot001'
p2507
(lp2508
g2507
aS'Troy Tulowitzki'
p2509
aI375
aI315
aI71
aI107
aI18
aI1
aI21
aI52
aI1
aI1
aI50
aI57
aI190
asS'chrin001'
p2510
(lp2511
g2510
aS'Nick Christiani'
p2512
aI1
aI1
aI0
aI0
aI0
aI0
aI0
aI0
aI0
aI0
aI0
aI0
aI0
asS'doumr001'
p2513
(lp2514
g2513
aS'Ryan Doumit'
p2515
aI166
aI157
aI11
aI31
aI4
aI0
aI5
aI17
aI1
aI0
aI7
aI49
aI50
asS'cabrm001'
p2516
(lp2517
g2516
aS'Miguel Cabrera'
p2518
aI685
aI611
aI101
aI191
aI52
aI1
aI25
aI109
aI1
aI1
aI60
aI117
aI320
asS'lawrb002'
p2519
(lp2520
g2519
aS'Brett Lawrie'
p2521
aI282
aI259
aI27
aI64
aI9
aI0
aI12
aI38
aI0
aI0
aI16
aI49
aI109
asS'hayeb001'
p2522
(lp2523
g2522
aS'Brett Hayes'
p2524
aI53
aI52
aI3
aI7
aI1
aI0
aI1
aI2
aI0
aI0
aI1
aI12
aI11
asS'ramih003'
p2525
(lp2526
g2525
aS'Hanley Ramirez'
p2527
aI512
aI449
aI64
aI127
aI35
aI0
aI13
aI71
aI14
aI5
aI56
aI84
aI201
asS'delaj001'
p2528
(lp2529
g2528
aS'Jorge de la Rosa'
p2530
aI67
aI60
aI5
aI9
aI0
aI0
aI0
aI1
aI0
aI0
aI1
aI26
aI9
asS'reynm001'
p2531
(lp2532
g2531
aS'Mark Reynolds'
p2533
aI433
aI378
aI47
aI74
aI9
aI0
aI22
aI45
aI5
aI1
aI47
aI122
aI149
asS'wrigd002'
p2534
(lp2535
g2534
aS'David Wright'
p2536
aI586
aI535
aI54
aI144
aI30
aI1
aI8
aI63
aI8
aI5
aI42
aI113
aI200
asS'mejij001'
p2537
(lp2538
g2537
aS'Jenrry Mejia'
p2539
aI18
aI17
aI0
aI0
aI0
aI0
aI0
aI0
aI0
aI0
aI0
aI7
aI0
asS'lynnl001'
p2540
(lp2541
g2540
aS'Lance Lynn'
p2542
aI69
aI60
aI5
aI4
aI1
aI0
aI0
aI1
aI0
aI0
aI4
aI34
aI5
asS'venty001'
p2543
(lp2544
g2543
aS'Yordano Ventura'
p2545
aI5
aI4
aI1
aI1
aI0
aI0
aI0
aI0
aI0
aI0
aI0
aI3
aI1
asS'quinh001'
p2546
(lp2547
g2546
aS'Humberto Quintero'
p2548
aI2
aI2
aI0
aI0
aI0
aI0
aI0
aI1
aI0
aI0
aI0
aI1
aI0
asS'johne002'
p2549
(lp2550
g2549
aS'Elliot Johnson'
p2551
aI20
aI19
aI1
aI2
aI2
aI0
aI0
aI0
aI0
aI0
aI0
aI7
aI4
asS'johne003'
p2552
(lp2553
g2552
aS'Erik Johnson'
p2554
aI3
aI3
aI0
aI0
aI0
aI0
aI0
aI0
aI0
aI0
aI0
aI0
aI0
asS'nicaj001'
p2555
(lp2556
g2555
aS'Juan Nicasio'
p2557
aI27
aI24
aI0
aI2
aI0
aI0
aI0
aI4
aI0
aI0
aI0
aI13
aI2
asS'kempm001'
p2558
(lp2559
g2558
aS'Matt Kemp'
p2560
aI599
aI541
aI77
aI155
aI38
aI3
aI25
aI89
aI8
aI5
aI52
aI145
aI274
asS'iztum001'
p2561
(lp2562
g2561
aS'Maicer Izturis'
p2563
aI38
aI35
aI3
aI10
aI1
aI0
aI0
aI1
aI1
aI0
aI2
aI4
aI11
asS'claip001'
p2564
(lp2565
g2564
aS'Preston Claiborne'
p2566
aI1
aI0
aI0
aI0
aI0
aI0
aI0
aI0
aI0
aI0
aI0
aI0
aI0
asS'jokie001'
p2567
(lp2568
g2567
aS'Eric Jokisch'
p2569
aI5
aI3
aI0
aI0
aI0
aI0
aI0
aI0
aI0
aI0
aI0
aI1
aI0
asS'martn002'
p2570
(lp2571
g2570
aS'Nick Martinez'
p2572
aI3
aI3
aI1
aI0
aI0
aI0
aI0
aI0
aI0
aI0
aI0
aI2
aI0
asS'rodrg002'
p2573
(lp2574
g2573
aS'Guilder Rodriguez'
p2575
aI14
aI12
aI2
aI2
aI0
aI0
aI0
aI1
aI0
aI0
aI1
aI5
aI2
asS'deckj001'
p2576
(lp2577
g2576
aS'Jaff Decker'
p2578
aI5
aI5
aI0
aI0
aI0
aI0
aI0
aI0
aI0
aI0
aI0
aI3
aI0
asS'jonej005'
p2579
(lp2580
g2579
aS'James Jones'
p2581
aI328
aI312
aI46
aI78
aI9
aI5
aI0
aI9
aI27
aI1
aI12
aI67
aI97
asS'tabaj002'
p2582
(lp2583
g2582
aS'Jose Tabata'
p2584
aI186
aI174
aI14
aI49
aI5
aI2
aI0
aI17
aI1
aI2
aI7
aI26
aI58
asS'buchd001'
p2585
(lp2586
g2585
aS'David Buchanan'
p2587
aI39
aI30
aI2
aI3
aI1
aI0
aI0
aI2
aI0
aI0
aI4
aI10
aI4
asS'bourj002'
p2588
(lp2589
g2588
aS'Justin Bour'
p2590
aI83
aI74
aI10
aI21
aI3
aI0
aI1
aI11
aI0
aI0
aI9
aI19
aI27
asS'frein001'
p2591
(lp2592
g2591
aS'Nate Freiman'
p2593
aI93
aI87
aI12
aI19
aI5
aI0
aI5
aI15
aI0
aI0
aI5
aI23
aI39
asS'avila001'
p2594
(lp2595
g2594
aS'Alex Avila'
p2596
aI457
aI390
aI44
aI85
aI22
aI0
aI11
aI47
aI0
aI3
aI61
aI151
aI140
asS'tanam001'
p2597
(lp2598
g2597
aS'Masahiro Tanaka'
p2599
aI9
aI9
aI0
aI1
aI0
aI0
aI0
aI0
aI0
aI0
aI0
aI5
aI1
asS'despo001'
p2600
(lp2601
g2600
aS'Odrisamer Despaigne'
p2602
aI28
aI24
aI0
aI0
aI0
aI0
aI0
aI0
aI0
aI0
aI1
aI10
aI0
asS'lucae001'
p2603
(lp2604
g2603
aS'Ed Lucas'
p2605
aI189
aI179
aI19
aI45
aI5
aI0
aI1
aI9
aI1
aI0
aI8
aI48
aI53
asS'kuroh001'
p2606
(lp2607
g2606
aS'Hiroki Kuroda'
p2608
aI3
aI3
aI0
aI0
aI0
aI0
aI0
aI0
aI0
aI0
aI0
aI0
aI0
asS'germg001'
p2609
(lp2610
g2609
aS'Gonzalez Germen'
p2611
aI1
aI1
aI0
aI0
aI0
aI0
aI0
aI0
aI0
aI0
aI0
aI1
aI0
asS'frank001'
p2612
(lp2613
g2612
aS'Kevin Frandsen'
p2614
aI236
aI220
aI17
aI57
aI8
aI0
aI1
aI17
aI0
aI0
aI6
aI26
aI68
asS'ceccg001'
p2615
(lp2616
g2615
aS'Garin Cecchini'
p2617
aI36
aI31
aI6
aI8
aI3
aI0
aI1
aI4
aI0
aI0
aI3
aI11
aI14
asS'carrc003'
p2618
(lp2619
g2618
aS'Carlos Carrasco'
p2620
aI2
aI2
aI0
aI0
aI0
aI0
aI0
aI0
aI0
aI0
aI0
aI2
aI0
asS'casha001'
p2621
(lp2622
g2621
aS'Andrew Cashner'
p2623
aI42
aI35
aI3
aI6
aI1
aI1
aI0
aI2
aI0
aI0
aI1
aI14
aI9
asS'aschc001'
p2624
(lp2625
g2624
aS'Cody Asche'
p2626
aI434
aI397
aI43
aI100
aI25
aI0
aI10
aI46
aI0
aI1
aI33
aI102
aI155
asS'lowrj001'
p2627
(lp2628
g2627
aS'Jed Lowrie'
p2629
aI566
aI502
aI59
aI125
aI29
aI3
aI6
aI50
aI0
aI0
aI51
aI79
aI178
asS'beeld001'
p2630
(lp2631
g2630
aS'Dallas Beeler'
p2632
aI4
aI4
aI0
aI1
aI0
aI0
aI0
aI0
aI0
aI0
aI0
aI2
aI1
asS'nunee002'
p2633
(lp2634
g2633
aS'Eduardo Nunez'
p2635
aI213
aI204
aI26
aI51
aI7
aI4
aI4
aI24
aI9
aI3
aI5
aI31
aI78
asS'blang001'
p2636
(lp2637
g2636
aS'Gregor Blanco'
p2638
aI444
aI393
aI51
aI102
aI18
aI6
aI5
aI38
aI16
aI5
aI41
aI77
aI147
asS'lirif001'
p2639
(lp2640
g2639
aS'Francisco Liriano'
p2641
aI52
aI45
aI1
aI5
aI0
aI0
aI0
aI0
aI0
aI0
aI2
aI14
aI5
asS'ray-r002'
p2642
(lp2643
g2642
aS'Robbie Ray'
p2644
aI2
aI2
aI0
aI1
aI0
aI0
aI0
aI0
aI0
aI0
aI0
aI0
aI1
asS'wadat001'
p2645
(lp2646
g2645
aS'Tsuyoshi Wada'
p2647
aI24
aI20
aI0
aI1
aI0
aI0
aI0
aI0
aI0
aI0
aI1
aI10
aI1
asS'stras001'
p2648
(lp2649
g2648
aS'Stephen Strasburg'
p2650
aI76
aI60
aI3
aI6
aI1
aI0
aI0
aI3
aI0
aI0
aI7
aI26
aI7
asS'victs001'
p2651
(lp2652
g2651
aS'Shane Victorino'
p2653
aI133
aI123
aI14
aI33
aI6
aI1
aI2
aI12
aI2
aI0
aI6
aI21
aI47
asS'tepen001'
p2654
(lp2655
g2654
aS'Nick Tepesch'
p2656
aI2
aI2
aI0
aI1
aI0
aI0
aI0
aI0
aI0
aI0
aI0
aI0
aI1
asS'koeht001'
p2657
(lp2658
g2657
aS'Tom Koehler'
p2659
aI59
aI50
aI0
aI3
aI0
aI0
aI0
aI0
aI0
aI0
aI1
aI27
aI3
asS'rollj001'
p2660
(lp2661
g2660
aS'Jimmy Rollins'
p2662
aI609
aI538
aI78
aI131
aI22
aI4
aI17
aI55
aI28
aI6
aI64
aI100
aI212
asS'wongk001'
p2663
(lp2664
g2663
aS'Kolten Wong'
p2665
aI433
aI402
aI52
aI100
aI14
aI3
aI12
aI42
aI20
aI4
aI21
aI71
aI156
asS'centj001'
p2666
(lp2667
g2666
aS'Juan Centeno'
p2668
aI33
aI30
aI1
aI6
aI0
aI0
aI0
aI2
aI0
aI0
aI3
aI5
aI6
asS'corcd001'
p2669
(lp2670
g2669
aS'Daniel Corcino'
p2671
aI5
aI3
aI0
aI1
aI0
aI0
aI0
aI0
aI0
aI0
aI0
aI0
aI1
asS'cervf001'
p2672
(lp2673
g2672
aS'Francisco Cervelli'
p2674
aI162
aI146
aI18
aI44
aI11
aI1
aI2
aI13
aI1
aI0
aI11
aI41
aI63
asS'salad001'
p2675
(lp2676
g2675
aS'Danny Salazar'
p2677
aI3
aI3
aI0
aI0
aI0
aI0
aI0
aI0
aI0
aI0
aI0
aI3
aI0
asS'castj006'
p2678
(lp2679
g2678
aS'Jason Castro'
p2680
aI512
aI465
aI43
aI103
aI21
aI2
aI14
aI56
aI1
aI0
aI34
aI151
aI170
asS'mills001'
p2681
(lp2682
g2681
aS'Shelby Miller'
p2683
aI63
aI48
aI6
aI9
aI5
aI0
aI0
aI4
aI0
aI0
aI2
aI25
aI14
asS'wilsb002'
p2684
(lp2685
g2684
aS'Bobby Wilson'
p2686
aI4
aI4
aI0
aI1
aI0
aI0
aI0
aI0
aI0
aI0
aI0
aI0
aI1
asS'thort001'
p2687
(lp2688
g2687
aS'Tyler Thornburg'
p2689
aI2
aI1
aI0
aI0
aI0
aI0
aI0
aI0
aI0
aI0
aI0
aI0
aI0
asS'holtb002'
p2690
(lp2691
g2690
aS'Brock Holt'
p2692
aI492
aI449
aI68
aI126
aI23
aI5
aI4
aI29
aI12
aI2
aI33
aI98
aI171
asS'holmd002'
p2693
(lp2694
g2693
aS'David Holmberg'
p2695
aI7
aI5
aI0
aI0
aI0
aI0
aI0
aI0
aI0
aI0
aI0
aI2
aI0
asS'greiz001'
p2696
(lp2697
g2696
aS'Zack Greinke'
p2698
aI69
aI60
aI5
aI12
aI6
aI0
aI1
aI3
aI0
aI0
aI5
aI11
aI21
asS'florp001'
p2699
(lp2700
g2699
aS'Pedro Florimon'
p2701
aI86
aI76
aI7
aI7
aI1
aI1
aI0
aI1
aI6
aI0
aI8
aI22
aI10
asS'byrdm001'
p2702
(lp2703
g2702
aS'Marlon Byrd'
p2704
aI637
aI591
aI71
aI156
aI28
aI2
aI25
aI85
aI3
aI2
aI35
aI185
aI263
asS'butld001'
p2705
(lp2706
g2705
aS'Dan Butler'
p2707
aI20
aI19
aI1
aI4
aI3
aI0
aI0
aI2
aI0
aI0
aI1
aI5
aI7
asS'johnr008'
p2708
(lp2709
g2708
aS'Reed Johnson'
p2710
aI201
aI187
aI23
aI44
aI15
aI0
aI2
aI25
aI0
aI1
aI1
aI37
aI65
asS'cowgc001'
p2711
(lp2712
g2711
aS'Collin Cowgill'
p2713
aI293
aI260
aI37
aI65
aI10
aI1
aI5
aI21
aI4
aI0
aI26
aI74
aI92
asS'perea002'
p2714
(lp2715
g2714
aS'Audry Perez'
p2716
aI1
aI0
aI0
aI0
aI0
aI0
aI0
aI0
aI0
aI0
aI1
aI0
aI0
asS'abrej003'
p2717
(lp2718
g2717
aS'Jose Abreu'
p2719
aI622
aI556
aI80
aI176
aI35
aI2
aI36
aI107
aI3
aI1
aI51
aI131
aI323
asS'buckb002'
p2720
(lp2721
g2720
aS'Billy Buckner'
p2722
aI1
aI1
aI0
aI0
aI0
aI0
aI0
aI0
aI0
aI0
aI0
aI0
aI0
asS'lamba001'
p2723
(lp2724
g2723
aS'Andrew Lambo'
p2725
aI39
aI39
aI3
aI10
aI4
aI0
aI0
aI1
aI0
aI0
aI0
aI8
aI14
asS'browc003'
p2726
(lp2727
g2726
aS'Corey Brown'
p2728
aI1
aI1
aI0
aI0
aI0
aI0
aI0
aI0
aI0
aI0
aI0
aI1
aI0
asS'gimec001'
p2729
(lp2730
g2729
aS'Chris Gimenez'
p2731
aI128
aI116
aI13
aI28
aI10
aI0
aI0
aI11
aI0
aI1
aI12
aI29
aI38
asS'myerw001'
p2732
(lp2733
g2732
aS'Wil Myers'
p2734
aI361
aI325
aI36
aI72
aI14
aI0
aI6
aI35
aI6
aI1
aI34
aI90
aI104
asS'peraj001'
p2735
(lp2736
g2735
aS'Jhonny Peralta'
p2737
aI628
aI560
aI61
aI147
aI38
aI0
aI21
aI75
aI3
aI2
aI58
aI112
aI248
asS'ellsj001'
p2738
(lp2739
g2738
aS'Jacoby Ellsbury'
p2740
aI635
aI575
aI71
aI156
aI27
aI5
aI16
aI70
aI39
aI5
aI49
aI93
aI241
asS'spand001'
p2741
(lp2742
g2741
aS'Denard Span'
p2743
aI668
aI610
aI93
aI184
aI39
aI8
aI5
aI37
aI31
aI7
aI50
aI65
aI254
asS'tolls001'
p2744
(lp2745
g2744
aS'Steven Tolleson'
p2746
aI189
aI170
aI21
aI43
aI7
aI2
aI3
aI16
aI3
aI1
aI12
aI49
aI63
asS'roacd001'
p2747
(lp2748
g2747
aS'Donn Roach'
p2749
aI4
aI4
aI0
aI1
aI1
aI0
aI0
aI0
aI0
aI0
aI0
aI1
aI2
asS'hendk001'
p2750
(lp2751
g2750
aS'Kyle Hendricks'
p2752
aI30
aI24
aI1
aI3
aI0
aI0
aI0
aI1
aI0
aI0
aI3
aI11
aI3
asS'hernf002'
p2753
(lp2754
g2753
aS'Felix Hernandez'
p2755
aI3
aI2
aI0
aI0
aI0
aI0
aI0
aI0
aI0
aI0
aI0
aI0
aI0
asS'defrj001'
p2756
(lp2757
g2756
aS'Justin De Fratus'
p2758
aI1
aI1
aI0
aI0
aI0
aI0
aI0
aI0
aI0
aI0
aI0
aI1
aI0
asS'crisc001'
p2759
(lp2760
g2759
aS'Coco Crisp'
p2761
aI536
aI463
aI68
aI114
aI21
aI3
aI9
aI47
aI19
aI5
aI66
aI66
aI168
asS'pintj001'
p2762
(lp2763
g2762
aS'Josmil Pinto'
p2764
aI197
aI169
aI25
aI37
aI8
aI0
aI7
aI18
aI0
aI1
aI24
aI50
aI66
asS'campe001'
p2765
(lp2766
g2765
aS'Eric Campbell'
p2767
aI211
aI190
aI16
aI50
aI9
aI0
aI3
aI16
aI3
aI0
aI17
aI55
aI68
asS'pujoa001'
p2768
(lp2769
g2768
aS'Albert Pujols'
p2770
aI695
aI633
aI89
aI172
aI37
aI1
aI28
aI105
aI5
aI1
aI48
aI71
aI295
asS'mccaj001'
p2771
(lp2772
g2771
aS'James McCann'
p2773
aI12
aI12
aI2
aI3
aI1
aI0
aI0
aI0
aI1
aI0
aI0
aI2
aI4
asS'colob001'
p2774
(lp2775
g2774
aS'Bartolo Colon'
p2776
aI69
aI62
aI3
aI2
aI1
aI0
aI0
aI0
aI0
aI0
aI0
aI33
aI3
asS'pedrd001'
p2777
(lp2778
g2777
aS'Dustin Pedroia'
p2779
aI609
aI551
aI72
aI153
aI33
aI0
aI7
aI53
aI6
aI6
aI51
aI75
aI207
asS'coleg001'
p2780
(lp2781
g2780
aS'Gerrit Cole'
p2782
aI52
aI46
aI3
aI8
aI0
aI0
aI1
aI2
aI0
aI0
aI2
aI17
aI11
asS'desca001'
p2783
(lp2784
g2783
aS'Anthony DeSclafani'
p2785
aI11
aI10
aI1
aI1
aI0
aI0
aI0
aI2
aI0
aI0
aI1
aI3
aI1
asS'hamij003'
p2786
(lp2787
g2786
aS'Josh Hamilton'
p2788
aI381
aI338
aI43
aI89
aI21
aI0
aI10
aI44
aI3
aI3
aI32
aI108
aI140
asS'smoaj001'
p2789
(lp2790
g2789
aS'Justin Smoak'
p2791
aI276
aI248
aI28
aI50
aI13
aI0
aI7
aI30
aI0
aI1
aI24
aI66
aI84
asS'clevs001'
p2792
(lp2793
g2792
aS'Steve Clevenger'
p2794
aI97
aI89
aI8
aI20
aI8
aI1
aI0
aI8
aI0
aI0
aI8
aI19
aI30
asS'moort002'
p2795
(lp2796
g2795
aS'Tyler Moore'
p2797
aI100
aI91
aI8
aI21
aI2
aI0
aI4
aI14
aI0
aI0
aI7
aI29
aI35
asS'franm004'
p2798
(lp2799
g2798
aS'Maikel Franco'
p2800
aI58
aI56
aI5
aI10
aI2
aI0
aI0
aI5
aI0
aI0
aI1
aI13
aI12
asS'rasmc001'
p2801
(lp2802
g2801
aS'Colby Rasmus'
p2803
aI376
aI346
aI45
aI78
aI21
aI1
aI18
aI40
aI4
aI0
aI29
aI124
aI155
asS'perec002'
p2804
(lp2805
g2804
aS'Chris Perez'
p2806
aI1
aI1
aI0
aI0
aI0
aI0
aI0
aI0
aI0
aI0
aI0
aI1
aI0
asS'milot001'
p2807
(lp2808
g2807
aS'Tom Milone'
p2809
aI4
aI4
aI0
aI0
aI0
aI0
aI0
aI0
aI0
aI0
aI0
aI1
aI0
asS'incie001'
p2810
(lp2811
g2810
aS'Ender Inciarte'
p2812
aI447
aI418
aI54
aI116
aI18
aI2
aI4
aI27
aI19
aI3
aI25
aI53
aI150
asS'bernr001'
p2813
(lp2814
g2813
aS'Roger Bernadina'
p2815
aI80
aI66
aI5
aI11
aI3
aI0
aI1
aI9
aI2
aI1
aI10
aI19
aI17
asS'cobba001'
p2816
(lp2817
g2816
aS'Alex Cobb'
p2818
aI9
aI8
aI0
aI1
aI1
aI0
aI0
aI1
aI0
aI0
aI0
aI2
aI2
asS'lanej001'
p2819
(lp2820
g2819
aS'Jason Lane'
p2821
aI3
aI3
aI0
aI1
aI0
aI0
aI0
aI0
aI0
aI0
aI0
aI0
aI1
asS'omals001'
p2822
(lp2823
g2822
aS"Shawn O'Malley"
p2824
aI16
aI16
aI3
aI3
aI0
aI0
aI0
aI1
aI2
aI0
aI0
aI8
aI3
asS'reyej001'
p2825
(lp2826
g2825
aS'Jose Reyes'
p2827
aI655
aI610
aI94
aI175
aI33
aI4
aI9
aI51
aI30
aI2
aI38
aI73
aI243
asS'schlg001'
p2828
(lp2829
g2828
aS'Gus Schlosser'
p2830
aI1
aI1
aI0
aI1
aI0
aI0
aI0
aI0
aI0
aI0
aI0
aI0
aI1
asS'hutcd001'
p2831
(lp2832
g2831
aS'Drew Hutchison'
p2833
aI4
aI4
aI0
aI2
aI0
aI0
aI0
aI0
aI0
aI0
aI0
aI2
aI2
asS'mahop002'
p2834
(lp2835
g2834
aS'Paul Maholm'
p2836
aI16
aI9
aI1
aI0
aI0
aI0
aI0
aI0
aI0
aI0
aI2
aI6
aI0
asS'chacj001'
p2837
(lp2838
g2837
aS'Jhoulys Chacin'
p2839
aI17
aI15
aI2
aI5
aI1
aI0
aI0
aI0
aI0
aI0
aI1
aI4
aI6
asS'doubf001'
p2840
(lp2841
g2840
aS'Felix Doubront'
p2842
aI8
aI7
aI0
aI1
aI0
aI0
aI0
aI0
aI0
aI0
aI1
aI5
aI1
asa(dp2843
S'chenb001'
p2844
(lp2845
g2844
aS'Bruce Chen'
p2846
aS'48.1'
p2847
aI69
aI40
aI40
aI7
aI16
aI1
aI36
asg8
(lp2848
g8
ag10
aS'96.2'
p2849
aI89
aI35
aI33
aI11
aI38
aI4
aI96
asS'corde001'
p2850
(lp2851
g2850
aS'Erik Cordier'
p2852
aS'5.2'
p2853
aI5
aI4
aI1
aI0
aI2
aI0
aI9
asS'ramoa001'
p2854
(lp2855
g2854
aS'A.J. Ramos'
p2856
aS'64.0'
p2857
aI36
aI15
aI13
aI1
aI43
aI7
aI73
asg29
(lp2858
g29
ag31
aS'64.0'
p2859
aI43
aI31
aI28
aI4
aI34
aI4
aI81
asg35
(lp2860
g35
ag37
aS'85.2'
p2861
aI92
aI40
aI39
aI10
aI19
aI1
aI47
asS'pricb001'
p2862
(lp2863
g2862
aS'Bryan Price'
p2864
aS'2.1'
p2865
aI8
aI6
aI6
aI3
aI1
aI0
aI1
asg41
(lp2866
g41
ag43
aS'96.0'
p2867
aI88
aI48
aI45
aI8
aI42
aI0
aI66
asS'kimbc001'
p2868
(lp2869
g2868
aS'Craig Kimbrel'
p2870
aS'61.2'
p2871
aI30
aI13
aI11
aI2
aI26
aI0
aI95
asg53
(lp2872
g53
ag55
aS'90.0'
p2873
aI81
aI47
aI42
aI13
aI32
aI2
aI70
asg56
(lp2874
g56
ag58
aS'70.1'
p2875
aI72
aI35
aI34
aI3
aI27
aI4
aI54
asg59
(lp2876
g59
ag61
aS'114.2'
p2877
aI125
aI64
aI61
aI12
aI36
aI2
aI82
asg62
(lp2878
g62
ag64
aS'187.2'
p2879
aI193
aI80
aI71
aI17
aI45
aI0
aI138
asg71
(lp2880
g71
ag73
aS'9.0'
p2881
aI20
aI11
aI11
aI4
aI3
aI0
aI9
asg74
(lp2882
g74
ag76
aS'101.1'
p2883
aI116
aI51
aI50
aI12
aI35
aI0
aI74
asg80
(lp2884
g80
ag82
aS'69.2'
p2885
aI74
aI39
aI36
aI6
aI19
aI2
aI55
asS'sanca006'
p2886
(lp2887
g2886
aS'Aaron Sanchez'
p2888
aS'32.2'
p2889
aI14
aI5
aI4
aI1
aI9
aI0
aI27
asS'wilsa001'
p2890
(lp2891
g2890
aS'Alex Wilson'
p2892
aS'28.0'
p2893
aI20
aI8
aI6
aI3
aI5
aI0
aI19
asg89
(lp2894
g89
ag91
aS'125.2'
p2895
aI108
aI55
aI48
aI4
aI30
aI1
aI102
asS'scrie001'
p2896
(lp2897
g2896
aS'Evan Scribner'
p2898
aS'11.2'
p2899
aI11
aI6
aI6
aI4
aI0
aI0
aI11
asS'lecus001'
p2900
(lp2901
g2900
aS'Sam LeCure'
p2902
aS'56.2'
p2903
aI62
aI27
aI24
aI6
aI24
aI1
aI48
asg98
(lp2904
g98
ag100
aS'81.2'
p2905
aI80
aI41
aI38
aI13
aI33
aI1
aI61
asS'leond003'
p2906
(lp2907
g2906
aS'Dominic Leone'
p2908
aS'66.1'
p2909
aI52
aI18
aI16
aI4
aI25
aI3
aI70
asg101
(lp2910
g101
ag103
aS'192.1'
p2911
aI195
aI85
aI75
aI21
aI54
aI2
aI146
asS'yatek001'
p2912
(lp2913
g2912
aS'Kirby Yates'
p2914
aS'35.2'
p2915
aI33
aI16
aI15
aI4
aI15
aI3
aI42
asS'laynt001'
p2916
(lp2917
g2916
aS'Tom Layne'
p2918
aS'18.2'
p2919
aI14
aI4
aI2
aI0
aI8
aI1
aI14
asg1784
(lp2920
g1784
ag1786
aS'1.0'
p2921
aI1
aI2
aI2
aI0
aI2
aI0
aI0
asS'barnm001'
p2922
(lp2923
g2922
aS'Matt Barnes'
p2924
aS'8.2'
p2925
aI11
aI4
aI4
aI1
aI2
aI0
aI8
asS'marse001'
p2926
(lp2927
g2926
aS'Evan Marshall'
p2928
aS'49.1'
p2929
aI50
aI17
aI15
aI3
aI17
aI3
aI54
asg719
(lp2930
g719
ag721
aS'37.0'
p2931
aI53
aI23
aI22
aI3
aI9
aI1
aI24
asg125
(lp2932
g125
ag127
aS'60.0'
p2933
aI49
aI30
aI26
aI4
aI30
aI5
aI61
asS'ramin001'
p2934
(lp2935
g2934
aS'Neil Ramirez'
p2936
aS'43.2'
p2937
aI29
aI11
aI7
aI2
aI17
aI0
aI53
asg131
(lp2938
g131
ag133
aS'21.1'
p2939
aI19
aI12
aI11
aI0
aI9
aI1
aI13
asg1940
(lp2940
g1940
ag1942
aS'19.2'
p2941
aI18
aI13
aI13
aI3
aI3
aI1
aI15
asS'valdr002'
p2942
(lp2943
g2942
aS'Raul Valdes'
p2944
aS'3.2'
p2945
aI5
aI5
aI5
aI2
aI3
aI0
aI4
asg149
(lp2946
g149
ag151
aS'1.0'
p2947
aI1
aI2
aI2
aI0
aI2
aI0
aI1
asg152
(lp2948
g152
ag154
aS'165.1'
p2949
aI149
aI68
aI67
aI20
aI52
aI2
aI139
asS'meeke001'
p2950
(lp2951
g2950
aS'Evan Meek'
p2952
aS'23.0'
p2953
aI26
aI16
aI15
aI3
aI11
aI1
aI16
asg161
(lp2954
g161
ag163
aS'170.1'
p2955
aI211
aI106
aI97
aI25
aI48
aI5
aI133
asS'lopew001'
p2956
(lp2957
g2956
aS'Wilton Lopez'
p2958
aS'6.0'
p2959
aI18
aI8
aI8
aI3
aI0
aI0
aI4
asg167
(lp2960
g167
ag169
aS'125.0'
p2961
aI113
aI68
aI67
aI14
aI77
aI0
aI116
asg170
(lp2962
g170
ag172
aS'59.0'
p2963
aI61
aI25
aI22
aI5
aI23
aI2
aI39
asg173
(lp2964
g173
ag175
aS'53.1'
p2965
aI69
aI46
aI42
aI5
aI35
aI6
aI42
asS'adamm001'
p2966
(lp2967
g2966
aS'Mike Adams'
p2968
aS'18.2'
p2969
aI16
aI8
aI6
aI1
aI8
aI1
aI21
asg176
(lp2970
g176
ag178
aS'26.1'
p2971
aI37
aI25
aI20
aI10
aI8
aI1
aI20
asS'romos001'
p2972
(lp2973
g2972
aS'Sergio Romo'
p2974
aS'58.0'
p2975
aI43
aI24
aI24
aI9
aI12
aI2
aI59
asS'pryos001'
p2976
(lp2977
g2976
aS'Stephen Pryor'
p2978
aS'1.1'
p2979
aI1
aI1
aI0
aI0
aI2
aI0
aI1
asS'rodrw003'
p2980
(lp2981
g2980
aS'Wilking Rodriguez'
p2982
aS'1.2'
p2983
aI1
aI0
aI0
aI0
aI1
aI0
aI1
asS'finnb001'
p2984
(lp2985
g2984
aS'Brandon Finnegan'
p2986
aS'6.2'
p2987
aI6
aI1
aI1
aI0
aI1
aI0
aI10
asS'hendl001'
p2988
(lp2989
g2988
aS'Liam Hendriks'
p2990
aS'32.1'
p2991
aI38
aI21
aI19
aI3
aI7
aI0
aI23
asS'gregk001'
p2992
(lp2993
g2992
aS'Kevin Gregg'
p2994
aS'9.0'
p2995
aI11
aI10
aI10
aI2
aI5
aI0
aI6
asg197
(lp2996
g197
ag199
aS'199.2'
p2997
aI223
aI106
aI97
aI14
aI43
aI5
aI142
asg200
(lp2998
g200
ag202
aS'30.2'
p2999
aI23
aI6
aI5
aI2
aI5
aI0
aI28
asg203
(lp3000
g203
ag205
aS'32.0'
p3001
aI33
aI22
aI22
aI4
aI7
aI1
aI29
asS'rodrh002'
p3002
(lp3003
g3002
aS'Henry Rodriguez'
p3004
aS'1.1'
p3005
aI2
aI2
aI2
aI0
aI5
aI0
aI1
asS'kohnm001'
p3006
(lp3007
g3006
aS'Michael Kohn'
p3008
aS'23.1'
p3009
aI11
aI9
aI8
aI1
aI20
aI1
aI26
asg218
(lp3010
g218
ag220
aS'52.0'
p3011
aI53
aI41
aI39
aI10
aI24
aI1
aI47
asS'schet001'
p3012
(lp3013
g3012
aS'Tanner Scheppers'
p3014
aS'22.2'
p3015
aI31
aI24
aI23
aI6
aI10
aI0
aI17
asS'smitj002'
p3016
(lp3017
g3016
aS'Joe Smith'
p3018
aS'74.2'
p3019
aI45
aI16
aI15
aI4
aI15
aI3
aI68
asS'gravk001'
p3020
(lp3021
g3020
aS'Kendall Graveman'
p3022
aS'4.1'
p3023
aI4
aI2
aI2
aI0
aI0
aI0
aI4
asg221
(lp3024
g221
ag223
aS'198.1'
p3025
aI183
aI87
aI78
aI22
aI45
aI0
aI141
asS'marte002'
p3026
(lp3027
g3026
aS'Ethan Martin'
p3028
aS'4.0'
p3029
aI1
aI2
aI2
aI1
aI3
aI0
aI4
asS'nerih001'
p3030
(lp3031
g3030
aS'Hector Neris'
p3032
aS'1.0'
p3033
aI0
aI0
aI0
aI0
aI0
aI0
aI1
asg1379
(lp3034
g1379
ag1381
aS'164.0'
p3035
aI153
aI52
aI44
aI18
aI24
aI0
aI98
asg239
(lp3036
g239
ag241
aS'7.0'
p3037
aI7
aI5
aI4
aI0
aI4
aI1
aI9
asS'barra001'
p3038
(lp3039
g3038
aS'Aaron Barrett'
p3040
aS'40.2'
p3041
aI33
aI17
aI12
aI1
aI20
aI2
aI49
asg251
(lp3042
g251
ag253
aS'44.1'
p3043
aI44
aI21
aI20
aI8
aI23
aI0
aI42
asS'reede002'
p3044
(lp3045
g3044
aS'Evan Reed'
p3046
aS'32.0'
p3047
aI39
aI19
aI15
aI2
aI12
aI1
aI26
asg266
(lp3048
g266
ag268
aS'227.0'
p3049
aI224
aI95
aI82
aI23
aI44
aI0
aI180
asg269
(lp3050
g269
ag271
aS'7.2'
p3051
aI13
aI7
aI7
aI1
aI1
aI1
aI5
asg272
(lp3052
g272
ag274
aS'171.2'
p3053
aI151
aI58
aI53
aI16
aI45
aI1
aI170
asS'bassc001'
p3054
(lp3055
g3054
aS'Chris Bassitt'
p3056
aS'29.1'
p3057
aI34
aI13
aI13
aI0
aI13
aI1
aI21
asS'lobsk001'
p3058
(lp3059
g3058
aS'Kyle Lobstein'
p3060
aS'39.1'
p3061
aI35
aI20
aI19
aI3
aI14
aI2
aI27
asS'uehak001'
p3062
(lp3063
g3062
aS'Koji Uehara'
p3064
aS'64.1'
p3065
aI51
aI18
aI18
aI10
aI8
aI0
aI80
asS'sants001'
p3066
(lp3067
g3066
aS'Sergio Santos'
p3068
aS'20.2'
p3069
aI28
aI22
aI20
aI5
aI18
aI2
aI29
asS'maron001'
p3070
(lp3071
g3070
aS'Nick Maronde'
p3072
aS'6.0'
p3073
aI12
aI9
aI9
aI0
aI7
aI0
aI7
asg296
(lp3074
g296
ag298
aS'159.0'
p3075
aI155
aI61
aI57
aI25
aI51
aI1
aI111
asg1343
(lp3076
g1343
ag1345
aS'34.1'
p3077
aI32
aI16
aI16
aI4
aI21
aI1
aI31
asg305
(lp3078
g305
ag307
aS'155.2'
p3079
aI154
aI86
aI82
aI19
aI63
aI0
aI134
asg1760
(lp3080
g1760
ag1762
aS'0.1'
p3081
aI0
aI0
aI0
aI0
aI0
aI0
aI0
asS'gonzm006'
p3082
(lp3083
g3082
aS'Miguel Gonzalez'
p3084
aS'5.0'
p3085
aI9
aI4
aI4
aI1
aI3
aI0
aI5
asS'garcl005'
p3086
(lp3087
g3086
aS'Luis Garcia'
p3088
aS'14.0'
p3089
aI14
aI12
aI10
aI2
aI13
aI0
aI12
asS'nunel001'
p3090
(lp3091
g3090
aS'Juan Carlos Oviedo'
p3092
aS'31.1'
p3093
aI27
aI14
aI13
aI3
aI16
aI1
aI26
asS'lee-c004'
p3094
(lp3095
g3094
aS'C.C. Lee'
p3096
aS'27.2'
p3097
aI30
aI15
aI14
aI3
aI12
aI1
aI26
asS'tuivs001'
p3098
(lp3099
g3098
aS'Sam Tuivailala'
p3100
aS'1.0'
p3101
aI5
aI4
aI4
aI2
aI2
aI0
aI1
asS'karnn001'
p3102
(lp3103
g3102
aS'Nathan Karns'
p3104
aS'12.0'
p3105
aI7
aI6
aI6
aI3
aI4
aI0
aI13
asS'ramir003'
p3106
(lp3107
g3106
aS'Ramon Ramirez'
p3108
aS'1.0'
p3109
aI0
aI0
aI0
aI0
aI1
aI0
aI2
asg332
(lp3110
g332
ag334
aS'154.1'
p3111
aI117
aI53
aI47
aI13
aI41
aI1
aI157
asg335
(lp3112
g335
ag337
aS'69.1'
p3113
aI82
aI42
aI38
aI6
aI19
aI0
aI57
asg338
(lp3114
g338
ag340
aS'1.0'
p3115
aI0
aI1
aI1
aI0
aI5
aI0
aI0
asg341
(lp3116
g341
ag343
aS'16.0'
p3117
aI14
aI3
aI3
aI1
aI7
aI0
aI8
asg347
(lp3118
g347
ag349
aS'110.2'
p3119
aI112
aI56
aI54
aI10
aI39
aI3
aI67
asS'clemp002'
p3120
(lp3121
g3120
aS'Paul Clemens'
p3122
aS'24.1'
p3123
aI28
aI20
aI16
aI5
aI13
aI1
aI16
asg350
(lp3124
g350
ag352
aS'58.2'
p3125
aI70
aI22
aI18
aI2
aI13
aI2
aI34
asg353
(lp3126
g353
ag355
aS'200.0'
p3127
aI187
aI71
aI65
aI11
aI48
aI2
aI146
asS'bresc001'
p3128
(lp3129
g3128
aS'Craig Breslow'
p3130
aS'54.1'
p3131
aI73
aI40
aI36
aI8
aI28
aI1
aI37
asg359
(lp3132
g359
ag361
aS'35.0'
p3133
aI41
aI19
aI18
aI4
aI12
aI1
aI20
asS'roweb001'
p3134
(lp3135
g3134
aS'Ben Rowen'
p3136
aS'8.1'
p3137
aI10
aI4
aI4
aI0
aI4
aI3
aI7
asS'surke001'
p3138
(lp3139
g3138
aS'Eric Surkamp'
p3140
aS'24.0'
p3141
aI22
aI14
aI13
aI3
aI13
aI3
aI20
asS'lincb001'
p3142
(lp3143
g3142
aS'Brad Lincoln'
p3144
aS'2.0'
p3145
aI5
aI3
aI3
aI1
aI0
aI0
aI2
asS'mccud001'
p3146
(lp3147
g3146
aS'Daniel McCutchen'
p3148
aS'2.0'
p3149
aI4
aI3
aI2
aI1
aI2
aI0
aI0
asS'kirkm001'
p3150
(lp3151
g3150
aS'Michael Kirkman'
p3152
aS'5.1'
p3153
aI5
aI1
aI1
aI0
aI1
aI0
aI3
asS'pomed001'
p3154
(lp3155
g3154
aS'Drew Pomeranz'
p3156
aS'69.0'
p3157
aI51
aI22
aI18
aI7
aI26
aI0
aI64
asS'rucid001'
p3158
(lp3159
g3158
aS'Drew Rucinski'
p3160
aS'7.0'
p3161
aI9
aI4
aI4
aI0
aI2
aI0
aI8
asg380
(lp3162
g380
ag382
aS'71.2'
p3163
aI46
aI19
aI17
aI7
aI17
aI1
aI76
asS'alvaj003'
p3164
(lp3165
g3164
aS'Jose Alvarez'
p3166
aS'0.2'
p3167
aI1
aI0
aI0
aI0
aI0
aI0
aI1
asS'chapk002'
p3168
(lp3169
g3168
aS'Kevin Chapman'
p3170
aS'21.0'
p3171
aI22
aI11
aI11
aI3
aI11
aI0
aI19
asg389
(lp3172
g389
ag391
aS'196.1'
p3173
aI181
aI80
aI75
aI22
aI56
aI7
aI127
asS'downs001'
p3174
(lp3175
g3174
aS'Scott Downs'
p3176
aS'38.0'
p3177
aI36
aI24
aI21
aI2
aI20
aI2
aI25
asS'veald001'
p3178
(lp3179
g3178
aS'Donnie Veal'
p3180
aS'5.2'
p3181
aI6
aI5
aI5
aI0
aI7
aI1
aI6
asS'websa001'
p3182
(lp3183
g3182
aS'Allen Webster'
p3184
aS'59.0'
p3185
aI58
aI35
aI33
aI3
aI28
aI0
aI36
asS'thoma003'
p3186
(lp3187
g3186
aS'Aaron Thompson'
p3188
aS'7.0'
p3189
aI8
aI2
aI2
aI0
aI2
aI1
aI6
asS'petrj001'
p3190
(lp3191
g3190
aS'Jake Petricka'
p3192
aS'73.0'
p3193
aI67
aI24
aI23
aI3
aI33
aI4
aI55
asS'betad001'
p3194
(lp3195
g3194
aS'Dellin Betances'
p3196
aS'89.2'
p3197
aI46
aI15
aI14
aI4
aI24
aI1
aI135
asg416
(lp3198
g416
ag418
aS'110.1'
p3199
aI123
aI76
aI69
aI9
aI55
aI2
aI105
asS'parnb001'
p3200
(lp3201
g3200
aS'Bobby Parnell'
p3202
aS'1.0'
p3203
aI2
aI1
aI1
aI0
aI1
aI0
aI1
asg422
(lp3204
g422
ag424
aS'152.2'
p3205
aI151
aI76
aI71
aI16
aI60
aI4
aI143
asg428
(lp3206
g428
ag430
aS'1.0'
p3207
aI1
aI0
aI0
aI0
aI0
aI0
aI0
asS'wootr001'
p3208
(lp3209
g3208
aS'Rob Wooten'
p3210
aS'34.0'
p3211
aI42
aI18
aI18
aI1
aI8
aI0
aI29
asS'wangw001'
p3212
(lp3213
g3212
aS'Wei-Chung Wang'
p3214
aS'17.1'
p3215
aI30
aI23
aI21
aI6
aI8
aI1
aI13
asg434
(lp3216
g434
ag436
aS'168.2'
p3217
aI124
aI51
aI49
aI5
aI51
aI1
aI164
asS'pelfm001'
p3218
(lp3219
g3218
aS'Mike Pelfrey'
p3220
aS'23.1'
p3221
aI29
aI23
aI21
aI5
aI18
aI0
aI10
asg440
(lp3222
g440
ag442
aS'78.1'
p3223
aI103
aI65
aI55
aI9
aI30
aI2
aI51
asg446
(lp3224
g446
ag448
aS'56.1'
p3225
aI58
aI29
aI26
aI2
aI19
aI4
aI31
asg1499
(lp3226
g1499
ag1501
aS'198.2'
p3227
aI198
aI88
aI79
aI23
aI61
aI0
aI154
asg458
(lp3228
g458
ag460
aS'214.1'
p3229
aI217
aI93
aI88
aI23
aI50
aI3
aI164
asS'novai001'
p3230
(lp3231
g3230
aS'Ivan Nova'
p3232
aS'20.1'
p3233
aI32
aI19
aI19
aI6
aI6
aI0
aI12
asS'crowa001'
p3234
(lp3235
g3234
aS'Aaron Crow'
p3236
aS'59.0'
p3237
aI52
aI32
aI27
aI10
aI24
aI1
aI34
asS'rothm001'
p3238
(lp3239
g3238
aS'Michael Roth'
p3240
aS'12.1'
p3241
aI16
aI12
aI12
aI2
aI9
aI2
aI9
asS'leblw001'
p3242
(lp3243
g3242
aS'Wade LeBlanc'
p3244
aS'29.1'
p3245
aI27
aI13
aI13
aI2
aI7
aI2
aI21
asS'withc001'
p3246
(lp3247
g3246
aS'Chris Withrow'
p3248
aS'21.0'
p3249
aI10
aI8
aI7
aI1
aI18
aI0
aI28
asS'cabrc001'
p3250
(lp3251
g3250
aS'Cesar Cabral'
p3252
aS'1.0'
p3253
aI4
aI3
aI3
aI0
aI2
aI0
aI2
asg503
(lp3254
g503
ag505
aS'75.1'
p3255
aI94
aI44
aI44
aI10
aI18
aI0
aI60
asS'pestv001'
p3256
(lp3257
g3256
aS'Vinnie Pestano'
p3258
aS'18.2'
p3259
aI18
aI8
aI6
aI3
aI5
aI0
aI26
asS'gilek001'
p3260
(lp3261
g3260
aS'Ken Giles'
p3262
aS'45.2'
p3263
aI25
aI7
aI6
aI1
aI11
aI1
aI64
asg509
(lp3264
g509
ag511
aS'64.1'
p3265
aI51
aI21
aI14
aI4
aI19
aI5
aI36
asg512
(lp3266
g512
ag514
aS'14.0'
p3267
aI13
aI6
aI6
aI0
aI8
aI1
aI10
asg515
(lp3268
g515
ag517
aS'66.1'
p3269
aI45
aI19
aI19
aI5
aI18
aI3
aI51
asS'edwaj001'
p3270
(lp3271
g3270
aS'Jon Edwards'
p3272
aS'8.0'
p3273
aI13
aI5
aI4
aI0
aI5
aI0
aI9
asS'ryank002'
p3274
(lp3275
g3274
aS'Kyle Ryan'
p3276
aS'10.0'
p3277
aI10
aI3
aI3
aI0
aI2
aI0
aI4
asg536
(lp3278
g536
ag538
aS'227.0'
p3279
aI184
aI63
aI60
aI10
aI50
aI5
aI179
asS'cedex001'
p3280
(lp3281
g3280
aS'Xavier Cedeno'
p3282
aS'6.2'
p3283
aI10
aI4
aI3
aI1
aI0
aI0
aI5
asg548
(lp3284
g548
ag550
aS'157.1'
p3285
aI143
aI76
aI65
aI9
aI57
aI2
aI126
asS'bedae001'
p3286
(lp3287
g3286
aS'Erik Bedard'
p3288
aS'75.2'
p3289
aI84
aI46
aI40
aI10
aI29
aI0
aI64
asg560
(lp3290
g560
ag562
aS'73.1'
p3291
aI57
aI26
aI25
aI4
aI32
aI1
aI70
asg563
(lp3292
g563
ag565
aS'75.0'
p3293
aI73
aI33
aI27
aI5
aI27
aI6
aI60
asg575
(lp3294
g575
ag577
aS'36.1'
p3295
aI37
aI12
aI12
aI2
aI14
aI4
aI32
asg581
(lp3296
g581
ag583
aS'128.1'
p3297
aI141
aI90
aI84
aI12
aI69
aI2
aI116
asS'oberb001'
p3298
(lp3299
g3298
aS'Brett Oberholtzer'
p3300
aS'143.1'
p3301
aI170
aI72
aI69
aI12
aI28
aI0
aI94
asS'verhd001'
p3302
(lp3303
g3302
aS'Drew VerHagen'
p3304
aS'5.0'
p3305
aI5
aI3
aI3
aI0
aI3
aI0
aI4
asS'wrigw001'
p3306
(lp3307
g3306
aS'Wesley Wright'
p3308
aS'48.1'
p3309
aI48
aI19
aI16
aI2
aI19
aI2
aI37
asg2447
(lp3310
g2447
ag2449
aS'75.0'
p3311
aI82
aI44
aI44
aI13
aI34
aI2
aI60
asg596
(lp3312
g596
ag598
aS'64.1'
p3313
aI58
aI17
aI13
aI6
aI24
aI6
aI50
asg599
(lp3314
g599
ag601
aS'33.0'
p3315
aI37
aI21
aI21
aI2
aI18
aI0
aI30
asS'elbes001'
p3316
(lp3317
g3316
aS'Scott Elbert'
p3318
aS'4.0'
p3319
aI4
aI1
aI1
aI0
aI1
aI0
aI2
asg602
(lp3320
g602
ag604
aS'43.1'
p3321
aI44
aI17
aI14
aI1
aI13
aI3
aI29
asS'fujik001'
p3322
(lp3323
g3322
aS'Kyuji Fujikawa'
p3324
aS'13.0'
p3325
aI18
aI8
aI7
aI2
aI6
aI2
aI17
asS'furbc001'
p3326
(lp3327
g3326
aS'Charlie Furbush'
p3328
aS'42.1'
p3329
aI40
aI17
aI17
aI4
aI9
aI0
aI51
asg611
(lp3330
g611
ag613
aS'25.2'
p3331
aI20
aI9
aI8
aI3
aI5
aI1
aI21
asg614
(lp3332
g614
ag616
aS'127.0'
p3333
aI120
aI63
aI53
aI15
aI53
aI3
aI108
asS'owenr001'
p3334
(lp3335
g3334
aS'Rudy Owens'
p3336
aS'5.1'
p3337
aI9
aI5
aI5
aI1
aI2
aI0
aI1
asS'gregl001'
p3338
(lp3339
g3338
aS'Luke Gregerson'
p3340
aS'72.1'
p3341
aI58
aI20
aI17
aI6
aI15
aI3
aI59
asS'mccop001'
p3342
(lp3343
g3342
aS'Pat McCoy'
p3344
aS'14.0'
p3345
aI21
aI6
aI6
aI0
aI13
aI3
aI11
asg626
(lp3346
g626
ag628
aS'35.2'
p3347
aI36
aI19
aI19
aI5
aI5
aI1
aI17
asS'streh001'
p3348
(lp3349
g3348
aS'Huston Street'
p3350
aS'59.1'
p3351
aI42
aI9
aI9
aI4
aI14
aI3
aI57
asg647
(lp3352
g647
ag649
aS'201.1'
p3353
aI207
aI103
aI97
aI23
aI75
aI3
aI183
asg659
(lp3354
g659
ag661
aS'61.1'
p3355
aI71
aI34
aI34
aI6
aI15
aI1
aI46
asS'wagnn001'
p3356
(lp3357
g3356
aS'Neil Wagner'
p3358
aS'10.0'
p3359
aI12
aI9
aI9
aI1
aI4
aI0
aI6
asS'bedrc001'
p3360
(lp3361
g3360
aS'Cam Bedrosian'
p3362
aS'19.0'
p3363
aI23
aI17
aI14
aI2
aI12
aI1
aI20
asg1262
(lp3364
g1262
ag1264
aS'1.2'
p3365
aI4
aI1
aI1
aI0
aI0
aI0
aI2
asS'lindj004'
p3366
(lp3367
g3366
aS'Josh Lindblom'
p3368
aS'4.1'
p3369
aI5
aI2
aI2
aI1
aI2
aI0
aI2
asS'kickm001'
p3370
(lp3371
g3370
aS'Mike Kickham'
p3372
aS'1.2'
p3373
aI8
aI5
aI5
aI1
aI1
aI0
aI1
asg1337
(lp3374
g1337
ag1339
aS'54.1'
p3375
aI55
aI23
aI16
aI6
aI13
aI0
aI45
asS'stitm001'
p3376
(lp3377
g3376
aS'Matt Stites'
p3378
aS'32.2'
p3379
aI33
aI23
aI21
aI6
aI16
aI1
aI26
asS'aceva001'
p3380
(lp3381
g3380
aS'Alfredo Aceves'
p3382
aS'19.0'
p3383
aI23
aI14
aI14
aI6
aI4
aI0
aI16
asg722
(lp3384
g722
ag724
aS'41.0'
p3385
aI50
aI26
aI25
aI5
aI16
aI1
aI42
asS'roseb003'
p3386
(lp3387
g3386
aS'B.J. Rosenberg'
p3388
aS'11.2'
p3389
aI20
aI10
aI9
aI5
aI7
aI0
aI9
asS'mujie001'
p3390
(lp3391
g3390
aS'Edward Mujica'
p3392
aS'60.0'
p3393
aI69
aI28
aI26
aI6
aI14
aI2
aI43
asg1523
(lp3394
g1523
ag1525
aS'9.0'
p3395
aI16
aI9
aI9
aI0
aI3
aI1
aI5
asg746
(lp3396
g746
ag748
aS'156.2'
p3397
aI114
aI46
aI44
aI5
aI41
aI2
aI167
asS'rodrp001'
p3398
(lp3399
g3398
aS'Paco Rodriguez'
p3400
aS'14.0'
p3401
aI12
aI6
aI6
aI1
aI4
aI0
aI14
asg752
(lp3402
g752
ag754
aS'179.1'
p3403
aI163
aI75
aI69
aI18
aI39
aI2
aI115
asS'thatj001'
p3404
(lp3405
g3404
aS'Joe Thatcher'
p3406
aS'30.0'
p3407
aI36
aI16
aI13
aI3
aI4
aI1
aI27
asg758
(lp3408
g758
ag760
aS'207.1'
p3409
aI189
aI83
aI77
aI21
aI66
aI1
aI150
asg764
(lp3410
g764
ag766
aS'140.0'
p3411
aI117
aI44
aI42
aI7
aI43
aI2
aI144
asg2816
(lp3412
g2816
ag2818
aS'166.1'
p3413
aI142
aI56
aI53
aI11
aI47
aI1
aI149
asg1604
(lp3414
g1604
ag1606
aS'168.0'
p3415
aI156
aI79
aI77
aI20
aI59
aI0
aI174
asS'waldj001'
p3416
(lp3417
g3416
aS'Jordan Walden'
p3418
aS'50.0'
p3419
aI33
aI17
aI16
aI2
aI27
aI1
aI62
asg785
(lp3420
g785
ag787
aS'42.0'
p3421
aI41
aI14
aI10
aI1
aI15
aI4
aI33
asg1730
(lp3422
g1730
ag1732
aS'137.0'
p3423
aI128
aI61
aI61
aI18
aI43
aI0
aI94
asg797
(lp3424
g797
ag799
aS'221.0'
p3425
aI188
aI82
aI72
aI22
aI51
aI4
aI186
asg800
(lp3426
g800
ag802
aS'161.2'
p3427
aI157
aI89
aI82
aI25
aI46
aI1
aI129
asg803
(lp3428
g803
ag805
aS'52.1'
p3429
aI66
aI36
aI32
aI7
aI17
aI1
aI48
asg809
(lp3430
g809
ag811
aS'57.2'
p3431
aI45
aI20
aI18
aI3
aI20
aI3
aI42
asg815
(lp3432
g815
ag817
aS'185.1'
p3433
aI167
aI84
aI73
aI14
aI79
aI3
aI187
asS'neshp001'
p3434
(lp3435
g3434
aS'Pat Neshek'
p3436
aS'67.1'
p3437
aI44
aI14
aI14
aI4
aI9
aI2
aI68
asS'carpd002'
p3438
(lp3439
g3438
aS'David Carpenter'
p3440
aS'3.0'
p3441
aI1
aI0
aI0
aI0
aI0
aI0
aI0
asS'shawb001'
p3442
(lp3443
g3442
aS'Bryan Shaw'
p3444
aS'76.0'
p3445
aI61
aI26
aI21
aI6
aI22
aI4
aI64
asS'carpd001'
p3446
(lp3447
g3446
aS'David Carpenter'
p3448
aS'61.0'
p3449
aI61
aI27
aI24
aI5
aI16
aI0
aI67
asS'jeffj001'
p3450
(lp3451
g3450
aS'Jeremy Jeffress'
p3452
aS'31.2'
p3453
aI35
aI9
aI9
aI1
aI10
aI2
aI29
asg2084
(lp3454
g2084
ag2086
aS'62.2'
p3455
aI38
aI19
aI19
aI5
aI8
aI1
aI89
asg845
(lp3456
g845
ag847
aS'68.2'
p3457
aI51
aI39
aI33
aI7
aI31
aI2
aI63
asS'fienc001'
p3458
(lp3459
g3458
aS'Casey Fien'
p3460
aS'63.1'
p3461
aI64
aI29
aI28
aI7
aI10
aI0
aI51
asg854
(lp3462
g854
ag856
aS'20.1'
p3463
aI29
aI22
aI21
aI5
aI11
aI0
aI19
asg860
(lp3464
g860
ag862
aS'46.0'
p3465
aI58
aI31
aI29
aI10
aI10
aI0
aI48
asg875
(lp3466
g875
ag877
aS'195.2'
p3467
aI165
aI75
aI62
aI13
aI72
aI2
aI195
asg881
(lp3468
g881
ag883
aS'209.2'
p3469
aI221
aI88
aI84
aI16
aI16
aI1
aI186
asg635
(lp3470
g635
ag637
aS'200.0'
p3471
aI222
aI100
aI91
aI25
aI33
aI4
aI175
asg887
(lp3472
g887
ag889
aS'18.0'
p3473
aI14
aI6
aI6
aI5
aI4
aI1
aI20
asS'cokep001'
p3474
(lp3475
g3474
aS'Phil Coke'
p3476
aS'58.0'
p3477
aI69
aI28
aI25
aI5
aI20
aI2
aI41
asg896
(lp3478
g896
ag898
aS'202.2'
p3479
aI215
aI100
aI93
aI23
aI49
aI0
aI124
asS'rodnf001'
p3480
(lp3481
g3480
aS'Fernando Rodney'
p3482
aS'66.1'
p3483
aI61
aI24
aI21
aI3
aI28
aI3
aI76
asg2345
(lp3484
g2345
ag2347
aS'163.2'
p3485
aI151
aI77
aI70
aI16
aI64
aI3
aI143
asS'colec001'
p3486
(lp3487
g3486
aS'Casey Coleman'
p3488
aS'12.0'
p3489
aI16
aI8
aI7
aI0
aI6
aI0
aI5
asg917
(lp3490
g917
ag919
aS'102.0'
p3491
aI92
aI41
aI37
aI9
aI26
aI2
aI74
asg920
(lp3492
g920
ag922
aS'154.0'
p3493
aI191
aI104
aI95
aI20
aI40
aI2
aI79
asS'grubj002'
p3494
(lp3495
g3494
aS'Jarrett Grube'
p3496
aS'0.2'
p3497
aI1
aI1
aI1
aI1
aI0
aI0
aI0
asS'odayd001'
p3498
(lp3499
g3498
aS"Darren O'Day"
p3500
aS'68.2'
p3501
aI42
aI14
aI13
aI6
aI19
aI4
aI73
asS'rzepm001'
p3502
(lp3503
g3502
aS'Marc Rzepczynski'
p3504
aS'46.0'
p3505
aI42
aI19
aI14
aI1
aI19
aI3
aI46
asS'tomlj001'
p3506
(lp3507
g3506
aS'Josh Tomlin'
p3508
aS'103.2'
p3509
aI120
aI65
aI56
aI18
aI14
aI3
aI94
asS'mitcb001'
p3510
(lp3511
g3510
aS'Bryan Mitchell'
p3512
aS'11.0'
p3513
aI10
aI3
aI3
aI0
aI3
aI0
aI7
asg959
(lp3514
g959
ag961
aS'18.1'
p3515
aI35
aI24
aI23
aI6
aI12
aI1
aI14
asS'diazj005'
p3516
(lp3517
g3516
aS'Jumbo Diaz'
p3518
aS'34.1'
p3519
aI29
aI13
aI13
aI3
aI14
aI4
aI37
asS'bochb003'
p3520
(lp3521
g3520
aS'Brett Bochy'
p3522
aS'3.1'
p3523
aI1
aI2
aI2
aI1
aI2
aI0
aI3
asS'germj001'
p3524
(lp3525
g3524
aS'Justin Germano'
p3526
aS'5.0'
p3527
aI8
aI7
aI7
aI1
aI3
aI1
aI3
asg2096
(lp3528
g2096
ag2098
aS'202.2'
p3529
aI196
aI91
aI84
aI23
aI63
aI2
aI158
asS'strih001'
p3530
(lp3531
g3530
aS'Hunter Strickland'
p3532
aS'6.2'
p3533
aI5
aI0
aI0
aI0
aI0
aI0
aI9
asS'daviw001'
p3534
(lp3535
g3534
aS'Wade Davis'
p3536
aS'72.0'
p3537
aI38
aI8
aI8
aI0
aI23
aI0
aI109
asS'jenkc001'
p3538
(lp3539
g3538
aS'Chad Jenkins'
p3540
aS'31.1'
p3541
aI34
aI10
aI9
aI2
aI6
aI1
aI18
asS'thiec001'
p3542
(lp3543
g3542
aS'Caleb Thielbar'
p3544
aS'47.2'
p3545
aI51
aI19
aI18
aI3
aI16
aI1
aI35
asg998
(lp3546
g998
ag1000
aS'64.2'
p3547
aI34
aI17
aI17
aI9
aI20
aI0
aI104
asS'walkt004'
p3548
(lp3549
g3548
aS'Taijuan Walker'
p3550
aS'37.2'
p3551
aI31
aI12
aI11
aI2
aI18
aI1
aI34
asg2126
(lp3552
g2126
ag2128
aS'25.2'
p3553
aI34
aI20
aI19
aI3
aI13
aI0
aI13
asg1007
(lp3554
g1007
ag1009
aS'77.0'
p3555
aI59
aI26
aI19
aI3
aI32
aI5
aI73
asS'foltm001'
p3556
(lp3557
g3556
aS'Michael Foltynewicz'
p3558
aS'18.2'
p3559
aI23
aI11
aI11
aI3
aI7
aI0
aI14
asS'pattr002'
p3560
(lp3561
g3560
aS'Red Patterson'
p3562
aS'4.1'
p3563
aI2
aI1
aI1
aI0
aI3
aI0
aI1
asg77
(lp3564
g77
ag79
aS'176.0'
p3565
aI197
aI93
aI85
aI26
aI45
aI3
aI111
asg1019
(lp3566
g1019
ag1021
aS'163.1'
p3567
aI143
aI77
aI67
aI12
aI50
aI2
aI126
asg1394
(lp3568
g1394
ag1396
aS'113.0'
p3569
aI111
aI48
aI45
aI7
aI38
aI0
aI88
asg1025
(lp3570
g1025
ag1027
aS'219.2'
p3571
aI191
aI86
aI73
aI20
aI43
aI3
aI202
asg1028
(lp3572
g1028
ag1030
aS'36.1'
p3573
aI33
aI23
aI18
aI4
aI11
aI2
aI36
asS'clipt001'
p3574
(lp3575
g3574
aS'Tyler Clippard'
p3576
aS'70.1'
p3577
aI47
aI22
aI17
aI5
aI23
aI1
aI82
asg1043
(lp3578
g1043
ag1045
aS'65.1'
p3579
aI53
aI19
aI18
aI9
aI16
aI3
aI62
asS'mediy001'
p3580
(lp3581
g3580
aS'Yoervis Medina'
p3582
aS'57.0'
p3583
aI48
aI18
aI17
aI3
aI28
aI3
aI60
asg1055
(lp3584
g1055
ag1057
aS'23.2'
p3585
aI21
aI13
aI12
aI4
aI8
aI0
aI20
asg1058
(lp3586
g1058
ag1060
aS'14.2'
p3587
aI11
aI7
aI7
aI1
aI7
aI1
aI12
asg1064
(lp3588
g1064
ag1066
aS'6.2'
p3589
aI12
aI7
aI7
aI0
aI3
aI0
aI6
asg95
(lp3590
g95
ag97
aS'59.0'
p3591
aI55
aI34
aI34
aI5
aI16
aI2
aI34
asg392
(lp3592
g392
ag394
aS'159.0'
p3593
aI203
aI96
aI95
aI22
aI38
aI1
aI115
asg1082
(lp3594
g1082
ag1084
aS'243.2'
p3595
aI169
aI69
aI61
aI22
aI65
aI2
aI242
asg1085
(lp3596
g1085
ag1087
aS'29.0'
p3597
aI32
aI19
aI19
aI6
aI7
aI0
aI20
asS'cappc001'
p3598
(lp3599
g3598
aS'Carter Capps'
p3600
aS'20.0'
p3601
aI19
aI9
aI9
aI1
aI5
aI0
aI25
asg545
(lp3602
g545
ag547
aS'199.0'
p3603
aI214
aI108
aI102
aI25
aI57
aI4
aI121
asg1826
(lp3604
g1826
ag1828
aS'86.2'
p3605
aI88
aI57
aI50
aI11
aI36
aI0
aI70
asg1106
(lp3606
g1106
ag1108
aS'175.2'
p3607
aI169
aI95
aI88
aI17
aI85
aI5
aI151
asg1109
(lp3608
g1109
ag1111
aS'172.1'
p3609
aI180
aI98
aI92
aI28
aI56
aI1
aI123
asg2174
(lp3610
g2174
ag2176
aS'201.0'
p3611
aI189
aI84
aI80
aI16
aI70
aI4
aI207
asS'grilj001'
p3612
(lp3613
g3612
aS'Jason Grilli'
p3614
aS'54.0'
p3615
aI51
aI26
aI24
aI4
aI21
aI2
aI57
asS'camps002'
p3616
(lp3617
g3616
aS'Shawn Camp'
p3618
aS'3.1'
p3619
aI7
aI2
aI2
aI1
aI0
aI0
aI1
asS'smitw002'
p3620
(lp3621
g3620
aS'Will Smith'
p3622
aS'65.2'
p3623
aI62
aI31
aI28
aI6
aI31
aI6
aI86
asS'oflae001'
p3624
(lp3625
g3624
aS"Eric O'Flaherty"
p3626
aS'19.2'
p3627
aI15
aI5
aI5
aI3
aI4
aI0
aI15
asg1127
(lp3628
g1127
ag1129
aS'16.0'
p3629
aI23
aI12
aI12
aI2
aI7
aI1
aI3
asg1133
(lp3630
g1133
ag1135
aS'24.1'
p3631
aI42
aI26
aI25
aI4
aI10
aI2
aI13
asS'grees005'
p3632
(lp3633
g3632
aS'Shane Greene'
p3634
aS'78.1'
p3635
aI81
aI38
aI33
aI8
aI29
aI0
aI81
asS'forne001'
p3636
(lp3637
g3636
aS'Eric Fornataro'
p3638
aS'9.1'
p3639
aI11
aI6
aI5
aI0
aI1
aI0
aI3
asS'thomt001'
p3640
(lp3641
g3640
aS'Taylor Thompson'
p3642
aS'5.0'
p3643
aI9
aI6
aI6
aI1
aI4
aI0
aI4
asg1145
(lp3644
g1145
ag1147
aS'11.1'
p3645
aI16
aI9
aI9
aI3
aI5
aI0
aI8
asS'cisnj001'
p3646
(lp3647
g3646
aS'Jose Cisnero'
p3648
aS'4.1'
p3649
aI8
aI5
aI5
aI0
aI4
aI0
aI5
asg191
(lp3650
g191
ag193
aS'25.1'
p3651
aI34
aI20
aI16
aI3
aI8
aI1
aI17
asg20
(lp3652
g20
ag22
aS'110.1'
p3653
aI112
aI43
aI35
aI9
aI22
aI1
aI79
asS'strom001'
p3654
(lp3655
g3654
aS'Marcus Stroman'
p3656
aS'130.1'
p3657
aI125
aI56
aI53
aI7
aI28
aI1
aI111
asS'jaimj001'
p3658
(lp3659
g3658
aS'Juan Jaime'
p3660
aS'12.1'
p3661
aI14
aI8
aI8
aI1
aI9
aI0
aI18
asg1166
(lp3662
g1166
ag1168
aS'219.2'
p3663
aI194
aI76
aI60
aI16
aI48
aI0
aI220
asg1169
(lp3664
g1169
ag1171
aS'112.2'
p3665
aI115
aI62
aI55
aI13
aI46
aI2
aI92
asS'dalem002'
p3666
(lp3667
g3666
aS'Matt Daley'
p3668
aS'14.1'
p3669
aI12
aI11
aI8
aI4
aI6
aI1
aI10
asS'lopej002'
p3670
(lp3671
g3670
aS'Javier Lopez'
p3672
aS'37.1'
p3673
aI31
aI14
aI13
aI2
aI19
aI6
aI22
asg1181
(lp3674
g1181
ag1183
aS'83.0'
p3675
aI62
aI38
aI36
aI6
aI50
aI5
aI78
asS'knebc001'
p3676
(lp3677
g3676
aS'Corey Knebel'
p3678
aS'8.1'
p3679
aI11
aI7
aI6
aI0
aI3
aI0
aI11
asS'camia001'
p3680
(lp3681
g3680
aS'Arquimedes Caminero'
p3682
aS'6.1'
p3683
aI8
aI8
aI8
aI2
aI4
aI0
aI8
asS'melam001'
p3684
(lp3685
g3684
aS'Mark Melancon'
p3686
aS'71.0'
p3687
aI51
aI15
aI15
aI2
aI11
aI1
aI71
asS'smitc004'
p3688
(lp3689
g3688
aS'Carson Smith'
p3690
aS'8.0'
p3691
aI2
aI0
aI0
aI0
aI3
aI0
aI10
asS'roe-c001'
p3692
(lp3693
g3692
aS'Chaz Roe'
p3694
aS'1.2'
p3695
aI3
aI3
aI2
aI0
aI3
aI0
aI4
asS'smitc003'
p3696
(lp3697
g3696
aS'Chad Smith'
p3698
aS'11.2'
p3699
aI15
aI7
aI7
aI1
aI3
aI0
aI9
asg1199
(lp3700
g1199
ag1201
aS'1.1'
p3701
aI2
aI2
aI2
aI1
aI0
aI0
aI2
asg1202
(lp3702
g1202
ag1204
aS'198.1'
p3703
aI139
aI42
aI39
aI9
aI31
aI0
aI239
asS'crock001'
p3704
(lp3705
g3704
aS'Kyle Crockett'
p3706
aS'29.2'
p3707
aI26
aI6
aI5
aI2
aI8
aI2
aI28
asS'blevj001'
p3708
(lp3709
g3708
aS'Jerry Blevins'
p3710
aS'57.1'
p3711
aI48
aI31
aI31
aI3
aI23
aI6
aI66
asS'albua001'
p3712
(lp3713
g3712
aS'Al Alburquerque'
p3714
aS'57.1'
p3715
aI46
aI16
aI16
aI7
aI21
aI1
aI63
asg1322
(lp3716
g1322
ag1324
aS'63.0'
p3717
aI65
aI23
aI18
aI0
aI27
aI5
aI38
asg1223
(lp3718
g1223
ag1225
aS'185.2'
p3719
aI193
aI77
aI73
aI23
aI35
aI2
aI136
asS'dunnj001'
p3720
(lp3721
g3720
aS'Jake Dunning'
p3722
aS'0.2'
p3723
aI0
aI0
aI0
aI0
aI1
aI0
aI0
asg1235
(lp3724
g1235
ag1237
aS'106.2'
p3725
aI95
aI41
aI38
aI6
aI33
aI0
aI94
asg1277
(lp3726
g1277
ag1279
aS'51.1'
p3727
aI50
aI25
aI25
aI3
aI19
aI1
aI35
asS'goede001'
p3728
(lp3729
g3728
aS'Erik Goeddel'
p3730
aS'6.1'
p3731
aI3
aI2
aI2
aI0
aI4
aI1
aI6
asg1247
(lp3732
g1247
ag1249
aS'164.2'
p3733
aI156
aI84
aI75
aI19
aI73
aI7
aI105
asS'lafrb001'
p3734
(lp3735
g3734
aS'Bobby LaFromboise'
p3736
aS'3.2'
p3737
aI3
aI1
aI1
aI1
aI0
aI0
aI4
asS'herry001'
p3738
(lp3739
g3738
aS'Yoslan Herrera'
p3740
aS'16.2'
p3741
aI22
aI5
aI5
aI0
aI9
aI3
aI13
asS'tazaj001'
p3742
(lp3743
g3742
aS'Junichi Tazawa'
p3744
aS'63.0'
p3745
aI58
aI23
aI20
aI5
aI17
aI1
aI64
asg1640
(lp3746
g1640
ag1642
aS'32.1'
p3747
aI42
aI23
aI18
aI6
aI13
aI4
aI28
asS'pereo002'
p3748
(lp3749
g3748
aS'Oliver Perez'
p3750
aS'58.2'
p3751
aI50
aI25
aI19
aI5
aI24
aI2
aI76
asg1265
(lp3752
g1265
ag1267
aS'213.1'
p3753
aI193
aI87
aI85
aI27
aI65
aI1
aI169
asS'bassa001'
p3754
(lp3755
g3754
aS'Anthony Bass'
p3756
aS'26.2'
p3757
aI32
aI20
aI19
aI6
aI7
aI1
aI7
asg1709
(lp3758
g1709
ag1711
aS'54.1'
p3759
aI52
aI23
aI20
aI3
aI13
aI2
aI32
asg1694
(lp3760
g1694
ag1696
aS'20.2'
p3761
aI22
aI3
aI2
aI1
aI8
aI0
aI23
asS'jennd003'
p3762
(lp3763
g3762
aS'Dan Jennings'
p3764
aS'40.1'
p3765
aI45
aI11
aI6
aI3
aI17
aI1
aI38
asg1793
(lp3766
g1793
ag1795
aS'32.1'
p3767
aI34
aI19
aI19
aI5
aI16
aI2
aI38
asS'choar001'
p3768
(lp3769
g3768
aS'Randy Choate'
p3770
aS'35.2'
p3771
aI27
aI18
aI18
aI2
aI13
aI2
aI32
asg2114
(lp3772
g2114
ag2116
aS'74.0'
p3773
aI60
aI29
aI25
aI3
aI29
aI2
aI59
asg1292
(lp3774
g1292
ag1294
aS'85.2'
p3775
aI96
aI54
aI50
aI7
aI28
aI1
aI74
asg1298
(lp3776
g1298
ag1300
aS'186.0'
p3777
aI183
aI101
aI84
aI27
aI36
aI7
aI145
asS'parkb001'
p3778
(lp3779
g3778
aS'Blake Parker'
p3780
aS'20.2'
p3781
aI24
aI13
aI12
aI3
aI4
aI0
aI24
asg1316
(lp3782
g1316
ag1318
aS'131.1'
p3783
aI136
aI80
aI69
aI20
aI70
aI4
aI119
asg1331
(lp3784
g1331
ag1333
aS'135.2'
p3785
aI122
aI49
aI46
aI14
aI24
aI0
aI124
asg1490
(lp3786
g1490
ag1492
aS'158.2'
p3787
aI134
aI66
aI63
aI10
aI56
aI0
aI162
asg2756
(lp3788
g2756
ag2758
aS'52.2'
p3789
aI45
aI19
aI14
aI4
aI12
aI4
aI49
asS'hembh001'
p3790
(lp3791
g3790
aS'Heath Hembree'
p3792
aS'9.2'
p3793
aI11
aI5
aI5
aI1
aI5
aI2
aI6
asS'rodrf003'
p3794
(lp3795
g3794
aS'Francisco Rodriguez'
p3796
aS'68.0'
p3797
aI49
aI23
aI23
aI14
aI18
aI1
aI73
asg1355
(lp3798
g1355
ag1357
aS'67.0'
p3799
aI60
aI29
aI26
aI5
aI24
aI6
aI54
asS'rodrf004'
p3800
(lp3801
g3800
aS'Fernando Rodriguez'
p3802
aS'8.2'
p3803
aI4
aI1
aI1
aI0
aI2
aI0
aI4
asg2132
(lp3804
g2132
ag2134
aS'131.0'
p3805
aI127
aI63
aI57
aI16
aI40
aI2
aI89
asS'mottj001'
p3806
(lp3807
g3806
aS'Jason Motte'
p3808
aS'24.2'
p3809
aI29
aI14
aI13
aI7
aI9
aI0
aI17
asS'collt001'
p3810
(lp3811
g3810
aS'Tim Collins'
p3812
aS'20.2'
p3813
aI18
aI9
aI9
aI2
aI11
aI0
aI15
asS'could001'
p3814
(lp3815
g3814
aS'Daniel Coulombe'
p3816
aS'4.0'
p3817
aI5
aI3
aI2
aI1
aI2
aI0
aI4
asS'hollg001'
p3818
(lp3819
g3818
aS'Greg Holland'
p3820
aS'62.1'
p3821
aI37
aI13
aI10
aI3
aI20
aI0
aI90
asS'josed001'
p3822
(lp3823
g3822
aS'Donnie Joseph'
p3824
aS'0.2'
p3825
aI5
aI6
aI6
aI1
aI1
aI0
aI2
asS'delej002'
p3826
(lp3827
g3826
aS'Jorge De Leon'
p3828
aS'7.0'
p3829
aI9
aI4
aI2
aI2
aI3
aI0
aI4
asS'kleip001'
p3830
(lp3831
g3830
aS'Phil Klein'
p3832
aS'19.0'
p3833
aI11
aI6
aI6
aI3
aI10
aI5
aI23
asS'buehm001'
p3834
(lp3835
g3834
aS'Mark Buehrle'
p3836
aS'202.0'
p3837
aI228
aI83
aI76
aI15
aI46
aI0
aI119
asg2276
(lp3838
g2276
ag2278
aS'199.2'
p3839
aI185
aI66
aI59
aI13
aI29
aI0
aI182
asg2291
(lp3840
g2291
ag2293
aS'165.0'
p3841
aI143
aI70
aI67
aI26
aI60
aI3
aI108
asS'brooa001'
p3842
(lp3843
g3842
aS'Aaron Brooks'
p3844
aS'2.1'
p3845
aI12
aI13
aI13
aI1
aI3
aI0
aI2
asS'lindm001'
p3846
(lp3847
g3846
aS'Matt Lindstrom'
p3848
aS'33.2'
p3849
aI47
aI23
aI19
aI3
aI12
aI0
aI18
asS'millj005'
p3850
(lp3851
g3850
aS'Jim Miller'
p3852
aS'2.1'
p3853
aI7
aI6
aI6
aI3
aI2
aI0
aI2
asS'millj006'
p3854
(lp3855
g3854
aS'Justin Miller'
p3856
aS'12.1'
p3857
aI14
aI9
aI7
aI2
aI2
aI0
aI5
asS'putkl001'
p3858
(lp3859
g3858
aS'Luke Putkonen'
p3860
aS'2.1'
p3861
aI6
aI8
aI8
aI2
aI2
aI0
aI1
asg1409
(lp3862
g1409
ag1411
aS'194.2'
p3863
aI177
aI85
aI72
aI12
aI72
aI1
aI173
asS'riena001'
p3864
(lp3865
g3864
aS'Andre Rienzo'
p3866
aS'64.2'
p3867
aI82
aI54
aI49
aI12
aI33
aI0
aI51
asS'marmc001'
p3868
(lp3869
g3868
aS'Carlos Marmol'
p3870
aS'13.1'
p3871
aI16
aI12
aI12
aI3
aI10
aI2
aI14
asS'hellj001'
p3872
(lp3873
g3872
aS'Jeremy Hellickson'
p3874
aS'63.2'
p3875
aI71
aI35
aI32
aI8
aI21
aI1
aI54
asg1412
(lp3876
g1412
ag1414
aS'1.0'
p3877
aI3
aI2
aI2
aI0
aI0
aI0
aI0
asg1415
(lp3878
g1415
ag1417
aS'70.0'
p3879
aI82
aI41
aI37
aI2
aI18
aI2
aI46
asS'howej003'
p3880
(lp3881
g3880
aS'J.P. Howell'
p3882
aS'49.0'
p3883
aI31
aI14
aI13
aI2
aI25
aI1
aI48
asg2528
(lp3884
g2528
ag2530
aS'184.1'
p3885
aI161
aI90
aI84
aI21
aI67
aI2
aI139
asg242
(lp3886
g242
ag244
aS'77.1'
p3887
aI71
aI44
aI42
aI6
aI35
aI2
aI86
asg1436
(lp3888
g1436
ag1438
aS'180.1'
p3889
aI185
aI86
aI75
aI16
aI50
aI5
aI107
asg2606
(lp3890
g2606
ag2608
aS'199.0'
p3891
aI191
aI91
aI82
aI20
aI35
aI0
aI146
asg1442
(lp3892
g1442
ag1444
aS'190.1'
p3893
aI171
aI81
aI75
aI16
aI50
aI1
aI164
asg2648
(lp3894
g2648
ag2650
aS'215.0'
p3895
aI198
aI86
aI76
aI23
aI43
aI4
aI242
asg1451
(lp3896
g1451
ag1453
aS'192.2'
p3897
aI166
aI75
aI65
aI17
aI71
aI6
aI140
asg962
(lp3898
g962
ag964
aS'219.0'
p3899
aI187
aI84
aI75
aI15
aI74
aI2
aI183
asg1454
(lp3900
g1454
ag1456
aS'204.2'
p3901
aI211
aI89
aI78
aI18
aI41
aI4
aI129
asg1460
(lp3902
g1460
ag1462
aS'196.0'
p3903
aI193
aI90
aI86
aI16
aI63
aI4
aI179
asg1463
(lp3904
g1463
ag1465
aS'179.0'
p3905
aI167
aI70
aI70
aI20
aI21
aI2
aI154
asg1469
(lp3906
g1469
ag1471
aS'82.1'
p3907
aI73
aI39
aI34
aI8
aI39
aI7
aI66
asg1472
(lp3908
g1472
ag1474
aS'235.2'
p3909
aI207
aI71
aI64
aI14
aI51
aI3
aI269
asS'hagan001'
p3910
(lp3911
g3910
aS'Nick Hagadone'
p3912
aS'23.0'
p3913
aI18
aI7
aI7
aI3
aI6
aI2
aI27
asg1484
(lp3914
g1484
ag1486
aS'152.0'
p3915
aI152
aI60
aI57
aI8
aI29
aI2
aI139
asg1487
(lp3916
g1487
ag1489
aS'152.2'
p3917
aI136
aI57
aI55
aI18
aI42
aI2
aI133
asS'perkg001'
p3918
(lp3919
g3918
aS'Glen Perkins'
p3920
aS'61.2'
p3921
aI62
aI29
aI26
aI7
aI11
aI2
aI66
asg1496
(lp3922
g1496
ag1498
aS'5.1'
p3923
aI14
aI12
aI12
aI3
aI5
aI0
aI6
asS'cottn001'
p3924
(lp3925
g3924
aS'Neal Cotts'
p3926
aS'66.2'
p3927
aI66
aI33
aI32
aI6
aI23
aI3
aI63
asg1505
(lp3928
g1505
ag1507
aS'100.1'
p3929
aI97
aI53
aI50
aI9
aI46
aI2
aI83
asS'belij001'
p3930
(lp3931
g3930
aS'Jeff Beliveau'
p3932
aS'23.2'
p3933
aI19
aI7
aI7
aI1
aI7
aI1
aI28
asg1511
(lp3934
g1511
ag1513
aS'170.1'
p3935
aI182
aI108
aI101
aI17
aI54
aI2
aI132
asS'martd005'
p3936
(lp3937
g3936
aS'David Martinez'
p3938
aS'6.2'
p3939
aI5
aI4
aI4
aI1
aI2
aI0
aI6
asS'simms001'
p3940
(lp3941
g3940
aS'Shae Simmons'
p3942
aS'21.1'
p3943
aI15
aI8
aI7
aI1
aI11
aI1
aI23
asS'balfg001'
p3944
(lp3945
g3944
aS'Grant Balfour'
p3946
aS'62.1'
p3947
aI49
aI34
aI34
aI3
aI41
aI3
aI57
asg224
(lp3948
g224
ag226
aS'24.0'
p3949
aI25
aI21
aI16
aI3
aI10
aI1
aI27
asg1529
(lp3950
g1529
ag1531
aS'43.1'
p3951
aI47
aI22
aI22
aI2
aI21
aI7
aI25
asg1538
(lp3952
g1538
ag1540
aS'69.0'
p3953
aI59
aI32
aI29
aI4
aI27
aI2
aI70
asS'felin001'
p3954
(lp3955
g3954
aS'Neftali Feliz'
p3956
aS'31.1'
p3957
aI20
aI7
aI7
aI5
aI11
aI0
aI21
asg1547
(lp3958
g1547
ag1549
aS'10.0'
p3959
aI6
aI2
aI2
aI2
aI1
aI0
aI9
asg755
(lp3960
g755
ag757
aS'19.1'
p3961
aI19
aI16
aI14
aI2
aI17
aI0
aI19
asS'marss002'
p3962
(lp3963
g3962
aS'Sean Marshall'
p3964
aS'14.0'
p3965
aI23
aI14
aI12
aI1
aI12
aI0
aI14
asS'snods001'
p3966
(lp3967
g3966
aS'Scott Snodgress'
p3968
aS'2.0'
p3969
aI8
aI7
aI4
aI1
aI3
aI1
aI1
asg1559
(lp3970
g1559
ag1561
aS'80.0'
p3971
aI77
aI29
aI26
aI7
aI11
aI3
aI55
asS'jepsk001'
p3972
(lp3973
g3972
aS'Kevin Jepsen'
p3974
aS'65.0'
p3975
aI45
aI19
aI19
aI4
aI23
aI2
aI75
asg1574
(lp3976
g1574
ag1576
aS'140.1'
p3977
aI168
aI105
aI99
aI18
aI63
aI3
aI123
asS'robed002'
p3978
(lp3979
g3978
aS'David Robertson'
p3980
aS'64.1'
p3981
aI45
aI23
aI22
aI7
aI23
aI2
aI96
asS'ogana001'
p3982
(lp3983
g3982
aS'Alexi Ogando'
p3984
aS'24.2'
p3985
aI33
aI19
aI19
aI1
aI15
aI1
aI22
asS'parrm001'
p3986
(lp3987
g3986
aS'Manny Parra'
p3988
aS'36.1'
p3989
aI39
aI20
aI19
aI4
aI18
aI1
aI34
asS'cishs001'
p3990
(lp3991
g3990
aS'Steve Cishek'
p3992
aS'65.1'
p3993
aI58
aI26
aI23
aI3
aI21
aI2
aI84
asg1601
(lp3994
g1601
ag1603
aS'5.2'
p3995
aI7
aI4
aI4
aI3
aI1
aI0
aI5
asS'kintb001'
p3996
(lp3997
g3996
aS'Brandon Kintzler'
p3998
aS'58.1'
p3999
aI62
aI22
aI21
aI8
aI16
aI3
aI31
asS'sorir001'
p4000
(lp4001
g4000
aS'Rafael Soriano'
p4002
aS'62.0'
p4003
aI51
aI23
aI22
aI4
aI19
aI0
aI59
asS'mcgej001'
p4004
(lp4005
g4004
aS'Jake McGee'
p4006
aS'71.1'
p4007
aI48
aI15
aI15
aI2
aI16
aI1
aI90
asg1616
(lp4008
g1616
ag1618
aS'54.2'
p4009
aI75
aI37
aI36
aI9
aI10
aI2
aI31
asS'hendj001'
p4010
(lp4011
g4010
aS'Jim Henderson'
p4012
aS'11.1'
p4013
aI14
aI10
aI9
aI3
aI4
aI1
aI17
asg1625
(lp4014
g1625
ag1627
aS'57.1'
p4015
aI64
aI43
aI41
aI8
aI18
aI2
aI38
asg2621
(lp4016
g2621
ag2623
aS'123.0'
p4017
aI110
aI42
aI35
aI7
aI29
aI3
aI93
asg1631
(lp4018
g1631
ag1633
aS'1.0'
p4019
aI0
aI0
aI0
aI0
aI0
aI0
aI0
asg1643
(lp4020
g1643
ag1645
aS'101.2'
p4021
aI113
aI41
aI38
aI10
aI22
aI1
aI80
asg1652
(lp4022
g1652
ag1654
aS'145.1'
p4023
aI134
aI60
aI60
aI16
aI45
aI1
aI124
asS'martc007'
p4024
(lp4025
g4024
aS'Chris Martin'
p4026
aS'15.2'
p4027
aI22
aI12
aI12
aI2
aI4
aI0
aI14
asg656
(lp4028
g656
ag658
aS'89.0'
p4029
aI90
aI41
aI40
aI4
aI36
aI8
aI84
asg1658
(lp4030
g1658
ag1660
aS'64.2'
p4031
aI74
aI35
aI35
aI5
aI19
aI2
aI43
asg1661
(lp4032
g1661
ag1663
aS'180.1'
p4033
aI173
aI80
aI74
aI9
aI73
aI1
aI115
asS'wallj002'
p4034
(lp4035
g4034
aS'Josh Wall'
p4036
aS'1.0'
p4037
aI5
aI6
aI6
aI0
aI3
aI0
aI0
asg1679
(lp4038
g1679
ag1681
aS'22.1'
p4039
aI27
aI11
aI9
aI0
aI4
aI0
aI14
asS'broxj001'
p4040
(lp4041
g4040
aS'Jonathan Broxton'
p4042
aS'58.2'
p4043
aI41
aI15
aI15
aI4
aI19
aI0
aI49
asS'ambrh001'
p4044
(lp4045
g4044
aS'Hector Ambriz'
p4046
aS'1.2'
p4047
aI2
aI2
aI1
aI0
aI2
aI0
aI1
asS'herrk001'
p4048
(lp4049
g4048
aS'Kelvin Herrera'
p4050
aS'70.0'
p4051
aI54
aI12
aI11
aI0
aI26
aI0
aI59
asS'albem001'
p4052
(lp4053
g4052
aS'Matt Albers'
p4054
aS'10.0'
p4055
aI10
aI1
aI1
aI0
aI3
aI0
aI8
asg1685
(lp4056
g1685
ag1687
aS'77.1'
p4057
aI89
aI42
aI40
aI6
aI19
aI4
aI72
asS'rondj001'
p4058
(lp4059
g4058
aS'Jorge Rondon'
p4060
aS'1.0'
p4061
aI0
aI0
aI0
aI0
aI1
aI0
aI0
asg1070
(lp4062
g1070
ag1072
aS'70.1'
p4063
aI57
aI25
aI25
aI2
aI42
aI5
aI87
asS'coloa001'
p4064
(lp4065
g4064
aS'Alex Colome'
p4066
aS'23.1'
p4067
aI19
aI7
aI7
aI1
aI10
aI0
aI13
asS'hudsd001'
p4068
(lp4069
g4068
aS'Daniel Hudson'
p4070
aS'2.1'
p4071
aI4
aI4
aI4
aI0
aI0
aI0
aI2
asS'buchr001'
p4072
(lp4073
g4072
aS'Ryan Buchter'
p4074
aS'1.0'
p4075
aI0
aI0
aI0
aI0
aI1
aI0
aI1
asg1271
(lp4076
g1271
ag1273
aS'1.0'
p4077
aI2
aI1
aI1
aI0
aI1
aI0
aI0
asS'harrm001'
p4078
(lp4079
g4078
aS'Matt Harrison'
p4080
aS'17.1'
p4081
aI20
aI8
aI8
aI1
aI12
aI0
aI10
asS'tonkm001'
p4082
(lp4083
g4082
aS'Michael Tonkin'
p4084
aS'18.2'
p4085
aI23
aI13
aI10
aI2
aI6
aI0
aI16
asS'brotr001'
p4086
(lp4087
g4086
aS'Rex Brothers'
p4088
aS'56.1'
p4089
aI65
aI38
aI35
aI7
aI39
aI0
aI55
asg1718
(lp4090
g1718
ag1720
aS'174.0'
p4091
aI129
aI48
aI42
aI13
aI39
aI2
aI208
asS'shrec001'
p4092
(lp4093
g4092
aS'Chasen Shreve'
p4094
aS'12.1'
p4095
aI10
aI1
aI1
aI0
aI3
aI0
aI15
asg1724
(lp4096
g1724
ag1726
aS'200.1'
p4097
aI197
aI87
aI74
aI10
aI52
aI3
aI178
asS'gelts001'
p4098
(lp4099
g4098
aS'Steve Geltz'
p4100
aS'8.0'
p4101
aI6
aI3
aI3
aI3
aI5
aI0
aI14
asS'abadf001'
p4102
(lp4103
g4102
aS'Fernando Abad'
p4104
aS'57.1'
p4105
aI34
aI11
aI10
aI4
aI15
aI3
aI51
asg1619
(lp4106
g1619
ag1621
aS'1.0'
p4107
aI0
aI0
aI0
aI0
aI1
aI0
aI0
asS'delas001'
p4108
(lp4109
g4108
aS'Steve Delabar'
p4110
aS'25.1'
p4111
aI19
aI14
aI14
aI3
aI19
aI0
aI21
asS'oterd001'
p4112
(lp4113
g4112
aS'Dan Otero'
p4114
aS'86.1'
p4115
aI80
aI24
aI22
aI4
aI15
aI7
aI45
asg2639
(lp4116
g2639
ag2641
aS'162.1'
p4117
aI130
aI68
aI61
aI13
aI81
aI3
aI175
asg1739
(lp4118
g1739
ag1741
aS'62.0'
p4119
aI70
aI24
aI22
aI6
aI23
aI7
aI38
asS'webbd001'
p4120
(lp4121
g4120
aS'Daniel Webb'
p4122
aS'67.2'
p4123
aI59
aI31
aI30
aI6
aI42
aI5
aI58
asS'franf001'
p4124
(lp4125
g4124
aS'Frank Francisco'
p4126
aS'3.2'
p4127
aI7
aI6
aI5
aI2
aI3
aI0
aI5
asS'olivl001'
p4128
(lp4129
g4128
aS'Lester Oliveros'
p4130
aS'6.0'
p4131
aI6
aI5
aI3
aI2
aI3
aI0
aI5
asg1751
(lp4132
g1751
ag1753
aS'12.2'
p4133
aI15
aI9
aI9
aI3
aI2
aI0
aI7
asS'harrw002'
p4134
(lp4135
g4134
aS'Will Harris'
p4136
aS'28.2'
p4137
aI27
aI14
aI14
aI3
aI9
aI2
aI35
asS'swara001'
p4138
(lp4139
g4138
aS'Anthony Swarzak'
p4140
aS'85.2'
p4141
aI100
aI48
aI44
aI5
aI28
aI5
aI47
asS'feier001'
p4142
(lp4143
g4142
aS'Ryan Feierabend'
p4144
aS'7.0'
p4145
aI12
aI5
aI5
aI0
aI2
aI1
aI4
asS'thomi001'
p4146
(lp4147
g4146
aS'Ian Thomas'
p4148
aS'10.2'
p4149
aI10
aI5
aI5
aI0
aI6
aI1
aI13
asS'badeb001'
p4150
(lp4151
g4150
aS'Burke Badenhop'
p4152
aS'70.2'
p4153
aI70
aI20
aI18
aI1
aI19
aI5
aI40
asS'guerm001'
p4154
(lp4155
g4154
aS'Matt Guerrier'
p4156
aS'27.2'
p4157
aI30
aI12
aI12
aI1
aI10
aI3
aI12
asS'rosis001'
p4158
(lp4159
g4158
aS'Seth Rosin'
p4160
aS'4.0'
p4161
aI6
aI3
aI3
aI0
aI1
aI0
aI3
asS'britd001'
p4162
(lp4163
g4162
aS'Drake Britton'
p4164
aS'6.1'
p4165
aI5
aI0
aI0
aI0
aI2
aI0
aI4
asS'varva001'
p4166
(lp4167
g4166
aS'Anthony Varvaro'
p4168
aS'54.2'
p4169
aI46
aI18
aI16
aI5
aI13
aI1
aI50
asg1775
(lp4170
g1775
ag1777
aS'39.1'
p4171
aI39
aI21
aI21
aI10
aI16
aI0
aI15
asg314
(lp4172
g314
ag316
aS'81.0'
p4173
aI100
aI40
aI33
aI7
aI12
aI0
aI72
asg1790
(lp4174
g1790
ag1792
aS'144.0'
p4175
aI133
aI54
aI49
aI13
aI49
aI1
aI182
asg1796
(lp4176
g1796
ag1798
aS'51.2'
p4177
aI36
aI19
aI15
aI4
aI13
aI1
aI70
asg1805
(lp4178
g1805
ag1807
aS'0.1'
p4179
aI0
aI0
aI0
aI0
aI0
aI0
aI0
asg1808
(lp4180
g1808
ag1810
aS'204.1'
p4181
aI215
aI88
aI81
aI15
aI71
aI4
aI161
asS'thorm001'
p4182
(lp4183
g4182
aS'Matt Thornton'
p4184
aS'35.2'
p4185
aI33
aI9
aI7
aI0
aI8
aI2
aI28
asS'delad001'
p4186
(lp4187
g4186
aS'Dane DeLaRosa'
p4188
aS'2.0'
p4189
aI3
aI3
aI3
aI0
aI3
aI1
aI0
asg1817
(lp4190
g1817
ag1819
aS'116.2'
p4191
aI97
aI51
aI48
aI12
aI22
aI5
aI133
asg1820
(lp4192
g1820
ag1822
aS'248.1'
p4193
aI230
aI100
aI91
aI25
aI38
aI1
aI271
asg2807
(lp4194
g2807
ag2809
aS'117.2'
p4195
aI128
aI62
aI55
aI16
aI37
aI2
aI75
asS'mercm001'
p4196
(lp4197
g4196
aS'Melvin Mercedes'
p4198
aS'1.2'
p4199
aI0
aI0
aI0
aI0
aI0
aI0
aI2
asg1829
(lp4200
g1829
ag1831
aS'12.2'
p4201
aI16
aI10
aI10
aI1
aI5
aI1
aI8
asg1835
(lp4202
g1835
ag1837
aS'112.2'
p4203
aI148
aI81
aI77
aI12
aI33
aI2
aI71
asS'qualc001'
p4204
(lp4205
g4204
aS'Chad Qualls'
p4206
aS'51.1'
p4207
aI54
aI22
aI19
aI5
aI5
aI2
aI43
asS'duenb001'
p4208
(lp4209
g4208
aS'Brian Duensing'
p4210
aS'54.1'
p4211
aI52
aI20
aI20
aI6
aI20
aI2
aI33
asS'leroc001'
p4212
(lp4213
g4212
aS'Chris Leroux'
p4214
aS'1.2'
p4215
aI7
aI5
aI5
aI0
aI2
aI1
aI3
asS'scahr001'
p4216
(lp4217
g4216
aS'Rob Scahill'
p4218
aS'15.0'
p4219
aI17
aI8
aI8
aI3
aI9
aI2
aI11
asS'mattr001'
p4220
(lp4221
g4220
aS'Ryan Mattheus'
p4222
aS'8.1'
p4223
aI7
aI1
aI1
aI0
aI4
aI0
aI4
asS'warra001'
p4224
(lp4225
g4224
aS'Adam Warren'
p4226
aS'78.1'
p4227
aI63
aI27
aI26
aI4
aI24
aI1
aI76
asS'hillr001'
p4228
(lp4229
g4228
aS'Rich Hill'
p4230
aS'5.0'
p4231
aI7
aI2
aI2
aI0
aI6
aI1
aI9
asg1856
(lp4232
g1856
ag1858
aS'149.0'
p4233
aI113
aI52
aI43
aI12
aI53
aI2
aI113
asS'kells001'
p4234
(lp4235
g4234
aS'Shawn Kelley'
p4236
aS'51.2'
p4237
aI45
aI26
aI26
aI5
aI20
aI4
aI67
asS'presr001'
p4238
(lp4239
g4238
aS'Ryan Pressly'
p4240
aS'28.0'
p4241
aI30
aI10
aI9
aI3
aI8
aI2
aI14
asS'alvar001'
p4242
(lp4243
g4242
aS'R.J. Alvarez'
p4244
aS'7.2'
p4245
aI3
aI1
aI1
aI0
aI5
aI1
aI9
asS'wilsb001'
p4246
(lp4247
g4246
aS'Brian Wilson'
p4248
aS'48.1'
p4249
aI49
aI26
aI25
aI5
aI29
aI3
aI54
asS'colel001'
p4250
(lp4251
g4250
aS'Louis Coleman'
p4252
aS'33.2'
p4253
aI39
aI21
aI21
aI6
aI18
aI1
aI24
asS'massn001'
p4254
(lp4255
g4254
aS'Nick Masset'
p4256
aS'45.0'
p4257
aI56
aI31
aI29
aI3
aI24
aI0
aI36
asg2597
(lp4258
g2597
ag2599
aS'136.0'
p4259
aI123
aI47
aI42
aI15
aI21
aI0
aI141
asg1886
(lp4260
g1886
ag1888
aS'112.2'
p4261
aI107
aI59
aI54
aI9
aI30
aI1
aI86
asS'logab001'
p4262
(lp4263
g4262
aS'Boone Logan'
p4264
aS'24.2'
p4265
aI31
aI20
aI18
aI6
aI11
aI1
aI32
asS'bonil001'
p4266
(lp4267
g4266
aS'Lisalverto Bonilla'
p4268
aS'20.1'
p4269
aI13
aI8
aI7
aI2
aI12
aI1
aI17
asS'salaf001'
p4270
(lp4271
g4270
aS'Fernando Salas'
p4272
aS'58.2'
p4273
aI50
aI22
aI22
aI5
aI14
aI4
aI61
asg1907
(lp4274
g1907
ag1909
aS'8.2'
p4275
aI17
aI10
aI9
aI2
aI3
aI1
aI6
asg1916
(lp4276
g1916
ag1918
aS'145.0'
p4277
aI165
aI77
aI77
aI21
aI44
aI2
aI120
asg1919
(lp4278
g1919
ag1921
aS'173.2'
p4279
aI190
aI110
aI97
aI20
aI76
aI1
aI146
asS'darnl001'
p4280
(lp4281
g4280
aS'Logan Darnell'
p4282
aS'23.2'
p4283
aI31
aI20
aI19
aI5
aI8
aI0
aI22
asS'moorm003'
p4284
(lp4285
g4284
aS'Matt Moore'
p4286
aS'10.0'
p4287
aI10
aI3
aI3
aI1
aI5
aI0
aI6
asS'putnz001'
p4288
(lp4289
g4288
aS'Zach Putnam'
p4290
aS'54.2'
p4291
aI39
aI14
aI12
aI2
aI20
aI1
aI46
asS'patej001'
p4292
(lp4293
g4292
aS'Joe Paterson'
p4294
aS'1.0'
p4295
aI4
aI5
aI5
aI0
aI1
aI0
aI0
asg2237
(lp4296
g2237
ag2239
aS'215.2'
p4297
aI191
aI101
aI89
aI26
aI74
aI2
aI173
asg1142
(lp4298
g1142
ag1144
aS'32.0'
p4299
aI24
aI10
aI10
aI1
aI11
aI3
aI27
asS'burtj001'
p4300
(lp4301
g4300
aS'Jared Burton'
p4302
aS'64.0'
p4303
aI58
aI34
aI31
aI6
aI25
aI3
aI46
asS'rossz001'
p4304
(lp4305
g4304
aS'Zach Rosscup'
p4306
aS'13.1'
p4307
aI14
aI14
aI14
aI2
aI12
aI1
aI21
asg1967
(lp4308
g1967
ag1969
aS'58.1'
p4309
aI35
aI13
aI11
aI3
aI15
aI2
aI45
asg1970
(lp4310
g1970
ag1972
aS'63.0'
p4311
aI57
aI26
aI25
aI3
aI24
aI3
aI59
asg1976
(lp4312
g1976
ag1978
aS'184.2'
p4313
aI178
aI86
aI82
aI18
aI58
aI2
aI151
asg1979
(lp4314
g1979
ag1981
aS'43.2'
p4315
aI39
aI20
aI20
aI6
aI7
aI0
aI39
asS'farnk001'
p4316
(lp4317
g4316
aS'Kyle Farnsworth'
p4318
aS'28.1'
p4319
aI32
aI14
aI14
aI2
aI15
aI2
aI18
asg1994
(lp4320
g1994
ag1996
aS'27.0'
p4321
aI19
aI6
aI4
aI2
aI6
aI0
aI28
asg827
(lp4322
g827
ag829
aS'142.0'
p4323
aI166
aI90
aI85
aI24
aI65
aI4
aI100
asS'beatp001'
p4324
(lp4325
g4324
aS'Pedro Beato'
p4326
aS'4.0'
p4327
aI3
aI0
aI0
aI0
aI3
aI0
aI3
asS'lannj001'
p4328
(lp4329
g4328
aS'John Lannan'
p4330
aS'4.0'
p4331
aI7
aI7
aI7
aI3
aI2
aI0
aI2
asS'patts002'
p4332
(lp4333
g4332
aS'Spencer Patton'
p4334
aS'9.0'
p4335
aI6
aI1
aI1
aI0
aI2
aI0
aI8
asS'eveld001'
p4336
(lp4337
g4336
aS'Dana Eveland'
p4338
aS'27.0'
p4339
aI24
aI8
aI8
aI2
aI6
aI1
aI27
asg2009
(lp4340
g2009
ag2011
aS'13.1'
p4341
aI17
aI7
aI7
aI2
aI9
aI0
aI12
asg2012
(lp4342
g2012
ag2014
aS'63.0'
p4343
aI68
aI34
aI29
aI5
aI21
aI4
aI39
asg2018
(lp4344
g2018
ag2020
aS'20.1'
p4345
aI30
aI18
aI16
aI6
aI7
aI1
aI18
asS'garcf003'
p4346
(lp4347
g4346
aS'Frank Garces'
p4348
aS'8.2'
p4349
aI8
aI2
aI2
aI1
aI1
aI0
aI10
asg2027
(lp4350
g2027
ag2029
aS'63.1'
p4351
aI62
aI33
aI32
aI12
aI35
aI2
aI61
asS'porea001'
p4352
(lp4353
g4352
aS'Aaron Poreda'
p4354
aS'21.0'
p4355
aI30
aI14
aI14
aI2
aI7
aI1
aI21
asg2030
(lp4356
g2030
ag2032
aS'204.2'
p4357
aI176
aI60
aI56
aI14
aI59
aI3
aI198
asg2033
(lp4358
g2033
ag2035
aS'22.2'
p4359
aI24
aI17
aI17
aI1
aI14
aI5
aI16
asg2036
(lp4360
g2036
ag2038
aS'117.1'
p4361
aI120
aI52
aI52
aI9
aI44
aI1
aI91
asS'koreb001'
p4362
(lp4363
g4362
aS'Bobby Korecky'
p4364
aS'3.0'
p4365
aI4
aI3
aI3
aI0
aI1
aI0
aI2
asS'peraj002'
p4366
(lp4367
g4366
aS'Joel Peralta'
p4368
aS'63.1'
p4369
aI60
aI31
aI31
aI9
aI15
aI1
aI74
asS'holld003'
p4370
(lp4371
g4370
aS'Derek Holland'
p4372
aS'36.2'
p4373
aI34
aI8
aI6
aI0
aI5
aI1
aI25
asS'baezp001'
p4374
(lp4375
g4374
aS'Pedro Baez'
p4376
aS'23.2'
p4377
aI16
aI7
aI7
aI3
aI5
aI1
aI18
asS'alvad001'
p4378
(lp4379
g4378
aS'Dario Alvarez'
p4380
aS'1.0'
p4381
aI4
aI2
aI2
aI1
aI0
aI0
aI1
asg1673
(lp4382
g1673
ag1675
aS'145.2'
p4383
aI142
aI64
aI57
aI17
aI49
aI3
aI136
asS'adcon001'
p4384
(lp4385
g4384
aS'Nathan Adcock'
p4386
aS'9.2'
p4387
aI11
aI5
aI5
aI2
aI5
aI0
aI9
asg839
(lp4388
g839
ag841
aS'179.1'
p4389
aI178
aI91
aI89
aI12
aI57
aI0
aI107
asS'norrd002'
p4390
(lp4391
g4390
aS'Daniel Norris'
p4392
aS'6.1'
p4393
aI5
aI4
aI4
aI1
aI5
aI0
aI4
asS'savej001'
p4394
(lp4395
g4394
aS'Joe Savery'
p4396
aS'4.0'
p4397
aI3
aI0
aI0
aI0
aI1
aI0
aI0
asS'diazj006'
p4398
(lp4399
g4398
aS'Jairo Diaz'
p4400
aS'5.1'
p4401
aI4
aI2
aI2
aI0
aI3
aI0
aI8
asg2090
(lp4402
g2090
ag2092
aS'8.1'
p4403
aI11
aI7
aI7
aI2
aI1
aI0
aI8
asS'saunj001'
p4404
(lp4405
g4404
aS'Joe Saunders'
p4406
aS'43.0'
p4407
aI65
aI37
aI32
aI9
aI24
aI1
aI23
asS'papej001'
p4408
(lp4409
g4408
aS'Jonathan Papelbon'
p4410
aS'66.1'
p4411
aI45
aI15
aI15
aI2
aI15
aI1
aI63
asS'chapa001'
p4412
(lp4413
g4412
aS'Aroldis Chapman'
p4414
aS'54.0'
p4415
aI21
aI12
aI12
aI1
aI24
aI0
aI106
asS'marim001'
p4416
(lp4417
g4416
aS'Michael Mariot'
p4418
aS'24.2'
p4419
aI31
aI21
aI18
aI2
aI12
aI1
aI21
asS'reeda001'
p4420
(lp4421
g4420
aS'Addison Reed'
p4422
aS'59.1'
p4423
aI57
aI31
aI28
aI11
aI15
aI2
aI69
asS'guerj002'
p4424
(lp4425
g4424
aS'Javy Guerra'
p4426
aS'46.1'
p4427
aI41
aI15
aI15
aI3
aI20
aI5
aI38
asS'atchs001'
p4428
(lp4429
g4428
aS'Scott Atchison'
p4430
aS'72.0'
p4431
aI60
aI24
aI22
aI4
aI14
aI4
aI49
asg2123
(lp4432
g2123
ag2125
aS'213.2'
p4433
aI205
aI122
aI110
aI20
aI96
aI2
aI190
asS'beimj001'
p4434
(lp4435
g4434
aS'Joe Beimel'
p4436
aS'45.0'
p4437
aI39
aI12
aI11
aI4
aI14
aI4
aI25
asS'vizca001'
p4438
(lp4439
g4438
aS'Arodys Vizcaino'
p4440
aS'5.0'
p4441
aI5
aI3
aI3
aI1
aI3
aI0
aI4
asS'loupa001'
p4442
(lp4443
g4442
aS'Aaron Loup'
p4444
aS'68.2'
p4445
aI50
aI25
aI24
aI4
aI30
aI5
aI56
asS'cookr001'
p4446
(lp4447
g4446
aS'Ryan Cook'
p4448
aS'50.0'
p4449
aI32
aI19
aI19
aI3
aI22
aI1
aI50
asS'farqd001'
p4450
(lp4451
g4450
aS'Danny Farquhar'
p4452
aS'71.0'
p4453
aI58
aI23
aI21
aI5
aI22
aI1
aI81
asS'stord001'
p4454
(lp4455
g4454
aS'Drew Storen'
p4456
aS'56.1'
p4457
aI44
aI8
aI7
aI2
aI11
aI3
aI46
asg2165
(lp4458
g2165
ag2167
aS'158.0'
p4459
aI160
aI78
aI73
aI22
aI51
aI0
aI133
asS'hageb001'
p4460
(lp4461
g4460
aS'Bradin Hagens'
p4462
aS'2.1'
p4463
aI4
aI1
aI1
aI0
aI3
aI1
aI2
asS'guilp001'
p4464
(lp4465
g4464
aS'Preston Guilmet'
p4466
aS'10.1'
p4467
aI8
aI6
aI5
aI2
aI2
aI0
aI12
asS'pattt001'
p4468
(lp4469
g4468
aS'Troy Patton'
p4470
aS'14.0'
p4471
aI16
aI8
aI8
aI2
aI5
aI1
aI13
asg2186
(lp4472
g2186
ag2188
aS'176.1'
p4473
aI154
aI70
aI68
aI23
aI44
aI2
aI158
asg2189
(lp4474
g2189
ag2191
aS'45.2'
p4475
aI50
aI30
aI29
aI8
aI17
aI0
aI44
asS'huntt002'
p4476
(lp4477
g4476
aS'Tommy Hunter'
p4478
aS'60.2'
p4479
aI55
aI22
aI20
aI4
aI12
aI3
aI45
asg2318
(lp4480
g2318
ag2320
aS'5.0'
p4481
aI6
aI3
aI3
aI0
aI3
aI0
aI4
asS'ramij004'
p4482
(lp4483
g4482
aS'Jose Ramirez'
p4484
aS'9.2'
p4485
aI11
aI6
aI6
aI2
aI7
aI0
aI10
asg2198
(lp4486
g2198
ag2200
aS'80.1'
p4487
aI82
aI49
aI49
aI15
aI14
aI3
aI55
asg2201
(lp4488
g2201
ag2203
aS'220.1'
p4489
aI196
aI80
aI77
aI18
aI63
aI1
aI252
asg2204
(lp4490
g2204
ag2206
aS'206.0'
p4491
aI223
aI114
aI104
aI18
aI65
aI1
aI159
asS'axfoj001'
p4492
(lp4493
g4492
aS'John Axford'
p4494
aS'54.2'
p4495
aI43
aI26
aI24
aI6
aI36
aI3
aI63
asg1184
(lp4496
g1184
ag1186
aS'115.1'
p4497
aI96
aI41
aI37
aI17
aI39
aI2
aI107
asS'claua001'
p4498
(lp4499
g4498
aS'Alex Claudio'
p4500
aS'12.1'
p4501
aI14
aI4
aI4
aI0
aI4
aI0
aI14
asS'billb002'
p4502
(lp4503
g4502
aS'Bruce Billings'
p4504
aS'4.0'
p4505
aI4
aI4
aI4
aI2
aI1
aI0
aI7
asg2225
(lp4506
g2225
ag2227
aS'62.1'
p4507
aI48
aI24
aI22
aI6
aI25
aI1
aI54
asS'achta001'
p4508
(lp4509
g4508
aS'A.J. Achter'
p4510
aS'11.0'
p4511
aI14
aI7
aI4
aI2
aI3
aI0
aI5
asS'nolis001'
p4512
(lp4513
g4512
aS'Sean Nolin'
p4514
aS'1.0'
p4515
aI1
aI1
aI1
aI1
aI0
aI0
aI0
asS'westm002'
p4516
(lp4517
g4516
aS'Matt West'
p4518
aS'4.0'
p4519
aI6
aI3
aI3
aI0
aI1
aI0
aI3
asS'stinj001'
p4520
(lp4521
g4520
aS'Josh Stinson'
p4522
aS'13.0'
p4523
aI16
aI9
aI9
aI2
aI6
aI0
aI6
asS'rasmr001'
p4524
(lp4525
g4524
aS'Rob Rasmussen'
p4526
aS'11.1'
p4527
aI8
aI4
aI4
aI1
aI7
aI0
aI13
asS'veraj001'
p4528
(lp4529
g4528
aS'Jose Veras'
p4530
aS'46.0'
p4531
aI37
aI25
aI23
aI6
aI27
aI1
aI50
asg2240
(lp4532
g2240
ag2242
aS'114.0'
p4533
aI117
aI56
aI51
aI16
aI40
aI2
aI105
asS'buenf001'
p4534
(lp4535
g4534
aS'Francisley Bueno'
p4536
aS'32.0'
p4537
aI36
aI16
aI15
aI3
aI7
aI2
aI20
asS'riefc001'
p4538
(lp4539
g4538
aS'C.J. Riefenhauser'
p4540
aS'5.0'
p4541
aI6
aI5
aI5
aI0
aI3
aI1
aI2
asS'nathj001'
p4542
(lp4543
g4542
aS'Joe Nathan'
p4544
aS'58.0'
p4545
aI60
aI32
aI31
aI5
aI29
aI3
aI54
asg2252
(lp4546
g2252
ag2254
aS'217.1'
p4547
aI194
aI81
aI72
aI21
aI43
aI3
aI219
asg2255
(lp4548
g2255
ag2257
aS'58.2'
p4549
aI49
aI19
aI16
aI3
aI17
aI1
aI74
asS'burns001'
p4550
(lp4551
g4550
aS'Sean Burnett'
p4552
aS'0.2'
p4553
aI1
aI1
aI1
aI0
aI0
aI0
aI0
asS'holdj001'
p4554
(lp4555
g4554
aS'John Holdzkom'
p4556
aS'8.2'
p4557
aI4
aI2
aI2
aI1
aI2
aI0
aI14
asS'wilht001'
p4558
(lp4559
g4558
aS'Tom Wilhelmsen'
p4560
aS'79.0'
p4561
aI47
aI22
aI20
aI6
aI36
aI6
aI72
asS'cletm001'
p4562
(lp4563
g4562
aS'Maikel Cleto'
p4564
aS'29.0'
p4565
aI24
aI18
aI15
aI3
aI23
aI2
aI32
asS'woodb004'
p4566
(lp4567
g4566
aS'Blake Wood'
p4568
aS'6.0'
p4569
aI4
aI5
aI5
aI0
aI7
aI2
aI7
asS'campl001'
p4570
(lp4571
g4570
aS'Leonel Campos'
p4572
aS'6.2'
p4573
aI9
aI5
aI4
aI0
aI4
aI0
aI9
asS'frasj002'
p4574
(lp4575
g4574
aS'Jason Frasor'
p4576
aS'47.1'
p4577
aI40
aI17
aI14
aI3
aI18
aI2
aI46
asS'siegk001'
p4578
(lp4579
g4578
aS'Kevin Siegrist'
p4580
aS'30.0'
p4581
aI32
aI23
aI23
aI5
aI16
aI0
aI37
asS'may-t001'
p4582
(lp4583
g4582
aS'Trevor May'
p4584
aS'45.2'
p4585
aI59
aI41
aI40
aI7
aI22
aI1
aI44
asg890
(lp4586
g890
ag892
aS'189.1'
p4587
aI199
aI85
aI75
aI15
aI34
aI3
aI120
asS'diekj001'
p4588
(lp4589
g4588
aS'Jake Diekman'
p4590
aS'71.0'
p4591
aI66
aI36
aI29
aI4
aI35
aI5
aI100
asg2753
(lp4592
g2753
ag2755
aS'236.0'
p4593
aI170
aI68
aI56
aI16
aI46
aI1
aI248
asg2285
(lp4594
g2285
ag2287
aS'55.0'
p4595
aI44
aI22
aI22
aI5
aI11
aI1
aI62
asS'irwip001'
p4596
(lp4597
g4596
aS'Phil Irwin'
p4598
aS'4.0'
p4599
aI6
aI3
aI3
aI1
aI2
aI0
aI2
asS'outmj001'
p4600
(lp4601
g4600
aS'Josh Outman'
p4602
aS'28.0'
p4603
aI24
aI10
aI9
aI4
aI16
aI2
aI26
asg2303
(lp4604
g2303
ag2305
aS'87.0'
p4605
aI89
aI38
aI32
aI5
aI39
aI8
aI44
asS'affej001'
p4606
(lp4607
g4606
aS'Jeremy Affeldt'
p4608
aS'55.1'
p4609
aI47
aI14
aI14
aI1
aI14
aI1
aI41
asS'putzj001'
p4610
(lp4611
g4610
aS'J.J. Putz'
p4612
aS'13.2'
p4613
aI17
aI10
aI10
aI1
aI6
aI1
aI14
asg2693
(lp4614
g2693
ag2695
aS'29.2'
p4615
aI27
aI16
aI16
aI8
aI16
aI1
aI18
asS'drabk001'
p4616
(lp4617
g4616
aS'Kyle Drabek'
p4618
aS'3.0'
p4619
aI2
aI0
aI0
aI0
aI2
aI0
aI5
asS'valvj001'
p4620
(lp4621
g4620
aS'Jose Valverde'
p4622
aS'20.1'
p4623
aI24
aI16
aI14
aI4
aI10
aI3
aI23
asS'luetl001'
p4624
(lp4625
g4624
aS'Lucas Luetge'
p4626
aS'8.2'
p4627
aI6
aI5
aI5
aI3
aI5
aI0
aI7
asS'ortej001'
p4628
(lp4629
g4628
aS'Jose Ortega'
p4630
aS'1.0'
p4631
aI0
aI4
aI4
aI0
aI4
aI0
aI1
asg2342
(lp4632
g2342
ag2344
aS'126.1'
p4633
aI127
aI64
aI61
aI12
aI46
aI1
aI90
asS'sadlc002'
p4634
(lp4635
g4634
aS'Casey Sadler'
p4636
aS'10.1'
p4637
aI12
aI9
aI9
aI0
aI5
aI0
aI7
asg2348
(lp4638
g2348
ag2350
aS'65.1'
p4639
aI55
aI20
aI20
aI5
aI19
aI2
aI101
asg2351
(lp4640
g2351
ag2353
aS'25.1'
p4641
aI33
aI17
aI15
aI4
aI6
aI0
aI19
asg2357
(lp4642
g2357
ag2359
aS'72.2'
p4643
aI78
aI34
aI31
aI5
aI14
aI2
aI56
asS'carrs001'
p4644
(lp4645
g4644
aS'Scott Carroll'
p4646
aS'129.0'
p4647
aI147
aI81
aI69
aI13
aI45
aI1
aI64
asg2492
(lp4648
g2492
ag2494
aS'198.2'
p4649
aI178
aI64
aI63
aI16
aI39
aI1
aI138
asS'belir001'
p4650
(lp4651
g4650
aS'Ronald Belisario'
p4652
aS'66.1'
p4653
aI78
aI46
aI41
aI4
aI18
aI7
aI47
asS'gomeb001'
p4654
(lp4655
g4654
aS'Brandon Gomes'
p4656
aS'33.2'
p4657
aI28
aI14
aI14
aI5
aI11
aI2
aI24
asg2369
(lp4658
g2369
ag2371
aS'62.2'
p4659
aI56
aI36
aI35
aI13
aI31
aI3
aI75
asg2372
(lp4660
g2372
ag2374
aS'6.0'
p4661
aI7
aI8
aI8
aI2
aI3
aI0
aI8
asS'britz001'
p4662
(lp4663
g4662
aS'Zach Britton'
p4664
aS'76.1'
p4665
aI46
aI17
aI14
aI4
aI23
aI0
aI62
asS'harrl002'
p4666
(lp4667
g4666
aS'Lucas Harrell'
p4668
aS'12.1'
p4669
aI19
aI14
aI13
aI2
aI9
aI1
aI9
asg2399
(lp4670
g2399
ag2401
aS'63.2'
p4671
aI60
aI30
aI28
aI7
aI16
aI2
aI44
asS'boyeb001'
p4672
(lp4673
g4672
aS'Blaine Boyer'
p4674
aS'40.1'
p4675
aI34
aI16
aI16
aI2
aI8
aI0
aI29
asg2402
(lp4676
g2402
ag2404
aS'54.0'
p4677
aI46
aI25
aI20
aI2
aI33
aI1
aI51
asg2411
(lp4678
g2411
ag2413
aS'56.0'
p4679
aI55
aI22
aI21
aI4
aI12
aI1
aI60
asg464
(lp4680
g464
ag466
aS'1.0'
p4681
aI1
aI0
aI0
aI0
aI0
aI0
aI0
asS'rasmc002'
p4682
(lp4683
g4682
aS'Cory Rasmus'
p4684
aS'56.0'
p4685
aI42
aI17
aI16
aI5
aI17
aI1
aI57
asS'beavb001'
p4686
(lp4687
g4686
aS'Blake Beavan'
p4688
aS'4.0'
p4689
aI6
aI2
aI2
aI2
aI0
aI0
aI1
asg2423
(lp4690
g2423
ag2425
aS'64.1'
p4691
aI67
aI25
aI25
aI4
aI23
aI4
aI67
asg2429
(lp4692
g2429
ag2431
aS'198.0'
p4693
aI206
aI94
aI85
aI24
aI47
aI1
aI164
asS'allec002'
p4694
(lp4695
g4694
aS'Cody Allen'
p4696
aS'69.2'
p4697
aI48
aI21
aI17
aI7
aI26
aI5
aI91
asg2441
(lp4698
g2441
ag2443
aS'1.0'
p4699
aI4
aI3
aI3
aI2
aI0
aI0
aI1
asS'ottaa001'
p4700
(lp4701
g4700
aS'Adam Ottavino'
p4702
aS'65.0'
p4703
aI67
aI26
aI26
aI6
aI16
aI1
aI70
asS'downd001'
p4704
(lp4705
g4704
aS'Darin Downs'
p4706
aS'34.1'
p4707
aI28
aI22
aI21
aI2
aI19
aI2
aI27
asS'matub001'
p4708
(lp4709
g4708
aS'Brian Matusz'
p4710
aS'51.2'
p4711
aI51
aI23
aI20
aI7
aI17
aI4
aI53
asg2453
(lp4712
g2453
ag2455
aS'10.1'
p4713
aI8
aI4
aI4
aI2
aI5
aI0
aI7
asS'mendr002'
p4714
(lp4715
g4714
aS'Roman Mendez'
p4716
aS'32.2'
p4717
aI20
aI8
aI8
aI2
aI17
aI2
aI22
asS'strop001'
p4718
(lp4719
g4718
aS'Pedro Strop'
p4720
aS'61.0'
p4721
aI40
aI19
aI15
aI2
aI25
aI3
aI71
asg2462
(lp4722
g2462
ag2464
aS'150.1'
p4723
aI137
aI77
aI73
aI29
aI44
aI0
aI127
asS'vargj001'
p4724
(lp4725
g4724
aS'Jason Vargas'
p4726
aS'187.0'
p4727
aI197
aI82
aI77
aI19
aI41
aI4
aI128
asS'hollm003'
p4728
(lp4729
g4728
aS'Mario Hollands'
p4730
aS'47.0'
p4731
aI45
aI25
aI22
aI3
aI21
aI2
aI35
asg2477
(lp4732
g2477
ag2479
aS'193.2'
p4733
aI205
aI106
aI102
aI25
aI74
aI1
aI129
asS'rondh001'
p4734
(lp4735
g4734
aS'Hector Rondon'
p4736
aS'63.1'
p4737
aI52
aI21
aI17
aI2
aI15
aI0
aI63
asS'cecib001'
p4738
(lp4739
g4738
aS'Brett Cecil'
p4740
aS'53.1'
p4741
aI46
aI16
aI16
aI2
aI27
aI4
aI76
asS'rices001'
p4742
(lp4743
g4742
aS'Scott Rice'
p4744
aS'13.2'
p4745
aI15
aI9
aI9
aI1
aI12
aI1
aI13
asg2228
(lp4746
g2228
ag2230
aS'5.1'
p4747
aI6
aI3
aI3
aI0
aI2
aI0
aI2
asS'lowem002'
p4748
(lp4749
g4748
aS'Mark Lowe'
p4750
aS'6.2'
p4751
aI10
aI7
aI3
aI2
aI6
aI4
aI6
asS'bellt002'
p4752
(lp4753
g4752
aS'Trevor Bell'
p4754
aS'0.2'
p4755
aI5
aI5
aI5
aI0
aI2
aI0
aI0
asg953
(lp4756
g953
ag955
aS'1.0'
p4757
aI0
aI0
aI0
aI0
aI1
aI0
aI0
asg2510
(lp4758
g2510
ag2512
aS'13.0'
p4759
aI12
aI8
aI8
aI2
aI6
aI3
aI8
asS'dunnm002'
p4760
(lp4761
g4760
aS'Michael Dunn'
p4762
aS'57.0'
p4763
aI47
aI25
aI20
aI4
aI22
aI1
aI67
asS'sorij001'
p4764
(lp4765
g4764
aS'Joakim Soria'
p4766
aS'44.1'
p4767
aI38
aI19
aI16
aI2
aI6
aI2
aI48
asS'escoe002'
p4768
(lp4769
g4768
aS'Edwin Escobar'
p4770
aS'1.2'
p4771
aI1
aI1
aI1
aI0
aI0
aI0
aI2
asg2537
(lp4772
g2537
ag2539
aS'93.1'
p4773
aI98
aI41
aI38
aI9
aI41
aI8
aI98
asg2540
(lp4774
g2540
ag2542
aS'203.2'
p4775
aI185
aI72
aI62
aI13
aI72
aI1
aI181
asg2543
(lp4776
g2543
ag2545
aS'183.0'
p4777
aI168
aI70
aI65
aI14
aI69
aI1
aI159
asS'whelk001'
p4778
(lp4779
g4778
aS'Kevin Whelan'
p4780
aS'1.0'
p4781
aI3
aI2
aI2
aI2
aI2
aI0
aI1
asg2552
(lp4782
g2552
ag2554
aS'23.1'
p4783
aI27
aI18
aI17
aI1
aI15
aI1
aI18
asg2555
(lp4784
g2555
ag2557
aS'93.1'
p4785
aI107
aI59
aI56
aI19
aI31
aI1
aI63
asg2564
(lp4786
g2564
ag2566
aS'20.2'
p4787
aI24
aI9
aI7
aI1
aI10
aI3
aI16
asg2567
(lp4788
g2567
ag2569
aS'14.1'
p4789
aI18
aI6
aI4
aI3
aI4
aI0
aI10
asg2570
(lp4790
g2570
ag2572
aS'140.0'
p4791
aI150
aI79
aI71
aI18
aI55
aI1
aI77
asS'farmb001'
p4792
(lp4793
g4792
aS'Buck Farmer'
p4794
aS'9.0'
p4795
aI12
aI12
aI12
aI2
aI5
aI0
aI11
asS'frees001'
p4796
(lp4797
g4796
aS'Sam Freeman'
p4798
aS'38.0'
p4799
aI34
aI13
aI11
aI2
aI19
aI0
aI35
asg2585
(lp4800
g2585
ag2587
aS'117.1'
p4801
aI120
aI55
aI50
aI12
aI32
aI2
aI71
asS'hardb001'
p4802
(lp4803
g4802
aS'Blaine Hardy'
p4804
aS'39.0'
p4805
aI34
aI12
aI11
aI1
aI20
aI3
aI31
asS'dennr001'
p4806
(lp4807
g4806
aS'Ryan Dennick'
p4808
aS'4.1'
p4809
aI7
aI7
aI6
aI2
aI4
aI0
aI3
asS'pinoy001'
p4810
(lp4811
g4810
aS'Yohan Pino'
p4812
aS'60.1'
p4813
aI66
aI37
aI34
aI8
aI14
aI0
aI50
asg2600
(lp4814
g2600
ag2602
aS'96.0'
p4815
aI85
aI44
aI36
aI6
aI32
aI0
aI65
asS'benoj001'
p4816
(lp4817
g4816
aS'Joaquin Benoit'
p4818
aS'54.1'
p4819
aI28
aI10
aI9
aI3
aI14
aI2
aI64
asg2609
(lp4820
g2609
ag2611
aS'30.0'
p4821
aI30
aI15
aI15
aI7
aI14
aI1
aI31
asS'markj001'
p4822
(lp4823
g4822
aS'Justin Marks'
p4824
aS'1.2'
p4825
aI4
aI3
aI3
aI0
aI3
aI0
aI2
asg2618
(lp4826
g2618
ag2620
aS'133.2'
p4827
aI103
aI40
aI38
aI7
aI29
aI1
aI140
asS'wrigs001'
p4828
(lp4829
g4828
aS'Steven Wright'
p4830
aS'20.2'
p4831
aI21
aI8
aI6
aI2
aI4
aI0
aI22
asg2630
(lp4832
g2630
ag2632
aS'11.0'
p4833
aI10
aI5
aI4
aI0
aI7
aI1
aI6
asS'capuc001'
p4834
(lp4835
g4834
aS'Chris Capuano'
p4836
aS'97.0'
p4837
aI101
aI51
aI47
aI10
aI34
aI3
aI84
asS'jansc001'
p4838
(lp4839
g4838
aS'Casey Janssen'
p4840
aS'45.2'
p4841
aI47
aI22
aI20
aI6
aI7
aI0
aI28
asg2642
(lp4842
g2642
ag2644
aS'28.1'
p4843
aI43
aI26
aI26
aI5
aI11
aI0
aI19
asg2645
(lp4844
g2645
ag2647
aS'69.1'
p4845
aI67
aI28
aI25
aI7
aI19
aI1
aI57
asg1799
(lp4846
g1799
ag1801
aS'77.1'
p4847
aI64
aI16
aI14
aI5
aI15
aI0
aI81
asg2654
(lp4848
g2654
ag2656
aS'125.2'
p4849
aI128
aI65
aI60
aI15
aI44
aI2
aI56
asg2657
(lp4850
g2657
ag2659
aS'191.1'
p4851
aI177
aI84
aI81
aI16
aI71
aI0
aI153
asg1850
(lp4852
g1850
ag1852
aS'50.2'
p4853
aI57
aI17
aI14
aI1
aI13
aI1
aI30
asS'fielj002'
p4854
(lp4855
g4854
aS'Josh Fields'
p4856
aS'54.2'
p4857
aI50
aI29
aI26
aI2
aI17
aI3
aI70
asg2669
(lp4858
g2669
ag2671
aS'18.2'
p4859
aI13
aI9
aI9
aI2
aI10
aI0
aI15
asg2675
(lp4860
g2675
ag2677
aS'109.2'
p4861
aI117
aI57
aI52
aI13
aI35
aI4
aI120
asg2681
(lp4862
g2681
ag2683
aS'183.0'
p4863
aI160
aI78
aI76
aI22
aI73
aI4
aI127
asg2687
(lp4864
g2687
ag2689
aS'29.1'
p4865
aI24
aI14
aI14
aI1
aI21
aI0
aI28
asg2696
(lp4866
g2696
ag2698
aS'202.1'
p4867
aI190
aI69
aI61
aI19
aI43
aI3
aI207
asS'leesc001'
p4868
(lp4869
g4868
aS'Charlie Leesman'
p4870
aS'2.1'
p4871
aI9
aI6
aI6
aI1
aI1
aI0
aI0
asS'bellh001'
p4872
(lp4873
g4872
aS'Heath Bell'
p4874
aS'17.1'
p4875
aI24
aI16
aI14
aI1
aI8
aI1
aI12
asg2720
(lp4876
g2720
ag2722
aS'5.1'
p4877
aI6
aI3
aI3
aI1
aI4
aI1
aI4
asg2729
(lp4878
g2729
ag2731
aS'1.0'
p4879
aI0
aI0
aI0
aI0
aI0
aI0
aI1
asS'luekj001'
p4880
(lp4881
g4880
aS'Josh Lueke'
p4882
aS'30.0'
p4883
aI38
aI20
aI19
aI7
aI5
aI1
aI19
asS'tolls002'
p4884
(lp4885
g4884
aS'Shawn Tolleson'
p4886
aS'71.2'
p4887
aI56
aI23
aI22
aI10
aI28
aI5
aI69
asg2744
(lp4888
g2744
ag2746
aS'1.0'
p4889
aI1
aI0
aI0
aI0
aI0
aI0
aI1
asg2747
(lp4890
g2747
ag2749
aS'30.0'
p4891
aI36
aI17
aI16
aI2
aI15
aI1
aI17
asg2750
(lp4892
g2750
ag2752
aS'80.0'
p4893
aI72
aI24
aI22
aI4
aI15
aI2
aI47
asS'blacv001'
p4894
(lp4895
g4894
aS'Vic Black'
p4896
aS'34.1'
p4897
aI26
aI12
aI10
aI2
aI19
aI0
aI32
asS'quack001'
p4898
(lp4899
g4898
aS'Kevin Quackenbush'
p4900
aS'54.1'
p4901
aI42
aI15
aI15
aI2
aI18
aI4
aI56
asS'adama001'
p4902
(lp4903
g4902
aS'Austin Adams'
p4904
aS'6.2'
p4905
aI9
aI7
aI7
aI1
aI1
aI0
aI4
asg2774
(lp4906
g2774
ag2776
aS'202.1'
p4907
aI218
aI97
aI92
aI22
aI30
aI3
aI151
asg2780
(lp4908
g2780
ag2782
aS'137.2'
p4909
aI127
aI58
aI56
aI11
aI40
aI1
aI138
asg2783
(lp4910
g2783
ag2785
aS'32.2'
p4911
aI40
aI23
aI23
aI4
aI5
aI0
aI26
asS'figup001'
p4912
(lp4913
g4912
aS'Pedro Figueroa'
p4914
aS'8.2'
p4915
aI10
aI7
aI4
aI1
aI3
aI0
aI3
asg2438
(lp4916
g2438
ag2440
aS'187.0'
p4917
aI198
aI65
aI55
aI14
aI33
aI3
aI111
asS'butlk001'
p4918
(lp4919
g4918
aS'Keith Butler'
p4920
aS'1.2'
p4921
aI6
aI6
aI6
aI0
aI1
aI0
aI2
asS'partc001'
p4922
(lp4923
g4922
aS'Curtis Partch'
p4924
aS'6.2'
p4925
aI2
aI0
aI0
aI0
aI7
aI0
aI6
asg2804
(lp4926
g2804
ag2806
aS'46.1'
p4927
aI38
aI23
aI22
aI6
aI25
aI0
aI39
asS'morim002'
p4928
(lp4929
g4928
aS'Mike Morin'
p4930
aS'59.0'
p4931
aI51
aI22
aI19
aI3
aI19
aI6
aI54
asS'milla002'
p4932
(lp4933
g4932
aS'Andrew Miller'
p4934
aS'62.1'
p4935
aI33
aI16
aI14
aI3
aI17
aI2
aI103
asg2819
(lp4936
g2819
ag2821
aS'10.1'
p4937
aI7
aI1
aI1
aI1
aI0
aI0
aI6
asS'webbr001'
p4938
(lp4939
g4938
aS'Ryan Webb'
p4940
aS'49.1'
p4941
aI50
aI21
aI21
aI2
aI12
aI2
aI37
asS'sippt001'
p4942
(lp4943
g4942
aS'Tony Sipp'
p4944
aS'50.2'
p4945
aI28
aI19
aI19
aI5
aI17
aI2
aI63
asg2828
(lp4946
g2828
ag2830
aS'17.2'
p4947
aI23
aI16
aI15
aI2
aI6
aI1
aI8
asg2831
(lp4948
g2831
ag2833
aS'184.2'
p4949
aI173
aI92
aI92
aI23
aI60
aI1
aI184
asS'pinem001'
p4950
(lp4951
g4950
aS'Michael Pineda'
p4952
aS'76.0'
p4953
aI56
aI18
aI16
aI5
aI7
aI0
aI59
asg2834
(lp4954
g2834
ag2836
aS'70.2'
p4955
aI82
aI44
aI39
aI8
aI28
aI3
aI34
asS'friee001'
p4956
(lp4957
g4956
aS'Ernesto Frieri'
p4958
aS'41.2'
p4959
aI47
aI34
aI34
aI11
aI14
aI2
aI48
asg2837
(lp4960
g2837
ag2839
aS'63.1'
p4961
aI63
aI38
aI38
aI8
aI28
aI1
aI42
asg2840
(lp4962
g2840
ag2842
aS'79.1'
p4963
aI91
aI54
aI49
aI12
aI33
aI0
aI51
asa.